
qubesatV4.elf:     file format elf32-littlearm

Sections:
Idx Name          Size      VMA       LMA       File off  Algn
  0 .isr_vector   000000c0  08000000  08000000  00010000  2**0
                  CONTENTS, ALLOC, LOAD, READONLY, DATA
  1 .text         00006ab4  080000c0  080000c0  000100c0  2**2
                  CONTENTS, ALLOC, LOAD, READONLY, CODE
  2 .rodata       000001c0  08006b74  08006b74  00016b74  2**2
                  CONTENTS, ALLOC, LOAD, READONLY, DATA
  3 .ARM.extab    00000000  08006d34  08006d34  00020070  2**0
                  CONTENTS
  4 .ARM          00000008  08006d34  08006d34  00016d34  2**2
                  CONTENTS, ALLOC, LOAD, READONLY, DATA
  5 .preinit_array 00000000  08006d3c  08006d3c  00020070  2**0
                  CONTENTS, ALLOC, LOAD, DATA
  6 .init_array   00000004  08006d3c  08006d3c  00016d3c  2**2
                  CONTENTS, ALLOC, LOAD, DATA
  7 .fini_array   00000004  08006d40  08006d40  00016d40  2**2
                  CONTENTS, ALLOC, LOAD, DATA
  8 .data         00000070  20000000  08006d44  00020000  2**2
                  CONTENTS, ALLOC, LOAD, DATA
  9 .bss          0000016c  20000070  08006db4  00020070  2**2
                  ALLOC
 10 ._user_heap_stack 00000604  200001dc  08006db4  000201dc  2**0
                  ALLOC
 11 .ARM.attributes 00000028  00000000  00000000  00020070  2**0
                  CONTENTS, READONLY
 12 .debug_info   0000bd2c  00000000  00000000  00020098  2**0
                  CONTENTS, READONLY, DEBUGGING, OCTETS
 13 .debug_abbrev 00001a40  00000000  00000000  0002bdc4  2**0
                  CONTENTS, READONLY, DEBUGGING, OCTETS
 14 .debug_aranges 000009f0  00000000  00000000  0002d808  2**3
                  CONTENTS, READONLY, DEBUGGING, OCTETS
 15 .debug_ranges 00000948  00000000  00000000  0002e1f8  2**3
                  CONTENTS, READONLY, DEBUGGING, OCTETS
 16 .debug_macro  000151db  00000000  00000000  0002eb40  2**0
                  CONTENTS, READONLY, DEBUGGING, OCTETS
 17 .debug_line   0000c5e2  00000000  00000000  00043d1b  2**0
                  CONTENTS, READONLY, DEBUGGING, OCTETS
 18 .debug_str    000834c7  00000000  00000000  000502fd  2**0
                  CONTENTS, READONLY, DEBUGGING, OCTETS
 19 .comment      00000050  00000000  00000000  000d37c4  2**0
                  CONTENTS, READONLY
 20 .debug_frame  00002a74  00000000  00000000  000d3814  2**2
                  CONTENTS, READONLY, DEBUGGING, OCTETS

Disassembly of section .text:

080000c0 <__do_global_dtors_aux>:
 80000c0:	b510      	push	{r4, lr}
 80000c2:	4c06      	ldr	r4, [pc, #24]	; (80000dc <__do_global_dtors_aux+0x1c>)
 80000c4:	7823      	ldrb	r3, [r4, #0]
 80000c6:	2b00      	cmp	r3, #0
 80000c8:	d107      	bne.n	80000da <__do_global_dtors_aux+0x1a>
 80000ca:	4b05      	ldr	r3, [pc, #20]	; (80000e0 <__do_global_dtors_aux+0x20>)
 80000cc:	2b00      	cmp	r3, #0
 80000ce:	d002      	beq.n	80000d6 <__do_global_dtors_aux+0x16>
 80000d0:	4804      	ldr	r0, [pc, #16]	; (80000e4 <__do_global_dtors_aux+0x24>)
 80000d2:	e000      	b.n	80000d6 <__do_global_dtors_aux+0x16>
 80000d4:	bf00      	nop
 80000d6:	2301      	movs	r3, #1
 80000d8:	7023      	strb	r3, [r4, #0]
 80000da:	bd10      	pop	{r4, pc}
 80000dc:	20000070 	.word	0x20000070
 80000e0:	00000000 	.word	0x00000000
 80000e4:	08006b5c 	.word	0x08006b5c

080000e8 <frame_dummy>:
 80000e8:	4b04      	ldr	r3, [pc, #16]	; (80000fc <frame_dummy+0x14>)
 80000ea:	b510      	push	{r4, lr}
 80000ec:	2b00      	cmp	r3, #0
 80000ee:	d003      	beq.n	80000f8 <frame_dummy+0x10>
 80000f0:	4903      	ldr	r1, [pc, #12]	; (8000100 <frame_dummy+0x18>)
 80000f2:	4804      	ldr	r0, [pc, #16]	; (8000104 <frame_dummy+0x1c>)
 80000f4:	e000      	b.n	80000f8 <frame_dummy+0x10>
 80000f6:	bf00      	nop
 80000f8:	bd10      	pop	{r4, pc}
 80000fa:	46c0      	nop			; (mov r8, r8)
 80000fc:	00000000 	.word	0x00000000
 8000100:	20000074 	.word	0x20000074
 8000104:	08006b5c 	.word	0x08006b5c

08000108 <__gnu_thumb1_case_shi>:
 8000108:	b403      	push	{r0, r1}
 800010a:	4671      	mov	r1, lr
 800010c:	0849      	lsrs	r1, r1, #1
 800010e:	0040      	lsls	r0, r0, #1
 8000110:	0049      	lsls	r1, r1, #1
 8000112:	5e09      	ldrsh	r1, [r1, r0]
 8000114:	0049      	lsls	r1, r1, #1
 8000116:	448e      	add	lr, r1
 8000118:	bc03      	pop	{r0, r1}
 800011a:	4770      	bx	lr

0800011c <__udivsi3>:
 800011c:	2200      	movs	r2, #0
 800011e:	0843      	lsrs	r3, r0, #1
 8000120:	428b      	cmp	r3, r1
 8000122:	d374      	bcc.n	800020e <__udivsi3+0xf2>
 8000124:	0903      	lsrs	r3, r0, #4
 8000126:	428b      	cmp	r3, r1
 8000128:	d35f      	bcc.n	80001ea <__udivsi3+0xce>
 800012a:	0a03      	lsrs	r3, r0, #8
 800012c:	428b      	cmp	r3, r1
 800012e:	d344      	bcc.n	80001ba <__udivsi3+0x9e>
 8000130:	0b03      	lsrs	r3, r0, #12
 8000132:	428b      	cmp	r3, r1
 8000134:	d328      	bcc.n	8000188 <__udivsi3+0x6c>
 8000136:	0c03      	lsrs	r3, r0, #16
 8000138:	428b      	cmp	r3, r1
 800013a:	d30d      	bcc.n	8000158 <__udivsi3+0x3c>
 800013c:	22ff      	movs	r2, #255	; 0xff
 800013e:	0209      	lsls	r1, r1, #8
 8000140:	ba12      	rev	r2, r2
 8000142:	0c03      	lsrs	r3, r0, #16
 8000144:	428b      	cmp	r3, r1
 8000146:	d302      	bcc.n	800014e <__udivsi3+0x32>
 8000148:	1212      	asrs	r2, r2, #8
 800014a:	0209      	lsls	r1, r1, #8
 800014c:	d065      	beq.n	800021a <__udivsi3+0xfe>
 800014e:	0b03      	lsrs	r3, r0, #12
 8000150:	428b      	cmp	r3, r1
 8000152:	d319      	bcc.n	8000188 <__udivsi3+0x6c>
 8000154:	e000      	b.n	8000158 <__udivsi3+0x3c>
 8000156:	0a09      	lsrs	r1, r1, #8
 8000158:	0bc3      	lsrs	r3, r0, #15
 800015a:	428b      	cmp	r3, r1
 800015c:	d301      	bcc.n	8000162 <__udivsi3+0x46>
 800015e:	03cb      	lsls	r3, r1, #15
 8000160:	1ac0      	subs	r0, r0, r3
 8000162:	4152      	adcs	r2, r2
 8000164:	0b83      	lsrs	r3, r0, #14
 8000166:	428b      	cmp	r3, r1
 8000168:	d301      	bcc.n	800016e <__udivsi3+0x52>
 800016a:	038b      	lsls	r3, r1, #14
 800016c:	1ac0      	subs	r0, r0, r3
 800016e:	4152      	adcs	r2, r2
 8000170:	0b43      	lsrs	r3, r0, #13
 8000172:	428b      	cmp	r3, r1
 8000174:	d301      	bcc.n	800017a <__udivsi3+0x5e>
 8000176:	034b      	lsls	r3, r1, #13
 8000178:	1ac0      	subs	r0, r0, r3
 800017a:	4152      	adcs	r2, r2
 800017c:	0b03      	lsrs	r3, r0, #12
 800017e:	428b      	cmp	r3, r1
 8000180:	d301      	bcc.n	8000186 <__udivsi3+0x6a>
 8000182:	030b      	lsls	r3, r1, #12
 8000184:	1ac0      	subs	r0, r0, r3
 8000186:	4152      	adcs	r2, r2
 8000188:	0ac3      	lsrs	r3, r0, #11
 800018a:	428b      	cmp	r3, r1
 800018c:	d301      	bcc.n	8000192 <__udivsi3+0x76>
 800018e:	02cb      	lsls	r3, r1, #11
 8000190:	1ac0      	subs	r0, r0, r3
 8000192:	4152      	adcs	r2, r2
 8000194:	0a83      	lsrs	r3, r0, #10
 8000196:	428b      	cmp	r3, r1
 8000198:	d301      	bcc.n	800019e <__udivsi3+0x82>
 800019a:	028b      	lsls	r3, r1, #10
 800019c:	1ac0      	subs	r0, r0, r3
 800019e:	4152      	adcs	r2, r2
 80001a0:	0a43      	lsrs	r3, r0, #9
 80001a2:	428b      	cmp	r3, r1
 80001a4:	d301      	bcc.n	80001aa <__udivsi3+0x8e>
 80001a6:	024b      	lsls	r3, r1, #9
 80001a8:	1ac0      	subs	r0, r0, r3
 80001aa:	4152      	adcs	r2, r2
 80001ac:	0a03      	lsrs	r3, r0, #8
 80001ae:	428b      	cmp	r3, r1
 80001b0:	d301      	bcc.n	80001b6 <__udivsi3+0x9a>
 80001b2:	020b      	lsls	r3, r1, #8
 80001b4:	1ac0      	subs	r0, r0, r3
 80001b6:	4152      	adcs	r2, r2
 80001b8:	d2cd      	bcs.n	8000156 <__udivsi3+0x3a>
 80001ba:	09c3      	lsrs	r3, r0, #7
 80001bc:	428b      	cmp	r3, r1
 80001be:	d301      	bcc.n	80001c4 <__udivsi3+0xa8>
 80001c0:	01cb      	lsls	r3, r1, #7
 80001c2:	1ac0      	subs	r0, r0, r3
 80001c4:	4152      	adcs	r2, r2
 80001c6:	0983      	lsrs	r3, r0, #6
 80001c8:	428b      	cmp	r3, r1
 80001ca:	d301      	bcc.n	80001d0 <__udivsi3+0xb4>
 80001cc:	018b      	lsls	r3, r1, #6
 80001ce:	1ac0      	subs	r0, r0, r3
 80001d0:	4152      	adcs	r2, r2
 80001d2:	0943      	lsrs	r3, r0, #5
 80001d4:	428b      	cmp	r3, r1
 80001d6:	d301      	bcc.n	80001dc <__udivsi3+0xc0>
 80001d8:	014b      	lsls	r3, r1, #5
 80001da:	1ac0      	subs	r0, r0, r3
 80001dc:	4152      	adcs	r2, r2
 80001de:	0903      	lsrs	r3, r0, #4
 80001e0:	428b      	cmp	r3, r1
 80001e2:	d301      	bcc.n	80001e8 <__udivsi3+0xcc>
 80001e4:	010b      	lsls	r3, r1, #4
 80001e6:	1ac0      	subs	r0, r0, r3
 80001e8:	4152      	adcs	r2, r2
 80001ea:	08c3      	lsrs	r3, r0, #3
 80001ec:	428b      	cmp	r3, r1
 80001ee:	d301      	bcc.n	80001f4 <__udivsi3+0xd8>
 80001f0:	00cb      	lsls	r3, r1, #3
 80001f2:	1ac0      	subs	r0, r0, r3
 80001f4:	4152      	adcs	r2, r2
 80001f6:	0883      	lsrs	r3, r0, #2
 80001f8:	428b      	cmp	r3, r1
 80001fa:	d301      	bcc.n	8000200 <__udivsi3+0xe4>
 80001fc:	008b      	lsls	r3, r1, #2
 80001fe:	1ac0      	subs	r0, r0, r3
 8000200:	4152      	adcs	r2, r2
 8000202:	0843      	lsrs	r3, r0, #1
 8000204:	428b      	cmp	r3, r1
 8000206:	d301      	bcc.n	800020c <__udivsi3+0xf0>
 8000208:	004b      	lsls	r3, r1, #1
 800020a:	1ac0      	subs	r0, r0, r3
 800020c:	4152      	adcs	r2, r2
 800020e:	1a41      	subs	r1, r0, r1
 8000210:	d200      	bcs.n	8000214 <__udivsi3+0xf8>
 8000212:	4601      	mov	r1, r0
 8000214:	4152      	adcs	r2, r2
 8000216:	4610      	mov	r0, r2
 8000218:	4770      	bx	lr
 800021a:	e7ff      	b.n	800021c <__udivsi3+0x100>
 800021c:	b501      	push	{r0, lr}
 800021e:	2000      	movs	r0, #0
 8000220:	f000 f8f0 	bl	8000404 <__aeabi_idiv0>
 8000224:	bd02      	pop	{r1, pc}
 8000226:	46c0      	nop			; (mov r8, r8)

08000228 <__aeabi_uidivmod>:
 8000228:	2900      	cmp	r1, #0
 800022a:	d0f7      	beq.n	800021c <__udivsi3+0x100>
 800022c:	e776      	b.n	800011c <__udivsi3>
 800022e:	4770      	bx	lr

08000230 <__divsi3>:
 8000230:	4603      	mov	r3, r0
 8000232:	430b      	orrs	r3, r1
 8000234:	d47f      	bmi.n	8000336 <__divsi3+0x106>
 8000236:	2200      	movs	r2, #0
 8000238:	0843      	lsrs	r3, r0, #1
 800023a:	428b      	cmp	r3, r1
 800023c:	d374      	bcc.n	8000328 <__divsi3+0xf8>
 800023e:	0903      	lsrs	r3, r0, #4
 8000240:	428b      	cmp	r3, r1
 8000242:	d35f      	bcc.n	8000304 <__divsi3+0xd4>
 8000244:	0a03      	lsrs	r3, r0, #8
 8000246:	428b      	cmp	r3, r1
 8000248:	d344      	bcc.n	80002d4 <__divsi3+0xa4>
 800024a:	0b03      	lsrs	r3, r0, #12
 800024c:	428b      	cmp	r3, r1
 800024e:	d328      	bcc.n	80002a2 <__divsi3+0x72>
 8000250:	0c03      	lsrs	r3, r0, #16
 8000252:	428b      	cmp	r3, r1
 8000254:	d30d      	bcc.n	8000272 <__divsi3+0x42>
 8000256:	22ff      	movs	r2, #255	; 0xff
 8000258:	0209      	lsls	r1, r1, #8
 800025a:	ba12      	rev	r2, r2
 800025c:	0c03      	lsrs	r3, r0, #16
 800025e:	428b      	cmp	r3, r1
 8000260:	d302      	bcc.n	8000268 <__divsi3+0x38>
 8000262:	1212      	asrs	r2, r2, #8
 8000264:	0209      	lsls	r1, r1, #8
 8000266:	d065      	beq.n	8000334 <__divsi3+0x104>
 8000268:	0b03      	lsrs	r3, r0, #12
 800026a:	428b      	cmp	r3, r1
 800026c:	d319      	bcc.n	80002a2 <__divsi3+0x72>
 800026e:	e000      	b.n	8000272 <__divsi3+0x42>
 8000270:	0a09      	lsrs	r1, r1, #8
 8000272:	0bc3      	lsrs	r3, r0, #15
 8000274:	428b      	cmp	r3, r1
 8000276:	d301      	bcc.n	800027c <__divsi3+0x4c>
 8000278:	03cb      	lsls	r3, r1, #15
 800027a:	1ac0      	subs	r0, r0, r3
 800027c:	4152      	adcs	r2, r2
 800027e:	0b83      	lsrs	r3, r0, #14
 8000280:	428b      	cmp	r3, r1
 8000282:	d301      	bcc.n	8000288 <__divsi3+0x58>
 8000284:	038b      	lsls	r3, r1, #14
 8000286:	1ac0      	subs	r0, r0, r3
 8000288:	4152      	adcs	r2, r2
 800028a:	0b43      	lsrs	r3, r0, #13
 800028c:	428b      	cmp	r3, r1
 800028e:	d301      	bcc.n	8000294 <__divsi3+0x64>
 8000290:	034b      	lsls	r3, r1, #13
 8000292:	1ac0      	subs	r0, r0, r3
 8000294:	4152      	adcs	r2, r2
 8000296:	0b03      	lsrs	r3, r0, #12
 8000298:	428b      	cmp	r3, r1
 800029a:	d301      	bcc.n	80002a0 <__divsi3+0x70>
 800029c:	030b      	lsls	r3, r1, #12
 800029e:	1ac0      	subs	r0, r0, r3
 80002a0:	4152      	adcs	r2, r2
 80002a2:	0ac3      	lsrs	r3, r0, #11
 80002a4:	428b      	cmp	r3, r1
 80002a6:	d301      	bcc.n	80002ac <__divsi3+0x7c>
 80002a8:	02cb      	lsls	r3, r1, #11
 80002aa:	1ac0      	subs	r0, r0, r3
 80002ac:	4152      	adcs	r2, r2
 80002ae:	0a83      	lsrs	r3, r0, #10
 80002b0:	428b      	cmp	r3, r1
 80002b2:	d301      	bcc.n	80002b8 <__divsi3+0x88>
 80002b4:	028b      	lsls	r3, r1, #10
 80002b6:	1ac0      	subs	r0, r0, r3
 80002b8:	4152      	adcs	r2, r2
 80002ba:	0a43      	lsrs	r3, r0, #9
 80002bc:	428b      	cmp	r3, r1
 80002be:	d301      	bcc.n	80002c4 <__divsi3+0x94>
 80002c0:	024b      	lsls	r3, r1, #9
 80002c2:	1ac0      	subs	r0, r0, r3
 80002c4:	4152      	adcs	r2, r2
 80002c6:	0a03      	lsrs	r3, r0, #8
 80002c8:	428b      	cmp	r3, r1
 80002ca:	d301      	bcc.n	80002d0 <__divsi3+0xa0>
 80002cc:	020b      	lsls	r3, r1, #8
 80002ce:	1ac0      	subs	r0, r0, r3
 80002d0:	4152      	adcs	r2, r2
 80002d2:	d2cd      	bcs.n	8000270 <__divsi3+0x40>
 80002d4:	09c3      	lsrs	r3, r0, #7
 80002d6:	428b      	cmp	r3, r1
 80002d8:	d301      	bcc.n	80002de <__divsi3+0xae>
 80002da:	01cb      	lsls	r3, r1, #7
 80002dc:	1ac0      	subs	r0, r0, r3
 80002de:	4152      	adcs	r2, r2
 80002e0:	0983      	lsrs	r3, r0, #6
 80002e2:	428b      	cmp	r3, r1
 80002e4:	d301      	bcc.n	80002ea <__divsi3+0xba>
 80002e6:	018b      	lsls	r3, r1, #6
 80002e8:	1ac0      	subs	r0, r0, r3
 80002ea:	4152      	adcs	r2, r2
 80002ec:	0943      	lsrs	r3, r0, #5
 80002ee:	428b      	cmp	r3, r1
 80002f0:	d301      	bcc.n	80002f6 <__divsi3+0xc6>
 80002f2:	014b      	lsls	r3, r1, #5
 80002f4:	1ac0      	subs	r0, r0, r3
 80002f6:	4152      	adcs	r2, r2
 80002f8:	0903      	lsrs	r3, r0, #4
 80002fa:	428b      	cmp	r3, r1
 80002fc:	d301      	bcc.n	8000302 <__divsi3+0xd2>
 80002fe:	010b      	lsls	r3, r1, #4
 8000300:	1ac0      	subs	r0, r0, r3
 8000302:	4152      	adcs	r2, r2
 8000304:	08c3      	lsrs	r3, r0, #3
 8000306:	428b      	cmp	r3, r1
 8000308:	d301      	bcc.n	800030e <__divsi3+0xde>
 800030a:	00cb      	lsls	r3, r1, #3
 800030c:	1ac0      	subs	r0, r0, r3
 800030e:	4152      	adcs	r2, r2
 8000310:	0883      	lsrs	r3, r0, #2
 8000312:	428b      	cmp	r3, r1
 8000314:	d301      	bcc.n	800031a <__divsi3+0xea>
 8000316:	008b      	lsls	r3, r1, #2
 8000318:	1ac0      	subs	r0, r0, r3
 800031a:	4152      	adcs	r2, r2
 800031c:	0843      	lsrs	r3, r0, #1
 800031e:	428b      	cmp	r3, r1
 8000320:	d301      	bcc.n	8000326 <__divsi3+0xf6>
 8000322:	004b      	lsls	r3, r1, #1
 8000324:	1ac0      	subs	r0, r0, r3
 8000326:	4152      	adcs	r2, r2
 8000328:	1a41      	subs	r1, r0, r1
 800032a:	d200      	bcs.n	800032e <__divsi3+0xfe>
 800032c:	4601      	mov	r1, r0
 800032e:	4152      	adcs	r2, r2
 8000330:	4610      	mov	r0, r2
 8000332:	4770      	bx	lr
 8000334:	e05d      	b.n	80003f2 <__divsi3+0x1c2>
 8000336:	0fca      	lsrs	r2, r1, #31
 8000338:	d000      	beq.n	800033c <__divsi3+0x10c>
 800033a:	4249      	negs	r1, r1
 800033c:	1003      	asrs	r3, r0, #32
 800033e:	d300      	bcc.n	8000342 <__divsi3+0x112>
 8000340:	4240      	negs	r0, r0
 8000342:	4053      	eors	r3, r2
 8000344:	2200      	movs	r2, #0
 8000346:	469c      	mov	ip, r3
 8000348:	0903      	lsrs	r3, r0, #4
 800034a:	428b      	cmp	r3, r1
 800034c:	d32d      	bcc.n	80003aa <__divsi3+0x17a>
 800034e:	0a03      	lsrs	r3, r0, #8
 8000350:	428b      	cmp	r3, r1
 8000352:	d312      	bcc.n	800037a <__divsi3+0x14a>
 8000354:	22fc      	movs	r2, #252	; 0xfc
 8000356:	0189      	lsls	r1, r1, #6
 8000358:	ba12      	rev	r2, r2
 800035a:	0a03      	lsrs	r3, r0, #8
 800035c:	428b      	cmp	r3, r1
 800035e:	d30c      	bcc.n	800037a <__divsi3+0x14a>
 8000360:	0189      	lsls	r1, r1, #6
 8000362:	1192      	asrs	r2, r2, #6
 8000364:	428b      	cmp	r3, r1
 8000366:	d308      	bcc.n	800037a <__divsi3+0x14a>
 8000368:	0189      	lsls	r1, r1, #6
 800036a:	1192      	asrs	r2, r2, #6
 800036c:	428b      	cmp	r3, r1
 800036e:	d304      	bcc.n	800037a <__divsi3+0x14a>
 8000370:	0189      	lsls	r1, r1, #6
 8000372:	d03a      	beq.n	80003ea <__divsi3+0x1ba>
 8000374:	1192      	asrs	r2, r2, #6
 8000376:	e000      	b.n	800037a <__divsi3+0x14a>
 8000378:	0989      	lsrs	r1, r1, #6
 800037a:	09c3      	lsrs	r3, r0, #7
 800037c:	428b      	cmp	r3, r1
 800037e:	d301      	bcc.n	8000384 <__divsi3+0x154>
 8000380:	01cb      	lsls	r3, r1, #7
 8000382:	1ac0      	subs	r0, r0, r3
 8000384:	4152      	adcs	r2, r2
 8000386:	0983      	lsrs	r3, r0, #6
 8000388:	428b      	cmp	r3, r1
 800038a:	d301      	bcc.n	8000390 <__divsi3+0x160>
 800038c:	018b      	lsls	r3, r1, #6
 800038e:	1ac0      	subs	r0, r0, r3
 8000390:	4152      	adcs	r2, r2
 8000392:	0943      	lsrs	r3, r0, #5
 8000394:	428b      	cmp	r3, r1
 8000396:	d301      	bcc.n	800039c <__divsi3+0x16c>
 8000398:	014b      	lsls	r3, r1, #5
 800039a:	1ac0      	subs	r0, r0, r3
 800039c:	4152      	adcs	r2, r2
 800039e:	0903      	lsrs	r3, r0, #4
 80003a0:	428b      	cmp	r3, r1
 80003a2:	d301      	bcc.n	80003a8 <__divsi3+0x178>
 80003a4:	010b      	lsls	r3, r1, #4
 80003a6:	1ac0      	subs	r0, r0, r3
 80003a8:	4152      	adcs	r2, r2
 80003aa:	08c3      	lsrs	r3, r0, #3
 80003ac:	428b      	cmp	r3, r1
 80003ae:	d301      	bcc.n	80003b4 <__divsi3+0x184>
 80003b0:	00cb      	lsls	r3, r1, #3
 80003b2:	1ac0      	subs	r0, r0, r3
 80003b4:	4152      	adcs	r2, r2
 80003b6:	0883      	lsrs	r3, r0, #2
 80003b8:	428b      	cmp	r3, r1
 80003ba:	d301      	bcc.n	80003c0 <__divsi3+0x190>
 80003bc:	008b      	lsls	r3, r1, #2
 80003be:	1ac0      	subs	r0, r0, r3
 80003c0:	4152      	adcs	r2, r2
 80003c2:	d2d9      	bcs.n	8000378 <__divsi3+0x148>
 80003c4:	0843      	lsrs	r3, r0, #1
 80003c6:	428b      	cmp	r3, r1
 80003c8:	d301      	bcc.n	80003ce <__divsi3+0x19e>
 80003ca:	004b      	lsls	r3, r1, #1
 80003cc:	1ac0      	subs	r0, r0, r3
 80003ce:	4152      	adcs	r2, r2
 80003d0:	1a41      	subs	r1, r0, r1
 80003d2:	d200      	bcs.n	80003d6 <__divsi3+0x1a6>
 80003d4:	4601      	mov	r1, r0
 80003d6:	4663      	mov	r3, ip
 80003d8:	4152      	adcs	r2, r2
 80003da:	105b      	asrs	r3, r3, #1
 80003dc:	4610      	mov	r0, r2
 80003de:	d301      	bcc.n	80003e4 <__divsi3+0x1b4>
 80003e0:	4240      	negs	r0, r0
 80003e2:	2b00      	cmp	r3, #0
 80003e4:	d500      	bpl.n	80003e8 <__divsi3+0x1b8>
 80003e6:	4249      	negs	r1, r1
 80003e8:	4770      	bx	lr
 80003ea:	4663      	mov	r3, ip
 80003ec:	105b      	asrs	r3, r3, #1
 80003ee:	d300      	bcc.n	80003f2 <__divsi3+0x1c2>
 80003f0:	4240      	negs	r0, r0
 80003f2:	b501      	push	{r0, lr}
 80003f4:	2000      	movs	r0, #0
 80003f6:	f000 f805 	bl	8000404 <__aeabi_idiv0>
 80003fa:	bd02      	pop	{r1, pc}

080003fc <__aeabi_idivmod>:
 80003fc:	2900      	cmp	r1, #0
 80003fe:	d0f8      	beq.n	80003f2 <__divsi3+0x1c2>
 8000400:	e716      	b.n	8000230 <__divsi3>
 8000402:	4770      	bx	lr

08000404 <__aeabi_idiv0>:
 8000404:	4770      	bx	lr
 8000406:	46c0      	nop			; (mov r8, r8)

08000408 <__aeabi_uldivmod>:
 8000408:	2b00      	cmp	r3, #0
 800040a:	d111      	bne.n	8000430 <__aeabi_uldivmod+0x28>
 800040c:	2a00      	cmp	r2, #0
 800040e:	d10f      	bne.n	8000430 <__aeabi_uldivmod+0x28>
 8000410:	2900      	cmp	r1, #0
 8000412:	d100      	bne.n	8000416 <__aeabi_uldivmod+0xe>
 8000414:	2800      	cmp	r0, #0
 8000416:	d002      	beq.n	800041e <__aeabi_uldivmod+0x16>
 8000418:	2100      	movs	r1, #0
 800041a:	43c9      	mvns	r1, r1
 800041c:	0008      	movs	r0, r1
 800041e:	b407      	push	{r0, r1, r2}
 8000420:	4802      	ldr	r0, [pc, #8]	; (800042c <__aeabi_uldivmod+0x24>)
 8000422:	a102      	add	r1, pc, #8	; (adr r1, 800042c <__aeabi_uldivmod+0x24>)
 8000424:	1840      	adds	r0, r0, r1
 8000426:	9002      	str	r0, [sp, #8]
 8000428:	bd03      	pop	{r0, r1, pc}
 800042a:	46c0      	nop			; (mov r8, r8)
 800042c:	ffffffd9 	.word	0xffffffd9
 8000430:	b403      	push	{r0, r1}
 8000432:	4668      	mov	r0, sp
 8000434:	b501      	push	{r0, lr}
 8000436:	9802      	ldr	r0, [sp, #8]
 8000438:	f000 f852 	bl	80004e0 <__udivmoddi4>
 800043c:	9b01      	ldr	r3, [sp, #4]
 800043e:	469e      	mov	lr, r3
 8000440:	b002      	add	sp, #8
 8000442:	bc0c      	pop	{r2, r3}
 8000444:	4770      	bx	lr
 8000446:	46c0      	nop			; (mov r8, r8)

08000448 <__aeabi_lmul>:
 8000448:	b5f0      	push	{r4, r5, r6, r7, lr}
 800044a:	46ce      	mov	lr, r9
 800044c:	4647      	mov	r7, r8
 800044e:	b580      	push	{r7, lr}
 8000450:	0007      	movs	r7, r0
 8000452:	4699      	mov	r9, r3
 8000454:	0c3b      	lsrs	r3, r7, #16
 8000456:	469c      	mov	ip, r3
 8000458:	0413      	lsls	r3, r2, #16
 800045a:	0c1b      	lsrs	r3, r3, #16
 800045c:	001d      	movs	r5, r3
 800045e:	000e      	movs	r6, r1
 8000460:	4661      	mov	r1, ip
 8000462:	0400      	lsls	r0, r0, #16
 8000464:	0c14      	lsrs	r4, r2, #16
 8000466:	0c00      	lsrs	r0, r0, #16
 8000468:	4345      	muls	r5, r0
 800046a:	434b      	muls	r3, r1
 800046c:	4360      	muls	r0, r4
 800046e:	4361      	muls	r1, r4
 8000470:	18c0      	adds	r0, r0, r3
 8000472:	0c2c      	lsrs	r4, r5, #16
 8000474:	1820      	adds	r0, r4, r0
 8000476:	468c      	mov	ip, r1
 8000478:	4283      	cmp	r3, r0
 800047a:	d903      	bls.n	8000484 <__aeabi_lmul+0x3c>
 800047c:	2380      	movs	r3, #128	; 0x80
 800047e:	025b      	lsls	r3, r3, #9
 8000480:	4698      	mov	r8, r3
 8000482:	44c4      	add	ip, r8
 8000484:	4649      	mov	r1, r9
 8000486:	4379      	muls	r1, r7
 8000488:	4372      	muls	r2, r6
 800048a:	0c03      	lsrs	r3, r0, #16
 800048c:	4463      	add	r3, ip
 800048e:	042d      	lsls	r5, r5, #16
 8000490:	0c2d      	lsrs	r5, r5, #16
 8000492:	18c9      	adds	r1, r1, r3
 8000494:	0400      	lsls	r0, r0, #16
 8000496:	1940      	adds	r0, r0, r5
 8000498:	1889      	adds	r1, r1, r2
 800049a:	bcc0      	pop	{r6, r7}
 800049c:	46b9      	mov	r9, r7
 800049e:	46b0      	mov	r8, r6
 80004a0:	bdf0      	pop	{r4, r5, r6, r7, pc}
 80004a2:	46c0      	nop			; (mov r8, r8)

080004a4 <__aeabi_d2uiz>:
 80004a4:	b570      	push	{r4, r5, r6, lr}
 80004a6:	2200      	movs	r2, #0
 80004a8:	4b0c      	ldr	r3, [pc, #48]	; (80004dc <__aeabi_d2uiz+0x38>)
 80004aa:	0004      	movs	r4, r0
 80004ac:	000d      	movs	r5, r1
 80004ae:	f001 fdbd 	bl	800202c <__aeabi_dcmpge>
 80004b2:	2800      	cmp	r0, #0
 80004b4:	d104      	bne.n	80004c0 <__aeabi_d2uiz+0x1c>
 80004b6:	0020      	movs	r0, r4
 80004b8:	0029      	movs	r1, r5
 80004ba:	f001 fcd5 	bl	8001e68 <__aeabi_d2iz>
 80004be:	bd70      	pop	{r4, r5, r6, pc}
 80004c0:	4b06      	ldr	r3, [pc, #24]	; (80004dc <__aeabi_d2uiz+0x38>)
 80004c2:	2200      	movs	r2, #0
 80004c4:	0020      	movs	r0, r4
 80004c6:	0029      	movs	r1, r5
 80004c8:	f001 f93c 	bl	8001744 <__aeabi_dsub>
 80004cc:	f001 fccc 	bl	8001e68 <__aeabi_d2iz>
 80004d0:	2380      	movs	r3, #128	; 0x80
 80004d2:	061b      	lsls	r3, r3, #24
 80004d4:	469c      	mov	ip, r3
 80004d6:	4460      	add	r0, ip
 80004d8:	e7f1      	b.n	80004be <__aeabi_d2uiz+0x1a>
 80004da:	46c0      	nop			; (mov r8, r8)
 80004dc:	41e00000 	.word	0x41e00000

080004e0 <__udivmoddi4>:
 80004e0:	b5f0      	push	{r4, r5, r6, r7, lr}
 80004e2:	4657      	mov	r7, sl
 80004e4:	464e      	mov	r6, r9
 80004e6:	4645      	mov	r5, r8
 80004e8:	46de      	mov	lr, fp
 80004ea:	b5e0      	push	{r5, r6, r7, lr}
 80004ec:	0004      	movs	r4, r0
 80004ee:	000d      	movs	r5, r1
 80004f0:	4692      	mov	sl, r2
 80004f2:	4699      	mov	r9, r3
 80004f4:	b083      	sub	sp, #12
 80004f6:	428b      	cmp	r3, r1
 80004f8:	d830      	bhi.n	800055c <__udivmoddi4+0x7c>
 80004fa:	d02d      	beq.n	8000558 <__udivmoddi4+0x78>
 80004fc:	4649      	mov	r1, r9
 80004fe:	4650      	mov	r0, sl
 8000500:	f001 fdbc 	bl	800207c <__clzdi2>
 8000504:	0029      	movs	r1, r5
 8000506:	0006      	movs	r6, r0
 8000508:	0020      	movs	r0, r4
 800050a:	f001 fdb7 	bl	800207c <__clzdi2>
 800050e:	1a33      	subs	r3, r6, r0
 8000510:	4698      	mov	r8, r3
 8000512:	3b20      	subs	r3, #32
 8000514:	469b      	mov	fp, r3
 8000516:	d433      	bmi.n	8000580 <__udivmoddi4+0xa0>
 8000518:	465a      	mov	r2, fp
 800051a:	4653      	mov	r3, sl
 800051c:	4093      	lsls	r3, r2
 800051e:	4642      	mov	r2, r8
 8000520:	001f      	movs	r7, r3
 8000522:	4653      	mov	r3, sl
 8000524:	4093      	lsls	r3, r2
 8000526:	001e      	movs	r6, r3
 8000528:	42af      	cmp	r7, r5
 800052a:	d83a      	bhi.n	80005a2 <__udivmoddi4+0xc2>
 800052c:	42af      	cmp	r7, r5
 800052e:	d100      	bne.n	8000532 <__udivmoddi4+0x52>
 8000530:	e078      	b.n	8000624 <__udivmoddi4+0x144>
 8000532:	465b      	mov	r3, fp
 8000534:	1ba4      	subs	r4, r4, r6
 8000536:	41bd      	sbcs	r5, r7
 8000538:	2b00      	cmp	r3, #0
 800053a:	da00      	bge.n	800053e <__udivmoddi4+0x5e>
 800053c:	e075      	b.n	800062a <__udivmoddi4+0x14a>
 800053e:	2200      	movs	r2, #0
 8000540:	2300      	movs	r3, #0
 8000542:	9200      	str	r2, [sp, #0]
 8000544:	9301      	str	r3, [sp, #4]
 8000546:	2301      	movs	r3, #1
 8000548:	465a      	mov	r2, fp
 800054a:	4093      	lsls	r3, r2
 800054c:	9301      	str	r3, [sp, #4]
 800054e:	2301      	movs	r3, #1
 8000550:	4642      	mov	r2, r8
 8000552:	4093      	lsls	r3, r2
 8000554:	9300      	str	r3, [sp, #0]
 8000556:	e028      	b.n	80005aa <__udivmoddi4+0xca>
 8000558:	4282      	cmp	r2, r0
 800055a:	d9cf      	bls.n	80004fc <__udivmoddi4+0x1c>
 800055c:	2200      	movs	r2, #0
 800055e:	2300      	movs	r3, #0
 8000560:	9200      	str	r2, [sp, #0]
 8000562:	9301      	str	r3, [sp, #4]
 8000564:	9b0c      	ldr	r3, [sp, #48]	; 0x30
 8000566:	2b00      	cmp	r3, #0
 8000568:	d001      	beq.n	800056e <__udivmoddi4+0x8e>
 800056a:	601c      	str	r4, [r3, #0]
 800056c:	605d      	str	r5, [r3, #4]
 800056e:	9800      	ldr	r0, [sp, #0]
 8000570:	9901      	ldr	r1, [sp, #4]
 8000572:	b003      	add	sp, #12
 8000574:	bcf0      	pop	{r4, r5, r6, r7}
 8000576:	46bb      	mov	fp, r7
 8000578:	46b2      	mov	sl, r6
 800057a:	46a9      	mov	r9, r5
 800057c:	46a0      	mov	r8, r4
 800057e:	bdf0      	pop	{r4, r5, r6, r7, pc}
 8000580:	4642      	mov	r2, r8
 8000582:	2320      	movs	r3, #32
 8000584:	1a9b      	subs	r3, r3, r2
 8000586:	4652      	mov	r2, sl
 8000588:	40da      	lsrs	r2, r3
 800058a:	4641      	mov	r1, r8
 800058c:	0013      	movs	r3, r2
 800058e:	464a      	mov	r2, r9
 8000590:	408a      	lsls	r2, r1
 8000592:	0017      	movs	r7, r2
 8000594:	4642      	mov	r2, r8
 8000596:	431f      	orrs	r7, r3
 8000598:	4653      	mov	r3, sl
 800059a:	4093      	lsls	r3, r2
 800059c:	001e      	movs	r6, r3
 800059e:	42af      	cmp	r7, r5
 80005a0:	d9c4      	bls.n	800052c <__udivmoddi4+0x4c>
 80005a2:	2200      	movs	r2, #0
 80005a4:	2300      	movs	r3, #0
 80005a6:	9200      	str	r2, [sp, #0]
 80005a8:	9301      	str	r3, [sp, #4]
 80005aa:	4643      	mov	r3, r8
 80005ac:	2b00      	cmp	r3, #0
 80005ae:	d0d9      	beq.n	8000564 <__udivmoddi4+0x84>
 80005b0:	07fb      	lsls	r3, r7, #31
 80005b2:	0872      	lsrs	r2, r6, #1
 80005b4:	431a      	orrs	r2, r3
 80005b6:	4646      	mov	r6, r8
 80005b8:	087b      	lsrs	r3, r7, #1
 80005ba:	e00e      	b.n	80005da <__udivmoddi4+0xfa>
 80005bc:	42ab      	cmp	r3, r5
 80005be:	d101      	bne.n	80005c4 <__udivmoddi4+0xe4>
 80005c0:	42a2      	cmp	r2, r4
 80005c2:	d80c      	bhi.n	80005de <__udivmoddi4+0xfe>
 80005c4:	1aa4      	subs	r4, r4, r2
 80005c6:	419d      	sbcs	r5, r3
 80005c8:	2001      	movs	r0, #1
 80005ca:	1924      	adds	r4, r4, r4
 80005cc:	416d      	adcs	r5, r5
 80005ce:	2100      	movs	r1, #0
 80005d0:	3e01      	subs	r6, #1
 80005d2:	1824      	adds	r4, r4, r0
 80005d4:	414d      	adcs	r5, r1
 80005d6:	2e00      	cmp	r6, #0
 80005d8:	d006      	beq.n	80005e8 <__udivmoddi4+0x108>
 80005da:	42ab      	cmp	r3, r5
 80005dc:	d9ee      	bls.n	80005bc <__udivmoddi4+0xdc>
 80005de:	3e01      	subs	r6, #1
 80005e0:	1924      	adds	r4, r4, r4
 80005e2:	416d      	adcs	r5, r5
 80005e4:	2e00      	cmp	r6, #0
 80005e6:	d1f8      	bne.n	80005da <__udivmoddi4+0xfa>
 80005e8:	9800      	ldr	r0, [sp, #0]
 80005ea:	9901      	ldr	r1, [sp, #4]
 80005ec:	465b      	mov	r3, fp
 80005ee:	1900      	adds	r0, r0, r4
 80005f0:	4169      	adcs	r1, r5
 80005f2:	2b00      	cmp	r3, #0
 80005f4:	db24      	blt.n	8000640 <__udivmoddi4+0x160>
 80005f6:	002b      	movs	r3, r5
 80005f8:	465a      	mov	r2, fp
 80005fa:	4644      	mov	r4, r8
 80005fc:	40d3      	lsrs	r3, r2
 80005fe:	002a      	movs	r2, r5
 8000600:	40e2      	lsrs	r2, r4
 8000602:	001c      	movs	r4, r3
 8000604:	465b      	mov	r3, fp
 8000606:	0015      	movs	r5, r2
 8000608:	2b00      	cmp	r3, #0
 800060a:	db2a      	blt.n	8000662 <__udivmoddi4+0x182>
 800060c:	0026      	movs	r6, r4
 800060e:	409e      	lsls	r6, r3
 8000610:	0033      	movs	r3, r6
 8000612:	0026      	movs	r6, r4
 8000614:	4647      	mov	r7, r8
 8000616:	40be      	lsls	r6, r7
 8000618:	0032      	movs	r2, r6
 800061a:	1a80      	subs	r0, r0, r2
 800061c:	4199      	sbcs	r1, r3
 800061e:	9000      	str	r0, [sp, #0]
 8000620:	9101      	str	r1, [sp, #4]
 8000622:	e79f      	b.n	8000564 <__udivmoddi4+0x84>
 8000624:	42a3      	cmp	r3, r4
 8000626:	d8bc      	bhi.n	80005a2 <__udivmoddi4+0xc2>
 8000628:	e783      	b.n	8000532 <__udivmoddi4+0x52>
 800062a:	4642      	mov	r2, r8
 800062c:	2320      	movs	r3, #32
 800062e:	2100      	movs	r1, #0
 8000630:	1a9b      	subs	r3, r3, r2
 8000632:	2200      	movs	r2, #0
 8000634:	9100      	str	r1, [sp, #0]
 8000636:	9201      	str	r2, [sp, #4]
 8000638:	2201      	movs	r2, #1
 800063a:	40da      	lsrs	r2, r3
 800063c:	9201      	str	r2, [sp, #4]
 800063e:	e786      	b.n	800054e <__udivmoddi4+0x6e>
 8000640:	4642      	mov	r2, r8
 8000642:	2320      	movs	r3, #32
 8000644:	1a9b      	subs	r3, r3, r2
 8000646:	002a      	movs	r2, r5
 8000648:	4646      	mov	r6, r8
 800064a:	409a      	lsls	r2, r3
 800064c:	0023      	movs	r3, r4
 800064e:	40f3      	lsrs	r3, r6
 8000650:	4644      	mov	r4, r8
 8000652:	4313      	orrs	r3, r2
 8000654:	002a      	movs	r2, r5
 8000656:	40e2      	lsrs	r2, r4
 8000658:	001c      	movs	r4, r3
 800065a:	465b      	mov	r3, fp
 800065c:	0015      	movs	r5, r2
 800065e:	2b00      	cmp	r3, #0
 8000660:	dad4      	bge.n	800060c <__udivmoddi4+0x12c>
 8000662:	4642      	mov	r2, r8
 8000664:	002f      	movs	r7, r5
 8000666:	2320      	movs	r3, #32
 8000668:	0026      	movs	r6, r4
 800066a:	4097      	lsls	r7, r2
 800066c:	1a9b      	subs	r3, r3, r2
 800066e:	40de      	lsrs	r6, r3
 8000670:	003b      	movs	r3, r7
 8000672:	4333      	orrs	r3, r6
 8000674:	e7cd      	b.n	8000612 <__udivmoddi4+0x132>
 8000676:	46c0      	nop			; (mov r8, r8)

08000678 <__aeabi_fadd>:
 8000678:	b5f0      	push	{r4, r5, r6, r7, lr}
 800067a:	46c6      	mov	lr, r8
 800067c:	0243      	lsls	r3, r0, #9
 800067e:	0a5b      	lsrs	r3, r3, #9
 8000680:	024e      	lsls	r6, r1, #9
 8000682:	0045      	lsls	r5, r0, #1
 8000684:	004f      	lsls	r7, r1, #1
 8000686:	00da      	lsls	r2, r3, #3
 8000688:	0fc4      	lsrs	r4, r0, #31
 800068a:	469c      	mov	ip, r3
 800068c:	0a70      	lsrs	r0, r6, #9
 800068e:	4690      	mov	r8, r2
 8000690:	b500      	push	{lr}
 8000692:	0e2d      	lsrs	r5, r5, #24
 8000694:	0e3f      	lsrs	r7, r7, #24
 8000696:	0fc9      	lsrs	r1, r1, #31
 8000698:	09b6      	lsrs	r6, r6, #6
 800069a:	428c      	cmp	r4, r1
 800069c:	d04b      	beq.n	8000736 <__aeabi_fadd+0xbe>
 800069e:	1bea      	subs	r2, r5, r7
 80006a0:	2a00      	cmp	r2, #0
 80006a2:	dd36      	ble.n	8000712 <__aeabi_fadd+0x9a>
 80006a4:	2f00      	cmp	r7, #0
 80006a6:	d061      	beq.n	800076c <__aeabi_fadd+0xf4>
 80006a8:	2dff      	cmp	r5, #255	; 0xff
 80006aa:	d100      	bne.n	80006ae <__aeabi_fadd+0x36>
 80006ac:	e0ad      	b.n	800080a <__aeabi_fadd+0x192>
 80006ae:	2380      	movs	r3, #128	; 0x80
 80006b0:	04db      	lsls	r3, r3, #19
 80006b2:	431e      	orrs	r6, r3
 80006b4:	2a1b      	cmp	r2, #27
 80006b6:	dc00      	bgt.n	80006ba <__aeabi_fadd+0x42>
 80006b8:	e0d3      	b.n	8000862 <__aeabi_fadd+0x1ea>
 80006ba:	2001      	movs	r0, #1
 80006bc:	4643      	mov	r3, r8
 80006be:	1a18      	subs	r0, r3, r0
 80006c0:	0143      	lsls	r3, r0, #5
 80006c2:	d400      	bmi.n	80006c6 <__aeabi_fadd+0x4e>
 80006c4:	e08c      	b.n	80007e0 <__aeabi_fadd+0x168>
 80006c6:	0180      	lsls	r0, r0, #6
 80006c8:	0987      	lsrs	r7, r0, #6
 80006ca:	0038      	movs	r0, r7
 80006cc:	f001 fcb8 	bl	8002040 <__clzsi2>
 80006d0:	3805      	subs	r0, #5
 80006d2:	4087      	lsls	r7, r0
 80006d4:	4285      	cmp	r5, r0
 80006d6:	dc00      	bgt.n	80006da <__aeabi_fadd+0x62>
 80006d8:	e0b6      	b.n	8000848 <__aeabi_fadd+0x1d0>
 80006da:	1a2d      	subs	r5, r5, r0
 80006dc:	48b3      	ldr	r0, [pc, #716]	; (80009ac <__aeabi_fadd+0x334>)
 80006de:	4038      	ands	r0, r7
 80006e0:	0743      	lsls	r3, r0, #29
 80006e2:	d004      	beq.n	80006ee <__aeabi_fadd+0x76>
 80006e4:	230f      	movs	r3, #15
 80006e6:	4003      	ands	r3, r0
 80006e8:	2b04      	cmp	r3, #4
 80006ea:	d000      	beq.n	80006ee <__aeabi_fadd+0x76>
 80006ec:	3004      	adds	r0, #4
 80006ee:	0143      	lsls	r3, r0, #5
 80006f0:	d400      	bmi.n	80006f4 <__aeabi_fadd+0x7c>
 80006f2:	e078      	b.n	80007e6 <__aeabi_fadd+0x16e>
 80006f4:	1c6a      	adds	r2, r5, #1
 80006f6:	2dfe      	cmp	r5, #254	; 0xfe
 80006f8:	d065      	beq.n	80007c6 <__aeabi_fadd+0x14e>
 80006fa:	0180      	lsls	r0, r0, #6
 80006fc:	0a43      	lsrs	r3, r0, #9
 80006fe:	469c      	mov	ip, r3
 8000700:	b2d2      	uxtb	r2, r2
 8000702:	4663      	mov	r3, ip
 8000704:	05d0      	lsls	r0, r2, #23
 8000706:	4318      	orrs	r0, r3
 8000708:	07e4      	lsls	r4, r4, #31
 800070a:	4320      	orrs	r0, r4
 800070c:	bc80      	pop	{r7}
 800070e:	46b8      	mov	r8, r7
 8000710:	bdf0      	pop	{r4, r5, r6, r7, pc}
 8000712:	2a00      	cmp	r2, #0
 8000714:	d035      	beq.n	8000782 <__aeabi_fadd+0x10a>
 8000716:	1b7a      	subs	r2, r7, r5
 8000718:	2d00      	cmp	r5, #0
 800071a:	d000      	beq.n	800071e <__aeabi_fadd+0xa6>
 800071c:	e0af      	b.n	800087e <__aeabi_fadd+0x206>
 800071e:	4643      	mov	r3, r8
 8000720:	2b00      	cmp	r3, #0
 8000722:	d100      	bne.n	8000726 <__aeabi_fadd+0xae>
 8000724:	e0a7      	b.n	8000876 <__aeabi_fadd+0x1fe>
 8000726:	1e53      	subs	r3, r2, #1
 8000728:	2a01      	cmp	r2, #1
 800072a:	d100      	bne.n	800072e <__aeabi_fadd+0xb6>
 800072c:	e12f      	b.n	800098e <__aeabi_fadd+0x316>
 800072e:	2aff      	cmp	r2, #255	; 0xff
 8000730:	d069      	beq.n	8000806 <__aeabi_fadd+0x18e>
 8000732:	001a      	movs	r2, r3
 8000734:	e0aa      	b.n	800088c <__aeabi_fadd+0x214>
 8000736:	1be9      	subs	r1, r5, r7
 8000738:	2900      	cmp	r1, #0
 800073a:	dd70      	ble.n	800081e <__aeabi_fadd+0x1a6>
 800073c:	2f00      	cmp	r7, #0
 800073e:	d037      	beq.n	80007b0 <__aeabi_fadd+0x138>
 8000740:	2dff      	cmp	r5, #255	; 0xff
 8000742:	d062      	beq.n	800080a <__aeabi_fadd+0x192>
 8000744:	2380      	movs	r3, #128	; 0x80
 8000746:	04db      	lsls	r3, r3, #19
 8000748:	431e      	orrs	r6, r3
 800074a:	291b      	cmp	r1, #27
 800074c:	dc00      	bgt.n	8000750 <__aeabi_fadd+0xd8>
 800074e:	e0b0      	b.n	80008b2 <__aeabi_fadd+0x23a>
 8000750:	2001      	movs	r0, #1
 8000752:	4440      	add	r0, r8
 8000754:	0143      	lsls	r3, r0, #5
 8000756:	d543      	bpl.n	80007e0 <__aeabi_fadd+0x168>
 8000758:	3501      	adds	r5, #1
 800075a:	2dff      	cmp	r5, #255	; 0xff
 800075c:	d033      	beq.n	80007c6 <__aeabi_fadd+0x14e>
 800075e:	2301      	movs	r3, #1
 8000760:	4a93      	ldr	r2, [pc, #588]	; (80009b0 <__aeabi_fadd+0x338>)
 8000762:	4003      	ands	r3, r0
 8000764:	0840      	lsrs	r0, r0, #1
 8000766:	4010      	ands	r0, r2
 8000768:	4318      	orrs	r0, r3
 800076a:	e7b9      	b.n	80006e0 <__aeabi_fadd+0x68>
 800076c:	2e00      	cmp	r6, #0
 800076e:	d100      	bne.n	8000772 <__aeabi_fadd+0xfa>
 8000770:	e083      	b.n	800087a <__aeabi_fadd+0x202>
 8000772:	1e51      	subs	r1, r2, #1
 8000774:	2a01      	cmp	r2, #1
 8000776:	d100      	bne.n	800077a <__aeabi_fadd+0x102>
 8000778:	e0d8      	b.n	800092c <__aeabi_fadd+0x2b4>
 800077a:	2aff      	cmp	r2, #255	; 0xff
 800077c:	d045      	beq.n	800080a <__aeabi_fadd+0x192>
 800077e:	000a      	movs	r2, r1
 8000780:	e798      	b.n	80006b4 <__aeabi_fadd+0x3c>
 8000782:	27fe      	movs	r7, #254	; 0xfe
 8000784:	1c6a      	adds	r2, r5, #1
 8000786:	4217      	tst	r7, r2
 8000788:	d000      	beq.n	800078c <__aeabi_fadd+0x114>
 800078a:	e086      	b.n	800089a <__aeabi_fadd+0x222>
 800078c:	2d00      	cmp	r5, #0
 800078e:	d000      	beq.n	8000792 <__aeabi_fadd+0x11a>
 8000790:	e0b7      	b.n	8000902 <__aeabi_fadd+0x28a>
 8000792:	4643      	mov	r3, r8
 8000794:	2b00      	cmp	r3, #0
 8000796:	d100      	bne.n	800079a <__aeabi_fadd+0x122>
 8000798:	e0f3      	b.n	8000982 <__aeabi_fadd+0x30a>
 800079a:	2200      	movs	r2, #0
 800079c:	2e00      	cmp	r6, #0
 800079e:	d0b0      	beq.n	8000702 <__aeabi_fadd+0x8a>
 80007a0:	1b98      	subs	r0, r3, r6
 80007a2:	0143      	lsls	r3, r0, #5
 80007a4:	d400      	bmi.n	80007a8 <__aeabi_fadd+0x130>
 80007a6:	e0fa      	b.n	800099e <__aeabi_fadd+0x326>
 80007a8:	4643      	mov	r3, r8
 80007aa:	000c      	movs	r4, r1
 80007ac:	1af0      	subs	r0, r6, r3
 80007ae:	e797      	b.n	80006e0 <__aeabi_fadd+0x68>
 80007b0:	2e00      	cmp	r6, #0
 80007b2:	d100      	bne.n	80007b6 <__aeabi_fadd+0x13e>
 80007b4:	e0c8      	b.n	8000948 <__aeabi_fadd+0x2d0>
 80007b6:	1e4a      	subs	r2, r1, #1
 80007b8:	2901      	cmp	r1, #1
 80007ba:	d100      	bne.n	80007be <__aeabi_fadd+0x146>
 80007bc:	e0ae      	b.n	800091c <__aeabi_fadd+0x2a4>
 80007be:	29ff      	cmp	r1, #255	; 0xff
 80007c0:	d023      	beq.n	800080a <__aeabi_fadd+0x192>
 80007c2:	0011      	movs	r1, r2
 80007c4:	e7c1      	b.n	800074a <__aeabi_fadd+0xd2>
 80007c6:	2300      	movs	r3, #0
 80007c8:	22ff      	movs	r2, #255	; 0xff
 80007ca:	469c      	mov	ip, r3
 80007cc:	e799      	b.n	8000702 <__aeabi_fadd+0x8a>
 80007ce:	21fe      	movs	r1, #254	; 0xfe
 80007d0:	1c6a      	adds	r2, r5, #1
 80007d2:	4211      	tst	r1, r2
 80007d4:	d077      	beq.n	80008c6 <__aeabi_fadd+0x24e>
 80007d6:	2aff      	cmp	r2, #255	; 0xff
 80007d8:	d0f5      	beq.n	80007c6 <__aeabi_fadd+0x14e>
 80007da:	0015      	movs	r5, r2
 80007dc:	4446      	add	r6, r8
 80007de:	0870      	lsrs	r0, r6, #1
 80007e0:	0743      	lsls	r3, r0, #29
 80007e2:	d000      	beq.n	80007e6 <__aeabi_fadd+0x16e>
 80007e4:	e77e      	b.n	80006e4 <__aeabi_fadd+0x6c>
 80007e6:	08c3      	lsrs	r3, r0, #3
 80007e8:	2dff      	cmp	r5, #255	; 0xff
 80007ea:	d00e      	beq.n	800080a <__aeabi_fadd+0x192>
 80007ec:	025b      	lsls	r3, r3, #9
 80007ee:	0a5b      	lsrs	r3, r3, #9
 80007f0:	469c      	mov	ip, r3
 80007f2:	b2ea      	uxtb	r2, r5
 80007f4:	e785      	b.n	8000702 <__aeabi_fadd+0x8a>
 80007f6:	2e00      	cmp	r6, #0
 80007f8:	d007      	beq.n	800080a <__aeabi_fadd+0x192>
 80007fa:	2280      	movs	r2, #128	; 0x80
 80007fc:	03d2      	lsls	r2, r2, #15
 80007fe:	4213      	tst	r3, r2
 8000800:	d003      	beq.n	800080a <__aeabi_fadd+0x192>
 8000802:	4210      	tst	r0, r2
 8000804:	d101      	bne.n	800080a <__aeabi_fadd+0x192>
 8000806:	000c      	movs	r4, r1
 8000808:	0003      	movs	r3, r0
 800080a:	2b00      	cmp	r3, #0
 800080c:	d0db      	beq.n	80007c6 <__aeabi_fadd+0x14e>
 800080e:	2080      	movs	r0, #128	; 0x80
 8000810:	03c0      	lsls	r0, r0, #15
 8000812:	4318      	orrs	r0, r3
 8000814:	0240      	lsls	r0, r0, #9
 8000816:	0a43      	lsrs	r3, r0, #9
 8000818:	469c      	mov	ip, r3
 800081a:	22ff      	movs	r2, #255	; 0xff
 800081c:	e771      	b.n	8000702 <__aeabi_fadd+0x8a>
 800081e:	2900      	cmp	r1, #0
 8000820:	d0d5      	beq.n	80007ce <__aeabi_fadd+0x156>
 8000822:	1b7a      	subs	r2, r7, r5
 8000824:	2d00      	cmp	r5, #0
 8000826:	d160      	bne.n	80008ea <__aeabi_fadd+0x272>
 8000828:	4643      	mov	r3, r8
 800082a:	2b00      	cmp	r3, #0
 800082c:	d024      	beq.n	8000878 <__aeabi_fadd+0x200>
 800082e:	1e53      	subs	r3, r2, #1
 8000830:	2a01      	cmp	r2, #1
 8000832:	d073      	beq.n	800091c <__aeabi_fadd+0x2a4>
 8000834:	2aff      	cmp	r2, #255	; 0xff
 8000836:	d0e7      	beq.n	8000808 <__aeabi_fadd+0x190>
 8000838:	001a      	movs	r2, r3
 800083a:	2a1b      	cmp	r2, #27
 800083c:	dc00      	bgt.n	8000840 <__aeabi_fadd+0x1c8>
 800083e:	e085      	b.n	800094c <__aeabi_fadd+0x2d4>
 8000840:	2001      	movs	r0, #1
 8000842:	003d      	movs	r5, r7
 8000844:	1980      	adds	r0, r0, r6
 8000846:	e785      	b.n	8000754 <__aeabi_fadd+0xdc>
 8000848:	2320      	movs	r3, #32
 800084a:	003a      	movs	r2, r7
 800084c:	1b45      	subs	r5, r0, r5
 800084e:	0038      	movs	r0, r7
 8000850:	3501      	adds	r5, #1
 8000852:	40ea      	lsrs	r2, r5
 8000854:	1b5d      	subs	r5, r3, r5
 8000856:	40a8      	lsls	r0, r5
 8000858:	1e43      	subs	r3, r0, #1
 800085a:	4198      	sbcs	r0, r3
 800085c:	2500      	movs	r5, #0
 800085e:	4310      	orrs	r0, r2
 8000860:	e73e      	b.n	80006e0 <__aeabi_fadd+0x68>
 8000862:	2320      	movs	r3, #32
 8000864:	0030      	movs	r0, r6
 8000866:	1a9b      	subs	r3, r3, r2
 8000868:	0031      	movs	r1, r6
 800086a:	4098      	lsls	r0, r3
 800086c:	40d1      	lsrs	r1, r2
 800086e:	1e43      	subs	r3, r0, #1
 8000870:	4198      	sbcs	r0, r3
 8000872:	4308      	orrs	r0, r1
 8000874:	e722      	b.n	80006bc <__aeabi_fadd+0x44>
 8000876:	000c      	movs	r4, r1
 8000878:	0003      	movs	r3, r0
 800087a:	0015      	movs	r5, r2
 800087c:	e7b4      	b.n	80007e8 <__aeabi_fadd+0x170>
 800087e:	2fff      	cmp	r7, #255	; 0xff
 8000880:	d0c1      	beq.n	8000806 <__aeabi_fadd+0x18e>
 8000882:	2380      	movs	r3, #128	; 0x80
 8000884:	4640      	mov	r0, r8
 8000886:	04db      	lsls	r3, r3, #19
 8000888:	4318      	orrs	r0, r3
 800088a:	4680      	mov	r8, r0
 800088c:	2a1b      	cmp	r2, #27
 800088e:	dd51      	ble.n	8000934 <__aeabi_fadd+0x2bc>
 8000890:	2001      	movs	r0, #1
 8000892:	000c      	movs	r4, r1
 8000894:	003d      	movs	r5, r7
 8000896:	1a30      	subs	r0, r6, r0
 8000898:	e712      	b.n	80006c0 <__aeabi_fadd+0x48>
 800089a:	4643      	mov	r3, r8
 800089c:	1b9f      	subs	r7, r3, r6
 800089e:	017b      	lsls	r3, r7, #5
 80008a0:	d42b      	bmi.n	80008fa <__aeabi_fadd+0x282>
 80008a2:	2f00      	cmp	r7, #0
 80008a4:	d000      	beq.n	80008a8 <__aeabi_fadd+0x230>
 80008a6:	e710      	b.n	80006ca <__aeabi_fadd+0x52>
 80008a8:	2300      	movs	r3, #0
 80008aa:	2400      	movs	r4, #0
 80008ac:	2200      	movs	r2, #0
 80008ae:	469c      	mov	ip, r3
 80008b0:	e727      	b.n	8000702 <__aeabi_fadd+0x8a>
 80008b2:	2320      	movs	r3, #32
 80008b4:	0032      	movs	r2, r6
 80008b6:	0030      	movs	r0, r6
 80008b8:	40ca      	lsrs	r2, r1
 80008ba:	1a59      	subs	r1, r3, r1
 80008bc:	4088      	lsls	r0, r1
 80008be:	1e43      	subs	r3, r0, #1
 80008c0:	4198      	sbcs	r0, r3
 80008c2:	4310      	orrs	r0, r2
 80008c4:	e745      	b.n	8000752 <__aeabi_fadd+0xda>
 80008c6:	2d00      	cmp	r5, #0
 80008c8:	d14a      	bne.n	8000960 <__aeabi_fadd+0x2e8>
 80008ca:	4643      	mov	r3, r8
 80008cc:	2b00      	cmp	r3, #0
 80008ce:	d063      	beq.n	8000998 <__aeabi_fadd+0x320>
 80008d0:	2200      	movs	r2, #0
 80008d2:	2e00      	cmp	r6, #0
 80008d4:	d100      	bne.n	80008d8 <__aeabi_fadd+0x260>
 80008d6:	e714      	b.n	8000702 <__aeabi_fadd+0x8a>
 80008d8:	0030      	movs	r0, r6
 80008da:	4440      	add	r0, r8
 80008dc:	0143      	lsls	r3, r0, #5
 80008de:	d400      	bmi.n	80008e2 <__aeabi_fadd+0x26a>
 80008e0:	e77e      	b.n	80007e0 <__aeabi_fadd+0x168>
 80008e2:	4b32      	ldr	r3, [pc, #200]	; (80009ac <__aeabi_fadd+0x334>)
 80008e4:	3501      	adds	r5, #1
 80008e6:	4018      	ands	r0, r3
 80008e8:	e77a      	b.n	80007e0 <__aeabi_fadd+0x168>
 80008ea:	2fff      	cmp	r7, #255	; 0xff
 80008ec:	d08c      	beq.n	8000808 <__aeabi_fadd+0x190>
 80008ee:	2380      	movs	r3, #128	; 0x80
 80008f0:	4641      	mov	r1, r8
 80008f2:	04db      	lsls	r3, r3, #19
 80008f4:	4319      	orrs	r1, r3
 80008f6:	4688      	mov	r8, r1
 80008f8:	e79f      	b.n	800083a <__aeabi_fadd+0x1c2>
 80008fa:	4643      	mov	r3, r8
 80008fc:	000c      	movs	r4, r1
 80008fe:	1af7      	subs	r7, r6, r3
 8000900:	e6e3      	b.n	80006ca <__aeabi_fadd+0x52>
 8000902:	4642      	mov	r2, r8
 8000904:	2a00      	cmp	r2, #0
 8000906:	d000      	beq.n	800090a <__aeabi_fadd+0x292>
 8000908:	e775      	b.n	80007f6 <__aeabi_fadd+0x17e>
 800090a:	2e00      	cmp	r6, #0
 800090c:	d000      	beq.n	8000910 <__aeabi_fadd+0x298>
 800090e:	e77a      	b.n	8000806 <__aeabi_fadd+0x18e>
 8000910:	2380      	movs	r3, #128	; 0x80
 8000912:	03db      	lsls	r3, r3, #15
 8000914:	2400      	movs	r4, #0
 8000916:	469c      	mov	ip, r3
 8000918:	22ff      	movs	r2, #255	; 0xff
 800091a:	e6f2      	b.n	8000702 <__aeabi_fadd+0x8a>
 800091c:	0030      	movs	r0, r6
 800091e:	4440      	add	r0, r8
 8000920:	2501      	movs	r5, #1
 8000922:	0143      	lsls	r3, r0, #5
 8000924:	d400      	bmi.n	8000928 <__aeabi_fadd+0x2b0>
 8000926:	e75b      	b.n	80007e0 <__aeabi_fadd+0x168>
 8000928:	2502      	movs	r5, #2
 800092a:	e718      	b.n	800075e <__aeabi_fadd+0xe6>
 800092c:	4643      	mov	r3, r8
 800092e:	2501      	movs	r5, #1
 8000930:	1b98      	subs	r0, r3, r6
 8000932:	e6c5      	b.n	80006c0 <__aeabi_fadd+0x48>
 8000934:	2320      	movs	r3, #32
 8000936:	4644      	mov	r4, r8
 8000938:	4640      	mov	r0, r8
 800093a:	40d4      	lsrs	r4, r2
 800093c:	1a9a      	subs	r2, r3, r2
 800093e:	4090      	lsls	r0, r2
 8000940:	1e43      	subs	r3, r0, #1
 8000942:	4198      	sbcs	r0, r3
 8000944:	4320      	orrs	r0, r4
 8000946:	e7a4      	b.n	8000892 <__aeabi_fadd+0x21a>
 8000948:	000d      	movs	r5, r1
 800094a:	e74d      	b.n	80007e8 <__aeabi_fadd+0x170>
 800094c:	2320      	movs	r3, #32
 800094e:	4641      	mov	r1, r8
 8000950:	4640      	mov	r0, r8
 8000952:	40d1      	lsrs	r1, r2
 8000954:	1a9a      	subs	r2, r3, r2
 8000956:	4090      	lsls	r0, r2
 8000958:	1e43      	subs	r3, r0, #1
 800095a:	4198      	sbcs	r0, r3
 800095c:	4308      	orrs	r0, r1
 800095e:	e770      	b.n	8000842 <__aeabi_fadd+0x1ca>
 8000960:	4642      	mov	r2, r8
 8000962:	2a00      	cmp	r2, #0
 8000964:	d100      	bne.n	8000968 <__aeabi_fadd+0x2f0>
 8000966:	e74f      	b.n	8000808 <__aeabi_fadd+0x190>
 8000968:	2e00      	cmp	r6, #0
 800096a:	d100      	bne.n	800096e <__aeabi_fadd+0x2f6>
 800096c:	e74d      	b.n	800080a <__aeabi_fadd+0x192>
 800096e:	2280      	movs	r2, #128	; 0x80
 8000970:	03d2      	lsls	r2, r2, #15
 8000972:	4213      	tst	r3, r2
 8000974:	d100      	bne.n	8000978 <__aeabi_fadd+0x300>
 8000976:	e748      	b.n	800080a <__aeabi_fadd+0x192>
 8000978:	4210      	tst	r0, r2
 800097a:	d000      	beq.n	800097e <__aeabi_fadd+0x306>
 800097c:	e745      	b.n	800080a <__aeabi_fadd+0x192>
 800097e:	0003      	movs	r3, r0
 8000980:	e743      	b.n	800080a <__aeabi_fadd+0x192>
 8000982:	2e00      	cmp	r6, #0
 8000984:	d090      	beq.n	80008a8 <__aeabi_fadd+0x230>
 8000986:	000c      	movs	r4, r1
 8000988:	4684      	mov	ip, r0
 800098a:	2200      	movs	r2, #0
 800098c:	e6b9      	b.n	8000702 <__aeabi_fadd+0x8a>
 800098e:	4643      	mov	r3, r8
 8000990:	000c      	movs	r4, r1
 8000992:	1af0      	subs	r0, r6, r3
 8000994:	3501      	adds	r5, #1
 8000996:	e693      	b.n	80006c0 <__aeabi_fadd+0x48>
 8000998:	4684      	mov	ip, r0
 800099a:	2200      	movs	r2, #0
 800099c:	e6b1      	b.n	8000702 <__aeabi_fadd+0x8a>
 800099e:	2800      	cmp	r0, #0
 80009a0:	d000      	beq.n	80009a4 <__aeabi_fadd+0x32c>
 80009a2:	e71d      	b.n	80007e0 <__aeabi_fadd+0x168>
 80009a4:	2300      	movs	r3, #0
 80009a6:	2400      	movs	r4, #0
 80009a8:	469c      	mov	ip, r3
 80009aa:	e6aa      	b.n	8000702 <__aeabi_fadd+0x8a>
 80009ac:	fbffffff 	.word	0xfbffffff
 80009b0:	7dffffff 	.word	0x7dffffff

080009b4 <__aeabi_fdiv>:
 80009b4:	b5f0      	push	{r4, r5, r6, r7, lr}
 80009b6:	464f      	mov	r7, r9
 80009b8:	4646      	mov	r6, r8
 80009ba:	46d6      	mov	lr, sl
 80009bc:	0245      	lsls	r5, r0, #9
 80009be:	b5c0      	push	{r6, r7, lr}
 80009c0:	0047      	lsls	r7, r0, #1
 80009c2:	1c0c      	adds	r4, r1, #0
 80009c4:	0a6d      	lsrs	r5, r5, #9
 80009c6:	0e3f      	lsrs	r7, r7, #24
 80009c8:	0fc6      	lsrs	r6, r0, #31
 80009ca:	2f00      	cmp	r7, #0
 80009cc:	d100      	bne.n	80009d0 <__aeabi_fdiv+0x1c>
 80009ce:	e070      	b.n	8000ab2 <__aeabi_fdiv+0xfe>
 80009d0:	2fff      	cmp	r7, #255	; 0xff
 80009d2:	d100      	bne.n	80009d6 <__aeabi_fdiv+0x22>
 80009d4:	e075      	b.n	8000ac2 <__aeabi_fdiv+0x10e>
 80009d6:	00eb      	lsls	r3, r5, #3
 80009d8:	2580      	movs	r5, #128	; 0x80
 80009da:	04ed      	lsls	r5, r5, #19
 80009dc:	431d      	orrs	r5, r3
 80009de:	2300      	movs	r3, #0
 80009e0:	4699      	mov	r9, r3
 80009e2:	469a      	mov	sl, r3
 80009e4:	3f7f      	subs	r7, #127	; 0x7f
 80009e6:	0260      	lsls	r0, r4, #9
 80009e8:	0a43      	lsrs	r3, r0, #9
 80009ea:	4698      	mov	r8, r3
 80009ec:	0063      	lsls	r3, r4, #1
 80009ee:	0e1b      	lsrs	r3, r3, #24
 80009f0:	0fe4      	lsrs	r4, r4, #31
 80009f2:	2b00      	cmp	r3, #0
 80009f4:	d04e      	beq.n	8000a94 <__aeabi_fdiv+0xe0>
 80009f6:	2bff      	cmp	r3, #255	; 0xff
 80009f8:	d046      	beq.n	8000a88 <__aeabi_fdiv+0xd4>
 80009fa:	4642      	mov	r2, r8
 80009fc:	00d0      	lsls	r0, r2, #3
 80009fe:	2280      	movs	r2, #128	; 0x80
 8000a00:	04d2      	lsls	r2, r2, #19
 8000a02:	4302      	orrs	r2, r0
 8000a04:	4690      	mov	r8, r2
 8000a06:	2200      	movs	r2, #0
 8000a08:	3b7f      	subs	r3, #127	; 0x7f
 8000a0a:	0031      	movs	r1, r6
 8000a0c:	1aff      	subs	r7, r7, r3
 8000a0e:	464b      	mov	r3, r9
 8000a10:	4061      	eors	r1, r4
 8000a12:	b2c9      	uxtb	r1, r1
 8000a14:	4313      	orrs	r3, r2
 8000a16:	2b0f      	cmp	r3, #15
 8000a18:	d900      	bls.n	8000a1c <__aeabi_fdiv+0x68>
 8000a1a:	e0b5      	b.n	8000b88 <__aeabi_fdiv+0x1d4>
 8000a1c:	486e      	ldr	r0, [pc, #440]	; (8000bd8 <__aeabi_fdiv+0x224>)
 8000a1e:	009b      	lsls	r3, r3, #2
 8000a20:	58c3      	ldr	r3, [r0, r3]
 8000a22:	469f      	mov	pc, r3
 8000a24:	2300      	movs	r3, #0
 8000a26:	4698      	mov	r8, r3
 8000a28:	0026      	movs	r6, r4
 8000a2a:	4645      	mov	r5, r8
 8000a2c:	4692      	mov	sl, r2
 8000a2e:	4653      	mov	r3, sl
 8000a30:	2b02      	cmp	r3, #2
 8000a32:	d100      	bne.n	8000a36 <__aeabi_fdiv+0x82>
 8000a34:	e089      	b.n	8000b4a <__aeabi_fdiv+0x196>
 8000a36:	2b03      	cmp	r3, #3
 8000a38:	d100      	bne.n	8000a3c <__aeabi_fdiv+0x88>
 8000a3a:	e09e      	b.n	8000b7a <__aeabi_fdiv+0x1c6>
 8000a3c:	2b01      	cmp	r3, #1
 8000a3e:	d018      	beq.n	8000a72 <__aeabi_fdiv+0xbe>
 8000a40:	003b      	movs	r3, r7
 8000a42:	337f      	adds	r3, #127	; 0x7f
 8000a44:	2b00      	cmp	r3, #0
 8000a46:	dd69      	ble.n	8000b1c <__aeabi_fdiv+0x168>
 8000a48:	076a      	lsls	r2, r5, #29
 8000a4a:	d004      	beq.n	8000a56 <__aeabi_fdiv+0xa2>
 8000a4c:	220f      	movs	r2, #15
 8000a4e:	402a      	ands	r2, r5
 8000a50:	2a04      	cmp	r2, #4
 8000a52:	d000      	beq.n	8000a56 <__aeabi_fdiv+0xa2>
 8000a54:	3504      	adds	r5, #4
 8000a56:	012a      	lsls	r2, r5, #4
 8000a58:	d503      	bpl.n	8000a62 <__aeabi_fdiv+0xae>
 8000a5a:	4b60      	ldr	r3, [pc, #384]	; (8000bdc <__aeabi_fdiv+0x228>)
 8000a5c:	401d      	ands	r5, r3
 8000a5e:	003b      	movs	r3, r7
 8000a60:	3380      	adds	r3, #128	; 0x80
 8000a62:	2bfe      	cmp	r3, #254	; 0xfe
 8000a64:	dd00      	ble.n	8000a68 <__aeabi_fdiv+0xb4>
 8000a66:	e070      	b.n	8000b4a <__aeabi_fdiv+0x196>
 8000a68:	01ad      	lsls	r5, r5, #6
 8000a6a:	0a6d      	lsrs	r5, r5, #9
 8000a6c:	b2d8      	uxtb	r0, r3
 8000a6e:	e002      	b.n	8000a76 <__aeabi_fdiv+0xc2>
 8000a70:	000e      	movs	r6, r1
 8000a72:	2000      	movs	r0, #0
 8000a74:	2500      	movs	r5, #0
 8000a76:	05c0      	lsls	r0, r0, #23
 8000a78:	4328      	orrs	r0, r5
 8000a7a:	07f6      	lsls	r6, r6, #31
 8000a7c:	4330      	orrs	r0, r6
 8000a7e:	bce0      	pop	{r5, r6, r7}
 8000a80:	46ba      	mov	sl, r7
 8000a82:	46b1      	mov	r9, r6
 8000a84:	46a8      	mov	r8, r5
 8000a86:	bdf0      	pop	{r4, r5, r6, r7, pc}
 8000a88:	4643      	mov	r3, r8
 8000a8a:	2b00      	cmp	r3, #0
 8000a8c:	d13f      	bne.n	8000b0e <__aeabi_fdiv+0x15a>
 8000a8e:	2202      	movs	r2, #2
 8000a90:	3fff      	subs	r7, #255	; 0xff
 8000a92:	e003      	b.n	8000a9c <__aeabi_fdiv+0xe8>
 8000a94:	4643      	mov	r3, r8
 8000a96:	2b00      	cmp	r3, #0
 8000a98:	d12d      	bne.n	8000af6 <__aeabi_fdiv+0x142>
 8000a9a:	2201      	movs	r2, #1
 8000a9c:	0031      	movs	r1, r6
 8000a9e:	464b      	mov	r3, r9
 8000aa0:	4061      	eors	r1, r4
 8000aa2:	b2c9      	uxtb	r1, r1
 8000aa4:	4313      	orrs	r3, r2
 8000aa6:	2b0f      	cmp	r3, #15
 8000aa8:	d834      	bhi.n	8000b14 <__aeabi_fdiv+0x160>
 8000aaa:	484d      	ldr	r0, [pc, #308]	; (8000be0 <__aeabi_fdiv+0x22c>)
 8000aac:	009b      	lsls	r3, r3, #2
 8000aae:	58c3      	ldr	r3, [r0, r3]
 8000ab0:	469f      	mov	pc, r3
 8000ab2:	2d00      	cmp	r5, #0
 8000ab4:	d113      	bne.n	8000ade <__aeabi_fdiv+0x12a>
 8000ab6:	2304      	movs	r3, #4
 8000ab8:	4699      	mov	r9, r3
 8000aba:	3b03      	subs	r3, #3
 8000abc:	2700      	movs	r7, #0
 8000abe:	469a      	mov	sl, r3
 8000ac0:	e791      	b.n	80009e6 <__aeabi_fdiv+0x32>
 8000ac2:	2d00      	cmp	r5, #0
 8000ac4:	d105      	bne.n	8000ad2 <__aeabi_fdiv+0x11e>
 8000ac6:	2308      	movs	r3, #8
 8000ac8:	4699      	mov	r9, r3
 8000aca:	3b06      	subs	r3, #6
 8000acc:	27ff      	movs	r7, #255	; 0xff
 8000ace:	469a      	mov	sl, r3
 8000ad0:	e789      	b.n	80009e6 <__aeabi_fdiv+0x32>
 8000ad2:	230c      	movs	r3, #12
 8000ad4:	4699      	mov	r9, r3
 8000ad6:	3b09      	subs	r3, #9
 8000ad8:	27ff      	movs	r7, #255	; 0xff
 8000ada:	469a      	mov	sl, r3
 8000adc:	e783      	b.n	80009e6 <__aeabi_fdiv+0x32>
 8000ade:	0028      	movs	r0, r5
 8000ae0:	f001 faae 	bl	8002040 <__clzsi2>
 8000ae4:	2776      	movs	r7, #118	; 0x76
 8000ae6:	1f43      	subs	r3, r0, #5
 8000ae8:	409d      	lsls	r5, r3
 8000aea:	2300      	movs	r3, #0
 8000aec:	427f      	negs	r7, r7
 8000aee:	4699      	mov	r9, r3
 8000af0:	469a      	mov	sl, r3
 8000af2:	1a3f      	subs	r7, r7, r0
 8000af4:	e777      	b.n	80009e6 <__aeabi_fdiv+0x32>
 8000af6:	4640      	mov	r0, r8
 8000af8:	f001 faa2 	bl	8002040 <__clzsi2>
 8000afc:	4642      	mov	r2, r8
 8000afe:	1f43      	subs	r3, r0, #5
 8000b00:	409a      	lsls	r2, r3
 8000b02:	2376      	movs	r3, #118	; 0x76
 8000b04:	425b      	negs	r3, r3
 8000b06:	4690      	mov	r8, r2
 8000b08:	1a1b      	subs	r3, r3, r0
 8000b0a:	2200      	movs	r2, #0
 8000b0c:	e77d      	b.n	8000a0a <__aeabi_fdiv+0x56>
 8000b0e:	23ff      	movs	r3, #255	; 0xff
 8000b10:	2203      	movs	r2, #3
 8000b12:	e77a      	b.n	8000a0a <__aeabi_fdiv+0x56>
 8000b14:	000e      	movs	r6, r1
 8000b16:	20ff      	movs	r0, #255	; 0xff
 8000b18:	2500      	movs	r5, #0
 8000b1a:	e7ac      	b.n	8000a76 <__aeabi_fdiv+0xc2>
 8000b1c:	2001      	movs	r0, #1
 8000b1e:	1ac0      	subs	r0, r0, r3
 8000b20:	281b      	cmp	r0, #27
 8000b22:	dca6      	bgt.n	8000a72 <__aeabi_fdiv+0xbe>
 8000b24:	379e      	adds	r7, #158	; 0x9e
 8000b26:	002a      	movs	r2, r5
 8000b28:	40bd      	lsls	r5, r7
 8000b2a:	40c2      	lsrs	r2, r0
 8000b2c:	1e6b      	subs	r3, r5, #1
 8000b2e:	419d      	sbcs	r5, r3
 8000b30:	4315      	orrs	r5, r2
 8000b32:	076b      	lsls	r3, r5, #29
 8000b34:	d004      	beq.n	8000b40 <__aeabi_fdiv+0x18c>
 8000b36:	230f      	movs	r3, #15
 8000b38:	402b      	ands	r3, r5
 8000b3a:	2b04      	cmp	r3, #4
 8000b3c:	d000      	beq.n	8000b40 <__aeabi_fdiv+0x18c>
 8000b3e:	3504      	adds	r5, #4
 8000b40:	016b      	lsls	r3, r5, #5
 8000b42:	d544      	bpl.n	8000bce <__aeabi_fdiv+0x21a>
 8000b44:	2001      	movs	r0, #1
 8000b46:	2500      	movs	r5, #0
 8000b48:	e795      	b.n	8000a76 <__aeabi_fdiv+0xc2>
 8000b4a:	20ff      	movs	r0, #255	; 0xff
 8000b4c:	2500      	movs	r5, #0
 8000b4e:	e792      	b.n	8000a76 <__aeabi_fdiv+0xc2>
 8000b50:	2580      	movs	r5, #128	; 0x80
 8000b52:	2600      	movs	r6, #0
 8000b54:	20ff      	movs	r0, #255	; 0xff
 8000b56:	03ed      	lsls	r5, r5, #15
 8000b58:	e78d      	b.n	8000a76 <__aeabi_fdiv+0xc2>
 8000b5a:	2300      	movs	r3, #0
 8000b5c:	4698      	mov	r8, r3
 8000b5e:	2080      	movs	r0, #128	; 0x80
 8000b60:	03c0      	lsls	r0, r0, #15
 8000b62:	4205      	tst	r5, r0
 8000b64:	d009      	beq.n	8000b7a <__aeabi_fdiv+0x1c6>
 8000b66:	4643      	mov	r3, r8
 8000b68:	4203      	tst	r3, r0
 8000b6a:	d106      	bne.n	8000b7a <__aeabi_fdiv+0x1c6>
 8000b6c:	4645      	mov	r5, r8
 8000b6e:	4305      	orrs	r5, r0
 8000b70:	026d      	lsls	r5, r5, #9
 8000b72:	0026      	movs	r6, r4
 8000b74:	20ff      	movs	r0, #255	; 0xff
 8000b76:	0a6d      	lsrs	r5, r5, #9
 8000b78:	e77d      	b.n	8000a76 <__aeabi_fdiv+0xc2>
 8000b7a:	2080      	movs	r0, #128	; 0x80
 8000b7c:	03c0      	lsls	r0, r0, #15
 8000b7e:	4305      	orrs	r5, r0
 8000b80:	026d      	lsls	r5, r5, #9
 8000b82:	20ff      	movs	r0, #255	; 0xff
 8000b84:	0a6d      	lsrs	r5, r5, #9
 8000b86:	e776      	b.n	8000a76 <__aeabi_fdiv+0xc2>
 8000b88:	4642      	mov	r2, r8
 8000b8a:	016b      	lsls	r3, r5, #5
 8000b8c:	0150      	lsls	r0, r2, #5
 8000b8e:	4283      	cmp	r3, r0
 8000b90:	d219      	bcs.n	8000bc6 <__aeabi_fdiv+0x212>
 8000b92:	221b      	movs	r2, #27
 8000b94:	2500      	movs	r5, #0
 8000b96:	3f01      	subs	r7, #1
 8000b98:	2601      	movs	r6, #1
 8000b9a:	001c      	movs	r4, r3
 8000b9c:	006d      	lsls	r5, r5, #1
 8000b9e:	005b      	lsls	r3, r3, #1
 8000ba0:	2c00      	cmp	r4, #0
 8000ba2:	db01      	blt.n	8000ba8 <__aeabi_fdiv+0x1f4>
 8000ba4:	4298      	cmp	r0, r3
 8000ba6:	d801      	bhi.n	8000bac <__aeabi_fdiv+0x1f8>
 8000ba8:	1a1b      	subs	r3, r3, r0
 8000baa:	4335      	orrs	r5, r6
 8000bac:	3a01      	subs	r2, #1
 8000bae:	2a00      	cmp	r2, #0
 8000bb0:	d1f3      	bne.n	8000b9a <__aeabi_fdiv+0x1e6>
 8000bb2:	1e5a      	subs	r2, r3, #1
 8000bb4:	4193      	sbcs	r3, r2
 8000bb6:	431d      	orrs	r5, r3
 8000bb8:	003b      	movs	r3, r7
 8000bba:	337f      	adds	r3, #127	; 0x7f
 8000bbc:	000e      	movs	r6, r1
 8000bbe:	2b00      	cmp	r3, #0
 8000bc0:	dd00      	ble.n	8000bc4 <__aeabi_fdiv+0x210>
 8000bc2:	e741      	b.n	8000a48 <__aeabi_fdiv+0x94>
 8000bc4:	e7aa      	b.n	8000b1c <__aeabi_fdiv+0x168>
 8000bc6:	221a      	movs	r2, #26
 8000bc8:	2501      	movs	r5, #1
 8000bca:	1a1b      	subs	r3, r3, r0
 8000bcc:	e7e4      	b.n	8000b98 <__aeabi_fdiv+0x1e4>
 8000bce:	01ad      	lsls	r5, r5, #6
 8000bd0:	2000      	movs	r0, #0
 8000bd2:	0a6d      	lsrs	r5, r5, #9
 8000bd4:	e74f      	b.n	8000a76 <__aeabi_fdiv+0xc2>
 8000bd6:	46c0      	nop			; (mov r8, r8)
 8000bd8:	08006b94 	.word	0x08006b94
 8000bdc:	f7ffffff 	.word	0xf7ffffff
 8000be0:	08006bd4 	.word	0x08006bd4

08000be4 <__aeabi_i2f>:
 8000be4:	b5f8      	push	{r3, r4, r5, r6, r7, lr}
 8000be6:	2800      	cmp	r0, #0
 8000be8:	d013      	beq.n	8000c12 <__aeabi_i2f+0x2e>
 8000bea:	17c3      	asrs	r3, r0, #31
 8000bec:	18c6      	adds	r6, r0, r3
 8000bee:	405e      	eors	r6, r3
 8000bf0:	0fc4      	lsrs	r4, r0, #31
 8000bf2:	0030      	movs	r0, r6
 8000bf4:	f001 fa24 	bl	8002040 <__clzsi2>
 8000bf8:	239e      	movs	r3, #158	; 0x9e
 8000bfa:	0005      	movs	r5, r0
 8000bfc:	1a1b      	subs	r3, r3, r0
 8000bfe:	2b96      	cmp	r3, #150	; 0x96
 8000c00:	dc0f      	bgt.n	8000c22 <__aeabi_i2f+0x3e>
 8000c02:	2808      	cmp	r0, #8
 8000c04:	dd01      	ble.n	8000c0a <__aeabi_i2f+0x26>
 8000c06:	3d08      	subs	r5, #8
 8000c08:	40ae      	lsls	r6, r5
 8000c0a:	0276      	lsls	r6, r6, #9
 8000c0c:	0a76      	lsrs	r6, r6, #9
 8000c0e:	b2d8      	uxtb	r0, r3
 8000c10:	e002      	b.n	8000c18 <__aeabi_i2f+0x34>
 8000c12:	2400      	movs	r4, #0
 8000c14:	2000      	movs	r0, #0
 8000c16:	2600      	movs	r6, #0
 8000c18:	05c0      	lsls	r0, r0, #23
 8000c1a:	4330      	orrs	r0, r6
 8000c1c:	07e4      	lsls	r4, r4, #31
 8000c1e:	4320      	orrs	r0, r4
 8000c20:	bdf8      	pop	{r3, r4, r5, r6, r7, pc}
 8000c22:	2b99      	cmp	r3, #153	; 0x99
 8000c24:	dd0c      	ble.n	8000c40 <__aeabi_i2f+0x5c>
 8000c26:	2205      	movs	r2, #5
 8000c28:	0031      	movs	r1, r6
 8000c2a:	1a12      	subs	r2, r2, r0
 8000c2c:	40d1      	lsrs	r1, r2
 8000c2e:	000a      	movs	r2, r1
 8000c30:	0001      	movs	r1, r0
 8000c32:	0030      	movs	r0, r6
 8000c34:	311b      	adds	r1, #27
 8000c36:	4088      	lsls	r0, r1
 8000c38:	1e41      	subs	r1, r0, #1
 8000c3a:	4188      	sbcs	r0, r1
 8000c3c:	4302      	orrs	r2, r0
 8000c3e:	0016      	movs	r6, r2
 8000c40:	2d05      	cmp	r5, #5
 8000c42:	dc12      	bgt.n	8000c6a <__aeabi_i2f+0x86>
 8000c44:	0031      	movs	r1, r6
 8000c46:	4f0d      	ldr	r7, [pc, #52]	; (8000c7c <__aeabi_i2f+0x98>)
 8000c48:	4039      	ands	r1, r7
 8000c4a:	0772      	lsls	r2, r6, #29
 8000c4c:	d009      	beq.n	8000c62 <__aeabi_i2f+0x7e>
 8000c4e:	200f      	movs	r0, #15
 8000c50:	4030      	ands	r0, r6
 8000c52:	2804      	cmp	r0, #4
 8000c54:	d005      	beq.n	8000c62 <__aeabi_i2f+0x7e>
 8000c56:	3104      	adds	r1, #4
 8000c58:	014a      	lsls	r2, r1, #5
 8000c5a:	d502      	bpl.n	8000c62 <__aeabi_i2f+0x7e>
 8000c5c:	239f      	movs	r3, #159	; 0x9f
 8000c5e:	4039      	ands	r1, r7
 8000c60:	1b5b      	subs	r3, r3, r5
 8000c62:	0189      	lsls	r1, r1, #6
 8000c64:	0a4e      	lsrs	r6, r1, #9
 8000c66:	b2d8      	uxtb	r0, r3
 8000c68:	e7d6      	b.n	8000c18 <__aeabi_i2f+0x34>
 8000c6a:	1f6a      	subs	r2, r5, #5
 8000c6c:	4096      	lsls	r6, r2
 8000c6e:	0031      	movs	r1, r6
 8000c70:	4f02      	ldr	r7, [pc, #8]	; (8000c7c <__aeabi_i2f+0x98>)
 8000c72:	4039      	ands	r1, r7
 8000c74:	0772      	lsls	r2, r6, #29
 8000c76:	d0f4      	beq.n	8000c62 <__aeabi_i2f+0x7e>
 8000c78:	e7e9      	b.n	8000c4e <__aeabi_i2f+0x6a>
 8000c7a:	46c0      	nop			; (mov r8, r8)
 8000c7c:	fbffffff 	.word	0xfbffffff

08000c80 <__aeabi_ddiv>:
 8000c80:	b5f0      	push	{r4, r5, r6, r7, lr}
 8000c82:	4657      	mov	r7, sl
 8000c84:	464e      	mov	r6, r9
 8000c86:	4645      	mov	r5, r8
 8000c88:	46de      	mov	lr, fp
 8000c8a:	b5e0      	push	{r5, r6, r7, lr}
 8000c8c:	4681      	mov	r9, r0
 8000c8e:	0005      	movs	r5, r0
 8000c90:	030c      	lsls	r4, r1, #12
 8000c92:	0048      	lsls	r0, r1, #1
 8000c94:	4692      	mov	sl, r2
 8000c96:	001f      	movs	r7, r3
 8000c98:	b085      	sub	sp, #20
 8000c9a:	0b24      	lsrs	r4, r4, #12
 8000c9c:	0d40      	lsrs	r0, r0, #21
 8000c9e:	0fce      	lsrs	r6, r1, #31
 8000ca0:	2800      	cmp	r0, #0
 8000ca2:	d100      	bne.n	8000ca6 <__aeabi_ddiv+0x26>
 8000ca4:	e156      	b.n	8000f54 <__aeabi_ddiv+0x2d4>
 8000ca6:	4bd4      	ldr	r3, [pc, #848]	; (8000ff8 <__aeabi_ddiv+0x378>)
 8000ca8:	4298      	cmp	r0, r3
 8000caa:	d100      	bne.n	8000cae <__aeabi_ddiv+0x2e>
 8000cac:	e172      	b.n	8000f94 <__aeabi_ddiv+0x314>
 8000cae:	0f6b      	lsrs	r3, r5, #29
 8000cb0:	00e4      	lsls	r4, r4, #3
 8000cb2:	431c      	orrs	r4, r3
 8000cb4:	2380      	movs	r3, #128	; 0x80
 8000cb6:	041b      	lsls	r3, r3, #16
 8000cb8:	4323      	orrs	r3, r4
 8000cba:	4698      	mov	r8, r3
 8000cbc:	4bcf      	ldr	r3, [pc, #828]	; (8000ffc <__aeabi_ddiv+0x37c>)
 8000cbe:	00ed      	lsls	r5, r5, #3
 8000cc0:	469b      	mov	fp, r3
 8000cc2:	2300      	movs	r3, #0
 8000cc4:	4699      	mov	r9, r3
 8000cc6:	4483      	add	fp, r0
 8000cc8:	9300      	str	r3, [sp, #0]
 8000cca:	033c      	lsls	r4, r7, #12
 8000ccc:	007b      	lsls	r3, r7, #1
 8000cce:	4650      	mov	r0, sl
 8000cd0:	0b24      	lsrs	r4, r4, #12
 8000cd2:	0d5b      	lsrs	r3, r3, #21
 8000cd4:	0fff      	lsrs	r7, r7, #31
 8000cd6:	2b00      	cmp	r3, #0
 8000cd8:	d100      	bne.n	8000cdc <__aeabi_ddiv+0x5c>
 8000cda:	e11f      	b.n	8000f1c <__aeabi_ddiv+0x29c>
 8000cdc:	4ac6      	ldr	r2, [pc, #792]	; (8000ff8 <__aeabi_ddiv+0x378>)
 8000cde:	4293      	cmp	r3, r2
 8000ce0:	d100      	bne.n	8000ce4 <__aeabi_ddiv+0x64>
 8000ce2:	e162      	b.n	8000faa <__aeabi_ddiv+0x32a>
 8000ce4:	49c5      	ldr	r1, [pc, #788]	; (8000ffc <__aeabi_ddiv+0x37c>)
 8000ce6:	0f42      	lsrs	r2, r0, #29
 8000ce8:	468c      	mov	ip, r1
 8000cea:	00e4      	lsls	r4, r4, #3
 8000cec:	4659      	mov	r1, fp
 8000cee:	4314      	orrs	r4, r2
 8000cf0:	2280      	movs	r2, #128	; 0x80
 8000cf2:	4463      	add	r3, ip
 8000cf4:	0412      	lsls	r2, r2, #16
 8000cf6:	1acb      	subs	r3, r1, r3
 8000cf8:	4314      	orrs	r4, r2
 8000cfa:	469b      	mov	fp, r3
 8000cfc:	00c2      	lsls	r2, r0, #3
 8000cfe:	2000      	movs	r0, #0
 8000d00:	0033      	movs	r3, r6
 8000d02:	407b      	eors	r3, r7
 8000d04:	469a      	mov	sl, r3
 8000d06:	464b      	mov	r3, r9
 8000d08:	2b0f      	cmp	r3, #15
 8000d0a:	d827      	bhi.n	8000d5c <__aeabi_ddiv+0xdc>
 8000d0c:	49bc      	ldr	r1, [pc, #752]	; (8001000 <__aeabi_ddiv+0x380>)
 8000d0e:	009b      	lsls	r3, r3, #2
 8000d10:	58cb      	ldr	r3, [r1, r3]
 8000d12:	469f      	mov	pc, r3
 8000d14:	46b2      	mov	sl, r6
 8000d16:	9b00      	ldr	r3, [sp, #0]
 8000d18:	2b02      	cmp	r3, #2
 8000d1a:	d016      	beq.n	8000d4a <__aeabi_ddiv+0xca>
 8000d1c:	2b03      	cmp	r3, #3
 8000d1e:	d100      	bne.n	8000d22 <__aeabi_ddiv+0xa2>
 8000d20:	e28e      	b.n	8001240 <__aeabi_ddiv+0x5c0>
 8000d22:	2b01      	cmp	r3, #1
 8000d24:	d000      	beq.n	8000d28 <__aeabi_ddiv+0xa8>
 8000d26:	e0d9      	b.n	8000edc <__aeabi_ddiv+0x25c>
 8000d28:	2300      	movs	r3, #0
 8000d2a:	2400      	movs	r4, #0
 8000d2c:	2500      	movs	r5, #0
 8000d2e:	4652      	mov	r2, sl
 8000d30:	051b      	lsls	r3, r3, #20
 8000d32:	4323      	orrs	r3, r4
 8000d34:	07d2      	lsls	r2, r2, #31
 8000d36:	4313      	orrs	r3, r2
 8000d38:	0028      	movs	r0, r5
 8000d3a:	0019      	movs	r1, r3
 8000d3c:	b005      	add	sp, #20
 8000d3e:	bcf0      	pop	{r4, r5, r6, r7}
 8000d40:	46bb      	mov	fp, r7
 8000d42:	46b2      	mov	sl, r6
 8000d44:	46a9      	mov	r9, r5
 8000d46:	46a0      	mov	r8, r4
 8000d48:	bdf0      	pop	{r4, r5, r6, r7, pc}
 8000d4a:	2400      	movs	r4, #0
 8000d4c:	2500      	movs	r5, #0
 8000d4e:	4baa      	ldr	r3, [pc, #680]	; (8000ff8 <__aeabi_ddiv+0x378>)
 8000d50:	e7ed      	b.n	8000d2e <__aeabi_ddiv+0xae>
 8000d52:	46ba      	mov	sl, r7
 8000d54:	46a0      	mov	r8, r4
 8000d56:	0015      	movs	r5, r2
 8000d58:	9000      	str	r0, [sp, #0]
 8000d5a:	e7dc      	b.n	8000d16 <__aeabi_ddiv+0x96>
 8000d5c:	4544      	cmp	r4, r8
 8000d5e:	d200      	bcs.n	8000d62 <__aeabi_ddiv+0xe2>
 8000d60:	e1c7      	b.n	80010f2 <__aeabi_ddiv+0x472>
 8000d62:	d100      	bne.n	8000d66 <__aeabi_ddiv+0xe6>
 8000d64:	e1c2      	b.n	80010ec <__aeabi_ddiv+0x46c>
 8000d66:	2301      	movs	r3, #1
 8000d68:	425b      	negs	r3, r3
 8000d6a:	469c      	mov	ip, r3
 8000d6c:	002e      	movs	r6, r5
 8000d6e:	4640      	mov	r0, r8
 8000d70:	2500      	movs	r5, #0
 8000d72:	44e3      	add	fp, ip
 8000d74:	0223      	lsls	r3, r4, #8
 8000d76:	0e14      	lsrs	r4, r2, #24
 8000d78:	431c      	orrs	r4, r3
 8000d7a:	0c1b      	lsrs	r3, r3, #16
 8000d7c:	4699      	mov	r9, r3
 8000d7e:	0423      	lsls	r3, r4, #16
 8000d80:	0c1f      	lsrs	r7, r3, #16
 8000d82:	0212      	lsls	r2, r2, #8
 8000d84:	4649      	mov	r1, r9
 8000d86:	9200      	str	r2, [sp, #0]
 8000d88:	9701      	str	r7, [sp, #4]
 8000d8a:	f7ff fa4d 	bl	8000228 <__aeabi_uidivmod>
 8000d8e:	0002      	movs	r2, r0
 8000d90:	437a      	muls	r2, r7
 8000d92:	040b      	lsls	r3, r1, #16
 8000d94:	0c31      	lsrs	r1, r6, #16
 8000d96:	4680      	mov	r8, r0
 8000d98:	4319      	orrs	r1, r3
 8000d9a:	428a      	cmp	r2, r1
 8000d9c:	d907      	bls.n	8000dae <__aeabi_ddiv+0x12e>
 8000d9e:	2301      	movs	r3, #1
 8000da0:	425b      	negs	r3, r3
 8000da2:	469c      	mov	ip, r3
 8000da4:	1909      	adds	r1, r1, r4
 8000da6:	44e0      	add	r8, ip
 8000da8:	428c      	cmp	r4, r1
 8000daa:	d800      	bhi.n	8000dae <__aeabi_ddiv+0x12e>
 8000dac:	e207      	b.n	80011be <__aeabi_ddiv+0x53e>
 8000dae:	1a88      	subs	r0, r1, r2
 8000db0:	4649      	mov	r1, r9
 8000db2:	f7ff fa39 	bl	8000228 <__aeabi_uidivmod>
 8000db6:	0409      	lsls	r1, r1, #16
 8000db8:	468c      	mov	ip, r1
 8000dba:	0431      	lsls	r1, r6, #16
 8000dbc:	4666      	mov	r6, ip
 8000dbe:	9a01      	ldr	r2, [sp, #4]
 8000dc0:	0c09      	lsrs	r1, r1, #16
 8000dc2:	4342      	muls	r2, r0
 8000dc4:	0003      	movs	r3, r0
 8000dc6:	4331      	orrs	r1, r6
 8000dc8:	428a      	cmp	r2, r1
 8000dca:	d904      	bls.n	8000dd6 <__aeabi_ddiv+0x156>
 8000dcc:	1909      	adds	r1, r1, r4
 8000dce:	3b01      	subs	r3, #1
 8000dd0:	428c      	cmp	r4, r1
 8000dd2:	d800      	bhi.n	8000dd6 <__aeabi_ddiv+0x156>
 8000dd4:	e1ed      	b.n	80011b2 <__aeabi_ddiv+0x532>
 8000dd6:	1a88      	subs	r0, r1, r2
 8000dd8:	4642      	mov	r2, r8
 8000dda:	0412      	lsls	r2, r2, #16
 8000ddc:	431a      	orrs	r2, r3
 8000dde:	4690      	mov	r8, r2
 8000de0:	4641      	mov	r1, r8
 8000de2:	9b00      	ldr	r3, [sp, #0]
 8000de4:	040e      	lsls	r6, r1, #16
 8000de6:	0c1b      	lsrs	r3, r3, #16
 8000de8:	001f      	movs	r7, r3
 8000dea:	9302      	str	r3, [sp, #8]
 8000dec:	9b00      	ldr	r3, [sp, #0]
 8000dee:	0c36      	lsrs	r6, r6, #16
 8000df0:	041b      	lsls	r3, r3, #16
 8000df2:	0c19      	lsrs	r1, r3, #16
 8000df4:	000b      	movs	r3, r1
 8000df6:	4373      	muls	r3, r6
 8000df8:	0c12      	lsrs	r2, r2, #16
 8000dfa:	437e      	muls	r6, r7
 8000dfc:	9103      	str	r1, [sp, #12]
 8000dfe:	4351      	muls	r1, r2
 8000e00:	437a      	muls	r2, r7
 8000e02:	0c1f      	lsrs	r7, r3, #16
 8000e04:	46bc      	mov	ip, r7
 8000e06:	1876      	adds	r6, r6, r1
 8000e08:	4466      	add	r6, ip
 8000e0a:	42b1      	cmp	r1, r6
 8000e0c:	d903      	bls.n	8000e16 <__aeabi_ddiv+0x196>
 8000e0e:	2180      	movs	r1, #128	; 0x80
 8000e10:	0249      	lsls	r1, r1, #9
 8000e12:	468c      	mov	ip, r1
 8000e14:	4462      	add	r2, ip
 8000e16:	0c31      	lsrs	r1, r6, #16
 8000e18:	188a      	adds	r2, r1, r2
 8000e1a:	0431      	lsls	r1, r6, #16
 8000e1c:	041e      	lsls	r6, r3, #16
 8000e1e:	0c36      	lsrs	r6, r6, #16
 8000e20:	198e      	adds	r6, r1, r6
 8000e22:	4290      	cmp	r0, r2
 8000e24:	d302      	bcc.n	8000e2c <__aeabi_ddiv+0x1ac>
 8000e26:	d112      	bne.n	8000e4e <__aeabi_ddiv+0x1ce>
 8000e28:	42b5      	cmp	r5, r6
 8000e2a:	d210      	bcs.n	8000e4e <__aeabi_ddiv+0x1ce>
 8000e2c:	4643      	mov	r3, r8
 8000e2e:	1e59      	subs	r1, r3, #1
 8000e30:	9b00      	ldr	r3, [sp, #0]
 8000e32:	469c      	mov	ip, r3
 8000e34:	4465      	add	r5, ip
 8000e36:	001f      	movs	r7, r3
 8000e38:	429d      	cmp	r5, r3
 8000e3a:	419b      	sbcs	r3, r3
 8000e3c:	425b      	negs	r3, r3
 8000e3e:	191b      	adds	r3, r3, r4
 8000e40:	18c0      	adds	r0, r0, r3
 8000e42:	4284      	cmp	r4, r0
 8000e44:	d200      	bcs.n	8000e48 <__aeabi_ddiv+0x1c8>
 8000e46:	e1a0      	b.n	800118a <__aeabi_ddiv+0x50a>
 8000e48:	d100      	bne.n	8000e4c <__aeabi_ddiv+0x1cc>
 8000e4a:	e19b      	b.n	8001184 <__aeabi_ddiv+0x504>
 8000e4c:	4688      	mov	r8, r1
 8000e4e:	1bae      	subs	r6, r5, r6
 8000e50:	42b5      	cmp	r5, r6
 8000e52:	41ad      	sbcs	r5, r5
 8000e54:	1a80      	subs	r0, r0, r2
 8000e56:	426d      	negs	r5, r5
 8000e58:	1b40      	subs	r0, r0, r5
 8000e5a:	4284      	cmp	r4, r0
 8000e5c:	d100      	bne.n	8000e60 <__aeabi_ddiv+0x1e0>
 8000e5e:	e1d5      	b.n	800120c <__aeabi_ddiv+0x58c>
 8000e60:	4649      	mov	r1, r9
 8000e62:	f7ff f9e1 	bl	8000228 <__aeabi_uidivmod>
 8000e66:	9a01      	ldr	r2, [sp, #4]
 8000e68:	040b      	lsls	r3, r1, #16
 8000e6a:	4342      	muls	r2, r0
 8000e6c:	0c31      	lsrs	r1, r6, #16
 8000e6e:	0005      	movs	r5, r0
 8000e70:	4319      	orrs	r1, r3
 8000e72:	428a      	cmp	r2, r1
 8000e74:	d900      	bls.n	8000e78 <__aeabi_ddiv+0x1f8>
 8000e76:	e16c      	b.n	8001152 <__aeabi_ddiv+0x4d2>
 8000e78:	1a88      	subs	r0, r1, r2
 8000e7a:	4649      	mov	r1, r9
 8000e7c:	f7ff f9d4 	bl	8000228 <__aeabi_uidivmod>
 8000e80:	9a01      	ldr	r2, [sp, #4]
 8000e82:	0436      	lsls	r6, r6, #16
 8000e84:	4342      	muls	r2, r0
 8000e86:	0409      	lsls	r1, r1, #16
 8000e88:	0c36      	lsrs	r6, r6, #16
 8000e8a:	0003      	movs	r3, r0
 8000e8c:	430e      	orrs	r6, r1
 8000e8e:	42b2      	cmp	r2, r6
 8000e90:	d900      	bls.n	8000e94 <__aeabi_ddiv+0x214>
 8000e92:	e153      	b.n	800113c <__aeabi_ddiv+0x4bc>
 8000e94:	9803      	ldr	r0, [sp, #12]
 8000e96:	1ab6      	subs	r6, r6, r2
 8000e98:	0002      	movs	r2, r0
 8000e9a:	042d      	lsls	r5, r5, #16
 8000e9c:	431d      	orrs	r5, r3
 8000e9e:	9f02      	ldr	r7, [sp, #8]
 8000ea0:	042b      	lsls	r3, r5, #16
 8000ea2:	0c1b      	lsrs	r3, r3, #16
 8000ea4:	435a      	muls	r2, r3
 8000ea6:	437b      	muls	r3, r7
 8000ea8:	469c      	mov	ip, r3
 8000eaa:	0c29      	lsrs	r1, r5, #16
 8000eac:	4348      	muls	r0, r1
 8000eae:	0c13      	lsrs	r3, r2, #16
 8000eb0:	4484      	add	ip, r0
 8000eb2:	4463      	add	r3, ip
 8000eb4:	4379      	muls	r1, r7
 8000eb6:	4298      	cmp	r0, r3
 8000eb8:	d903      	bls.n	8000ec2 <__aeabi_ddiv+0x242>
 8000eba:	2080      	movs	r0, #128	; 0x80
 8000ebc:	0240      	lsls	r0, r0, #9
 8000ebe:	4684      	mov	ip, r0
 8000ec0:	4461      	add	r1, ip
 8000ec2:	0c18      	lsrs	r0, r3, #16
 8000ec4:	0412      	lsls	r2, r2, #16
 8000ec6:	041b      	lsls	r3, r3, #16
 8000ec8:	0c12      	lsrs	r2, r2, #16
 8000eca:	1841      	adds	r1, r0, r1
 8000ecc:	189b      	adds	r3, r3, r2
 8000ece:	428e      	cmp	r6, r1
 8000ed0:	d200      	bcs.n	8000ed4 <__aeabi_ddiv+0x254>
 8000ed2:	e0ff      	b.n	80010d4 <__aeabi_ddiv+0x454>
 8000ed4:	d100      	bne.n	8000ed8 <__aeabi_ddiv+0x258>
 8000ed6:	e0fa      	b.n	80010ce <__aeabi_ddiv+0x44e>
 8000ed8:	2301      	movs	r3, #1
 8000eda:	431d      	orrs	r5, r3
 8000edc:	4a49      	ldr	r2, [pc, #292]	; (8001004 <__aeabi_ddiv+0x384>)
 8000ede:	445a      	add	r2, fp
 8000ee0:	2a00      	cmp	r2, #0
 8000ee2:	dc00      	bgt.n	8000ee6 <__aeabi_ddiv+0x266>
 8000ee4:	e0aa      	b.n	800103c <__aeabi_ddiv+0x3bc>
 8000ee6:	076b      	lsls	r3, r5, #29
 8000ee8:	d000      	beq.n	8000eec <__aeabi_ddiv+0x26c>
 8000eea:	e13d      	b.n	8001168 <__aeabi_ddiv+0x4e8>
 8000eec:	08ed      	lsrs	r5, r5, #3
 8000eee:	4643      	mov	r3, r8
 8000ef0:	01db      	lsls	r3, r3, #7
 8000ef2:	d506      	bpl.n	8000f02 <__aeabi_ddiv+0x282>
 8000ef4:	4642      	mov	r2, r8
 8000ef6:	4b44      	ldr	r3, [pc, #272]	; (8001008 <__aeabi_ddiv+0x388>)
 8000ef8:	401a      	ands	r2, r3
 8000efa:	4690      	mov	r8, r2
 8000efc:	2280      	movs	r2, #128	; 0x80
 8000efe:	00d2      	lsls	r2, r2, #3
 8000f00:	445a      	add	r2, fp
 8000f02:	4b42      	ldr	r3, [pc, #264]	; (800100c <__aeabi_ddiv+0x38c>)
 8000f04:	429a      	cmp	r2, r3
 8000f06:	dd00      	ble.n	8000f0a <__aeabi_ddiv+0x28a>
 8000f08:	e71f      	b.n	8000d4a <__aeabi_ddiv+0xca>
 8000f0a:	4643      	mov	r3, r8
 8000f0c:	075b      	lsls	r3, r3, #29
 8000f0e:	431d      	orrs	r5, r3
 8000f10:	4643      	mov	r3, r8
 8000f12:	0552      	lsls	r2, r2, #21
 8000f14:	025c      	lsls	r4, r3, #9
 8000f16:	0b24      	lsrs	r4, r4, #12
 8000f18:	0d53      	lsrs	r3, r2, #21
 8000f1a:	e708      	b.n	8000d2e <__aeabi_ddiv+0xae>
 8000f1c:	4652      	mov	r2, sl
 8000f1e:	4322      	orrs	r2, r4
 8000f20:	d100      	bne.n	8000f24 <__aeabi_ddiv+0x2a4>
 8000f22:	e07b      	b.n	800101c <__aeabi_ddiv+0x39c>
 8000f24:	2c00      	cmp	r4, #0
 8000f26:	d100      	bne.n	8000f2a <__aeabi_ddiv+0x2aa>
 8000f28:	e0fa      	b.n	8001120 <__aeabi_ddiv+0x4a0>
 8000f2a:	0020      	movs	r0, r4
 8000f2c:	f001 f888 	bl	8002040 <__clzsi2>
 8000f30:	0002      	movs	r2, r0
 8000f32:	3a0b      	subs	r2, #11
 8000f34:	231d      	movs	r3, #29
 8000f36:	0001      	movs	r1, r0
 8000f38:	1a9b      	subs	r3, r3, r2
 8000f3a:	4652      	mov	r2, sl
 8000f3c:	3908      	subs	r1, #8
 8000f3e:	40da      	lsrs	r2, r3
 8000f40:	408c      	lsls	r4, r1
 8000f42:	4314      	orrs	r4, r2
 8000f44:	4652      	mov	r2, sl
 8000f46:	408a      	lsls	r2, r1
 8000f48:	4b31      	ldr	r3, [pc, #196]	; (8001010 <__aeabi_ddiv+0x390>)
 8000f4a:	4458      	add	r0, fp
 8000f4c:	469b      	mov	fp, r3
 8000f4e:	4483      	add	fp, r0
 8000f50:	2000      	movs	r0, #0
 8000f52:	e6d5      	b.n	8000d00 <__aeabi_ddiv+0x80>
 8000f54:	464b      	mov	r3, r9
 8000f56:	4323      	orrs	r3, r4
 8000f58:	4698      	mov	r8, r3
 8000f5a:	d044      	beq.n	8000fe6 <__aeabi_ddiv+0x366>
 8000f5c:	2c00      	cmp	r4, #0
 8000f5e:	d100      	bne.n	8000f62 <__aeabi_ddiv+0x2e2>
 8000f60:	e0ce      	b.n	8001100 <__aeabi_ddiv+0x480>
 8000f62:	0020      	movs	r0, r4
 8000f64:	f001 f86c 	bl	8002040 <__clzsi2>
 8000f68:	0001      	movs	r1, r0
 8000f6a:	0002      	movs	r2, r0
 8000f6c:	390b      	subs	r1, #11
 8000f6e:	231d      	movs	r3, #29
 8000f70:	1a5b      	subs	r3, r3, r1
 8000f72:	4649      	mov	r1, r9
 8000f74:	0010      	movs	r0, r2
 8000f76:	40d9      	lsrs	r1, r3
 8000f78:	3808      	subs	r0, #8
 8000f7a:	4084      	lsls	r4, r0
 8000f7c:	000b      	movs	r3, r1
 8000f7e:	464d      	mov	r5, r9
 8000f80:	4323      	orrs	r3, r4
 8000f82:	4698      	mov	r8, r3
 8000f84:	4085      	lsls	r5, r0
 8000f86:	4823      	ldr	r0, [pc, #140]	; (8001014 <__aeabi_ddiv+0x394>)
 8000f88:	1a83      	subs	r3, r0, r2
 8000f8a:	469b      	mov	fp, r3
 8000f8c:	2300      	movs	r3, #0
 8000f8e:	4699      	mov	r9, r3
 8000f90:	9300      	str	r3, [sp, #0]
 8000f92:	e69a      	b.n	8000cca <__aeabi_ddiv+0x4a>
 8000f94:	464b      	mov	r3, r9
 8000f96:	4323      	orrs	r3, r4
 8000f98:	4698      	mov	r8, r3
 8000f9a:	d11d      	bne.n	8000fd8 <__aeabi_ddiv+0x358>
 8000f9c:	2308      	movs	r3, #8
 8000f9e:	4699      	mov	r9, r3
 8000fa0:	3b06      	subs	r3, #6
 8000fa2:	2500      	movs	r5, #0
 8000fa4:	4683      	mov	fp, r0
 8000fa6:	9300      	str	r3, [sp, #0]
 8000fa8:	e68f      	b.n	8000cca <__aeabi_ddiv+0x4a>
 8000faa:	4652      	mov	r2, sl
 8000fac:	4322      	orrs	r2, r4
 8000fae:	d109      	bne.n	8000fc4 <__aeabi_ddiv+0x344>
 8000fb0:	2302      	movs	r3, #2
 8000fb2:	4649      	mov	r1, r9
 8000fb4:	4319      	orrs	r1, r3
 8000fb6:	4b18      	ldr	r3, [pc, #96]	; (8001018 <__aeabi_ddiv+0x398>)
 8000fb8:	4689      	mov	r9, r1
 8000fba:	469c      	mov	ip, r3
 8000fbc:	2400      	movs	r4, #0
 8000fbe:	2002      	movs	r0, #2
 8000fc0:	44e3      	add	fp, ip
 8000fc2:	e69d      	b.n	8000d00 <__aeabi_ddiv+0x80>
 8000fc4:	2303      	movs	r3, #3
 8000fc6:	464a      	mov	r2, r9
 8000fc8:	431a      	orrs	r2, r3
 8000fca:	4b13      	ldr	r3, [pc, #76]	; (8001018 <__aeabi_ddiv+0x398>)
 8000fcc:	4691      	mov	r9, r2
 8000fce:	469c      	mov	ip, r3
 8000fd0:	4652      	mov	r2, sl
 8000fd2:	2003      	movs	r0, #3
 8000fd4:	44e3      	add	fp, ip
 8000fd6:	e693      	b.n	8000d00 <__aeabi_ddiv+0x80>
 8000fd8:	230c      	movs	r3, #12
 8000fda:	4699      	mov	r9, r3
 8000fdc:	3b09      	subs	r3, #9
 8000fde:	46a0      	mov	r8, r4
 8000fe0:	4683      	mov	fp, r0
 8000fe2:	9300      	str	r3, [sp, #0]
 8000fe4:	e671      	b.n	8000cca <__aeabi_ddiv+0x4a>
 8000fe6:	2304      	movs	r3, #4
 8000fe8:	4699      	mov	r9, r3
 8000fea:	2300      	movs	r3, #0
 8000fec:	469b      	mov	fp, r3
 8000fee:	3301      	adds	r3, #1
 8000ff0:	2500      	movs	r5, #0
 8000ff2:	9300      	str	r3, [sp, #0]
 8000ff4:	e669      	b.n	8000cca <__aeabi_ddiv+0x4a>
 8000ff6:	46c0      	nop			; (mov r8, r8)
 8000ff8:	000007ff 	.word	0x000007ff
 8000ffc:	fffffc01 	.word	0xfffffc01
 8001000:	08006c14 	.word	0x08006c14
 8001004:	000003ff 	.word	0x000003ff
 8001008:	feffffff 	.word	0xfeffffff
 800100c:	000007fe 	.word	0x000007fe
 8001010:	000003f3 	.word	0x000003f3
 8001014:	fffffc0d 	.word	0xfffffc0d
 8001018:	fffff801 	.word	0xfffff801
 800101c:	4649      	mov	r1, r9
 800101e:	2301      	movs	r3, #1
 8001020:	4319      	orrs	r1, r3
 8001022:	4689      	mov	r9, r1
 8001024:	2400      	movs	r4, #0
 8001026:	2001      	movs	r0, #1
 8001028:	e66a      	b.n	8000d00 <__aeabi_ddiv+0x80>
 800102a:	2300      	movs	r3, #0
 800102c:	2480      	movs	r4, #128	; 0x80
 800102e:	469a      	mov	sl, r3
 8001030:	2500      	movs	r5, #0
 8001032:	4b8a      	ldr	r3, [pc, #552]	; (800125c <__aeabi_ddiv+0x5dc>)
 8001034:	0324      	lsls	r4, r4, #12
 8001036:	e67a      	b.n	8000d2e <__aeabi_ddiv+0xae>
 8001038:	2501      	movs	r5, #1
 800103a:	426d      	negs	r5, r5
 800103c:	2301      	movs	r3, #1
 800103e:	1a9b      	subs	r3, r3, r2
 8001040:	2b38      	cmp	r3, #56	; 0x38
 8001042:	dd00      	ble.n	8001046 <__aeabi_ddiv+0x3c6>
 8001044:	e670      	b.n	8000d28 <__aeabi_ddiv+0xa8>
 8001046:	2b1f      	cmp	r3, #31
 8001048:	dc00      	bgt.n	800104c <__aeabi_ddiv+0x3cc>
 800104a:	e0bf      	b.n	80011cc <__aeabi_ddiv+0x54c>
 800104c:	211f      	movs	r1, #31
 800104e:	4249      	negs	r1, r1
 8001050:	1a8a      	subs	r2, r1, r2
 8001052:	4641      	mov	r1, r8
 8001054:	40d1      	lsrs	r1, r2
 8001056:	000a      	movs	r2, r1
 8001058:	2b20      	cmp	r3, #32
 800105a:	d004      	beq.n	8001066 <__aeabi_ddiv+0x3e6>
 800105c:	4641      	mov	r1, r8
 800105e:	4b80      	ldr	r3, [pc, #512]	; (8001260 <__aeabi_ddiv+0x5e0>)
 8001060:	445b      	add	r3, fp
 8001062:	4099      	lsls	r1, r3
 8001064:	430d      	orrs	r5, r1
 8001066:	1e6b      	subs	r3, r5, #1
 8001068:	419d      	sbcs	r5, r3
 800106a:	2307      	movs	r3, #7
 800106c:	432a      	orrs	r2, r5
 800106e:	001d      	movs	r5, r3
 8001070:	2400      	movs	r4, #0
 8001072:	4015      	ands	r5, r2
 8001074:	4213      	tst	r3, r2
 8001076:	d100      	bne.n	800107a <__aeabi_ddiv+0x3fa>
 8001078:	e0d4      	b.n	8001224 <__aeabi_ddiv+0x5a4>
 800107a:	210f      	movs	r1, #15
 800107c:	2300      	movs	r3, #0
 800107e:	4011      	ands	r1, r2
 8001080:	2904      	cmp	r1, #4
 8001082:	d100      	bne.n	8001086 <__aeabi_ddiv+0x406>
 8001084:	e0cb      	b.n	800121e <__aeabi_ddiv+0x59e>
 8001086:	1d11      	adds	r1, r2, #4
 8001088:	4291      	cmp	r1, r2
 800108a:	4192      	sbcs	r2, r2
 800108c:	4252      	negs	r2, r2
 800108e:	189b      	adds	r3, r3, r2
 8001090:	000a      	movs	r2, r1
 8001092:	0219      	lsls	r1, r3, #8
 8001094:	d400      	bmi.n	8001098 <__aeabi_ddiv+0x418>
 8001096:	e0c2      	b.n	800121e <__aeabi_ddiv+0x59e>
 8001098:	2301      	movs	r3, #1
 800109a:	2400      	movs	r4, #0
 800109c:	2500      	movs	r5, #0
 800109e:	e646      	b.n	8000d2e <__aeabi_ddiv+0xae>
 80010a0:	2380      	movs	r3, #128	; 0x80
 80010a2:	4641      	mov	r1, r8
 80010a4:	031b      	lsls	r3, r3, #12
 80010a6:	4219      	tst	r1, r3
 80010a8:	d008      	beq.n	80010bc <__aeabi_ddiv+0x43c>
 80010aa:	421c      	tst	r4, r3
 80010ac:	d106      	bne.n	80010bc <__aeabi_ddiv+0x43c>
 80010ae:	431c      	orrs	r4, r3
 80010b0:	0324      	lsls	r4, r4, #12
 80010b2:	46ba      	mov	sl, r7
 80010b4:	0015      	movs	r5, r2
 80010b6:	4b69      	ldr	r3, [pc, #420]	; (800125c <__aeabi_ddiv+0x5dc>)
 80010b8:	0b24      	lsrs	r4, r4, #12
 80010ba:	e638      	b.n	8000d2e <__aeabi_ddiv+0xae>
 80010bc:	2480      	movs	r4, #128	; 0x80
 80010be:	4643      	mov	r3, r8
 80010c0:	0324      	lsls	r4, r4, #12
 80010c2:	431c      	orrs	r4, r3
 80010c4:	0324      	lsls	r4, r4, #12
 80010c6:	46b2      	mov	sl, r6
 80010c8:	4b64      	ldr	r3, [pc, #400]	; (800125c <__aeabi_ddiv+0x5dc>)
 80010ca:	0b24      	lsrs	r4, r4, #12
 80010cc:	e62f      	b.n	8000d2e <__aeabi_ddiv+0xae>
 80010ce:	2b00      	cmp	r3, #0
 80010d0:	d100      	bne.n	80010d4 <__aeabi_ddiv+0x454>
 80010d2:	e703      	b.n	8000edc <__aeabi_ddiv+0x25c>
 80010d4:	19a6      	adds	r6, r4, r6
 80010d6:	1e68      	subs	r0, r5, #1
 80010d8:	42a6      	cmp	r6, r4
 80010da:	d200      	bcs.n	80010de <__aeabi_ddiv+0x45e>
 80010dc:	e08d      	b.n	80011fa <__aeabi_ddiv+0x57a>
 80010de:	428e      	cmp	r6, r1
 80010e0:	d200      	bcs.n	80010e4 <__aeabi_ddiv+0x464>
 80010e2:	e0a3      	b.n	800122c <__aeabi_ddiv+0x5ac>
 80010e4:	d100      	bne.n	80010e8 <__aeabi_ddiv+0x468>
 80010e6:	e0b3      	b.n	8001250 <__aeabi_ddiv+0x5d0>
 80010e8:	0005      	movs	r5, r0
 80010ea:	e6f5      	b.n	8000ed8 <__aeabi_ddiv+0x258>
 80010ec:	42aa      	cmp	r2, r5
 80010ee:	d900      	bls.n	80010f2 <__aeabi_ddiv+0x472>
 80010f0:	e639      	b.n	8000d66 <__aeabi_ddiv+0xe6>
 80010f2:	4643      	mov	r3, r8
 80010f4:	07de      	lsls	r6, r3, #31
 80010f6:	0858      	lsrs	r0, r3, #1
 80010f8:	086b      	lsrs	r3, r5, #1
 80010fa:	431e      	orrs	r6, r3
 80010fc:	07ed      	lsls	r5, r5, #31
 80010fe:	e639      	b.n	8000d74 <__aeabi_ddiv+0xf4>
 8001100:	4648      	mov	r0, r9
 8001102:	f000 ff9d 	bl	8002040 <__clzsi2>
 8001106:	0001      	movs	r1, r0
 8001108:	0002      	movs	r2, r0
 800110a:	3115      	adds	r1, #21
 800110c:	3220      	adds	r2, #32
 800110e:	291c      	cmp	r1, #28
 8001110:	dc00      	bgt.n	8001114 <__aeabi_ddiv+0x494>
 8001112:	e72c      	b.n	8000f6e <__aeabi_ddiv+0x2ee>
 8001114:	464b      	mov	r3, r9
 8001116:	3808      	subs	r0, #8
 8001118:	4083      	lsls	r3, r0
 800111a:	2500      	movs	r5, #0
 800111c:	4698      	mov	r8, r3
 800111e:	e732      	b.n	8000f86 <__aeabi_ddiv+0x306>
 8001120:	f000 ff8e 	bl	8002040 <__clzsi2>
 8001124:	0003      	movs	r3, r0
 8001126:	001a      	movs	r2, r3
 8001128:	3215      	adds	r2, #21
 800112a:	3020      	adds	r0, #32
 800112c:	2a1c      	cmp	r2, #28
 800112e:	dc00      	bgt.n	8001132 <__aeabi_ddiv+0x4b2>
 8001130:	e700      	b.n	8000f34 <__aeabi_ddiv+0x2b4>
 8001132:	4654      	mov	r4, sl
 8001134:	3b08      	subs	r3, #8
 8001136:	2200      	movs	r2, #0
 8001138:	409c      	lsls	r4, r3
 800113a:	e705      	b.n	8000f48 <__aeabi_ddiv+0x2c8>
 800113c:	1936      	adds	r6, r6, r4
 800113e:	3b01      	subs	r3, #1
 8001140:	42b4      	cmp	r4, r6
 8001142:	d900      	bls.n	8001146 <__aeabi_ddiv+0x4c6>
 8001144:	e6a6      	b.n	8000e94 <__aeabi_ddiv+0x214>
 8001146:	42b2      	cmp	r2, r6
 8001148:	d800      	bhi.n	800114c <__aeabi_ddiv+0x4cc>
 800114a:	e6a3      	b.n	8000e94 <__aeabi_ddiv+0x214>
 800114c:	1e83      	subs	r3, r0, #2
 800114e:	1936      	adds	r6, r6, r4
 8001150:	e6a0      	b.n	8000e94 <__aeabi_ddiv+0x214>
 8001152:	1909      	adds	r1, r1, r4
 8001154:	3d01      	subs	r5, #1
 8001156:	428c      	cmp	r4, r1
 8001158:	d900      	bls.n	800115c <__aeabi_ddiv+0x4dc>
 800115a:	e68d      	b.n	8000e78 <__aeabi_ddiv+0x1f8>
 800115c:	428a      	cmp	r2, r1
 800115e:	d800      	bhi.n	8001162 <__aeabi_ddiv+0x4e2>
 8001160:	e68a      	b.n	8000e78 <__aeabi_ddiv+0x1f8>
 8001162:	1e85      	subs	r5, r0, #2
 8001164:	1909      	adds	r1, r1, r4
 8001166:	e687      	b.n	8000e78 <__aeabi_ddiv+0x1f8>
 8001168:	230f      	movs	r3, #15
 800116a:	402b      	ands	r3, r5
 800116c:	2b04      	cmp	r3, #4
 800116e:	d100      	bne.n	8001172 <__aeabi_ddiv+0x4f2>
 8001170:	e6bc      	b.n	8000eec <__aeabi_ddiv+0x26c>
 8001172:	2305      	movs	r3, #5
 8001174:	425b      	negs	r3, r3
 8001176:	42ab      	cmp	r3, r5
 8001178:	419b      	sbcs	r3, r3
 800117a:	3504      	adds	r5, #4
 800117c:	425b      	negs	r3, r3
 800117e:	08ed      	lsrs	r5, r5, #3
 8001180:	4498      	add	r8, r3
 8001182:	e6b4      	b.n	8000eee <__aeabi_ddiv+0x26e>
 8001184:	42af      	cmp	r7, r5
 8001186:	d900      	bls.n	800118a <__aeabi_ddiv+0x50a>
 8001188:	e660      	b.n	8000e4c <__aeabi_ddiv+0x1cc>
 800118a:	4282      	cmp	r2, r0
 800118c:	d804      	bhi.n	8001198 <__aeabi_ddiv+0x518>
 800118e:	d000      	beq.n	8001192 <__aeabi_ddiv+0x512>
 8001190:	e65c      	b.n	8000e4c <__aeabi_ddiv+0x1cc>
 8001192:	42ae      	cmp	r6, r5
 8001194:	d800      	bhi.n	8001198 <__aeabi_ddiv+0x518>
 8001196:	e659      	b.n	8000e4c <__aeabi_ddiv+0x1cc>
 8001198:	2302      	movs	r3, #2
 800119a:	425b      	negs	r3, r3
 800119c:	469c      	mov	ip, r3
 800119e:	9b00      	ldr	r3, [sp, #0]
 80011a0:	44e0      	add	r8, ip
 80011a2:	469c      	mov	ip, r3
 80011a4:	4465      	add	r5, ip
 80011a6:	429d      	cmp	r5, r3
 80011a8:	419b      	sbcs	r3, r3
 80011aa:	425b      	negs	r3, r3
 80011ac:	191b      	adds	r3, r3, r4
 80011ae:	18c0      	adds	r0, r0, r3
 80011b0:	e64d      	b.n	8000e4e <__aeabi_ddiv+0x1ce>
 80011b2:	428a      	cmp	r2, r1
 80011b4:	d800      	bhi.n	80011b8 <__aeabi_ddiv+0x538>
 80011b6:	e60e      	b.n	8000dd6 <__aeabi_ddiv+0x156>
 80011b8:	1e83      	subs	r3, r0, #2
 80011ba:	1909      	adds	r1, r1, r4
 80011bc:	e60b      	b.n	8000dd6 <__aeabi_ddiv+0x156>
 80011be:	428a      	cmp	r2, r1
 80011c0:	d800      	bhi.n	80011c4 <__aeabi_ddiv+0x544>
 80011c2:	e5f4      	b.n	8000dae <__aeabi_ddiv+0x12e>
 80011c4:	1e83      	subs	r3, r0, #2
 80011c6:	4698      	mov	r8, r3
 80011c8:	1909      	adds	r1, r1, r4
 80011ca:	e5f0      	b.n	8000dae <__aeabi_ddiv+0x12e>
 80011cc:	4925      	ldr	r1, [pc, #148]	; (8001264 <__aeabi_ddiv+0x5e4>)
 80011ce:	0028      	movs	r0, r5
 80011d0:	4459      	add	r1, fp
 80011d2:	408d      	lsls	r5, r1
 80011d4:	4642      	mov	r2, r8
 80011d6:	408a      	lsls	r2, r1
 80011d8:	1e69      	subs	r1, r5, #1
 80011da:	418d      	sbcs	r5, r1
 80011dc:	4641      	mov	r1, r8
 80011de:	40d8      	lsrs	r0, r3
 80011e0:	40d9      	lsrs	r1, r3
 80011e2:	4302      	orrs	r2, r0
 80011e4:	432a      	orrs	r2, r5
 80011e6:	000b      	movs	r3, r1
 80011e8:	0751      	lsls	r1, r2, #29
 80011ea:	d100      	bne.n	80011ee <__aeabi_ddiv+0x56e>
 80011ec:	e751      	b.n	8001092 <__aeabi_ddiv+0x412>
 80011ee:	210f      	movs	r1, #15
 80011f0:	4011      	ands	r1, r2
 80011f2:	2904      	cmp	r1, #4
 80011f4:	d000      	beq.n	80011f8 <__aeabi_ddiv+0x578>
 80011f6:	e746      	b.n	8001086 <__aeabi_ddiv+0x406>
 80011f8:	e74b      	b.n	8001092 <__aeabi_ddiv+0x412>
 80011fa:	0005      	movs	r5, r0
 80011fc:	428e      	cmp	r6, r1
 80011fe:	d000      	beq.n	8001202 <__aeabi_ddiv+0x582>
 8001200:	e66a      	b.n	8000ed8 <__aeabi_ddiv+0x258>
 8001202:	9a00      	ldr	r2, [sp, #0]
 8001204:	4293      	cmp	r3, r2
 8001206:	d000      	beq.n	800120a <__aeabi_ddiv+0x58a>
 8001208:	e666      	b.n	8000ed8 <__aeabi_ddiv+0x258>
 800120a:	e667      	b.n	8000edc <__aeabi_ddiv+0x25c>
 800120c:	4a16      	ldr	r2, [pc, #88]	; (8001268 <__aeabi_ddiv+0x5e8>)
 800120e:	445a      	add	r2, fp
 8001210:	2a00      	cmp	r2, #0
 8001212:	dc00      	bgt.n	8001216 <__aeabi_ddiv+0x596>
 8001214:	e710      	b.n	8001038 <__aeabi_ddiv+0x3b8>
 8001216:	2301      	movs	r3, #1
 8001218:	2500      	movs	r5, #0
 800121a:	4498      	add	r8, r3
 800121c:	e667      	b.n	8000eee <__aeabi_ddiv+0x26e>
 800121e:	075d      	lsls	r5, r3, #29
 8001220:	025b      	lsls	r3, r3, #9
 8001222:	0b1c      	lsrs	r4, r3, #12
 8001224:	08d2      	lsrs	r2, r2, #3
 8001226:	2300      	movs	r3, #0
 8001228:	4315      	orrs	r5, r2
 800122a:	e580      	b.n	8000d2e <__aeabi_ddiv+0xae>
 800122c:	9800      	ldr	r0, [sp, #0]
 800122e:	3d02      	subs	r5, #2
 8001230:	0042      	lsls	r2, r0, #1
 8001232:	4282      	cmp	r2, r0
 8001234:	41bf      	sbcs	r7, r7
 8001236:	427f      	negs	r7, r7
 8001238:	193c      	adds	r4, r7, r4
 800123a:	1936      	adds	r6, r6, r4
 800123c:	9200      	str	r2, [sp, #0]
 800123e:	e7dd      	b.n	80011fc <__aeabi_ddiv+0x57c>
 8001240:	2480      	movs	r4, #128	; 0x80
 8001242:	4643      	mov	r3, r8
 8001244:	0324      	lsls	r4, r4, #12
 8001246:	431c      	orrs	r4, r3
 8001248:	0324      	lsls	r4, r4, #12
 800124a:	4b04      	ldr	r3, [pc, #16]	; (800125c <__aeabi_ddiv+0x5dc>)
 800124c:	0b24      	lsrs	r4, r4, #12
 800124e:	e56e      	b.n	8000d2e <__aeabi_ddiv+0xae>
 8001250:	9a00      	ldr	r2, [sp, #0]
 8001252:	429a      	cmp	r2, r3
 8001254:	d3ea      	bcc.n	800122c <__aeabi_ddiv+0x5ac>
 8001256:	0005      	movs	r5, r0
 8001258:	e7d3      	b.n	8001202 <__aeabi_ddiv+0x582>
 800125a:	46c0      	nop			; (mov r8, r8)
 800125c:	000007ff 	.word	0x000007ff
 8001260:	0000043e 	.word	0x0000043e
 8001264:	0000041e 	.word	0x0000041e
 8001268:	000003ff 	.word	0x000003ff

0800126c <__aeabi_dmul>:
 800126c:	b5f0      	push	{r4, r5, r6, r7, lr}
 800126e:	4657      	mov	r7, sl
 8001270:	464e      	mov	r6, r9
 8001272:	4645      	mov	r5, r8
 8001274:	46de      	mov	lr, fp
 8001276:	b5e0      	push	{r5, r6, r7, lr}
 8001278:	4698      	mov	r8, r3
 800127a:	030c      	lsls	r4, r1, #12
 800127c:	004b      	lsls	r3, r1, #1
 800127e:	0006      	movs	r6, r0
 8001280:	4692      	mov	sl, r2
 8001282:	b087      	sub	sp, #28
 8001284:	0b24      	lsrs	r4, r4, #12
 8001286:	0d5b      	lsrs	r3, r3, #21
 8001288:	0fcf      	lsrs	r7, r1, #31
 800128a:	2b00      	cmp	r3, #0
 800128c:	d100      	bne.n	8001290 <__aeabi_dmul+0x24>
 800128e:	e15c      	b.n	800154a <__aeabi_dmul+0x2de>
 8001290:	4ad9      	ldr	r2, [pc, #868]	; (80015f8 <__aeabi_dmul+0x38c>)
 8001292:	4293      	cmp	r3, r2
 8001294:	d100      	bne.n	8001298 <__aeabi_dmul+0x2c>
 8001296:	e175      	b.n	8001584 <__aeabi_dmul+0x318>
 8001298:	0f42      	lsrs	r2, r0, #29
 800129a:	00e4      	lsls	r4, r4, #3
 800129c:	4314      	orrs	r4, r2
 800129e:	2280      	movs	r2, #128	; 0x80
 80012a0:	0412      	lsls	r2, r2, #16
 80012a2:	4314      	orrs	r4, r2
 80012a4:	4ad5      	ldr	r2, [pc, #852]	; (80015fc <__aeabi_dmul+0x390>)
 80012a6:	00c5      	lsls	r5, r0, #3
 80012a8:	4694      	mov	ip, r2
 80012aa:	4463      	add	r3, ip
 80012ac:	9300      	str	r3, [sp, #0]
 80012ae:	2300      	movs	r3, #0
 80012b0:	4699      	mov	r9, r3
 80012b2:	469b      	mov	fp, r3
 80012b4:	4643      	mov	r3, r8
 80012b6:	4642      	mov	r2, r8
 80012b8:	031e      	lsls	r6, r3, #12
 80012ba:	0fd2      	lsrs	r2, r2, #31
 80012bc:	005b      	lsls	r3, r3, #1
 80012be:	4650      	mov	r0, sl
 80012c0:	4690      	mov	r8, r2
 80012c2:	0b36      	lsrs	r6, r6, #12
 80012c4:	0d5b      	lsrs	r3, r3, #21
 80012c6:	d100      	bne.n	80012ca <__aeabi_dmul+0x5e>
 80012c8:	e120      	b.n	800150c <__aeabi_dmul+0x2a0>
 80012ca:	4acb      	ldr	r2, [pc, #812]	; (80015f8 <__aeabi_dmul+0x38c>)
 80012cc:	4293      	cmp	r3, r2
 80012ce:	d100      	bne.n	80012d2 <__aeabi_dmul+0x66>
 80012d0:	e162      	b.n	8001598 <__aeabi_dmul+0x32c>
 80012d2:	49ca      	ldr	r1, [pc, #808]	; (80015fc <__aeabi_dmul+0x390>)
 80012d4:	0f42      	lsrs	r2, r0, #29
 80012d6:	468c      	mov	ip, r1
 80012d8:	9900      	ldr	r1, [sp, #0]
 80012da:	4463      	add	r3, ip
 80012dc:	00f6      	lsls	r6, r6, #3
 80012de:	468c      	mov	ip, r1
 80012e0:	4316      	orrs	r6, r2
 80012e2:	2280      	movs	r2, #128	; 0x80
 80012e4:	449c      	add	ip, r3
 80012e6:	0412      	lsls	r2, r2, #16
 80012e8:	4663      	mov	r3, ip
 80012ea:	4316      	orrs	r6, r2
 80012ec:	00c2      	lsls	r2, r0, #3
 80012ee:	2000      	movs	r0, #0
 80012f0:	9300      	str	r3, [sp, #0]
 80012f2:	9900      	ldr	r1, [sp, #0]
 80012f4:	4643      	mov	r3, r8
 80012f6:	3101      	adds	r1, #1
 80012f8:	468c      	mov	ip, r1
 80012fa:	4649      	mov	r1, r9
 80012fc:	407b      	eors	r3, r7
 80012fe:	9301      	str	r3, [sp, #4]
 8001300:	290f      	cmp	r1, #15
 8001302:	d826      	bhi.n	8001352 <__aeabi_dmul+0xe6>
 8001304:	4bbe      	ldr	r3, [pc, #760]	; (8001600 <__aeabi_dmul+0x394>)
 8001306:	0089      	lsls	r1, r1, #2
 8001308:	5859      	ldr	r1, [r3, r1]
 800130a:	468f      	mov	pc, r1
 800130c:	4643      	mov	r3, r8
 800130e:	9301      	str	r3, [sp, #4]
 8001310:	0034      	movs	r4, r6
 8001312:	0015      	movs	r5, r2
 8001314:	4683      	mov	fp, r0
 8001316:	465b      	mov	r3, fp
 8001318:	2b02      	cmp	r3, #2
 800131a:	d016      	beq.n	800134a <__aeabi_dmul+0xde>
 800131c:	2b03      	cmp	r3, #3
 800131e:	d100      	bne.n	8001322 <__aeabi_dmul+0xb6>
 8001320:	e203      	b.n	800172a <__aeabi_dmul+0x4be>
 8001322:	2b01      	cmp	r3, #1
 8001324:	d000      	beq.n	8001328 <__aeabi_dmul+0xbc>
 8001326:	e0cd      	b.n	80014c4 <__aeabi_dmul+0x258>
 8001328:	2200      	movs	r2, #0
 800132a:	2400      	movs	r4, #0
 800132c:	2500      	movs	r5, #0
 800132e:	9b01      	ldr	r3, [sp, #4]
 8001330:	0512      	lsls	r2, r2, #20
 8001332:	4322      	orrs	r2, r4
 8001334:	07db      	lsls	r3, r3, #31
 8001336:	431a      	orrs	r2, r3
 8001338:	0028      	movs	r0, r5
 800133a:	0011      	movs	r1, r2
 800133c:	b007      	add	sp, #28
 800133e:	bcf0      	pop	{r4, r5, r6, r7}
 8001340:	46bb      	mov	fp, r7
 8001342:	46b2      	mov	sl, r6
 8001344:	46a9      	mov	r9, r5
 8001346:	46a0      	mov	r8, r4
 8001348:	bdf0      	pop	{r4, r5, r6, r7, pc}
 800134a:	2400      	movs	r4, #0
 800134c:	2500      	movs	r5, #0
 800134e:	4aaa      	ldr	r2, [pc, #680]	; (80015f8 <__aeabi_dmul+0x38c>)
 8001350:	e7ed      	b.n	800132e <__aeabi_dmul+0xc2>
 8001352:	0c28      	lsrs	r0, r5, #16
 8001354:	042d      	lsls	r5, r5, #16
 8001356:	0c2d      	lsrs	r5, r5, #16
 8001358:	002b      	movs	r3, r5
 800135a:	0c11      	lsrs	r1, r2, #16
 800135c:	0412      	lsls	r2, r2, #16
 800135e:	0c12      	lsrs	r2, r2, #16
 8001360:	4353      	muls	r3, r2
 8001362:	4698      	mov	r8, r3
 8001364:	0013      	movs	r3, r2
 8001366:	002f      	movs	r7, r5
 8001368:	4343      	muls	r3, r0
 800136a:	4699      	mov	r9, r3
 800136c:	434f      	muls	r7, r1
 800136e:	444f      	add	r7, r9
 8001370:	46bb      	mov	fp, r7
 8001372:	4647      	mov	r7, r8
 8001374:	000b      	movs	r3, r1
 8001376:	0c3f      	lsrs	r7, r7, #16
 8001378:	46ba      	mov	sl, r7
 800137a:	4343      	muls	r3, r0
 800137c:	44da      	add	sl, fp
 800137e:	9302      	str	r3, [sp, #8]
 8001380:	45d1      	cmp	r9, sl
 8001382:	d904      	bls.n	800138e <__aeabi_dmul+0x122>
 8001384:	2780      	movs	r7, #128	; 0x80
 8001386:	027f      	lsls	r7, r7, #9
 8001388:	46b9      	mov	r9, r7
 800138a:	444b      	add	r3, r9
 800138c:	9302      	str	r3, [sp, #8]
 800138e:	4653      	mov	r3, sl
 8001390:	0c1b      	lsrs	r3, r3, #16
 8001392:	469b      	mov	fp, r3
 8001394:	4653      	mov	r3, sl
 8001396:	041f      	lsls	r7, r3, #16
 8001398:	4643      	mov	r3, r8
 800139a:	041b      	lsls	r3, r3, #16
 800139c:	0c1b      	lsrs	r3, r3, #16
 800139e:	4698      	mov	r8, r3
 80013a0:	003b      	movs	r3, r7
 80013a2:	4443      	add	r3, r8
 80013a4:	9304      	str	r3, [sp, #16]
 80013a6:	0c33      	lsrs	r3, r6, #16
 80013a8:	0436      	lsls	r6, r6, #16
 80013aa:	0c36      	lsrs	r6, r6, #16
 80013ac:	4698      	mov	r8, r3
 80013ae:	0033      	movs	r3, r6
 80013b0:	4343      	muls	r3, r0
 80013b2:	4699      	mov	r9, r3
 80013b4:	4643      	mov	r3, r8
 80013b6:	4343      	muls	r3, r0
 80013b8:	002f      	movs	r7, r5
 80013ba:	469a      	mov	sl, r3
 80013bc:	4643      	mov	r3, r8
 80013be:	4377      	muls	r7, r6
 80013c0:	435d      	muls	r5, r3
 80013c2:	0c38      	lsrs	r0, r7, #16
 80013c4:	444d      	add	r5, r9
 80013c6:	1945      	adds	r5, r0, r5
 80013c8:	45a9      	cmp	r9, r5
 80013ca:	d903      	bls.n	80013d4 <__aeabi_dmul+0x168>
 80013cc:	2380      	movs	r3, #128	; 0x80
 80013ce:	025b      	lsls	r3, r3, #9
 80013d0:	4699      	mov	r9, r3
 80013d2:	44ca      	add	sl, r9
 80013d4:	043f      	lsls	r7, r7, #16
 80013d6:	0c28      	lsrs	r0, r5, #16
 80013d8:	0c3f      	lsrs	r7, r7, #16
 80013da:	042d      	lsls	r5, r5, #16
 80013dc:	19ed      	adds	r5, r5, r7
 80013de:	0c27      	lsrs	r7, r4, #16
 80013e0:	0424      	lsls	r4, r4, #16
 80013e2:	0c24      	lsrs	r4, r4, #16
 80013e4:	0003      	movs	r3, r0
 80013e6:	0020      	movs	r0, r4
 80013e8:	4350      	muls	r0, r2
 80013ea:	437a      	muls	r2, r7
 80013ec:	4691      	mov	r9, r2
 80013ee:	003a      	movs	r2, r7
 80013f0:	4453      	add	r3, sl
 80013f2:	9305      	str	r3, [sp, #20]
 80013f4:	0c03      	lsrs	r3, r0, #16
 80013f6:	469a      	mov	sl, r3
 80013f8:	434a      	muls	r2, r1
 80013fa:	4361      	muls	r1, r4
 80013fc:	4449      	add	r1, r9
 80013fe:	4451      	add	r1, sl
 8001400:	44ab      	add	fp, r5
 8001402:	4589      	cmp	r9, r1
 8001404:	d903      	bls.n	800140e <__aeabi_dmul+0x1a2>
 8001406:	2380      	movs	r3, #128	; 0x80
 8001408:	025b      	lsls	r3, r3, #9
 800140a:	4699      	mov	r9, r3
 800140c:	444a      	add	r2, r9
 800140e:	0400      	lsls	r0, r0, #16
 8001410:	0c0b      	lsrs	r3, r1, #16
 8001412:	0c00      	lsrs	r0, r0, #16
 8001414:	0409      	lsls	r1, r1, #16
 8001416:	1809      	adds	r1, r1, r0
 8001418:	0020      	movs	r0, r4
 800141a:	4699      	mov	r9, r3
 800141c:	4643      	mov	r3, r8
 800141e:	4370      	muls	r0, r6
 8001420:	435c      	muls	r4, r3
 8001422:	437e      	muls	r6, r7
 8001424:	435f      	muls	r7, r3
 8001426:	0c03      	lsrs	r3, r0, #16
 8001428:	4698      	mov	r8, r3
 800142a:	19a4      	adds	r4, r4, r6
 800142c:	4444      	add	r4, r8
 800142e:	444a      	add	r2, r9
 8001430:	9703      	str	r7, [sp, #12]
 8001432:	42a6      	cmp	r6, r4
 8001434:	d904      	bls.n	8001440 <__aeabi_dmul+0x1d4>
 8001436:	2380      	movs	r3, #128	; 0x80
 8001438:	025b      	lsls	r3, r3, #9
 800143a:	4698      	mov	r8, r3
 800143c:	4447      	add	r7, r8
 800143e:	9703      	str	r7, [sp, #12]
 8001440:	0423      	lsls	r3, r4, #16
 8001442:	9e02      	ldr	r6, [sp, #8]
 8001444:	469a      	mov	sl, r3
 8001446:	9b05      	ldr	r3, [sp, #20]
 8001448:	445e      	add	r6, fp
 800144a:	4698      	mov	r8, r3
 800144c:	42ae      	cmp	r6, r5
 800144e:	41ad      	sbcs	r5, r5
 8001450:	1876      	adds	r6, r6, r1
 8001452:	428e      	cmp	r6, r1
 8001454:	4189      	sbcs	r1, r1
 8001456:	0400      	lsls	r0, r0, #16
 8001458:	0c00      	lsrs	r0, r0, #16
 800145a:	4450      	add	r0, sl
 800145c:	4440      	add	r0, r8
 800145e:	426d      	negs	r5, r5
 8001460:	1947      	adds	r7, r0, r5
 8001462:	46b8      	mov	r8, r7
 8001464:	4693      	mov	fp, r2
 8001466:	4249      	negs	r1, r1
 8001468:	4689      	mov	r9, r1
 800146a:	44c3      	add	fp, r8
 800146c:	44d9      	add	r9, fp
 800146e:	4298      	cmp	r0, r3
 8001470:	4180      	sbcs	r0, r0
 8001472:	45a8      	cmp	r8, r5
 8001474:	41ad      	sbcs	r5, r5
 8001476:	4593      	cmp	fp, r2
 8001478:	4192      	sbcs	r2, r2
 800147a:	4589      	cmp	r9, r1
 800147c:	4189      	sbcs	r1, r1
 800147e:	426d      	negs	r5, r5
 8001480:	4240      	negs	r0, r0
 8001482:	4328      	orrs	r0, r5
 8001484:	0c24      	lsrs	r4, r4, #16
 8001486:	4252      	negs	r2, r2
 8001488:	4249      	negs	r1, r1
 800148a:	430a      	orrs	r2, r1
 800148c:	9b03      	ldr	r3, [sp, #12]
 800148e:	1900      	adds	r0, r0, r4
 8001490:	1880      	adds	r0, r0, r2
 8001492:	18c7      	adds	r7, r0, r3
 8001494:	464b      	mov	r3, r9
 8001496:	0ddc      	lsrs	r4, r3, #23
 8001498:	9b04      	ldr	r3, [sp, #16]
 800149a:	0275      	lsls	r5, r6, #9
 800149c:	431d      	orrs	r5, r3
 800149e:	1e6a      	subs	r2, r5, #1
 80014a0:	4195      	sbcs	r5, r2
 80014a2:	464b      	mov	r3, r9
 80014a4:	0df6      	lsrs	r6, r6, #23
 80014a6:	027f      	lsls	r7, r7, #9
 80014a8:	4335      	orrs	r5, r6
 80014aa:	025a      	lsls	r2, r3, #9
 80014ac:	433c      	orrs	r4, r7
 80014ae:	4315      	orrs	r5, r2
 80014b0:	01fb      	lsls	r3, r7, #7
 80014b2:	d400      	bmi.n	80014b6 <__aeabi_dmul+0x24a>
 80014b4:	e11c      	b.n	80016f0 <__aeabi_dmul+0x484>
 80014b6:	2101      	movs	r1, #1
 80014b8:	086a      	lsrs	r2, r5, #1
 80014ba:	400d      	ands	r5, r1
 80014bc:	4315      	orrs	r5, r2
 80014be:	07e2      	lsls	r2, r4, #31
 80014c0:	4315      	orrs	r5, r2
 80014c2:	0864      	lsrs	r4, r4, #1
 80014c4:	494f      	ldr	r1, [pc, #316]	; (8001604 <__aeabi_dmul+0x398>)
 80014c6:	4461      	add	r1, ip
 80014c8:	2900      	cmp	r1, #0
 80014ca:	dc00      	bgt.n	80014ce <__aeabi_dmul+0x262>
 80014cc:	e0b0      	b.n	8001630 <__aeabi_dmul+0x3c4>
 80014ce:	076b      	lsls	r3, r5, #29
 80014d0:	d009      	beq.n	80014e6 <__aeabi_dmul+0x27a>
 80014d2:	220f      	movs	r2, #15
 80014d4:	402a      	ands	r2, r5
 80014d6:	2a04      	cmp	r2, #4
 80014d8:	d005      	beq.n	80014e6 <__aeabi_dmul+0x27a>
 80014da:	1d2a      	adds	r2, r5, #4
 80014dc:	42aa      	cmp	r2, r5
 80014de:	41ad      	sbcs	r5, r5
 80014e0:	426d      	negs	r5, r5
 80014e2:	1964      	adds	r4, r4, r5
 80014e4:	0015      	movs	r5, r2
 80014e6:	01e3      	lsls	r3, r4, #7
 80014e8:	d504      	bpl.n	80014f4 <__aeabi_dmul+0x288>
 80014ea:	2180      	movs	r1, #128	; 0x80
 80014ec:	4a46      	ldr	r2, [pc, #280]	; (8001608 <__aeabi_dmul+0x39c>)
 80014ee:	00c9      	lsls	r1, r1, #3
 80014f0:	4014      	ands	r4, r2
 80014f2:	4461      	add	r1, ip
 80014f4:	4a45      	ldr	r2, [pc, #276]	; (800160c <__aeabi_dmul+0x3a0>)
 80014f6:	4291      	cmp	r1, r2
 80014f8:	dd00      	ble.n	80014fc <__aeabi_dmul+0x290>
 80014fa:	e726      	b.n	800134a <__aeabi_dmul+0xde>
 80014fc:	0762      	lsls	r2, r4, #29
 80014fe:	08ed      	lsrs	r5, r5, #3
 8001500:	0264      	lsls	r4, r4, #9
 8001502:	0549      	lsls	r1, r1, #21
 8001504:	4315      	orrs	r5, r2
 8001506:	0b24      	lsrs	r4, r4, #12
 8001508:	0d4a      	lsrs	r2, r1, #21
 800150a:	e710      	b.n	800132e <__aeabi_dmul+0xc2>
 800150c:	4652      	mov	r2, sl
 800150e:	4332      	orrs	r2, r6
 8001510:	d100      	bne.n	8001514 <__aeabi_dmul+0x2a8>
 8001512:	e07f      	b.n	8001614 <__aeabi_dmul+0x3a8>
 8001514:	2e00      	cmp	r6, #0
 8001516:	d100      	bne.n	800151a <__aeabi_dmul+0x2ae>
 8001518:	e0dc      	b.n	80016d4 <__aeabi_dmul+0x468>
 800151a:	0030      	movs	r0, r6
 800151c:	f000 fd90 	bl	8002040 <__clzsi2>
 8001520:	0002      	movs	r2, r0
 8001522:	3a0b      	subs	r2, #11
 8001524:	231d      	movs	r3, #29
 8001526:	0001      	movs	r1, r0
 8001528:	1a9b      	subs	r3, r3, r2
 800152a:	4652      	mov	r2, sl
 800152c:	3908      	subs	r1, #8
 800152e:	40da      	lsrs	r2, r3
 8001530:	408e      	lsls	r6, r1
 8001532:	4316      	orrs	r6, r2
 8001534:	4652      	mov	r2, sl
 8001536:	408a      	lsls	r2, r1
 8001538:	9b00      	ldr	r3, [sp, #0]
 800153a:	4935      	ldr	r1, [pc, #212]	; (8001610 <__aeabi_dmul+0x3a4>)
 800153c:	1a18      	subs	r0, r3, r0
 800153e:	0003      	movs	r3, r0
 8001540:	468c      	mov	ip, r1
 8001542:	4463      	add	r3, ip
 8001544:	2000      	movs	r0, #0
 8001546:	9300      	str	r3, [sp, #0]
 8001548:	e6d3      	b.n	80012f2 <__aeabi_dmul+0x86>
 800154a:	0025      	movs	r5, r4
 800154c:	4305      	orrs	r5, r0
 800154e:	d04a      	beq.n	80015e6 <__aeabi_dmul+0x37a>
 8001550:	2c00      	cmp	r4, #0
 8001552:	d100      	bne.n	8001556 <__aeabi_dmul+0x2ea>
 8001554:	e0b0      	b.n	80016b8 <__aeabi_dmul+0x44c>
 8001556:	0020      	movs	r0, r4
 8001558:	f000 fd72 	bl	8002040 <__clzsi2>
 800155c:	0001      	movs	r1, r0
 800155e:	0002      	movs	r2, r0
 8001560:	390b      	subs	r1, #11
 8001562:	231d      	movs	r3, #29
 8001564:	0010      	movs	r0, r2
 8001566:	1a5b      	subs	r3, r3, r1
 8001568:	0031      	movs	r1, r6
 800156a:	0035      	movs	r5, r6
 800156c:	3808      	subs	r0, #8
 800156e:	4084      	lsls	r4, r0
 8001570:	40d9      	lsrs	r1, r3
 8001572:	4085      	lsls	r5, r0
 8001574:	430c      	orrs	r4, r1
 8001576:	4826      	ldr	r0, [pc, #152]	; (8001610 <__aeabi_dmul+0x3a4>)
 8001578:	1a83      	subs	r3, r0, r2
 800157a:	9300      	str	r3, [sp, #0]
 800157c:	2300      	movs	r3, #0
 800157e:	4699      	mov	r9, r3
 8001580:	469b      	mov	fp, r3
 8001582:	e697      	b.n	80012b4 <__aeabi_dmul+0x48>
 8001584:	0005      	movs	r5, r0
 8001586:	4325      	orrs	r5, r4
 8001588:	d126      	bne.n	80015d8 <__aeabi_dmul+0x36c>
 800158a:	2208      	movs	r2, #8
 800158c:	9300      	str	r3, [sp, #0]
 800158e:	2302      	movs	r3, #2
 8001590:	2400      	movs	r4, #0
 8001592:	4691      	mov	r9, r2
 8001594:	469b      	mov	fp, r3
 8001596:	e68d      	b.n	80012b4 <__aeabi_dmul+0x48>
 8001598:	4652      	mov	r2, sl
 800159a:	9b00      	ldr	r3, [sp, #0]
 800159c:	4332      	orrs	r2, r6
 800159e:	d110      	bne.n	80015c2 <__aeabi_dmul+0x356>
 80015a0:	4915      	ldr	r1, [pc, #84]	; (80015f8 <__aeabi_dmul+0x38c>)
 80015a2:	2600      	movs	r6, #0
 80015a4:	468c      	mov	ip, r1
 80015a6:	4463      	add	r3, ip
 80015a8:	4649      	mov	r1, r9
 80015aa:	9300      	str	r3, [sp, #0]
 80015ac:	2302      	movs	r3, #2
 80015ae:	4319      	orrs	r1, r3
 80015b0:	4689      	mov	r9, r1
 80015b2:	2002      	movs	r0, #2
 80015b4:	e69d      	b.n	80012f2 <__aeabi_dmul+0x86>
 80015b6:	465b      	mov	r3, fp
 80015b8:	9701      	str	r7, [sp, #4]
 80015ba:	2b02      	cmp	r3, #2
 80015bc:	d000      	beq.n	80015c0 <__aeabi_dmul+0x354>
 80015be:	e6ad      	b.n	800131c <__aeabi_dmul+0xb0>
 80015c0:	e6c3      	b.n	800134a <__aeabi_dmul+0xde>
 80015c2:	4a0d      	ldr	r2, [pc, #52]	; (80015f8 <__aeabi_dmul+0x38c>)
 80015c4:	2003      	movs	r0, #3
 80015c6:	4694      	mov	ip, r2
 80015c8:	4463      	add	r3, ip
 80015ca:	464a      	mov	r2, r9
 80015cc:	9300      	str	r3, [sp, #0]
 80015ce:	2303      	movs	r3, #3
 80015d0:	431a      	orrs	r2, r3
 80015d2:	4691      	mov	r9, r2
 80015d4:	4652      	mov	r2, sl
 80015d6:	e68c      	b.n	80012f2 <__aeabi_dmul+0x86>
 80015d8:	220c      	movs	r2, #12
 80015da:	9300      	str	r3, [sp, #0]
 80015dc:	2303      	movs	r3, #3
 80015de:	0005      	movs	r5, r0
 80015e0:	4691      	mov	r9, r2
 80015e2:	469b      	mov	fp, r3
 80015e4:	e666      	b.n	80012b4 <__aeabi_dmul+0x48>
 80015e6:	2304      	movs	r3, #4
 80015e8:	4699      	mov	r9, r3
 80015ea:	2300      	movs	r3, #0
 80015ec:	9300      	str	r3, [sp, #0]
 80015ee:	3301      	adds	r3, #1
 80015f0:	2400      	movs	r4, #0
 80015f2:	469b      	mov	fp, r3
 80015f4:	e65e      	b.n	80012b4 <__aeabi_dmul+0x48>
 80015f6:	46c0      	nop			; (mov r8, r8)
 80015f8:	000007ff 	.word	0x000007ff
 80015fc:	fffffc01 	.word	0xfffffc01
 8001600:	08006c54 	.word	0x08006c54
 8001604:	000003ff 	.word	0x000003ff
 8001608:	feffffff 	.word	0xfeffffff
 800160c:	000007fe 	.word	0x000007fe
 8001610:	fffffc0d 	.word	0xfffffc0d
 8001614:	4649      	mov	r1, r9
 8001616:	2301      	movs	r3, #1
 8001618:	4319      	orrs	r1, r3
 800161a:	4689      	mov	r9, r1
 800161c:	2600      	movs	r6, #0
 800161e:	2001      	movs	r0, #1
 8001620:	e667      	b.n	80012f2 <__aeabi_dmul+0x86>
 8001622:	2300      	movs	r3, #0
 8001624:	2480      	movs	r4, #128	; 0x80
 8001626:	2500      	movs	r5, #0
 8001628:	4a43      	ldr	r2, [pc, #268]	; (8001738 <__aeabi_dmul+0x4cc>)
 800162a:	9301      	str	r3, [sp, #4]
 800162c:	0324      	lsls	r4, r4, #12
 800162e:	e67e      	b.n	800132e <__aeabi_dmul+0xc2>
 8001630:	2001      	movs	r0, #1
 8001632:	1a40      	subs	r0, r0, r1
 8001634:	2838      	cmp	r0, #56	; 0x38
 8001636:	dd00      	ble.n	800163a <__aeabi_dmul+0x3ce>
 8001638:	e676      	b.n	8001328 <__aeabi_dmul+0xbc>
 800163a:	281f      	cmp	r0, #31
 800163c:	dd5b      	ble.n	80016f6 <__aeabi_dmul+0x48a>
 800163e:	221f      	movs	r2, #31
 8001640:	0023      	movs	r3, r4
 8001642:	4252      	negs	r2, r2
 8001644:	1a51      	subs	r1, r2, r1
 8001646:	40cb      	lsrs	r3, r1
 8001648:	0019      	movs	r1, r3
 800164a:	2820      	cmp	r0, #32
 800164c:	d003      	beq.n	8001656 <__aeabi_dmul+0x3ea>
 800164e:	4a3b      	ldr	r2, [pc, #236]	; (800173c <__aeabi_dmul+0x4d0>)
 8001650:	4462      	add	r2, ip
 8001652:	4094      	lsls	r4, r2
 8001654:	4325      	orrs	r5, r4
 8001656:	1e6a      	subs	r2, r5, #1
 8001658:	4195      	sbcs	r5, r2
 800165a:	002a      	movs	r2, r5
 800165c:	430a      	orrs	r2, r1
 800165e:	2107      	movs	r1, #7
 8001660:	000d      	movs	r5, r1
 8001662:	2400      	movs	r4, #0
 8001664:	4015      	ands	r5, r2
 8001666:	4211      	tst	r1, r2
 8001668:	d05b      	beq.n	8001722 <__aeabi_dmul+0x4b6>
 800166a:	210f      	movs	r1, #15
 800166c:	2400      	movs	r4, #0
 800166e:	4011      	ands	r1, r2
 8001670:	2904      	cmp	r1, #4
 8001672:	d053      	beq.n	800171c <__aeabi_dmul+0x4b0>
 8001674:	1d11      	adds	r1, r2, #4
 8001676:	4291      	cmp	r1, r2
 8001678:	4192      	sbcs	r2, r2
 800167a:	4252      	negs	r2, r2
 800167c:	18a4      	adds	r4, r4, r2
 800167e:	000a      	movs	r2, r1
 8001680:	0223      	lsls	r3, r4, #8
 8001682:	d54b      	bpl.n	800171c <__aeabi_dmul+0x4b0>
 8001684:	2201      	movs	r2, #1
 8001686:	2400      	movs	r4, #0
 8001688:	2500      	movs	r5, #0
 800168a:	e650      	b.n	800132e <__aeabi_dmul+0xc2>
 800168c:	2380      	movs	r3, #128	; 0x80
 800168e:	031b      	lsls	r3, r3, #12
 8001690:	421c      	tst	r4, r3
 8001692:	d009      	beq.n	80016a8 <__aeabi_dmul+0x43c>
 8001694:	421e      	tst	r6, r3
 8001696:	d107      	bne.n	80016a8 <__aeabi_dmul+0x43c>
 8001698:	4333      	orrs	r3, r6
 800169a:	031c      	lsls	r4, r3, #12
 800169c:	4643      	mov	r3, r8
 800169e:	0015      	movs	r5, r2
 80016a0:	0b24      	lsrs	r4, r4, #12
 80016a2:	4a25      	ldr	r2, [pc, #148]	; (8001738 <__aeabi_dmul+0x4cc>)
 80016a4:	9301      	str	r3, [sp, #4]
 80016a6:	e642      	b.n	800132e <__aeabi_dmul+0xc2>
 80016a8:	2280      	movs	r2, #128	; 0x80
 80016aa:	0312      	lsls	r2, r2, #12
 80016ac:	4314      	orrs	r4, r2
 80016ae:	0324      	lsls	r4, r4, #12
 80016b0:	4a21      	ldr	r2, [pc, #132]	; (8001738 <__aeabi_dmul+0x4cc>)
 80016b2:	0b24      	lsrs	r4, r4, #12
 80016b4:	9701      	str	r7, [sp, #4]
 80016b6:	e63a      	b.n	800132e <__aeabi_dmul+0xc2>
 80016b8:	f000 fcc2 	bl	8002040 <__clzsi2>
 80016bc:	0001      	movs	r1, r0
 80016be:	0002      	movs	r2, r0
 80016c0:	3115      	adds	r1, #21
 80016c2:	3220      	adds	r2, #32
 80016c4:	291c      	cmp	r1, #28
 80016c6:	dc00      	bgt.n	80016ca <__aeabi_dmul+0x45e>
 80016c8:	e74b      	b.n	8001562 <__aeabi_dmul+0x2f6>
 80016ca:	0034      	movs	r4, r6
 80016cc:	3808      	subs	r0, #8
 80016ce:	2500      	movs	r5, #0
 80016d0:	4084      	lsls	r4, r0
 80016d2:	e750      	b.n	8001576 <__aeabi_dmul+0x30a>
 80016d4:	f000 fcb4 	bl	8002040 <__clzsi2>
 80016d8:	0003      	movs	r3, r0
 80016da:	001a      	movs	r2, r3
 80016dc:	3215      	adds	r2, #21
 80016de:	3020      	adds	r0, #32
 80016e0:	2a1c      	cmp	r2, #28
 80016e2:	dc00      	bgt.n	80016e6 <__aeabi_dmul+0x47a>
 80016e4:	e71e      	b.n	8001524 <__aeabi_dmul+0x2b8>
 80016e6:	4656      	mov	r6, sl
 80016e8:	3b08      	subs	r3, #8
 80016ea:	2200      	movs	r2, #0
 80016ec:	409e      	lsls	r6, r3
 80016ee:	e723      	b.n	8001538 <__aeabi_dmul+0x2cc>
 80016f0:	9b00      	ldr	r3, [sp, #0]
 80016f2:	469c      	mov	ip, r3
 80016f4:	e6e6      	b.n	80014c4 <__aeabi_dmul+0x258>
 80016f6:	4912      	ldr	r1, [pc, #72]	; (8001740 <__aeabi_dmul+0x4d4>)
 80016f8:	0022      	movs	r2, r4
 80016fa:	4461      	add	r1, ip
 80016fc:	002e      	movs	r6, r5
 80016fe:	408d      	lsls	r5, r1
 8001700:	408a      	lsls	r2, r1
 8001702:	40c6      	lsrs	r6, r0
 8001704:	1e69      	subs	r1, r5, #1
 8001706:	418d      	sbcs	r5, r1
 8001708:	4332      	orrs	r2, r6
 800170a:	432a      	orrs	r2, r5
 800170c:	40c4      	lsrs	r4, r0
 800170e:	0753      	lsls	r3, r2, #29
 8001710:	d0b6      	beq.n	8001680 <__aeabi_dmul+0x414>
 8001712:	210f      	movs	r1, #15
 8001714:	4011      	ands	r1, r2
 8001716:	2904      	cmp	r1, #4
 8001718:	d1ac      	bne.n	8001674 <__aeabi_dmul+0x408>
 800171a:	e7b1      	b.n	8001680 <__aeabi_dmul+0x414>
 800171c:	0765      	lsls	r5, r4, #29
 800171e:	0264      	lsls	r4, r4, #9
 8001720:	0b24      	lsrs	r4, r4, #12
 8001722:	08d2      	lsrs	r2, r2, #3
 8001724:	4315      	orrs	r5, r2
 8001726:	2200      	movs	r2, #0
 8001728:	e601      	b.n	800132e <__aeabi_dmul+0xc2>
 800172a:	2280      	movs	r2, #128	; 0x80
 800172c:	0312      	lsls	r2, r2, #12
 800172e:	4314      	orrs	r4, r2
 8001730:	0324      	lsls	r4, r4, #12
 8001732:	4a01      	ldr	r2, [pc, #4]	; (8001738 <__aeabi_dmul+0x4cc>)
 8001734:	0b24      	lsrs	r4, r4, #12
 8001736:	e5fa      	b.n	800132e <__aeabi_dmul+0xc2>
 8001738:	000007ff 	.word	0x000007ff
 800173c:	0000043e 	.word	0x0000043e
 8001740:	0000041e 	.word	0x0000041e

08001744 <__aeabi_dsub>:
 8001744:	b5f8      	push	{r3, r4, r5, r6, r7, lr}
 8001746:	4657      	mov	r7, sl
 8001748:	464e      	mov	r6, r9
 800174a:	4645      	mov	r5, r8
 800174c:	46de      	mov	lr, fp
 800174e:	b5e0      	push	{r5, r6, r7, lr}
 8001750:	001e      	movs	r6, r3
 8001752:	0017      	movs	r7, r2
 8001754:	004a      	lsls	r2, r1, #1
 8001756:	030b      	lsls	r3, r1, #12
 8001758:	0d52      	lsrs	r2, r2, #21
 800175a:	0a5b      	lsrs	r3, r3, #9
 800175c:	4690      	mov	r8, r2
 800175e:	0f42      	lsrs	r2, r0, #29
 8001760:	431a      	orrs	r2, r3
 8001762:	0fcd      	lsrs	r5, r1, #31
 8001764:	4ccd      	ldr	r4, [pc, #820]	; (8001a9c <__aeabi_dsub+0x358>)
 8001766:	0331      	lsls	r1, r6, #12
 8001768:	00c3      	lsls	r3, r0, #3
 800176a:	4694      	mov	ip, r2
 800176c:	0070      	lsls	r0, r6, #1
 800176e:	0f7a      	lsrs	r2, r7, #29
 8001770:	0a49      	lsrs	r1, r1, #9
 8001772:	00ff      	lsls	r7, r7, #3
 8001774:	469a      	mov	sl, r3
 8001776:	46b9      	mov	r9, r7
 8001778:	0d40      	lsrs	r0, r0, #21
 800177a:	0ff6      	lsrs	r6, r6, #31
 800177c:	4311      	orrs	r1, r2
 800177e:	42a0      	cmp	r0, r4
 8001780:	d100      	bne.n	8001784 <__aeabi_dsub+0x40>
 8001782:	e0b1      	b.n	80018e8 <__aeabi_dsub+0x1a4>
 8001784:	2201      	movs	r2, #1
 8001786:	4056      	eors	r6, r2
 8001788:	46b3      	mov	fp, r6
 800178a:	42b5      	cmp	r5, r6
 800178c:	d100      	bne.n	8001790 <__aeabi_dsub+0x4c>
 800178e:	e088      	b.n	80018a2 <__aeabi_dsub+0x15e>
 8001790:	4642      	mov	r2, r8
 8001792:	1a12      	subs	r2, r2, r0
 8001794:	2a00      	cmp	r2, #0
 8001796:	dc00      	bgt.n	800179a <__aeabi_dsub+0x56>
 8001798:	e0ae      	b.n	80018f8 <__aeabi_dsub+0x1b4>
 800179a:	2800      	cmp	r0, #0
 800179c:	d100      	bne.n	80017a0 <__aeabi_dsub+0x5c>
 800179e:	e0c1      	b.n	8001924 <__aeabi_dsub+0x1e0>
 80017a0:	48be      	ldr	r0, [pc, #760]	; (8001a9c <__aeabi_dsub+0x358>)
 80017a2:	4580      	cmp	r8, r0
 80017a4:	d100      	bne.n	80017a8 <__aeabi_dsub+0x64>
 80017a6:	e151      	b.n	8001a4c <__aeabi_dsub+0x308>
 80017a8:	2080      	movs	r0, #128	; 0x80
 80017aa:	0400      	lsls	r0, r0, #16
 80017ac:	4301      	orrs	r1, r0
 80017ae:	2a38      	cmp	r2, #56	; 0x38
 80017b0:	dd00      	ble.n	80017b4 <__aeabi_dsub+0x70>
 80017b2:	e17b      	b.n	8001aac <__aeabi_dsub+0x368>
 80017b4:	2a1f      	cmp	r2, #31
 80017b6:	dd00      	ble.n	80017ba <__aeabi_dsub+0x76>
 80017b8:	e1ee      	b.n	8001b98 <__aeabi_dsub+0x454>
 80017ba:	2020      	movs	r0, #32
 80017bc:	003e      	movs	r6, r7
 80017be:	1a80      	subs	r0, r0, r2
 80017c0:	000c      	movs	r4, r1
 80017c2:	40d6      	lsrs	r6, r2
 80017c4:	40d1      	lsrs	r1, r2
 80017c6:	4087      	lsls	r7, r0
 80017c8:	4662      	mov	r2, ip
 80017ca:	4084      	lsls	r4, r0
 80017cc:	1a52      	subs	r2, r2, r1
 80017ce:	1e78      	subs	r0, r7, #1
 80017d0:	4187      	sbcs	r7, r0
 80017d2:	4694      	mov	ip, r2
 80017d4:	4334      	orrs	r4, r6
 80017d6:	4327      	orrs	r7, r4
 80017d8:	1bdc      	subs	r4, r3, r7
 80017da:	42a3      	cmp	r3, r4
 80017dc:	419b      	sbcs	r3, r3
 80017de:	4662      	mov	r2, ip
 80017e0:	425b      	negs	r3, r3
 80017e2:	1ad3      	subs	r3, r2, r3
 80017e4:	4699      	mov	r9, r3
 80017e6:	464b      	mov	r3, r9
 80017e8:	021b      	lsls	r3, r3, #8
 80017ea:	d400      	bmi.n	80017ee <__aeabi_dsub+0xaa>
 80017ec:	e118      	b.n	8001a20 <__aeabi_dsub+0x2dc>
 80017ee:	464b      	mov	r3, r9
 80017f0:	0258      	lsls	r0, r3, #9
 80017f2:	0a43      	lsrs	r3, r0, #9
 80017f4:	4699      	mov	r9, r3
 80017f6:	464b      	mov	r3, r9
 80017f8:	2b00      	cmp	r3, #0
 80017fa:	d100      	bne.n	80017fe <__aeabi_dsub+0xba>
 80017fc:	e137      	b.n	8001a6e <__aeabi_dsub+0x32a>
 80017fe:	4648      	mov	r0, r9
 8001800:	f000 fc1e 	bl	8002040 <__clzsi2>
 8001804:	0001      	movs	r1, r0
 8001806:	3908      	subs	r1, #8
 8001808:	2320      	movs	r3, #32
 800180a:	0022      	movs	r2, r4
 800180c:	4648      	mov	r0, r9
 800180e:	1a5b      	subs	r3, r3, r1
 8001810:	40da      	lsrs	r2, r3
 8001812:	4088      	lsls	r0, r1
 8001814:	408c      	lsls	r4, r1
 8001816:	4643      	mov	r3, r8
 8001818:	4310      	orrs	r0, r2
 800181a:	4588      	cmp	r8, r1
 800181c:	dd00      	ble.n	8001820 <__aeabi_dsub+0xdc>
 800181e:	e136      	b.n	8001a8e <__aeabi_dsub+0x34a>
 8001820:	1ac9      	subs	r1, r1, r3
 8001822:	1c4b      	adds	r3, r1, #1
 8001824:	2b1f      	cmp	r3, #31
 8001826:	dd00      	ble.n	800182a <__aeabi_dsub+0xe6>
 8001828:	e0ea      	b.n	8001a00 <__aeabi_dsub+0x2bc>
 800182a:	2220      	movs	r2, #32
 800182c:	0026      	movs	r6, r4
 800182e:	1ad2      	subs	r2, r2, r3
 8001830:	0001      	movs	r1, r0
 8001832:	4094      	lsls	r4, r2
 8001834:	40de      	lsrs	r6, r3
 8001836:	40d8      	lsrs	r0, r3
 8001838:	2300      	movs	r3, #0
 800183a:	4091      	lsls	r1, r2
 800183c:	1e62      	subs	r2, r4, #1
 800183e:	4194      	sbcs	r4, r2
 8001840:	4681      	mov	r9, r0
 8001842:	4698      	mov	r8, r3
 8001844:	4331      	orrs	r1, r6
 8001846:	430c      	orrs	r4, r1
 8001848:	0763      	lsls	r3, r4, #29
 800184a:	d009      	beq.n	8001860 <__aeabi_dsub+0x11c>
 800184c:	230f      	movs	r3, #15
 800184e:	4023      	ands	r3, r4
 8001850:	2b04      	cmp	r3, #4
 8001852:	d005      	beq.n	8001860 <__aeabi_dsub+0x11c>
 8001854:	1d23      	adds	r3, r4, #4
 8001856:	42a3      	cmp	r3, r4
 8001858:	41a4      	sbcs	r4, r4
 800185a:	4264      	negs	r4, r4
 800185c:	44a1      	add	r9, r4
 800185e:	001c      	movs	r4, r3
 8001860:	464b      	mov	r3, r9
 8001862:	021b      	lsls	r3, r3, #8
 8001864:	d400      	bmi.n	8001868 <__aeabi_dsub+0x124>
 8001866:	e0de      	b.n	8001a26 <__aeabi_dsub+0x2e2>
 8001868:	4641      	mov	r1, r8
 800186a:	4b8c      	ldr	r3, [pc, #560]	; (8001a9c <__aeabi_dsub+0x358>)
 800186c:	3101      	adds	r1, #1
 800186e:	4299      	cmp	r1, r3
 8001870:	d100      	bne.n	8001874 <__aeabi_dsub+0x130>
 8001872:	e0e7      	b.n	8001a44 <__aeabi_dsub+0x300>
 8001874:	464b      	mov	r3, r9
 8001876:	488a      	ldr	r0, [pc, #552]	; (8001aa0 <__aeabi_dsub+0x35c>)
 8001878:	08e4      	lsrs	r4, r4, #3
 800187a:	4003      	ands	r3, r0
 800187c:	0018      	movs	r0, r3
 800187e:	0549      	lsls	r1, r1, #21
 8001880:	075b      	lsls	r3, r3, #29
 8001882:	0240      	lsls	r0, r0, #9
 8001884:	4323      	orrs	r3, r4
 8001886:	0d4a      	lsrs	r2, r1, #21
 8001888:	0b04      	lsrs	r4, r0, #12
 800188a:	0512      	lsls	r2, r2, #20
 800188c:	07ed      	lsls	r5, r5, #31
 800188e:	4322      	orrs	r2, r4
 8001890:	432a      	orrs	r2, r5
 8001892:	0018      	movs	r0, r3
 8001894:	0011      	movs	r1, r2
 8001896:	bcf0      	pop	{r4, r5, r6, r7}
 8001898:	46bb      	mov	fp, r7
 800189a:	46b2      	mov	sl, r6
 800189c:	46a9      	mov	r9, r5
 800189e:	46a0      	mov	r8, r4
 80018a0:	bdf8      	pop	{r3, r4, r5, r6, r7, pc}
 80018a2:	4642      	mov	r2, r8
 80018a4:	1a12      	subs	r2, r2, r0
 80018a6:	2a00      	cmp	r2, #0
 80018a8:	dd52      	ble.n	8001950 <__aeabi_dsub+0x20c>
 80018aa:	2800      	cmp	r0, #0
 80018ac:	d100      	bne.n	80018b0 <__aeabi_dsub+0x16c>
 80018ae:	e09c      	b.n	80019ea <__aeabi_dsub+0x2a6>
 80018b0:	45a0      	cmp	r8, r4
 80018b2:	d100      	bne.n	80018b6 <__aeabi_dsub+0x172>
 80018b4:	e0ca      	b.n	8001a4c <__aeabi_dsub+0x308>
 80018b6:	2080      	movs	r0, #128	; 0x80
 80018b8:	0400      	lsls	r0, r0, #16
 80018ba:	4301      	orrs	r1, r0
 80018bc:	2a38      	cmp	r2, #56	; 0x38
 80018be:	dd00      	ble.n	80018c2 <__aeabi_dsub+0x17e>
 80018c0:	e149      	b.n	8001b56 <__aeabi_dsub+0x412>
 80018c2:	2a1f      	cmp	r2, #31
 80018c4:	dc00      	bgt.n	80018c8 <__aeabi_dsub+0x184>
 80018c6:	e197      	b.n	8001bf8 <__aeabi_dsub+0x4b4>
 80018c8:	0010      	movs	r0, r2
 80018ca:	000e      	movs	r6, r1
 80018cc:	3820      	subs	r0, #32
 80018ce:	40c6      	lsrs	r6, r0
 80018d0:	2a20      	cmp	r2, #32
 80018d2:	d004      	beq.n	80018de <__aeabi_dsub+0x19a>
 80018d4:	2040      	movs	r0, #64	; 0x40
 80018d6:	1a82      	subs	r2, r0, r2
 80018d8:	4091      	lsls	r1, r2
 80018da:	430f      	orrs	r7, r1
 80018dc:	46b9      	mov	r9, r7
 80018de:	464c      	mov	r4, r9
 80018e0:	1e62      	subs	r2, r4, #1
 80018e2:	4194      	sbcs	r4, r2
 80018e4:	4334      	orrs	r4, r6
 80018e6:	e13a      	b.n	8001b5e <__aeabi_dsub+0x41a>
 80018e8:	000a      	movs	r2, r1
 80018ea:	433a      	orrs	r2, r7
 80018ec:	d028      	beq.n	8001940 <__aeabi_dsub+0x1fc>
 80018ee:	46b3      	mov	fp, r6
 80018f0:	42b5      	cmp	r5, r6
 80018f2:	d02b      	beq.n	800194c <__aeabi_dsub+0x208>
 80018f4:	4a6b      	ldr	r2, [pc, #428]	; (8001aa4 <__aeabi_dsub+0x360>)
 80018f6:	4442      	add	r2, r8
 80018f8:	2a00      	cmp	r2, #0
 80018fa:	d05d      	beq.n	80019b8 <__aeabi_dsub+0x274>
 80018fc:	4642      	mov	r2, r8
 80018fe:	4644      	mov	r4, r8
 8001900:	1a82      	subs	r2, r0, r2
 8001902:	2c00      	cmp	r4, #0
 8001904:	d000      	beq.n	8001908 <__aeabi_dsub+0x1c4>
 8001906:	e0f5      	b.n	8001af4 <__aeabi_dsub+0x3b0>
 8001908:	4665      	mov	r5, ip
 800190a:	431d      	orrs	r5, r3
 800190c:	d100      	bne.n	8001910 <__aeabi_dsub+0x1cc>
 800190e:	e19c      	b.n	8001c4a <__aeabi_dsub+0x506>
 8001910:	1e55      	subs	r5, r2, #1
 8001912:	2a01      	cmp	r2, #1
 8001914:	d100      	bne.n	8001918 <__aeabi_dsub+0x1d4>
 8001916:	e1fb      	b.n	8001d10 <__aeabi_dsub+0x5cc>
 8001918:	4c60      	ldr	r4, [pc, #384]	; (8001a9c <__aeabi_dsub+0x358>)
 800191a:	42a2      	cmp	r2, r4
 800191c:	d100      	bne.n	8001920 <__aeabi_dsub+0x1dc>
 800191e:	e1bd      	b.n	8001c9c <__aeabi_dsub+0x558>
 8001920:	002a      	movs	r2, r5
 8001922:	e0f0      	b.n	8001b06 <__aeabi_dsub+0x3c2>
 8001924:	0008      	movs	r0, r1
 8001926:	4338      	orrs	r0, r7
 8001928:	d100      	bne.n	800192c <__aeabi_dsub+0x1e8>
 800192a:	e0c3      	b.n	8001ab4 <__aeabi_dsub+0x370>
 800192c:	1e50      	subs	r0, r2, #1
 800192e:	2a01      	cmp	r2, #1
 8001930:	d100      	bne.n	8001934 <__aeabi_dsub+0x1f0>
 8001932:	e1a8      	b.n	8001c86 <__aeabi_dsub+0x542>
 8001934:	4c59      	ldr	r4, [pc, #356]	; (8001a9c <__aeabi_dsub+0x358>)
 8001936:	42a2      	cmp	r2, r4
 8001938:	d100      	bne.n	800193c <__aeabi_dsub+0x1f8>
 800193a:	e087      	b.n	8001a4c <__aeabi_dsub+0x308>
 800193c:	0002      	movs	r2, r0
 800193e:	e736      	b.n	80017ae <__aeabi_dsub+0x6a>
 8001940:	2201      	movs	r2, #1
 8001942:	4056      	eors	r6, r2
 8001944:	46b3      	mov	fp, r6
 8001946:	42b5      	cmp	r5, r6
 8001948:	d000      	beq.n	800194c <__aeabi_dsub+0x208>
 800194a:	e721      	b.n	8001790 <__aeabi_dsub+0x4c>
 800194c:	4a55      	ldr	r2, [pc, #340]	; (8001aa4 <__aeabi_dsub+0x360>)
 800194e:	4442      	add	r2, r8
 8001950:	2a00      	cmp	r2, #0
 8001952:	d100      	bne.n	8001956 <__aeabi_dsub+0x212>
 8001954:	e0b5      	b.n	8001ac2 <__aeabi_dsub+0x37e>
 8001956:	4642      	mov	r2, r8
 8001958:	4644      	mov	r4, r8
 800195a:	1a82      	subs	r2, r0, r2
 800195c:	2c00      	cmp	r4, #0
 800195e:	d100      	bne.n	8001962 <__aeabi_dsub+0x21e>
 8001960:	e138      	b.n	8001bd4 <__aeabi_dsub+0x490>
 8001962:	4e4e      	ldr	r6, [pc, #312]	; (8001a9c <__aeabi_dsub+0x358>)
 8001964:	42b0      	cmp	r0, r6
 8001966:	d100      	bne.n	800196a <__aeabi_dsub+0x226>
 8001968:	e1de      	b.n	8001d28 <__aeabi_dsub+0x5e4>
 800196a:	2680      	movs	r6, #128	; 0x80
 800196c:	4664      	mov	r4, ip
 800196e:	0436      	lsls	r6, r6, #16
 8001970:	4334      	orrs	r4, r6
 8001972:	46a4      	mov	ip, r4
 8001974:	2a38      	cmp	r2, #56	; 0x38
 8001976:	dd00      	ble.n	800197a <__aeabi_dsub+0x236>
 8001978:	e196      	b.n	8001ca8 <__aeabi_dsub+0x564>
 800197a:	2a1f      	cmp	r2, #31
 800197c:	dd00      	ble.n	8001980 <__aeabi_dsub+0x23c>
 800197e:	e224      	b.n	8001dca <__aeabi_dsub+0x686>
 8001980:	2620      	movs	r6, #32
 8001982:	1ab4      	subs	r4, r6, r2
 8001984:	46a2      	mov	sl, r4
 8001986:	4664      	mov	r4, ip
 8001988:	4656      	mov	r6, sl
 800198a:	40b4      	lsls	r4, r6
 800198c:	46a1      	mov	r9, r4
 800198e:	001c      	movs	r4, r3
 8001990:	464e      	mov	r6, r9
 8001992:	40d4      	lsrs	r4, r2
 8001994:	4326      	orrs	r6, r4
 8001996:	0034      	movs	r4, r6
 8001998:	4656      	mov	r6, sl
 800199a:	40b3      	lsls	r3, r6
 800199c:	1e5e      	subs	r6, r3, #1
 800199e:	41b3      	sbcs	r3, r6
 80019a0:	431c      	orrs	r4, r3
 80019a2:	4663      	mov	r3, ip
 80019a4:	40d3      	lsrs	r3, r2
 80019a6:	18c9      	adds	r1, r1, r3
 80019a8:	19e4      	adds	r4, r4, r7
 80019aa:	42bc      	cmp	r4, r7
 80019ac:	41bf      	sbcs	r7, r7
 80019ae:	427f      	negs	r7, r7
 80019b0:	46b9      	mov	r9, r7
 80019b2:	4680      	mov	r8, r0
 80019b4:	4489      	add	r9, r1
 80019b6:	e0d8      	b.n	8001b6a <__aeabi_dsub+0x426>
 80019b8:	4640      	mov	r0, r8
 80019ba:	4c3b      	ldr	r4, [pc, #236]	; (8001aa8 <__aeabi_dsub+0x364>)
 80019bc:	3001      	adds	r0, #1
 80019be:	4220      	tst	r0, r4
 80019c0:	d000      	beq.n	80019c4 <__aeabi_dsub+0x280>
 80019c2:	e0b4      	b.n	8001b2e <__aeabi_dsub+0x3ea>
 80019c4:	4640      	mov	r0, r8
 80019c6:	2800      	cmp	r0, #0
 80019c8:	d000      	beq.n	80019cc <__aeabi_dsub+0x288>
 80019ca:	e144      	b.n	8001c56 <__aeabi_dsub+0x512>
 80019cc:	4660      	mov	r0, ip
 80019ce:	4318      	orrs	r0, r3
 80019d0:	d100      	bne.n	80019d4 <__aeabi_dsub+0x290>
 80019d2:	e190      	b.n	8001cf6 <__aeabi_dsub+0x5b2>
 80019d4:	0008      	movs	r0, r1
 80019d6:	4338      	orrs	r0, r7
 80019d8:	d000      	beq.n	80019dc <__aeabi_dsub+0x298>
 80019da:	e1aa      	b.n	8001d32 <__aeabi_dsub+0x5ee>
 80019dc:	4661      	mov	r1, ip
 80019de:	08db      	lsrs	r3, r3, #3
 80019e0:	0749      	lsls	r1, r1, #29
 80019e2:	430b      	orrs	r3, r1
 80019e4:	4661      	mov	r1, ip
 80019e6:	08cc      	lsrs	r4, r1, #3
 80019e8:	e027      	b.n	8001a3a <__aeabi_dsub+0x2f6>
 80019ea:	0008      	movs	r0, r1
 80019ec:	4338      	orrs	r0, r7
 80019ee:	d061      	beq.n	8001ab4 <__aeabi_dsub+0x370>
 80019f0:	1e50      	subs	r0, r2, #1
 80019f2:	2a01      	cmp	r2, #1
 80019f4:	d100      	bne.n	80019f8 <__aeabi_dsub+0x2b4>
 80019f6:	e139      	b.n	8001c6c <__aeabi_dsub+0x528>
 80019f8:	42a2      	cmp	r2, r4
 80019fa:	d027      	beq.n	8001a4c <__aeabi_dsub+0x308>
 80019fc:	0002      	movs	r2, r0
 80019fe:	e75d      	b.n	80018bc <__aeabi_dsub+0x178>
 8001a00:	0002      	movs	r2, r0
 8001a02:	391f      	subs	r1, #31
 8001a04:	40ca      	lsrs	r2, r1
 8001a06:	0011      	movs	r1, r2
 8001a08:	2b20      	cmp	r3, #32
 8001a0a:	d003      	beq.n	8001a14 <__aeabi_dsub+0x2d0>
 8001a0c:	2240      	movs	r2, #64	; 0x40
 8001a0e:	1ad3      	subs	r3, r2, r3
 8001a10:	4098      	lsls	r0, r3
 8001a12:	4304      	orrs	r4, r0
 8001a14:	1e63      	subs	r3, r4, #1
 8001a16:	419c      	sbcs	r4, r3
 8001a18:	2300      	movs	r3, #0
 8001a1a:	4699      	mov	r9, r3
 8001a1c:	4698      	mov	r8, r3
 8001a1e:	430c      	orrs	r4, r1
 8001a20:	0763      	lsls	r3, r4, #29
 8001a22:	d000      	beq.n	8001a26 <__aeabi_dsub+0x2e2>
 8001a24:	e712      	b.n	800184c <__aeabi_dsub+0x108>
 8001a26:	464b      	mov	r3, r9
 8001a28:	464a      	mov	r2, r9
 8001a2a:	08e4      	lsrs	r4, r4, #3
 8001a2c:	075b      	lsls	r3, r3, #29
 8001a2e:	4323      	orrs	r3, r4
 8001a30:	08d4      	lsrs	r4, r2, #3
 8001a32:	4642      	mov	r2, r8
 8001a34:	4919      	ldr	r1, [pc, #100]	; (8001a9c <__aeabi_dsub+0x358>)
 8001a36:	428a      	cmp	r2, r1
 8001a38:	d00e      	beq.n	8001a58 <__aeabi_dsub+0x314>
 8001a3a:	0324      	lsls	r4, r4, #12
 8001a3c:	0552      	lsls	r2, r2, #21
 8001a3e:	0b24      	lsrs	r4, r4, #12
 8001a40:	0d52      	lsrs	r2, r2, #21
 8001a42:	e722      	b.n	800188a <__aeabi_dsub+0x146>
 8001a44:	000a      	movs	r2, r1
 8001a46:	2400      	movs	r4, #0
 8001a48:	2300      	movs	r3, #0
 8001a4a:	e71e      	b.n	800188a <__aeabi_dsub+0x146>
 8001a4c:	08db      	lsrs	r3, r3, #3
 8001a4e:	4662      	mov	r2, ip
 8001a50:	0752      	lsls	r2, r2, #29
 8001a52:	4313      	orrs	r3, r2
 8001a54:	4662      	mov	r2, ip
 8001a56:	08d4      	lsrs	r4, r2, #3
 8001a58:	001a      	movs	r2, r3
 8001a5a:	4322      	orrs	r2, r4
 8001a5c:	d100      	bne.n	8001a60 <__aeabi_dsub+0x31c>
 8001a5e:	e1fc      	b.n	8001e5a <__aeabi_dsub+0x716>
 8001a60:	2280      	movs	r2, #128	; 0x80
 8001a62:	0312      	lsls	r2, r2, #12
 8001a64:	4314      	orrs	r4, r2
 8001a66:	0324      	lsls	r4, r4, #12
 8001a68:	4a0c      	ldr	r2, [pc, #48]	; (8001a9c <__aeabi_dsub+0x358>)
 8001a6a:	0b24      	lsrs	r4, r4, #12
 8001a6c:	e70d      	b.n	800188a <__aeabi_dsub+0x146>
 8001a6e:	0020      	movs	r0, r4
 8001a70:	f000 fae6 	bl	8002040 <__clzsi2>
 8001a74:	0001      	movs	r1, r0
 8001a76:	3118      	adds	r1, #24
 8001a78:	291f      	cmp	r1, #31
 8001a7a:	dc00      	bgt.n	8001a7e <__aeabi_dsub+0x33a>
 8001a7c:	e6c4      	b.n	8001808 <__aeabi_dsub+0xc4>
 8001a7e:	3808      	subs	r0, #8
 8001a80:	4084      	lsls	r4, r0
 8001a82:	4643      	mov	r3, r8
 8001a84:	0020      	movs	r0, r4
 8001a86:	2400      	movs	r4, #0
 8001a88:	4588      	cmp	r8, r1
 8001a8a:	dc00      	bgt.n	8001a8e <__aeabi_dsub+0x34a>
 8001a8c:	e6c8      	b.n	8001820 <__aeabi_dsub+0xdc>
 8001a8e:	4a04      	ldr	r2, [pc, #16]	; (8001aa0 <__aeabi_dsub+0x35c>)
 8001a90:	1a5b      	subs	r3, r3, r1
 8001a92:	4010      	ands	r0, r2
 8001a94:	4698      	mov	r8, r3
 8001a96:	4681      	mov	r9, r0
 8001a98:	e6d6      	b.n	8001848 <__aeabi_dsub+0x104>
 8001a9a:	46c0      	nop			; (mov r8, r8)
 8001a9c:	000007ff 	.word	0x000007ff
 8001aa0:	ff7fffff 	.word	0xff7fffff
 8001aa4:	fffff801 	.word	0xfffff801
 8001aa8:	000007fe 	.word	0x000007fe
 8001aac:	430f      	orrs	r7, r1
 8001aae:	1e7a      	subs	r2, r7, #1
 8001ab0:	4197      	sbcs	r7, r2
 8001ab2:	e691      	b.n	80017d8 <__aeabi_dsub+0x94>
 8001ab4:	4661      	mov	r1, ip
 8001ab6:	08db      	lsrs	r3, r3, #3
 8001ab8:	0749      	lsls	r1, r1, #29
 8001aba:	430b      	orrs	r3, r1
 8001abc:	4661      	mov	r1, ip
 8001abe:	08cc      	lsrs	r4, r1, #3
 8001ac0:	e7b8      	b.n	8001a34 <__aeabi_dsub+0x2f0>
 8001ac2:	4640      	mov	r0, r8
 8001ac4:	4cd3      	ldr	r4, [pc, #844]	; (8001e14 <__aeabi_dsub+0x6d0>)
 8001ac6:	3001      	adds	r0, #1
 8001ac8:	4220      	tst	r0, r4
 8001aca:	d000      	beq.n	8001ace <__aeabi_dsub+0x38a>
 8001acc:	e0a2      	b.n	8001c14 <__aeabi_dsub+0x4d0>
 8001ace:	4640      	mov	r0, r8
 8001ad0:	2800      	cmp	r0, #0
 8001ad2:	d000      	beq.n	8001ad6 <__aeabi_dsub+0x392>
 8001ad4:	e101      	b.n	8001cda <__aeabi_dsub+0x596>
 8001ad6:	4660      	mov	r0, ip
 8001ad8:	4318      	orrs	r0, r3
 8001ada:	d100      	bne.n	8001ade <__aeabi_dsub+0x39a>
 8001adc:	e15e      	b.n	8001d9c <__aeabi_dsub+0x658>
 8001ade:	0008      	movs	r0, r1
 8001ae0:	4338      	orrs	r0, r7
 8001ae2:	d000      	beq.n	8001ae6 <__aeabi_dsub+0x3a2>
 8001ae4:	e15f      	b.n	8001da6 <__aeabi_dsub+0x662>
 8001ae6:	4661      	mov	r1, ip
 8001ae8:	08db      	lsrs	r3, r3, #3
 8001aea:	0749      	lsls	r1, r1, #29
 8001aec:	430b      	orrs	r3, r1
 8001aee:	4661      	mov	r1, ip
 8001af0:	08cc      	lsrs	r4, r1, #3
 8001af2:	e7a2      	b.n	8001a3a <__aeabi_dsub+0x2f6>
 8001af4:	4dc8      	ldr	r5, [pc, #800]	; (8001e18 <__aeabi_dsub+0x6d4>)
 8001af6:	42a8      	cmp	r0, r5
 8001af8:	d100      	bne.n	8001afc <__aeabi_dsub+0x3b8>
 8001afa:	e0cf      	b.n	8001c9c <__aeabi_dsub+0x558>
 8001afc:	2580      	movs	r5, #128	; 0x80
 8001afe:	4664      	mov	r4, ip
 8001b00:	042d      	lsls	r5, r5, #16
 8001b02:	432c      	orrs	r4, r5
 8001b04:	46a4      	mov	ip, r4
 8001b06:	2a38      	cmp	r2, #56	; 0x38
 8001b08:	dc56      	bgt.n	8001bb8 <__aeabi_dsub+0x474>
 8001b0a:	2a1f      	cmp	r2, #31
 8001b0c:	dd00      	ble.n	8001b10 <__aeabi_dsub+0x3cc>
 8001b0e:	e0d1      	b.n	8001cb4 <__aeabi_dsub+0x570>
 8001b10:	2520      	movs	r5, #32
 8001b12:	001e      	movs	r6, r3
 8001b14:	1aad      	subs	r5, r5, r2
 8001b16:	4664      	mov	r4, ip
 8001b18:	40ab      	lsls	r3, r5
 8001b1a:	40ac      	lsls	r4, r5
 8001b1c:	40d6      	lsrs	r6, r2
 8001b1e:	1e5d      	subs	r5, r3, #1
 8001b20:	41ab      	sbcs	r3, r5
 8001b22:	4334      	orrs	r4, r6
 8001b24:	4323      	orrs	r3, r4
 8001b26:	4664      	mov	r4, ip
 8001b28:	40d4      	lsrs	r4, r2
 8001b2a:	1b09      	subs	r1, r1, r4
 8001b2c:	e049      	b.n	8001bc2 <__aeabi_dsub+0x47e>
 8001b2e:	4660      	mov	r0, ip
 8001b30:	1bdc      	subs	r4, r3, r7
 8001b32:	1a46      	subs	r6, r0, r1
 8001b34:	42a3      	cmp	r3, r4
 8001b36:	4180      	sbcs	r0, r0
 8001b38:	4240      	negs	r0, r0
 8001b3a:	4681      	mov	r9, r0
 8001b3c:	0030      	movs	r0, r6
 8001b3e:	464e      	mov	r6, r9
 8001b40:	1b80      	subs	r0, r0, r6
 8001b42:	4681      	mov	r9, r0
 8001b44:	0200      	lsls	r0, r0, #8
 8001b46:	d476      	bmi.n	8001c36 <__aeabi_dsub+0x4f2>
 8001b48:	464b      	mov	r3, r9
 8001b4a:	4323      	orrs	r3, r4
 8001b4c:	d000      	beq.n	8001b50 <__aeabi_dsub+0x40c>
 8001b4e:	e652      	b.n	80017f6 <__aeabi_dsub+0xb2>
 8001b50:	2400      	movs	r4, #0
 8001b52:	2500      	movs	r5, #0
 8001b54:	e771      	b.n	8001a3a <__aeabi_dsub+0x2f6>
 8001b56:	4339      	orrs	r1, r7
 8001b58:	000c      	movs	r4, r1
 8001b5a:	1e62      	subs	r2, r4, #1
 8001b5c:	4194      	sbcs	r4, r2
 8001b5e:	18e4      	adds	r4, r4, r3
 8001b60:	429c      	cmp	r4, r3
 8001b62:	419b      	sbcs	r3, r3
 8001b64:	425b      	negs	r3, r3
 8001b66:	4463      	add	r3, ip
 8001b68:	4699      	mov	r9, r3
 8001b6a:	464b      	mov	r3, r9
 8001b6c:	021b      	lsls	r3, r3, #8
 8001b6e:	d400      	bmi.n	8001b72 <__aeabi_dsub+0x42e>
 8001b70:	e756      	b.n	8001a20 <__aeabi_dsub+0x2dc>
 8001b72:	2301      	movs	r3, #1
 8001b74:	469c      	mov	ip, r3
 8001b76:	4ba8      	ldr	r3, [pc, #672]	; (8001e18 <__aeabi_dsub+0x6d4>)
 8001b78:	44e0      	add	r8, ip
 8001b7a:	4598      	cmp	r8, r3
 8001b7c:	d038      	beq.n	8001bf0 <__aeabi_dsub+0x4ac>
 8001b7e:	464b      	mov	r3, r9
 8001b80:	48a6      	ldr	r0, [pc, #664]	; (8001e1c <__aeabi_dsub+0x6d8>)
 8001b82:	2201      	movs	r2, #1
 8001b84:	4003      	ands	r3, r0
 8001b86:	0018      	movs	r0, r3
 8001b88:	0863      	lsrs	r3, r4, #1
 8001b8a:	4014      	ands	r4, r2
 8001b8c:	431c      	orrs	r4, r3
 8001b8e:	07c3      	lsls	r3, r0, #31
 8001b90:	431c      	orrs	r4, r3
 8001b92:	0843      	lsrs	r3, r0, #1
 8001b94:	4699      	mov	r9, r3
 8001b96:	e657      	b.n	8001848 <__aeabi_dsub+0x104>
 8001b98:	0010      	movs	r0, r2
 8001b9a:	000e      	movs	r6, r1
 8001b9c:	3820      	subs	r0, #32
 8001b9e:	40c6      	lsrs	r6, r0
 8001ba0:	2a20      	cmp	r2, #32
 8001ba2:	d004      	beq.n	8001bae <__aeabi_dsub+0x46a>
 8001ba4:	2040      	movs	r0, #64	; 0x40
 8001ba6:	1a82      	subs	r2, r0, r2
 8001ba8:	4091      	lsls	r1, r2
 8001baa:	430f      	orrs	r7, r1
 8001bac:	46b9      	mov	r9, r7
 8001bae:	464f      	mov	r7, r9
 8001bb0:	1e7a      	subs	r2, r7, #1
 8001bb2:	4197      	sbcs	r7, r2
 8001bb4:	4337      	orrs	r7, r6
 8001bb6:	e60f      	b.n	80017d8 <__aeabi_dsub+0x94>
 8001bb8:	4662      	mov	r2, ip
 8001bba:	431a      	orrs	r2, r3
 8001bbc:	0013      	movs	r3, r2
 8001bbe:	1e5a      	subs	r2, r3, #1
 8001bc0:	4193      	sbcs	r3, r2
 8001bc2:	1afc      	subs	r4, r7, r3
 8001bc4:	42a7      	cmp	r7, r4
 8001bc6:	41bf      	sbcs	r7, r7
 8001bc8:	427f      	negs	r7, r7
 8001bca:	1bcb      	subs	r3, r1, r7
 8001bcc:	4699      	mov	r9, r3
 8001bce:	465d      	mov	r5, fp
 8001bd0:	4680      	mov	r8, r0
 8001bd2:	e608      	b.n	80017e6 <__aeabi_dsub+0xa2>
 8001bd4:	4666      	mov	r6, ip
 8001bd6:	431e      	orrs	r6, r3
 8001bd8:	d100      	bne.n	8001bdc <__aeabi_dsub+0x498>
 8001bda:	e0be      	b.n	8001d5a <__aeabi_dsub+0x616>
 8001bdc:	1e56      	subs	r6, r2, #1
 8001bde:	2a01      	cmp	r2, #1
 8001be0:	d100      	bne.n	8001be4 <__aeabi_dsub+0x4a0>
 8001be2:	e109      	b.n	8001df8 <__aeabi_dsub+0x6b4>
 8001be4:	4c8c      	ldr	r4, [pc, #560]	; (8001e18 <__aeabi_dsub+0x6d4>)
 8001be6:	42a2      	cmp	r2, r4
 8001be8:	d100      	bne.n	8001bec <__aeabi_dsub+0x4a8>
 8001bea:	e119      	b.n	8001e20 <__aeabi_dsub+0x6dc>
 8001bec:	0032      	movs	r2, r6
 8001bee:	e6c1      	b.n	8001974 <__aeabi_dsub+0x230>
 8001bf0:	4642      	mov	r2, r8
 8001bf2:	2400      	movs	r4, #0
 8001bf4:	2300      	movs	r3, #0
 8001bf6:	e648      	b.n	800188a <__aeabi_dsub+0x146>
 8001bf8:	2020      	movs	r0, #32
 8001bfa:	000c      	movs	r4, r1
 8001bfc:	1a80      	subs	r0, r0, r2
 8001bfe:	003e      	movs	r6, r7
 8001c00:	4087      	lsls	r7, r0
 8001c02:	4084      	lsls	r4, r0
 8001c04:	40d6      	lsrs	r6, r2
 8001c06:	1e78      	subs	r0, r7, #1
 8001c08:	4187      	sbcs	r7, r0
 8001c0a:	40d1      	lsrs	r1, r2
 8001c0c:	4334      	orrs	r4, r6
 8001c0e:	433c      	orrs	r4, r7
 8001c10:	448c      	add	ip, r1
 8001c12:	e7a4      	b.n	8001b5e <__aeabi_dsub+0x41a>
 8001c14:	4a80      	ldr	r2, [pc, #512]	; (8001e18 <__aeabi_dsub+0x6d4>)
 8001c16:	4290      	cmp	r0, r2
 8001c18:	d100      	bne.n	8001c1c <__aeabi_dsub+0x4d8>
 8001c1a:	e0e9      	b.n	8001df0 <__aeabi_dsub+0x6ac>
 8001c1c:	19df      	adds	r7, r3, r7
 8001c1e:	429f      	cmp	r7, r3
 8001c20:	419b      	sbcs	r3, r3
 8001c22:	4461      	add	r1, ip
 8001c24:	425b      	negs	r3, r3
 8001c26:	18c9      	adds	r1, r1, r3
 8001c28:	07cc      	lsls	r4, r1, #31
 8001c2a:	087f      	lsrs	r7, r7, #1
 8001c2c:	084b      	lsrs	r3, r1, #1
 8001c2e:	4699      	mov	r9, r3
 8001c30:	4680      	mov	r8, r0
 8001c32:	433c      	orrs	r4, r7
 8001c34:	e6f4      	b.n	8001a20 <__aeabi_dsub+0x2dc>
 8001c36:	1afc      	subs	r4, r7, r3
 8001c38:	42a7      	cmp	r7, r4
 8001c3a:	41bf      	sbcs	r7, r7
 8001c3c:	4663      	mov	r3, ip
 8001c3e:	427f      	negs	r7, r7
 8001c40:	1ac9      	subs	r1, r1, r3
 8001c42:	1bcb      	subs	r3, r1, r7
 8001c44:	4699      	mov	r9, r3
 8001c46:	465d      	mov	r5, fp
 8001c48:	e5d5      	b.n	80017f6 <__aeabi_dsub+0xb2>
 8001c4a:	08ff      	lsrs	r7, r7, #3
 8001c4c:	074b      	lsls	r3, r1, #29
 8001c4e:	465d      	mov	r5, fp
 8001c50:	433b      	orrs	r3, r7
 8001c52:	08cc      	lsrs	r4, r1, #3
 8001c54:	e6ee      	b.n	8001a34 <__aeabi_dsub+0x2f0>
 8001c56:	4662      	mov	r2, ip
 8001c58:	431a      	orrs	r2, r3
 8001c5a:	d000      	beq.n	8001c5e <__aeabi_dsub+0x51a>
 8001c5c:	e082      	b.n	8001d64 <__aeabi_dsub+0x620>
 8001c5e:	000b      	movs	r3, r1
 8001c60:	433b      	orrs	r3, r7
 8001c62:	d11b      	bne.n	8001c9c <__aeabi_dsub+0x558>
 8001c64:	2480      	movs	r4, #128	; 0x80
 8001c66:	2500      	movs	r5, #0
 8001c68:	0324      	lsls	r4, r4, #12
 8001c6a:	e6f9      	b.n	8001a60 <__aeabi_dsub+0x31c>
 8001c6c:	19dc      	adds	r4, r3, r7
 8001c6e:	429c      	cmp	r4, r3
 8001c70:	419b      	sbcs	r3, r3
 8001c72:	4461      	add	r1, ip
 8001c74:	4689      	mov	r9, r1
 8001c76:	425b      	negs	r3, r3
 8001c78:	4499      	add	r9, r3
 8001c7a:	464b      	mov	r3, r9
 8001c7c:	021b      	lsls	r3, r3, #8
 8001c7e:	d444      	bmi.n	8001d0a <__aeabi_dsub+0x5c6>
 8001c80:	2301      	movs	r3, #1
 8001c82:	4698      	mov	r8, r3
 8001c84:	e6cc      	b.n	8001a20 <__aeabi_dsub+0x2dc>
 8001c86:	1bdc      	subs	r4, r3, r7
 8001c88:	4662      	mov	r2, ip
 8001c8a:	42a3      	cmp	r3, r4
 8001c8c:	419b      	sbcs	r3, r3
 8001c8e:	1a51      	subs	r1, r2, r1
 8001c90:	425b      	negs	r3, r3
 8001c92:	1acb      	subs	r3, r1, r3
 8001c94:	4699      	mov	r9, r3
 8001c96:	2301      	movs	r3, #1
 8001c98:	4698      	mov	r8, r3
 8001c9a:	e5a4      	b.n	80017e6 <__aeabi_dsub+0xa2>
 8001c9c:	08ff      	lsrs	r7, r7, #3
 8001c9e:	074b      	lsls	r3, r1, #29
 8001ca0:	465d      	mov	r5, fp
 8001ca2:	433b      	orrs	r3, r7
 8001ca4:	08cc      	lsrs	r4, r1, #3
 8001ca6:	e6d7      	b.n	8001a58 <__aeabi_dsub+0x314>
 8001ca8:	4662      	mov	r2, ip
 8001caa:	431a      	orrs	r2, r3
 8001cac:	0014      	movs	r4, r2
 8001cae:	1e63      	subs	r3, r4, #1
 8001cb0:	419c      	sbcs	r4, r3
 8001cb2:	e679      	b.n	80019a8 <__aeabi_dsub+0x264>
 8001cb4:	0015      	movs	r5, r2
 8001cb6:	4664      	mov	r4, ip
 8001cb8:	3d20      	subs	r5, #32
 8001cba:	40ec      	lsrs	r4, r5
 8001cbc:	46a0      	mov	r8, r4
 8001cbe:	2a20      	cmp	r2, #32
 8001cc0:	d005      	beq.n	8001cce <__aeabi_dsub+0x58a>
 8001cc2:	2540      	movs	r5, #64	; 0x40
 8001cc4:	4664      	mov	r4, ip
 8001cc6:	1aaa      	subs	r2, r5, r2
 8001cc8:	4094      	lsls	r4, r2
 8001cca:	4323      	orrs	r3, r4
 8001ccc:	469a      	mov	sl, r3
 8001cce:	4654      	mov	r4, sl
 8001cd0:	1e63      	subs	r3, r4, #1
 8001cd2:	419c      	sbcs	r4, r3
 8001cd4:	4643      	mov	r3, r8
 8001cd6:	4323      	orrs	r3, r4
 8001cd8:	e773      	b.n	8001bc2 <__aeabi_dsub+0x47e>
 8001cda:	4662      	mov	r2, ip
 8001cdc:	431a      	orrs	r2, r3
 8001cde:	d023      	beq.n	8001d28 <__aeabi_dsub+0x5e4>
 8001ce0:	000a      	movs	r2, r1
 8001ce2:	433a      	orrs	r2, r7
 8001ce4:	d000      	beq.n	8001ce8 <__aeabi_dsub+0x5a4>
 8001ce6:	e0a0      	b.n	8001e2a <__aeabi_dsub+0x6e6>
 8001ce8:	4662      	mov	r2, ip
 8001cea:	08db      	lsrs	r3, r3, #3
 8001cec:	0752      	lsls	r2, r2, #29
 8001cee:	4313      	orrs	r3, r2
 8001cf0:	4662      	mov	r2, ip
 8001cf2:	08d4      	lsrs	r4, r2, #3
 8001cf4:	e6b0      	b.n	8001a58 <__aeabi_dsub+0x314>
 8001cf6:	000b      	movs	r3, r1
 8001cf8:	433b      	orrs	r3, r7
 8001cfa:	d100      	bne.n	8001cfe <__aeabi_dsub+0x5ba>
 8001cfc:	e728      	b.n	8001b50 <__aeabi_dsub+0x40c>
 8001cfe:	08ff      	lsrs	r7, r7, #3
 8001d00:	074b      	lsls	r3, r1, #29
 8001d02:	465d      	mov	r5, fp
 8001d04:	433b      	orrs	r3, r7
 8001d06:	08cc      	lsrs	r4, r1, #3
 8001d08:	e697      	b.n	8001a3a <__aeabi_dsub+0x2f6>
 8001d0a:	2302      	movs	r3, #2
 8001d0c:	4698      	mov	r8, r3
 8001d0e:	e736      	b.n	8001b7e <__aeabi_dsub+0x43a>
 8001d10:	1afc      	subs	r4, r7, r3
 8001d12:	42a7      	cmp	r7, r4
 8001d14:	41bf      	sbcs	r7, r7
 8001d16:	4663      	mov	r3, ip
 8001d18:	427f      	negs	r7, r7
 8001d1a:	1ac9      	subs	r1, r1, r3
 8001d1c:	1bcb      	subs	r3, r1, r7
 8001d1e:	4699      	mov	r9, r3
 8001d20:	2301      	movs	r3, #1
 8001d22:	465d      	mov	r5, fp
 8001d24:	4698      	mov	r8, r3
 8001d26:	e55e      	b.n	80017e6 <__aeabi_dsub+0xa2>
 8001d28:	074b      	lsls	r3, r1, #29
 8001d2a:	08ff      	lsrs	r7, r7, #3
 8001d2c:	433b      	orrs	r3, r7
 8001d2e:	08cc      	lsrs	r4, r1, #3
 8001d30:	e692      	b.n	8001a58 <__aeabi_dsub+0x314>
 8001d32:	1bdc      	subs	r4, r3, r7
 8001d34:	4660      	mov	r0, ip
 8001d36:	42a3      	cmp	r3, r4
 8001d38:	41b6      	sbcs	r6, r6
 8001d3a:	1a40      	subs	r0, r0, r1
 8001d3c:	4276      	negs	r6, r6
 8001d3e:	1b80      	subs	r0, r0, r6
 8001d40:	4681      	mov	r9, r0
 8001d42:	0200      	lsls	r0, r0, #8
 8001d44:	d560      	bpl.n	8001e08 <__aeabi_dsub+0x6c4>
 8001d46:	1afc      	subs	r4, r7, r3
 8001d48:	42a7      	cmp	r7, r4
 8001d4a:	41bf      	sbcs	r7, r7
 8001d4c:	4663      	mov	r3, ip
 8001d4e:	427f      	negs	r7, r7
 8001d50:	1ac9      	subs	r1, r1, r3
 8001d52:	1bcb      	subs	r3, r1, r7
 8001d54:	4699      	mov	r9, r3
 8001d56:	465d      	mov	r5, fp
 8001d58:	e576      	b.n	8001848 <__aeabi_dsub+0x104>
 8001d5a:	08ff      	lsrs	r7, r7, #3
 8001d5c:	074b      	lsls	r3, r1, #29
 8001d5e:	433b      	orrs	r3, r7
 8001d60:	08cc      	lsrs	r4, r1, #3
 8001d62:	e667      	b.n	8001a34 <__aeabi_dsub+0x2f0>
 8001d64:	000a      	movs	r2, r1
 8001d66:	08db      	lsrs	r3, r3, #3
 8001d68:	433a      	orrs	r2, r7
 8001d6a:	d100      	bne.n	8001d6e <__aeabi_dsub+0x62a>
 8001d6c:	e66f      	b.n	8001a4e <__aeabi_dsub+0x30a>
 8001d6e:	4662      	mov	r2, ip
 8001d70:	0752      	lsls	r2, r2, #29
 8001d72:	4313      	orrs	r3, r2
 8001d74:	4662      	mov	r2, ip
 8001d76:	08d4      	lsrs	r4, r2, #3
 8001d78:	2280      	movs	r2, #128	; 0x80
 8001d7a:	0312      	lsls	r2, r2, #12
 8001d7c:	4214      	tst	r4, r2
 8001d7e:	d007      	beq.n	8001d90 <__aeabi_dsub+0x64c>
 8001d80:	08c8      	lsrs	r0, r1, #3
 8001d82:	4210      	tst	r0, r2
 8001d84:	d104      	bne.n	8001d90 <__aeabi_dsub+0x64c>
 8001d86:	465d      	mov	r5, fp
 8001d88:	0004      	movs	r4, r0
 8001d8a:	08fb      	lsrs	r3, r7, #3
 8001d8c:	0749      	lsls	r1, r1, #29
 8001d8e:	430b      	orrs	r3, r1
 8001d90:	0f5a      	lsrs	r2, r3, #29
 8001d92:	00db      	lsls	r3, r3, #3
 8001d94:	08db      	lsrs	r3, r3, #3
 8001d96:	0752      	lsls	r2, r2, #29
 8001d98:	4313      	orrs	r3, r2
 8001d9a:	e65d      	b.n	8001a58 <__aeabi_dsub+0x314>
 8001d9c:	074b      	lsls	r3, r1, #29
 8001d9e:	08ff      	lsrs	r7, r7, #3
 8001da0:	433b      	orrs	r3, r7
 8001da2:	08cc      	lsrs	r4, r1, #3
 8001da4:	e649      	b.n	8001a3a <__aeabi_dsub+0x2f6>
 8001da6:	19dc      	adds	r4, r3, r7
 8001da8:	429c      	cmp	r4, r3
 8001daa:	419b      	sbcs	r3, r3
 8001dac:	4461      	add	r1, ip
 8001dae:	4689      	mov	r9, r1
 8001db0:	425b      	negs	r3, r3
 8001db2:	4499      	add	r9, r3
 8001db4:	464b      	mov	r3, r9
 8001db6:	021b      	lsls	r3, r3, #8
 8001db8:	d400      	bmi.n	8001dbc <__aeabi_dsub+0x678>
 8001dba:	e631      	b.n	8001a20 <__aeabi_dsub+0x2dc>
 8001dbc:	464a      	mov	r2, r9
 8001dbe:	4b17      	ldr	r3, [pc, #92]	; (8001e1c <__aeabi_dsub+0x6d8>)
 8001dc0:	401a      	ands	r2, r3
 8001dc2:	2301      	movs	r3, #1
 8001dc4:	4691      	mov	r9, r2
 8001dc6:	4698      	mov	r8, r3
 8001dc8:	e62a      	b.n	8001a20 <__aeabi_dsub+0x2dc>
 8001dca:	0016      	movs	r6, r2
 8001dcc:	4664      	mov	r4, ip
 8001dce:	3e20      	subs	r6, #32
 8001dd0:	40f4      	lsrs	r4, r6
 8001dd2:	46a0      	mov	r8, r4
 8001dd4:	2a20      	cmp	r2, #32
 8001dd6:	d005      	beq.n	8001de4 <__aeabi_dsub+0x6a0>
 8001dd8:	2640      	movs	r6, #64	; 0x40
 8001dda:	4664      	mov	r4, ip
 8001ddc:	1ab2      	subs	r2, r6, r2
 8001dde:	4094      	lsls	r4, r2
 8001de0:	4323      	orrs	r3, r4
 8001de2:	469a      	mov	sl, r3
 8001de4:	4654      	mov	r4, sl
 8001de6:	1e63      	subs	r3, r4, #1
 8001de8:	419c      	sbcs	r4, r3
 8001dea:	4643      	mov	r3, r8
 8001dec:	431c      	orrs	r4, r3
 8001dee:	e5db      	b.n	80019a8 <__aeabi_dsub+0x264>
 8001df0:	0002      	movs	r2, r0
 8001df2:	2400      	movs	r4, #0
 8001df4:	2300      	movs	r3, #0
 8001df6:	e548      	b.n	800188a <__aeabi_dsub+0x146>
 8001df8:	19dc      	adds	r4, r3, r7
 8001dfa:	42bc      	cmp	r4, r7
 8001dfc:	41bf      	sbcs	r7, r7
 8001dfe:	4461      	add	r1, ip
 8001e00:	4689      	mov	r9, r1
 8001e02:	427f      	negs	r7, r7
 8001e04:	44b9      	add	r9, r7
 8001e06:	e738      	b.n	8001c7a <__aeabi_dsub+0x536>
 8001e08:	464b      	mov	r3, r9
 8001e0a:	4323      	orrs	r3, r4
 8001e0c:	d100      	bne.n	8001e10 <__aeabi_dsub+0x6cc>
 8001e0e:	e69f      	b.n	8001b50 <__aeabi_dsub+0x40c>
 8001e10:	e606      	b.n	8001a20 <__aeabi_dsub+0x2dc>
 8001e12:	46c0      	nop			; (mov r8, r8)
 8001e14:	000007fe 	.word	0x000007fe
 8001e18:	000007ff 	.word	0x000007ff
 8001e1c:	ff7fffff 	.word	0xff7fffff
 8001e20:	08ff      	lsrs	r7, r7, #3
 8001e22:	074b      	lsls	r3, r1, #29
 8001e24:	433b      	orrs	r3, r7
 8001e26:	08cc      	lsrs	r4, r1, #3
 8001e28:	e616      	b.n	8001a58 <__aeabi_dsub+0x314>
 8001e2a:	4662      	mov	r2, ip
 8001e2c:	08db      	lsrs	r3, r3, #3
 8001e2e:	0752      	lsls	r2, r2, #29
 8001e30:	4313      	orrs	r3, r2
 8001e32:	4662      	mov	r2, ip
 8001e34:	08d4      	lsrs	r4, r2, #3
 8001e36:	2280      	movs	r2, #128	; 0x80
 8001e38:	0312      	lsls	r2, r2, #12
 8001e3a:	4214      	tst	r4, r2
 8001e3c:	d007      	beq.n	8001e4e <__aeabi_dsub+0x70a>
 8001e3e:	08c8      	lsrs	r0, r1, #3
 8001e40:	4210      	tst	r0, r2
 8001e42:	d104      	bne.n	8001e4e <__aeabi_dsub+0x70a>
 8001e44:	465d      	mov	r5, fp
 8001e46:	0004      	movs	r4, r0
 8001e48:	08fb      	lsrs	r3, r7, #3
 8001e4a:	0749      	lsls	r1, r1, #29
 8001e4c:	430b      	orrs	r3, r1
 8001e4e:	0f5a      	lsrs	r2, r3, #29
 8001e50:	00db      	lsls	r3, r3, #3
 8001e52:	0752      	lsls	r2, r2, #29
 8001e54:	08db      	lsrs	r3, r3, #3
 8001e56:	4313      	orrs	r3, r2
 8001e58:	e5fe      	b.n	8001a58 <__aeabi_dsub+0x314>
 8001e5a:	2300      	movs	r3, #0
 8001e5c:	4a01      	ldr	r2, [pc, #4]	; (8001e64 <__aeabi_dsub+0x720>)
 8001e5e:	001c      	movs	r4, r3
 8001e60:	e513      	b.n	800188a <__aeabi_dsub+0x146>
 8001e62:	46c0      	nop			; (mov r8, r8)
 8001e64:	000007ff 	.word	0x000007ff

08001e68 <__aeabi_d2iz>:
 8001e68:	000a      	movs	r2, r1
 8001e6a:	b530      	push	{r4, r5, lr}
 8001e6c:	4c13      	ldr	r4, [pc, #76]	; (8001ebc <__aeabi_d2iz+0x54>)
 8001e6e:	0053      	lsls	r3, r2, #1
 8001e70:	0309      	lsls	r1, r1, #12
 8001e72:	0005      	movs	r5, r0
 8001e74:	0b09      	lsrs	r1, r1, #12
 8001e76:	2000      	movs	r0, #0
 8001e78:	0d5b      	lsrs	r3, r3, #21
 8001e7a:	0fd2      	lsrs	r2, r2, #31
 8001e7c:	42a3      	cmp	r3, r4
 8001e7e:	dd04      	ble.n	8001e8a <__aeabi_d2iz+0x22>
 8001e80:	480f      	ldr	r0, [pc, #60]	; (8001ec0 <__aeabi_d2iz+0x58>)
 8001e82:	4283      	cmp	r3, r0
 8001e84:	dd02      	ble.n	8001e8c <__aeabi_d2iz+0x24>
 8001e86:	4b0f      	ldr	r3, [pc, #60]	; (8001ec4 <__aeabi_d2iz+0x5c>)
 8001e88:	18d0      	adds	r0, r2, r3
 8001e8a:	bd30      	pop	{r4, r5, pc}
 8001e8c:	2080      	movs	r0, #128	; 0x80
 8001e8e:	0340      	lsls	r0, r0, #13
 8001e90:	4301      	orrs	r1, r0
 8001e92:	480d      	ldr	r0, [pc, #52]	; (8001ec8 <__aeabi_d2iz+0x60>)
 8001e94:	1ac0      	subs	r0, r0, r3
 8001e96:	281f      	cmp	r0, #31
 8001e98:	dd08      	ble.n	8001eac <__aeabi_d2iz+0x44>
 8001e9a:	480c      	ldr	r0, [pc, #48]	; (8001ecc <__aeabi_d2iz+0x64>)
 8001e9c:	1ac3      	subs	r3, r0, r3
 8001e9e:	40d9      	lsrs	r1, r3
 8001ea0:	000b      	movs	r3, r1
 8001ea2:	4258      	negs	r0, r3
 8001ea4:	2a00      	cmp	r2, #0
 8001ea6:	d1f0      	bne.n	8001e8a <__aeabi_d2iz+0x22>
 8001ea8:	0018      	movs	r0, r3
 8001eaa:	e7ee      	b.n	8001e8a <__aeabi_d2iz+0x22>
 8001eac:	4c08      	ldr	r4, [pc, #32]	; (8001ed0 <__aeabi_d2iz+0x68>)
 8001eae:	40c5      	lsrs	r5, r0
 8001eb0:	46a4      	mov	ip, r4
 8001eb2:	4463      	add	r3, ip
 8001eb4:	4099      	lsls	r1, r3
 8001eb6:	000b      	movs	r3, r1
 8001eb8:	432b      	orrs	r3, r5
 8001eba:	e7f2      	b.n	8001ea2 <__aeabi_d2iz+0x3a>
 8001ebc:	000003fe 	.word	0x000003fe
 8001ec0:	0000041d 	.word	0x0000041d
 8001ec4:	7fffffff 	.word	0x7fffffff
 8001ec8:	00000433 	.word	0x00000433
 8001ecc:	00000413 	.word	0x00000413
 8001ed0:	fffffbed 	.word	0xfffffbed

08001ed4 <__aeabi_i2d>:
 8001ed4:	b570      	push	{r4, r5, r6, lr}
 8001ed6:	2800      	cmp	r0, #0
 8001ed8:	d016      	beq.n	8001f08 <__aeabi_i2d+0x34>
 8001eda:	17c3      	asrs	r3, r0, #31
 8001edc:	18c5      	adds	r5, r0, r3
 8001ede:	405d      	eors	r5, r3
 8001ee0:	0fc4      	lsrs	r4, r0, #31
 8001ee2:	0028      	movs	r0, r5
 8001ee4:	f000 f8ac 	bl	8002040 <__clzsi2>
 8001ee8:	4a11      	ldr	r2, [pc, #68]	; (8001f30 <__aeabi_i2d+0x5c>)
 8001eea:	1a12      	subs	r2, r2, r0
 8001eec:	280a      	cmp	r0, #10
 8001eee:	dc16      	bgt.n	8001f1e <__aeabi_i2d+0x4a>
 8001ef0:	0003      	movs	r3, r0
 8001ef2:	002e      	movs	r6, r5
 8001ef4:	3315      	adds	r3, #21
 8001ef6:	409e      	lsls	r6, r3
 8001ef8:	230b      	movs	r3, #11
 8001efa:	1a18      	subs	r0, r3, r0
 8001efc:	40c5      	lsrs	r5, r0
 8001efe:	0552      	lsls	r2, r2, #21
 8001f00:	032d      	lsls	r5, r5, #12
 8001f02:	0b2d      	lsrs	r5, r5, #12
 8001f04:	0d53      	lsrs	r3, r2, #21
 8001f06:	e003      	b.n	8001f10 <__aeabi_i2d+0x3c>
 8001f08:	2400      	movs	r4, #0
 8001f0a:	2300      	movs	r3, #0
 8001f0c:	2500      	movs	r5, #0
 8001f0e:	2600      	movs	r6, #0
 8001f10:	051b      	lsls	r3, r3, #20
 8001f12:	432b      	orrs	r3, r5
 8001f14:	07e4      	lsls	r4, r4, #31
 8001f16:	4323      	orrs	r3, r4
 8001f18:	0030      	movs	r0, r6
 8001f1a:	0019      	movs	r1, r3
 8001f1c:	bd70      	pop	{r4, r5, r6, pc}
 8001f1e:	380b      	subs	r0, #11
 8001f20:	4085      	lsls	r5, r0
 8001f22:	0552      	lsls	r2, r2, #21
 8001f24:	032d      	lsls	r5, r5, #12
 8001f26:	2600      	movs	r6, #0
 8001f28:	0b2d      	lsrs	r5, r5, #12
 8001f2a:	0d53      	lsrs	r3, r2, #21
 8001f2c:	e7f0      	b.n	8001f10 <__aeabi_i2d+0x3c>
 8001f2e:	46c0      	nop			; (mov r8, r8)
 8001f30:	0000041e 	.word	0x0000041e

08001f34 <__aeabi_f2d>:
 8001f34:	b570      	push	{r4, r5, r6, lr}
 8001f36:	0043      	lsls	r3, r0, #1
 8001f38:	0246      	lsls	r6, r0, #9
 8001f3a:	0fc4      	lsrs	r4, r0, #31
 8001f3c:	20fe      	movs	r0, #254	; 0xfe
 8001f3e:	0e1b      	lsrs	r3, r3, #24
 8001f40:	1c59      	adds	r1, r3, #1
 8001f42:	0a75      	lsrs	r5, r6, #9
 8001f44:	4208      	tst	r0, r1
 8001f46:	d00c      	beq.n	8001f62 <__aeabi_f2d+0x2e>
 8001f48:	22e0      	movs	r2, #224	; 0xe0
 8001f4a:	0092      	lsls	r2, r2, #2
 8001f4c:	4694      	mov	ip, r2
 8001f4e:	076d      	lsls	r5, r5, #29
 8001f50:	0b36      	lsrs	r6, r6, #12
 8001f52:	4463      	add	r3, ip
 8001f54:	051b      	lsls	r3, r3, #20
 8001f56:	4333      	orrs	r3, r6
 8001f58:	07e4      	lsls	r4, r4, #31
 8001f5a:	4323      	orrs	r3, r4
 8001f5c:	0028      	movs	r0, r5
 8001f5e:	0019      	movs	r1, r3
 8001f60:	bd70      	pop	{r4, r5, r6, pc}
 8001f62:	2b00      	cmp	r3, #0
 8001f64:	d114      	bne.n	8001f90 <__aeabi_f2d+0x5c>
 8001f66:	2d00      	cmp	r5, #0
 8001f68:	d01b      	beq.n	8001fa2 <__aeabi_f2d+0x6e>
 8001f6a:	0028      	movs	r0, r5
 8001f6c:	f000 f868 	bl	8002040 <__clzsi2>
 8001f70:	280a      	cmp	r0, #10
 8001f72:	dc1c      	bgt.n	8001fae <__aeabi_f2d+0x7a>
 8001f74:	230b      	movs	r3, #11
 8001f76:	002e      	movs	r6, r5
 8001f78:	1a1b      	subs	r3, r3, r0
 8001f7a:	40de      	lsrs	r6, r3
 8001f7c:	0003      	movs	r3, r0
 8001f7e:	3315      	adds	r3, #21
 8001f80:	409d      	lsls	r5, r3
 8001f82:	4a0e      	ldr	r2, [pc, #56]	; (8001fbc <__aeabi_f2d+0x88>)
 8001f84:	0336      	lsls	r6, r6, #12
 8001f86:	1a12      	subs	r2, r2, r0
 8001f88:	0552      	lsls	r2, r2, #21
 8001f8a:	0b36      	lsrs	r6, r6, #12
 8001f8c:	0d53      	lsrs	r3, r2, #21
 8001f8e:	e7e1      	b.n	8001f54 <__aeabi_f2d+0x20>
 8001f90:	2d00      	cmp	r5, #0
 8001f92:	d009      	beq.n	8001fa8 <__aeabi_f2d+0x74>
 8001f94:	2280      	movs	r2, #128	; 0x80
 8001f96:	0b36      	lsrs	r6, r6, #12
 8001f98:	0312      	lsls	r2, r2, #12
 8001f9a:	4b09      	ldr	r3, [pc, #36]	; (8001fc0 <__aeabi_f2d+0x8c>)
 8001f9c:	076d      	lsls	r5, r5, #29
 8001f9e:	4316      	orrs	r6, r2
 8001fa0:	e7d8      	b.n	8001f54 <__aeabi_f2d+0x20>
 8001fa2:	2300      	movs	r3, #0
 8001fa4:	2600      	movs	r6, #0
 8001fa6:	e7d5      	b.n	8001f54 <__aeabi_f2d+0x20>
 8001fa8:	2600      	movs	r6, #0
 8001faa:	4b05      	ldr	r3, [pc, #20]	; (8001fc0 <__aeabi_f2d+0x8c>)
 8001fac:	e7d2      	b.n	8001f54 <__aeabi_f2d+0x20>
 8001fae:	0003      	movs	r3, r0
 8001fb0:	3b0b      	subs	r3, #11
 8001fb2:	409d      	lsls	r5, r3
 8001fb4:	002e      	movs	r6, r5
 8001fb6:	2500      	movs	r5, #0
 8001fb8:	e7e3      	b.n	8001f82 <__aeabi_f2d+0x4e>
 8001fba:	46c0      	nop			; (mov r8, r8)
 8001fbc:	00000389 	.word	0x00000389
 8001fc0:	000007ff 	.word	0x000007ff

08001fc4 <__aeabi_cdrcmple>:
 8001fc4:	4684      	mov	ip, r0
 8001fc6:	0010      	movs	r0, r2
 8001fc8:	4662      	mov	r2, ip
 8001fca:	468c      	mov	ip, r1
 8001fcc:	0019      	movs	r1, r3
 8001fce:	4663      	mov	r3, ip
 8001fd0:	e000      	b.n	8001fd4 <__aeabi_cdcmpeq>
 8001fd2:	46c0      	nop			; (mov r8, r8)

08001fd4 <__aeabi_cdcmpeq>:
 8001fd4:	b51f      	push	{r0, r1, r2, r3, r4, lr}
 8001fd6:	f000 f905 	bl	80021e4 <__ledf2>
 8001fda:	2800      	cmp	r0, #0
 8001fdc:	d401      	bmi.n	8001fe2 <__aeabi_cdcmpeq+0xe>
 8001fde:	2100      	movs	r1, #0
 8001fe0:	42c8      	cmn	r0, r1
 8001fe2:	bd1f      	pop	{r0, r1, r2, r3, r4, pc}

08001fe4 <__aeabi_dcmpeq>:
 8001fe4:	b510      	push	{r4, lr}
 8001fe6:	f000 f855 	bl	8002094 <__eqdf2>
 8001fea:	4240      	negs	r0, r0
 8001fec:	3001      	adds	r0, #1
 8001fee:	bd10      	pop	{r4, pc}

08001ff0 <__aeabi_dcmplt>:
 8001ff0:	b510      	push	{r4, lr}
 8001ff2:	f000 f8f7 	bl	80021e4 <__ledf2>
 8001ff6:	2800      	cmp	r0, #0
 8001ff8:	db01      	blt.n	8001ffe <__aeabi_dcmplt+0xe>
 8001ffa:	2000      	movs	r0, #0
 8001ffc:	bd10      	pop	{r4, pc}
 8001ffe:	2001      	movs	r0, #1
 8002000:	bd10      	pop	{r4, pc}
 8002002:	46c0      	nop			; (mov r8, r8)

08002004 <__aeabi_dcmple>:
 8002004:	b510      	push	{r4, lr}
 8002006:	f000 f8ed 	bl	80021e4 <__ledf2>
 800200a:	2800      	cmp	r0, #0
 800200c:	dd01      	ble.n	8002012 <__aeabi_dcmple+0xe>
 800200e:	2000      	movs	r0, #0
 8002010:	bd10      	pop	{r4, pc}
 8002012:	2001      	movs	r0, #1
 8002014:	bd10      	pop	{r4, pc}
 8002016:	46c0      	nop			; (mov r8, r8)

08002018 <__aeabi_dcmpgt>:
 8002018:	b510      	push	{r4, lr}
 800201a:	f000 f87d 	bl	8002118 <__gedf2>
 800201e:	2800      	cmp	r0, #0
 8002020:	dc01      	bgt.n	8002026 <__aeabi_dcmpgt+0xe>
 8002022:	2000      	movs	r0, #0
 8002024:	bd10      	pop	{r4, pc}
 8002026:	2001      	movs	r0, #1
 8002028:	bd10      	pop	{r4, pc}
 800202a:	46c0      	nop			; (mov r8, r8)

0800202c <__aeabi_dcmpge>:
 800202c:	b510      	push	{r4, lr}
 800202e:	f000 f873 	bl	8002118 <__gedf2>
 8002032:	2800      	cmp	r0, #0
 8002034:	da01      	bge.n	800203a <__aeabi_dcmpge+0xe>
 8002036:	2000      	movs	r0, #0
 8002038:	bd10      	pop	{r4, pc}
 800203a:	2001      	movs	r0, #1
 800203c:	bd10      	pop	{r4, pc}
 800203e:	46c0      	nop			; (mov r8, r8)

08002040 <__clzsi2>:
 8002040:	211c      	movs	r1, #28
 8002042:	2301      	movs	r3, #1
 8002044:	041b      	lsls	r3, r3, #16
 8002046:	4298      	cmp	r0, r3
 8002048:	d301      	bcc.n	800204e <__clzsi2+0xe>
 800204a:	0c00      	lsrs	r0, r0, #16
 800204c:	3910      	subs	r1, #16
 800204e:	0a1b      	lsrs	r3, r3, #8
 8002050:	4298      	cmp	r0, r3
 8002052:	d301      	bcc.n	8002058 <__clzsi2+0x18>
 8002054:	0a00      	lsrs	r0, r0, #8
 8002056:	3908      	subs	r1, #8
 8002058:	091b      	lsrs	r3, r3, #4
 800205a:	4298      	cmp	r0, r3
 800205c:	d301      	bcc.n	8002062 <__clzsi2+0x22>
 800205e:	0900      	lsrs	r0, r0, #4
 8002060:	3904      	subs	r1, #4
 8002062:	a202      	add	r2, pc, #8	; (adr r2, 800206c <__clzsi2+0x2c>)
 8002064:	5c10      	ldrb	r0, [r2, r0]
 8002066:	1840      	adds	r0, r0, r1
 8002068:	4770      	bx	lr
 800206a:	46c0      	nop			; (mov r8, r8)
 800206c:	02020304 	.word	0x02020304
 8002070:	01010101 	.word	0x01010101
	...

0800207c <__clzdi2>:
 800207c:	b510      	push	{r4, lr}
 800207e:	2900      	cmp	r1, #0
 8002080:	d103      	bne.n	800208a <__clzdi2+0xe>
 8002082:	f7ff ffdd 	bl	8002040 <__clzsi2>
 8002086:	3020      	adds	r0, #32
 8002088:	e002      	b.n	8002090 <__clzdi2+0x14>
 800208a:	0008      	movs	r0, r1
 800208c:	f7ff ffd8 	bl	8002040 <__clzsi2>
 8002090:	bd10      	pop	{r4, pc}
 8002092:	46c0      	nop			; (mov r8, r8)

08002094 <__eqdf2>:
 8002094:	b5f0      	push	{r4, r5, r6, r7, lr}
 8002096:	464e      	mov	r6, r9
 8002098:	4645      	mov	r5, r8
 800209a:	46de      	mov	lr, fp
 800209c:	4657      	mov	r7, sl
 800209e:	4690      	mov	r8, r2
 80020a0:	b5e0      	push	{r5, r6, r7, lr}
 80020a2:	0017      	movs	r7, r2
 80020a4:	031a      	lsls	r2, r3, #12
 80020a6:	0b12      	lsrs	r2, r2, #12
 80020a8:	0005      	movs	r5, r0
 80020aa:	4684      	mov	ip, r0
 80020ac:	4819      	ldr	r0, [pc, #100]	; (8002114 <__eqdf2+0x80>)
 80020ae:	030e      	lsls	r6, r1, #12
 80020b0:	004c      	lsls	r4, r1, #1
 80020b2:	4691      	mov	r9, r2
 80020b4:	005a      	lsls	r2, r3, #1
 80020b6:	0fdb      	lsrs	r3, r3, #31
 80020b8:	469b      	mov	fp, r3
 80020ba:	0b36      	lsrs	r6, r6, #12
 80020bc:	0d64      	lsrs	r4, r4, #21
 80020be:	0fc9      	lsrs	r1, r1, #31
 80020c0:	0d52      	lsrs	r2, r2, #21
 80020c2:	4284      	cmp	r4, r0
 80020c4:	d019      	beq.n	80020fa <__eqdf2+0x66>
 80020c6:	4282      	cmp	r2, r0
 80020c8:	d010      	beq.n	80020ec <__eqdf2+0x58>
 80020ca:	2001      	movs	r0, #1
 80020cc:	4294      	cmp	r4, r2
 80020ce:	d10e      	bne.n	80020ee <__eqdf2+0x5a>
 80020d0:	454e      	cmp	r6, r9
 80020d2:	d10c      	bne.n	80020ee <__eqdf2+0x5a>
 80020d4:	2001      	movs	r0, #1
 80020d6:	45c4      	cmp	ip, r8
 80020d8:	d109      	bne.n	80020ee <__eqdf2+0x5a>
 80020da:	4559      	cmp	r1, fp
 80020dc:	d017      	beq.n	800210e <__eqdf2+0x7a>
 80020de:	2c00      	cmp	r4, #0
 80020e0:	d105      	bne.n	80020ee <__eqdf2+0x5a>
 80020e2:	0030      	movs	r0, r6
 80020e4:	4328      	orrs	r0, r5
 80020e6:	1e43      	subs	r3, r0, #1
 80020e8:	4198      	sbcs	r0, r3
 80020ea:	e000      	b.n	80020ee <__eqdf2+0x5a>
 80020ec:	2001      	movs	r0, #1
 80020ee:	bcf0      	pop	{r4, r5, r6, r7}
 80020f0:	46bb      	mov	fp, r7
 80020f2:	46b2      	mov	sl, r6
 80020f4:	46a9      	mov	r9, r5
 80020f6:	46a0      	mov	r8, r4
 80020f8:	bdf0      	pop	{r4, r5, r6, r7, pc}
 80020fa:	0033      	movs	r3, r6
 80020fc:	2001      	movs	r0, #1
 80020fe:	432b      	orrs	r3, r5
 8002100:	d1f5      	bne.n	80020ee <__eqdf2+0x5a>
 8002102:	42a2      	cmp	r2, r4
 8002104:	d1f3      	bne.n	80020ee <__eqdf2+0x5a>
 8002106:	464b      	mov	r3, r9
 8002108:	433b      	orrs	r3, r7
 800210a:	d1f0      	bne.n	80020ee <__eqdf2+0x5a>
 800210c:	e7e2      	b.n	80020d4 <__eqdf2+0x40>
 800210e:	2000      	movs	r0, #0
 8002110:	e7ed      	b.n	80020ee <__eqdf2+0x5a>
 8002112:	46c0      	nop			; (mov r8, r8)
 8002114:	000007ff 	.word	0x000007ff

08002118 <__gedf2>:
 8002118:	b5f0      	push	{r4, r5, r6, r7, lr}
 800211a:	4647      	mov	r7, r8
 800211c:	46ce      	mov	lr, r9
 800211e:	0004      	movs	r4, r0
 8002120:	0018      	movs	r0, r3
 8002122:	0016      	movs	r6, r2
 8002124:	031b      	lsls	r3, r3, #12
 8002126:	0b1b      	lsrs	r3, r3, #12
 8002128:	4d2d      	ldr	r5, [pc, #180]	; (80021e0 <__gedf2+0xc8>)
 800212a:	004a      	lsls	r2, r1, #1
 800212c:	4699      	mov	r9, r3
 800212e:	b580      	push	{r7, lr}
 8002130:	0043      	lsls	r3, r0, #1
 8002132:	030f      	lsls	r7, r1, #12
 8002134:	46a4      	mov	ip, r4
 8002136:	46b0      	mov	r8, r6
 8002138:	0b3f      	lsrs	r7, r7, #12
 800213a:	0d52      	lsrs	r2, r2, #21
 800213c:	0fc9      	lsrs	r1, r1, #31
 800213e:	0d5b      	lsrs	r3, r3, #21
 8002140:	0fc0      	lsrs	r0, r0, #31
 8002142:	42aa      	cmp	r2, r5
 8002144:	d021      	beq.n	800218a <__gedf2+0x72>
 8002146:	42ab      	cmp	r3, r5
 8002148:	d013      	beq.n	8002172 <__gedf2+0x5a>
 800214a:	2a00      	cmp	r2, #0
 800214c:	d122      	bne.n	8002194 <__gedf2+0x7c>
 800214e:	433c      	orrs	r4, r7
 8002150:	2b00      	cmp	r3, #0
 8002152:	d102      	bne.n	800215a <__gedf2+0x42>
 8002154:	464d      	mov	r5, r9
 8002156:	432e      	orrs	r6, r5
 8002158:	d022      	beq.n	80021a0 <__gedf2+0x88>
 800215a:	2c00      	cmp	r4, #0
 800215c:	d010      	beq.n	8002180 <__gedf2+0x68>
 800215e:	4281      	cmp	r1, r0
 8002160:	d022      	beq.n	80021a8 <__gedf2+0x90>
 8002162:	2002      	movs	r0, #2
 8002164:	3901      	subs	r1, #1
 8002166:	4008      	ands	r0, r1
 8002168:	3801      	subs	r0, #1
 800216a:	bcc0      	pop	{r6, r7}
 800216c:	46b9      	mov	r9, r7
 800216e:	46b0      	mov	r8, r6
 8002170:	bdf0      	pop	{r4, r5, r6, r7, pc}
 8002172:	464d      	mov	r5, r9
 8002174:	432e      	orrs	r6, r5
 8002176:	d129      	bne.n	80021cc <__gedf2+0xb4>
 8002178:	2a00      	cmp	r2, #0
 800217a:	d1f0      	bne.n	800215e <__gedf2+0x46>
 800217c:	433c      	orrs	r4, r7
 800217e:	d1ee      	bne.n	800215e <__gedf2+0x46>
 8002180:	2800      	cmp	r0, #0
 8002182:	d1f2      	bne.n	800216a <__gedf2+0x52>
 8002184:	2001      	movs	r0, #1
 8002186:	4240      	negs	r0, r0
 8002188:	e7ef      	b.n	800216a <__gedf2+0x52>
 800218a:	003d      	movs	r5, r7
 800218c:	4325      	orrs	r5, r4
 800218e:	d11d      	bne.n	80021cc <__gedf2+0xb4>
 8002190:	4293      	cmp	r3, r2
 8002192:	d0ee      	beq.n	8002172 <__gedf2+0x5a>
 8002194:	2b00      	cmp	r3, #0
 8002196:	d1e2      	bne.n	800215e <__gedf2+0x46>
 8002198:	464c      	mov	r4, r9
 800219a:	4326      	orrs	r6, r4
 800219c:	d1df      	bne.n	800215e <__gedf2+0x46>
 800219e:	e7e0      	b.n	8002162 <__gedf2+0x4a>
 80021a0:	2000      	movs	r0, #0
 80021a2:	2c00      	cmp	r4, #0
 80021a4:	d0e1      	beq.n	800216a <__gedf2+0x52>
 80021a6:	e7dc      	b.n	8002162 <__gedf2+0x4a>
 80021a8:	429a      	cmp	r2, r3
 80021aa:	dc0a      	bgt.n	80021c2 <__gedf2+0xaa>
 80021ac:	dbe8      	blt.n	8002180 <__gedf2+0x68>
 80021ae:	454f      	cmp	r7, r9
 80021b0:	d8d7      	bhi.n	8002162 <__gedf2+0x4a>
 80021b2:	d00e      	beq.n	80021d2 <__gedf2+0xba>
 80021b4:	2000      	movs	r0, #0
 80021b6:	454f      	cmp	r7, r9
 80021b8:	d2d7      	bcs.n	800216a <__gedf2+0x52>
 80021ba:	2900      	cmp	r1, #0
 80021bc:	d0e2      	beq.n	8002184 <__gedf2+0x6c>
 80021be:	0008      	movs	r0, r1
 80021c0:	e7d3      	b.n	800216a <__gedf2+0x52>
 80021c2:	4243      	negs	r3, r0
 80021c4:	4158      	adcs	r0, r3
 80021c6:	0040      	lsls	r0, r0, #1
 80021c8:	3801      	subs	r0, #1
 80021ca:	e7ce      	b.n	800216a <__gedf2+0x52>
 80021cc:	2002      	movs	r0, #2
 80021ce:	4240      	negs	r0, r0
 80021d0:	e7cb      	b.n	800216a <__gedf2+0x52>
 80021d2:	45c4      	cmp	ip, r8
 80021d4:	d8c5      	bhi.n	8002162 <__gedf2+0x4a>
 80021d6:	2000      	movs	r0, #0
 80021d8:	45c4      	cmp	ip, r8
 80021da:	d2c6      	bcs.n	800216a <__gedf2+0x52>
 80021dc:	e7ed      	b.n	80021ba <__gedf2+0xa2>
 80021de:	46c0      	nop			; (mov r8, r8)
 80021e0:	000007ff 	.word	0x000007ff

080021e4 <__ledf2>:
 80021e4:	b5f0      	push	{r4, r5, r6, r7, lr}
 80021e6:	4647      	mov	r7, r8
 80021e8:	46ce      	mov	lr, r9
 80021ea:	0004      	movs	r4, r0
 80021ec:	0018      	movs	r0, r3
 80021ee:	0016      	movs	r6, r2
 80021f0:	031b      	lsls	r3, r3, #12
 80021f2:	0b1b      	lsrs	r3, r3, #12
 80021f4:	4d2c      	ldr	r5, [pc, #176]	; (80022a8 <__ledf2+0xc4>)
 80021f6:	004a      	lsls	r2, r1, #1
 80021f8:	4699      	mov	r9, r3
 80021fa:	b580      	push	{r7, lr}
 80021fc:	0043      	lsls	r3, r0, #1
 80021fe:	030f      	lsls	r7, r1, #12
 8002200:	46a4      	mov	ip, r4
 8002202:	46b0      	mov	r8, r6
 8002204:	0b3f      	lsrs	r7, r7, #12
 8002206:	0d52      	lsrs	r2, r2, #21
 8002208:	0fc9      	lsrs	r1, r1, #31
 800220a:	0d5b      	lsrs	r3, r3, #21
 800220c:	0fc0      	lsrs	r0, r0, #31
 800220e:	42aa      	cmp	r2, r5
 8002210:	d00d      	beq.n	800222e <__ledf2+0x4a>
 8002212:	42ab      	cmp	r3, r5
 8002214:	d010      	beq.n	8002238 <__ledf2+0x54>
 8002216:	2a00      	cmp	r2, #0
 8002218:	d127      	bne.n	800226a <__ledf2+0x86>
 800221a:	433c      	orrs	r4, r7
 800221c:	2b00      	cmp	r3, #0
 800221e:	d111      	bne.n	8002244 <__ledf2+0x60>
 8002220:	464d      	mov	r5, r9
 8002222:	432e      	orrs	r6, r5
 8002224:	d10e      	bne.n	8002244 <__ledf2+0x60>
 8002226:	2000      	movs	r0, #0
 8002228:	2c00      	cmp	r4, #0
 800222a:	d015      	beq.n	8002258 <__ledf2+0x74>
 800222c:	e00e      	b.n	800224c <__ledf2+0x68>
 800222e:	003d      	movs	r5, r7
 8002230:	4325      	orrs	r5, r4
 8002232:	d110      	bne.n	8002256 <__ledf2+0x72>
 8002234:	4293      	cmp	r3, r2
 8002236:	d118      	bne.n	800226a <__ledf2+0x86>
 8002238:	464d      	mov	r5, r9
 800223a:	432e      	orrs	r6, r5
 800223c:	d10b      	bne.n	8002256 <__ledf2+0x72>
 800223e:	2a00      	cmp	r2, #0
 8002240:	d102      	bne.n	8002248 <__ledf2+0x64>
 8002242:	433c      	orrs	r4, r7
 8002244:	2c00      	cmp	r4, #0
 8002246:	d00b      	beq.n	8002260 <__ledf2+0x7c>
 8002248:	4281      	cmp	r1, r0
 800224a:	d014      	beq.n	8002276 <__ledf2+0x92>
 800224c:	2002      	movs	r0, #2
 800224e:	3901      	subs	r1, #1
 8002250:	4008      	ands	r0, r1
 8002252:	3801      	subs	r0, #1
 8002254:	e000      	b.n	8002258 <__ledf2+0x74>
 8002256:	2002      	movs	r0, #2
 8002258:	bcc0      	pop	{r6, r7}
 800225a:	46b9      	mov	r9, r7
 800225c:	46b0      	mov	r8, r6
 800225e:	bdf0      	pop	{r4, r5, r6, r7, pc}
 8002260:	2800      	cmp	r0, #0
 8002262:	d1f9      	bne.n	8002258 <__ledf2+0x74>
 8002264:	2001      	movs	r0, #1
 8002266:	4240      	negs	r0, r0
 8002268:	e7f6      	b.n	8002258 <__ledf2+0x74>
 800226a:	2b00      	cmp	r3, #0
 800226c:	d1ec      	bne.n	8002248 <__ledf2+0x64>
 800226e:	464c      	mov	r4, r9
 8002270:	4326      	orrs	r6, r4
 8002272:	d1e9      	bne.n	8002248 <__ledf2+0x64>
 8002274:	e7ea      	b.n	800224c <__ledf2+0x68>
 8002276:	429a      	cmp	r2, r3
 8002278:	dd04      	ble.n	8002284 <__ledf2+0xa0>
 800227a:	4243      	negs	r3, r0
 800227c:	4158      	adcs	r0, r3
 800227e:	0040      	lsls	r0, r0, #1
 8002280:	3801      	subs	r0, #1
 8002282:	e7e9      	b.n	8002258 <__ledf2+0x74>
 8002284:	429a      	cmp	r2, r3
 8002286:	dbeb      	blt.n	8002260 <__ledf2+0x7c>
 8002288:	454f      	cmp	r7, r9
 800228a:	d8df      	bhi.n	800224c <__ledf2+0x68>
 800228c:	d006      	beq.n	800229c <__ledf2+0xb8>
 800228e:	2000      	movs	r0, #0
 8002290:	454f      	cmp	r7, r9
 8002292:	d2e1      	bcs.n	8002258 <__ledf2+0x74>
 8002294:	2900      	cmp	r1, #0
 8002296:	d0e5      	beq.n	8002264 <__ledf2+0x80>
 8002298:	0008      	movs	r0, r1
 800229a:	e7dd      	b.n	8002258 <__ledf2+0x74>
 800229c:	45c4      	cmp	ip, r8
 800229e:	d8d5      	bhi.n	800224c <__ledf2+0x68>
 80022a0:	2000      	movs	r0, #0
 80022a2:	45c4      	cmp	ip, r8
 80022a4:	d2d8      	bcs.n	8002258 <__ledf2+0x74>
 80022a6:	e7f5      	b.n	8002294 <__ledf2+0xb0>
 80022a8:	000007ff 	.word	0x000007ff

080022ac <main>:
/**
 * @brief  The application entry point.
 * @retval int
 */

int main(void) {
 80022ac:	b5b0      	push	{r4, r5, r7, lr}
 80022ae:	b08e      	sub	sp, #56	; 0x38
 80022b0:	af00      	add	r7, sp, #0
     * Configuration--------------------------------------------------------*/

    /* Reset of all peripherals, Initializes the Flash interface and the
     * Systick. */

    HAL_Init();
 80022b2:	f001 f95f 	bl	8003574 <HAL_Init>

    /* USER CODE END Init */

    /* Configure the system clock */

    SystemClock_Config();
 80022b6:	f000 fa31 	bl	800271c <SystemClock_Config>

    /* USER CODE END SysInit */

    /* Initialize all configured peripherals */

    MX_GPIO_Init();
 80022ba:	f000 fb6d 	bl	8002998 <MX_GPIO_Init>
    MX_USART2_UART_Init();
 80022be:	f000 fb3b 	bl	8002938 <MX_USART2_UART_Init>
    MX_SPI1_Init();
 80022c2:	f000 fb01 	bl	80028c8 <MX_SPI1_Init>
    MX_ADC_Init();
 80022c6:	f000 fa9b 	bl	8002800 <MX_ADC_Init>

    /* USER CODE BEGIN 2 */

    // CS pin should default high

    HAL_GPIO_WritePin(GPIOB, GPIO_PIN_6, GPIO_PIN_SET);
 80022ca:	4b57      	ldr	r3, [pc, #348]	; (8002428 <main+0x17c>)
 80022cc:	2201      	movs	r2, #1
 80022ce:	2140      	movs	r1, #64	; 0x40
 80022d0:	0018      	movs	r0, r3
 80022d2:	f001 ffad 	bl	8004230 <HAL_GPIO_WritePin>

    printf_to_uart("Starting SPI Test\r\n");
 80022d6:	4b55      	ldr	r3, [pc, #340]	; (800242c <main+0x180>)
 80022d8:	0018      	movs	r0, r3
 80022da:	f000 f8cf 	bl	800247c <printf_to_uart>

    HAL_Delay(500);  // Waiting for default register initialization of RF
 80022de:	23fa      	movs	r3, #250	; 0xfa
 80022e0:	005b      	lsls	r3, r3, #1
 80022e2:	0018      	movs	r0, r3
 80022e4:	f001 f9b6 	bl	8003654 <HAL_Delay>
                     // generator (synchronous turn on)

    Initialize_Microwave_Generator();
 80022e8:	f000 fc96 	bl	8002c18 <Initialize_Microwave_Generator>

    // Maximum gain

    sendBytes(0x4DB8, 0b00101000);
 80022ec:	4b50      	ldr	r3, [pc, #320]	; (8002430 <main+0x184>)
 80022ee:	2128      	movs	r1, #40	; 0x28
 80022f0:	0018      	movs	r0, r3
 80022f2:	f000 fc49 	bl	8002b88 <sendBytes>

    // Set divider to 1

    sendBytes(0x90, 0b00101000);
 80022f6:	2128      	movs	r1, #40	; 0x28
 80022f8:	2090      	movs	r0, #144	; 0x90
 80022fa:	f000 fc45 	bl	8002b88 <sendBytes>

    // Ref Divider Register-Default value = 1h (Rdiv=1).

    sendBytes(0x1, 0b00010000);
 80022fe:	2110      	movs	r1, #16
 8002300:	2001      	movs	r0, #1
 8002302:	f000 fc41 	bl	8002b88 <sendBytes>

    // Set_VCO_Out_Divider(20);

    /* USER CODE END 2 */

    int num_cycles = 1;
 8002306:	2301      	movs	r3, #1
 8002308:	623b      	str	r3, [r7, #32]
    int samples_per_freq = 100;
 800230a:	2364      	movs	r3, #100	; 0x64
 800230c:	61fb      	str	r3, [r7, #28]
    int freq_steps = 151;
 800230e:	2397      	movs	r3, #151	; 0x97
 8002310:	61bb      	str	r3, [r7, #24]
    int start_frequency = 2800;
 8002312:	23af      	movs	r3, #175	; 0xaf
 8002314:	011b      	lsls	r3, r3, #4
 8002316:	617b      	str	r3, [r7, #20]
    int end_frequency = 2950;
 8002318:	4b46      	ldr	r3, [pc, #280]	; (8002434 <main+0x188>)
 800231a:	613b      	str	r3, [r7, #16]
    int step_size = (end_frequency - start_frequency + 1) / freq_steps;
 800231c:	693a      	ldr	r2, [r7, #16]
 800231e:	697b      	ldr	r3, [r7, #20]
 8002320:	1ad3      	subs	r3, r2, r3
 8002322:	3301      	adds	r3, #1
 8002324:	69b9      	ldr	r1, [r7, #24]
 8002326:	0018      	movs	r0, r3
 8002328:	f7fd ff82 	bl	8000230 <__divsi3>
 800232c:	0003      	movs	r3, r0
 800232e:	60fb      	str	r3, [r7, #12]
    int set_freq;

    int contrast_arr_len = freq_steps * sizeof(unsigned);
 8002330:	69bb      	ldr	r3, [r7, #24]
 8002332:	009b      	lsls	r3, r3, #2
 8002334:	60bb      	str	r3, [r7, #8]

    /* USER CODE BEGIN WHILE */

    // int ms1 = HAL_GetTick();

    for (unsigned i = 0; i < num_cycles; i++) {
 8002336:	2300      	movs	r3, #0
 8002338:	62fb      	str	r3, [r7, #44]	; 0x2c
 800233a:	e067      	b.n	800240c <main+0x160>
        set_freq = start_frequency;
 800233c:	697b      	ldr	r3, [r7, #20]
 800233e:	637b      	str	r3, [r7, #52]	; 0x34
        contrast_arr = (unsigned *)malloc(contrast_arr_len);
 8002340:	68bb      	ldr	r3, [r7, #8]
 8002342:	0018      	movs	r0, r3
 8002344:	f003 ff42 	bl	80061cc <malloc>
 8002348:	0003      	movs	r3, r0
 800234a:	607b      	str	r3, [r7, #4]
        for (unsigned j = 0; set_freq <= end_frequency; j++) {
 800234c:	2300      	movs	r3, #0
 800234e:	62bb      	str	r3, [r7, #40]	; 0x28
 8002350:	e04f      	b.n	80023f2 <main+0x146>
            set_freq += step_size;
 8002352:	6b7a      	ldr	r2, [r7, #52]	; 0x34
 8002354:	68fb      	ldr	r3, [r7, #12]
 8002356:	18d3      	adds	r3, r2, r3
 8002358:	637b      	str	r3, [r7, #52]	; 0x34
            cur_sum = 0;
 800235a:	2300      	movs	r3, #0
 800235c:	633b      	str	r3, [r7, #48]	; 0x30
            for (unsigned sample_count = 0; sample_count < samples_per_freq;
 800235e:	2300      	movs	r3, #0
 8002360:	627b      	str	r3, [r7, #36]	; 0x24
 8002362:	e01f      	b.n	80023a4 <main+0xf8>
                 sample_count++) {
                cur_sum += (float)measure_at_frequency(set_freq) /
 8002364:	6b7b      	ldr	r3, [r7, #52]	; 0x34
 8002366:	0018      	movs	r0, r3
 8002368:	f000 f86a 	bl	8002440 <measure_at_frequency>
 800236c:	0003      	movs	r3, r0
 800236e:	0018      	movs	r0, r3
 8002370:	f7fe fc38 	bl	8000be4 <__aeabi_i2f>
 8002374:	1c04      	adds	r4, r0, #0
                           measure_at_frequency(1500);
 8002376:	4b30      	ldr	r3, [pc, #192]	; (8002438 <main+0x18c>)
 8002378:	0018      	movs	r0, r3
 800237a:	f000 f861 	bl	8002440 <measure_at_frequency>
 800237e:	0003      	movs	r3, r0
                cur_sum += (float)measure_at_frequency(set_freq) /
 8002380:	0018      	movs	r0, r3
 8002382:	f7fe fc2f 	bl	8000be4 <__aeabi_i2f>
 8002386:	1c03      	adds	r3, r0, #0
 8002388:	1c19      	adds	r1, r3, #0
 800238a:	1c20      	adds	r0, r4, #0
 800238c:	f7fe fb12 	bl	80009b4 <__aeabi_fdiv>
 8002390:	1c03      	adds	r3, r0, #0
 8002392:	1c19      	adds	r1, r3, #0
 8002394:	6b38      	ldr	r0, [r7, #48]	; 0x30
 8002396:	f7fe f96f 	bl	8000678 <__aeabi_fadd>
 800239a:	1c03      	adds	r3, r0, #0
 800239c:	633b      	str	r3, [r7, #48]	; 0x30
                 sample_count++) {
 800239e:	6a7b      	ldr	r3, [r7, #36]	; 0x24
 80023a0:	3301      	adds	r3, #1
 80023a2:	627b      	str	r3, [r7, #36]	; 0x24
            for (unsigned sample_count = 0; sample_count < samples_per_freq;
 80023a4:	69fb      	ldr	r3, [r7, #28]
 80023a6:	6a7a      	ldr	r2, [r7, #36]	; 0x24
 80023a8:	429a      	cmp	r2, r3
 80023aa:	d3db      	bcc.n	8002364 <main+0xb8>
            }
            contrast_arr[j] = (unsigned)(cur_sum * 1e9 / samples_per_freq);
 80023ac:	6b38      	ldr	r0, [r7, #48]	; 0x30
 80023ae:	f7ff fdc1 	bl	8001f34 <__aeabi_f2d>
 80023b2:	2200      	movs	r2, #0
 80023b4:	4b21      	ldr	r3, [pc, #132]	; (800243c <main+0x190>)
 80023b6:	f7fe ff59 	bl	800126c <__aeabi_dmul>
 80023ba:	0002      	movs	r2, r0
 80023bc:	000b      	movs	r3, r1
 80023be:	0014      	movs	r4, r2
 80023c0:	001d      	movs	r5, r3
 80023c2:	69f8      	ldr	r0, [r7, #28]
 80023c4:	f7ff fd86 	bl	8001ed4 <__aeabi_i2d>
 80023c8:	0002      	movs	r2, r0
 80023ca:	000b      	movs	r3, r1
 80023cc:	0020      	movs	r0, r4
 80023ce:	0029      	movs	r1, r5
 80023d0:	f7fe fc56 	bl	8000c80 <__aeabi_ddiv>
 80023d4:	0002      	movs	r2, r0
 80023d6:	000b      	movs	r3, r1
 80023d8:	6ab9      	ldr	r1, [r7, #40]	; 0x28
 80023da:	0089      	lsls	r1, r1, #2
 80023dc:	6878      	ldr	r0, [r7, #4]
 80023de:	1844      	adds	r4, r0, r1
 80023e0:	0010      	movs	r0, r2
 80023e2:	0019      	movs	r1, r3
 80023e4:	f7fe f85e 	bl	80004a4 <__aeabi_d2uiz>
 80023e8:	0003      	movs	r3, r0
 80023ea:	6023      	str	r3, [r4, #0]
        for (unsigned j = 0; set_freq <= end_frequency; j++) {
 80023ec:	6abb      	ldr	r3, [r7, #40]	; 0x28
 80023ee:	3301      	adds	r3, #1
 80023f0:	62bb      	str	r3, [r7, #40]	; 0x28
 80023f2:	6b7a      	ldr	r2, [r7, #52]	; 0x34
 80023f4:	693b      	ldr	r3, [r7, #16]
 80023f6:	429a      	cmp	r2, r3
 80023f8:	ddab      	ble.n	8002352 <main+0xa6>
        }
        // HAL_UART_Transmit(&huart2, (uint8_t *)contrast_arr, contrast_arr_len,
        //   HAL_MAX_DELAY); // for production
        print_data_to_uart(contrast_arr, freq_steps);  // for testing
 80023fa:	69ba      	ldr	r2, [r7, #24]
 80023fc:	687b      	ldr	r3, [r7, #4]
 80023fe:	0011      	movs	r1, r2
 8002400:	0018      	movs	r0, r3
 8002402:	f000 f889 	bl	8002518 <print_data_to_uart>
    for (unsigned i = 0; i < num_cycles; i++) {
 8002406:	6afb      	ldr	r3, [r7, #44]	; 0x2c
 8002408:	3301      	adds	r3, #1
 800240a:	62fb      	str	r3, [r7, #44]	; 0x2c
 800240c:	6a3b      	ldr	r3, [r7, #32]
 800240e:	6afa      	ldr	r2, [r7, #44]	; 0x2c
 8002410:	429a      	cmp	r2, r3
 8002412:	d393      	bcc.n	800233c <main+0x90>
    }

    // int ms2 = HAL_GetTick();
    // printf_to_uart("%d \r\n", ms2 - ms1);

    Set_VCO_Frequency(1500);
 8002414:	4b08      	ldr	r3, [pc, #32]	; (8002438 <main+0x18c>)
 8002416:	0018      	movs	r0, r3
 8002418:	f000 fb50 	bl	8002abc <Set_VCO_Frequency>
 800241c:	2300      	movs	r3, #0
}
 800241e:	0018      	movs	r0, r3
 8002420:	46bd      	mov	sp, r7
 8002422:	b00e      	add	sp, #56	; 0x38
 8002424:	bdb0      	pop	{r4, r5, r7, pc}
 8002426:	46c0      	nop			; (mov r8, r8)
 8002428:	50000400 	.word	0x50000400
 800242c:	08006b74 	.word	0x08006b74
 8002430:	00004db8 	.word	0x00004db8
 8002434:	00000b86 	.word	0x00000b86
 8002438:	000005dc 	.word	0x000005dc
 800243c:	41cdcd65 	.word	0x41cdcd65

08002440 <measure_at_frequency>:

/* Does the measurement at arbitrary frequency and returns the photodiode
 * output. */
int measure_at_frequency(int frequency) {
 8002440:	b580      	push	{r7, lr}
 8002442:	b082      	sub	sp, #8
 8002444:	af00      	add	r7, sp, #0
 8002446:	6078      	str	r0, [r7, #4]
    Set_VCO_Frequency(frequency);
 8002448:	687b      	ldr	r3, [r7, #4]
 800244a:	0018      	movs	r0, r3
 800244c:	f000 fb36 	bl	8002abc <Set_VCO_Frequency>

    HAL_ADC_Start(&hadc);
 8002450:	4b09      	ldr	r3, [pc, #36]	; (8002478 <measure_at_frequency+0x38>)
 8002452:	0018      	movs	r0, r3
 8002454:	f001 fa96 	bl	8003984 <HAL_ADC_Start>
    HAL_ADC_PollForConversion(&hadc, HAL_MAX_DELAY);
 8002458:	2301      	movs	r3, #1
 800245a:	425a      	negs	r2, r3
 800245c:	4b06      	ldr	r3, [pc, #24]	; (8002478 <measure_at_frequency+0x38>)
 800245e:	0011      	movs	r1, r2
 8002460:	0018      	movs	r0, r3
 8002462:	f001 fae3 	bl	8003a2c <HAL_ADC_PollForConversion>
    return HAL_ADC_GetValue(&hadc);
 8002466:	4b04      	ldr	r3, [pc, #16]	; (8002478 <measure_at_frequency+0x38>)
 8002468:	0018      	movs	r0, r3
 800246a:	f001 fb7b 	bl	8003b64 <HAL_ADC_GetValue>
 800246e:	0003      	movs	r3, r0
}
 8002470:	0018      	movs	r0, r3
 8002472:	46bd      	mov	sp, r7
 8002474:	b002      	add	sp, #8
 8002476:	bd80      	pop	{r7, pc}
 8002478:	2000008c 	.word	0x2000008c

0800247c <printf_to_uart>:

/* Prints data to UART, usage is just like printf. */
void printf_to_uart(char *format, ...) {
 800247c:	b40f      	push	{r0, r1, r2, r3}
 800247e:	b5b0      	push	{r4, r5, r7, lr}
 8002480:	b0aa      	sub	sp, #168	; 0xa8
 8002482:	af00      	add	r7, sp, #0
    char print_buf[100] = {0};  // allocate a larger buffer
 8002484:	243c      	movs	r4, #60	; 0x3c
 8002486:	193b      	adds	r3, r7, r4
 8002488:	2200      	movs	r2, #0
 800248a:	601a      	str	r2, [r3, #0]
 800248c:	3304      	adds	r3, #4
 800248e:	2260      	movs	r2, #96	; 0x60
 8002490:	2100      	movs	r1, #0
 8002492:	0018      	movs	r0, r3
 8002494:	f003 fead 	bl	80061f2 <memset>
    char uart_buf[50] = {0};
 8002498:	2308      	movs	r3, #8
 800249a:	001d      	movs	r5, r3
 800249c:	18fb      	adds	r3, r7, r3
 800249e:	2200      	movs	r2, #0
 80024a0:	601a      	str	r2, [r3, #0]
 80024a2:	3304      	adds	r3, #4
 80024a4:	222e      	movs	r2, #46	; 0x2e
 80024a6:	2100      	movs	r1, #0
 80024a8:	0018      	movs	r0, r3
 80024aa:	f003 fea2 	bl	80061f2 <memset>
    int print_len;

    va_list args;
    va_start(args, format);
 80024ae:	23b4      	movs	r3, #180	; 0xb4
 80024b0:	0029      	movs	r1, r5
 80024b2:	185b      	adds	r3, r3, r1
 80024b4:	19db      	adds	r3, r3, r7
 80024b6:	607b      	str	r3, [r7, #4]
    print_len = vsnprintf(print_buf, sizeof(print_buf), format, args);
 80024b8:	687b      	ldr	r3, [r7, #4]
 80024ba:	22b0      	movs	r2, #176	; 0xb0
 80024bc:	1852      	adds	r2, r2, r1
 80024be:	19d2      	adds	r2, r2, r7
 80024c0:	6812      	ldr	r2, [r2, #0]
 80024c2:	1938      	adds	r0, r7, r4
 80024c4:	2164      	movs	r1, #100	; 0x64
 80024c6:	f003 fff1 	bl	80064ac <vsniprintf>
 80024ca:	0003      	movs	r3, r0
 80024cc:	22a4      	movs	r2, #164	; 0xa4
 80024ce:	18b9      	adds	r1, r7, r2
 80024d0:	600b      	str	r3, [r1, #0]
    va_end(args);

    // copy the relevant portion of the print buffer to uart buffer
    int uart_buf_len = (print_len > 50) ? 50 : print_len;
 80024d2:	18bb      	adds	r3, r7, r2
 80024d4:	681b      	ldr	r3, [r3, #0]
 80024d6:	2b32      	cmp	r3, #50	; 0x32
 80024d8:	dd00      	ble.n	80024dc <printf_to_uart+0x60>
 80024da:	2332      	movs	r3, #50	; 0x32
 80024dc:	24a0      	movs	r4, #160	; 0xa0
 80024de:	193a      	adds	r2, r7, r4
 80024e0:	6013      	str	r3, [r2, #0]
    memcpy(uart_buf, print_buf, uart_buf_len);
 80024e2:	193b      	adds	r3, r7, r4
 80024e4:	681a      	ldr	r2, [r3, #0]
 80024e6:	233c      	movs	r3, #60	; 0x3c
 80024e8:	18f9      	adds	r1, r7, r3
 80024ea:	2508      	movs	r5, #8
 80024ec:	197b      	adds	r3, r7, r5
 80024ee:	0018      	movs	r0, r3
 80024f0:	f003 fe76 	bl	80061e0 <memcpy>

    HAL_UART_Transmit(&huart2, (uint8_t *)uart_buf, uart_buf_len,
 80024f4:	193b      	adds	r3, r7, r4
 80024f6:	681b      	ldr	r3, [r3, #0]
 80024f8:	b29a      	uxth	r2, r3
 80024fa:	2301      	movs	r3, #1
 80024fc:	425b      	negs	r3, r3
 80024fe:	1979      	adds	r1, r7, r5
 8002500:	4804      	ldr	r0, [pc, #16]	; (8002514 <printf_to_uart+0x98>)
 8002502:	f003 f931 	bl	8005768 <HAL_UART_Transmit>
                      HAL_MAX_DELAY);
}
 8002506:	46c0      	nop			; (mov r8, r8)
 8002508:	46bd      	mov	sp, r7
 800250a:	b02a      	add	sp, #168	; 0xa8
 800250c:	bcb0      	pop	{r4, r5, r7}
 800250e:	bc08      	pop	{r3}
 8002510:	b004      	add	sp, #16
 8002512:	4718      	bx	r3
 8002514:	20000140 	.word	0x20000140

08002518 <print_data_to_uart>:

/* Prints 32-bit uint array to UART with newlines in between.
 * Prints 30 ints at a time. Slow but only used for testing.
 */
void print_data_to_uart(unsigned *data, int len) {
 8002518:	b5b0      	push	{r4, r5, r7, lr}
 800251a:	4c75      	ldr	r4, [pc, #468]	; (80026f0 <print_data_to_uart+0x1d8>)
 800251c:	44a5      	add	sp, r4
 800251e:	af00      	add	r7, sp, #0
 8002520:	6078      	str	r0, [r7, #4]
 8002522:	6039      	str	r1, [r7, #0]
    unsigned MAX_INTS_PER_TRANSMIT = 30;  // pulled this out my ass ngl
 8002524:	231e      	movs	r3, #30
 8002526:	4a73      	ldr	r2, [pc, #460]	; (80026f4 <print_data_to_uart+0x1dc>)
 8002528:	18ba      	adds	r2, r7, r2
 800252a:	6013      	str	r3, [r2, #0]

    char fmt[50];   // Create a format string buffer
    char buf[500];  // Create a buffer for the formatted string
    char uart_buf[500];

    for (unsigned printed = 0; printed < len;
 800252c:	2300      	movs	r3, #0
 800252e:	4a72      	ldr	r2, [pc, #456]	; (80026f8 <print_data_to_uart+0x1e0>)
 8002530:	18ba      	adds	r2, r7, r2
 8002532:	6013      	str	r3, [r2, #0]
 8002534:	e0cd      	b.n	80026d2 <print_data_to_uart+0x1ba>
         printed += MAX_INTS_PER_TRANSMIT) {
        for (unsigned i = 0; i < 500; i++) buf[i] = 0;
 8002536:	2300      	movs	r3, #0
 8002538:	2288      	movs	r2, #136	; 0x88
 800253a:	00d2      	lsls	r2, r2, #3
 800253c:	18ba      	adds	r2, r7, r2
 800253e:	6013      	str	r3, [r2, #0]
 8002540:	e010      	b.n	8002564 <print_data_to_uart+0x4c>
 8002542:	4b6e      	ldr	r3, [pc, #440]	; (80026fc <print_data_to_uart+0x1e4>)
 8002544:	2289      	movs	r2, #137	; 0x89
 8002546:	00d2      	lsls	r2, r2, #3
 8002548:	189b      	adds	r3, r3, r2
 800254a:	19da      	adds	r2, r3, r7
 800254c:	2188      	movs	r1, #136	; 0x88
 800254e:	00c9      	lsls	r1, r1, #3
 8002550:	187b      	adds	r3, r7, r1
 8002552:	681b      	ldr	r3, [r3, #0]
 8002554:	18d3      	adds	r3, r2, r3
 8002556:	2200      	movs	r2, #0
 8002558:	701a      	strb	r2, [r3, #0]
 800255a:	187b      	adds	r3, r7, r1
 800255c:	681b      	ldr	r3, [r3, #0]
 800255e:	3301      	adds	r3, #1
 8002560:	187a      	adds	r2, r7, r1
 8002562:	6013      	str	r3, [r2, #0]
 8002564:	2388      	movs	r3, #136	; 0x88
 8002566:	00db      	lsls	r3, r3, #3
 8002568:	18fb      	adds	r3, r7, r3
 800256a:	681a      	ldr	r2, [r3, #0]
 800256c:	23fa      	movs	r3, #250	; 0xfa
 800256e:	005b      	lsls	r3, r3, #1
 8002570:	429a      	cmp	r2, r3
 8002572:	d3e6      	bcc.n	8002542 <print_data_to_uart+0x2a>
        for (unsigned i = 0; i < 500; i++) uart_buf[i] = 0;
 8002574:	2300      	movs	r3, #0
 8002576:	4a62      	ldr	r2, [pc, #392]	; (8002700 <print_data_to_uart+0x1e8>)
 8002578:	18ba      	adds	r2, r7, r2
 800257a:	6013      	str	r3, [r2, #0]
 800257c:	e00f      	b.n	800259e <print_data_to_uart+0x86>
 800257e:	4b61      	ldr	r3, [pc, #388]	; (8002704 <print_data_to_uart+0x1ec>)
 8002580:	2289      	movs	r2, #137	; 0x89
 8002582:	00d2      	lsls	r2, r2, #3
 8002584:	189b      	adds	r3, r3, r2
 8002586:	19da      	adds	r2, r3, r7
 8002588:	495d      	ldr	r1, [pc, #372]	; (8002700 <print_data_to_uart+0x1e8>)
 800258a:	187b      	adds	r3, r7, r1
 800258c:	681b      	ldr	r3, [r3, #0]
 800258e:	18d3      	adds	r3, r2, r3
 8002590:	2200      	movs	r2, #0
 8002592:	701a      	strb	r2, [r3, #0]
 8002594:	187b      	adds	r3, r7, r1
 8002596:	681b      	ldr	r3, [r3, #0]
 8002598:	3301      	adds	r3, #1
 800259a:	187a      	adds	r2, r7, r1
 800259c:	6013      	str	r3, [r2, #0]
 800259e:	4b58      	ldr	r3, [pc, #352]	; (8002700 <print_data_to_uart+0x1e8>)
 80025a0:	18fb      	adds	r3, r7, r3
 80025a2:	681a      	ldr	r2, [r3, #0]
 80025a4:	23fa      	movs	r3, #250	; 0xfa
 80025a6:	005b      	lsls	r3, r3, #1
 80025a8:	429a      	cmp	r2, r3
 80025aa:	d3e8      	bcc.n	800257e <print_data_to_uart+0x66>

        int l = 0;  // Keep track of the length of the formatted string
 80025ac:	2300      	movs	r3, #0
 80025ae:	2287      	movs	r2, #135	; 0x87
 80025b0:	00d2      	lsls	r2, r2, #3
 80025b2:	18ba      	adds	r2, r7, r2
 80025b4:	6013      	str	r3, [r2, #0]
        int n;  // Keep track of the number of characters added to the formatted
                // string

        // Build the format string with %d and delimiter
        snprintf(fmt, sizeof(fmt), "%%d%s", "\r\n");
 80025b6:	4b54      	ldr	r3, [pc, #336]	; (8002708 <print_data_to_uart+0x1f0>)
 80025b8:	4a54      	ldr	r2, [pc, #336]	; (800270c <print_data_to_uart+0x1f4>)
 80025ba:	21fc      	movs	r1, #252	; 0xfc
 80025bc:	0089      	lsls	r1, r1, #2
 80025be:	1878      	adds	r0, r7, r1
 80025c0:	2132      	movs	r1, #50	; 0x32
 80025c2:	f003 ff13 	bl	80063ec <sniprintf>

        // Add each array element to the formatted string
        unsigned to_transmit = MAX_INTS_PER_TRANSMIT;
 80025c6:	494b      	ldr	r1, [pc, #300]	; (80026f4 <print_data_to_uart+0x1dc>)
 80025c8:	187b      	adds	r3, r7, r1
 80025ca:	681b      	ldr	r3, [r3, #0]
 80025cc:	4850      	ldr	r0, [pc, #320]	; (8002710 <print_data_to_uart+0x1f8>)
 80025ce:	183a      	adds	r2, r7, r0
 80025d0:	6013      	str	r3, [r2, #0]
        if (len - printed < MAX_INTS_PER_TRANSMIT) {
 80025d2:	683a      	ldr	r2, [r7, #0]
 80025d4:	4c48      	ldr	r4, [pc, #288]	; (80026f8 <print_data_to_uart+0x1e0>)
 80025d6:	193b      	adds	r3, r7, r4
 80025d8:	681b      	ldr	r3, [r3, #0]
 80025da:	1ad3      	subs	r3, r2, r3
 80025dc:	187a      	adds	r2, r7, r1
 80025de:	6812      	ldr	r2, [r2, #0]
 80025e0:	429a      	cmp	r2, r3
 80025e2:	d905      	bls.n	80025f0 <print_data_to_uart+0xd8>
            to_transmit = len - printed;
 80025e4:	683a      	ldr	r2, [r7, #0]
 80025e6:	193b      	adds	r3, r7, r4
 80025e8:	681b      	ldr	r3, [r3, #0]
 80025ea:	1ad3      	subs	r3, r2, r3
 80025ec:	183a      	adds	r2, r7, r0
 80025ee:	6013      	str	r3, [r2, #0]
        }
        for (unsigned i = 0; i < to_transmit; i++) {
 80025f0:	2300      	movs	r3, #0
 80025f2:	2286      	movs	r2, #134	; 0x86
 80025f4:	00d2      	lsls	r2, r2, #3
 80025f6:	18ba      	adds	r2, r7, r2
 80025f8:	6013      	str	r3, [r2, #0]
 80025fa:	e037      	b.n	800266c <print_data_to_uart+0x154>
            n = snprintf(buf + l, sizeof(buf) - l, fmt, data[i]);
 80025fc:	2487      	movs	r4, #135	; 0x87
 80025fe:	00e4      	lsls	r4, r4, #3
 8002600:	193b      	adds	r3, r7, r4
 8002602:	681b      	ldr	r3, [r3, #0]
 8002604:	22fe      	movs	r2, #254	; 0xfe
 8002606:	0052      	lsls	r2, r2, #1
 8002608:	18ba      	adds	r2, r7, r2
 800260a:	18d0      	adds	r0, r2, r3
 800260c:	193b      	adds	r3, r7, r4
 800260e:	681b      	ldr	r3, [r3, #0]
 8002610:	22fa      	movs	r2, #250	; 0xfa
 8002612:	0052      	lsls	r2, r2, #1
 8002614:	1ad1      	subs	r1, r2, r3
 8002616:	2586      	movs	r5, #134	; 0x86
 8002618:	00ed      	lsls	r5, r5, #3
 800261a:	197b      	adds	r3, r7, r5
 800261c:	681b      	ldr	r3, [r3, #0]
 800261e:	009b      	lsls	r3, r3, #2
 8002620:	687a      	ldr	r2, [r7, #4]
 8002622:	18d3      	adds	r3, r2, r3
 8002624:	681b      	ldr	r3, [r3, #0]
 8002626:	22fc      	movs	r2, #252	; 0xfc
 8002628:	0092      	lsls	r2, r2, #2
 800262a:	18ba      	adds	r2, r7, r2
 800262c:	f003 fede 	bl	80063ec <sniprintf>
 8002630:	0003      	movs	r3, r0
 8002632:	4938      	ldr	r1, [pc, #224]	; (8002714 <print_data_to_uart+0x1fc>)
 8002634:	187a      	adds	r2, r7, r1
 8002636:	6013      	str	r3, [r2, #0]
            if (n < 0 || l + n >= sizeof(buf)) {
 8002638:	187b      	adds	r3, r7, r1
 800263a:	681b      	ldr	r3, [r3, #0]
 800263c:	2b00      	cmp	r3, #0
 800263e:	db50      	blt.n	80026e2 <print_data_to_uart+0x1ca>
 8002640:	193b      	adds	r3, r7, r4
 8002642:	681a      	ldr	r2, [r3, #0]
 8002644:	187b      	adds	r3, r7, r1
 8002646:	681b      	ldr	r3, [r3, #0]
 8002648:	18d3      	adds	r3, r2, r3
 800264a:	001a      	movs	r2, r3
 800264c:	23fa      	movs	r3, #250	; 0xfa
 800264e:	005b      	lsls	r3, r3, #1
 8002650:	429a      	cmp	r2, r3
 8002652:	d246      	bcs.n	80026e2 <print_data_to_uart+0x1ca>
                // Error handling: buffer overflow or snprintf error
                return;
            }
            l += n;
 8002654:	193b      	adds	r3, r7, r4
 8002656:	681a      	ldr	r2, [r3, #0]
 8002658:	187b      	adds	r3, r7, r1
 800265a:	681b      	ldr	r3, [r3, #0]
 800265c:	18d3      	adds	r3, r2, r3
 800265e:	193a      	adds	r2, r7, r4
 8002660:	6013      	str	r3, [r2, #0]
        for (unsigned i = 0; i < to_transmit; i++) {
 8002662:	197b      	adds	r3, r7, r5
 8002664:	681b      	ldr	r3, [r3, #0]
 8002666:	3301      	adds	r3, #1
 8002668:	197a      	adds	r2, r7, r5
 800266a:	6013      	str	r3, [r2, #0]
 800266c:	2386      	movs	r3, #134	; 0x86
 800266e:	00db      	lsls	r3, r3, #3
 8002670:	18fb      	adds	r3, r7, r3
 8002672:	681a      	ldr	r2, [r3, #0]
 8002674:	4b26      	ldr	r3, [pc, #152]	; (8002710 <print_data_to_uart+0x1f8>)
 8002676:	18fb      	adds	r3, r7, r3
 8002678:	681b      	ldr	r3, [r3, #0]
 800267a:	429a      	cmp	r2, r3
 800267c:	d3be      	bcc.n	80025fc <print_data_to_uart+0xe4>
        }

        int uart_buf_len = (l > 500) ? 500 : l;
 800267e:	2387      	movs	r3, #135	; 0x87
 8002680:	00db      	lsls	r3, r3, #3
 8002682:	18fb      	adds	r3, r7, r3
 8002684:	681b      	ldr	r3, [r3, #0]
 8002686:	22fa      	movs	r2, #250	; 0xfa
 8002688:	0052      	lsls	r2, r2, #1
 800268a:	4293      	cmp	r3, r2
 800268c:	dd01      	ble.n	8002692 <print_data_to_uart+0x17a>
 800268e:	23fa      	movs	r3, #250	; 0xfa
 8002690:	005b      	lsls	r3, r3, #1
 8002692:	2485      	movs	r4, #133	; 0x85
 8002694:	00e4      	lsls	r4, r4, #3
 8002696:	193a      	adds	r2, r7, r4
 8002698:	6013      	str	r3, [r2, #0]
        memcpy(uart_buf, buf, uart_buf_len);
 800269a:	193b      	adds	r3, r7, r4
 800269c:	681a      	ldr	r2, [r3, #0]
 800269e:	23fe      	movs	r3, #254	; 0xfe
 80026a0:	005b      	lsls	r3, r3, #1
 80026a2:	18f9      	adds	r1, r7, r3
 80026a4:	2508      	movs	r5, #8
 80026a6:	197b      	adds	r3, r7, r5
 80026a8:	0018      	movs	r0, r3
 80026aa:	f003 fd99 	bl	80061e0 <memcpy>

        // Print the formatted string
        HAL_UART_Transmit(&huart2, (uint8_t *)uart_buf, uart_buf_len,
 80026ae:	193b      	adds	r3, r7, r4
 80026b0:	681b      	ldr	r3, [r3, #0]
 80026b2:	b29a      	uxth	r2, r3
 80026b4:	2301      	movs	r3, #1
 80026b6:	425b      	negs	r3, r3
 80026b8:	1979      	adds	r1, r7, r5
 80026ba:	4817      	ldr	r0, [pc, #92]	; (8002718 <print_data_to_uart+0x200>)
 80026bc:	f003 f854 	bl	8005768 <HAL_UART_Transmit>
         printed += MAX_INTS_PER_TRANSMIT) {
 80026c0:	490d      	ldr	r1, [pc, #52]	; (80026f8 <print_data_to_uart+0x1e0>)
 80026c2:	187b      	adds	r3, r7, r1
 80026c4:	681a      	ldr	r2, [r3, #0]
 80026c6:	4b0b      	ldr	r3, [pc, #44]	; (80026f4 <print_data_to_uart+0x1dc>)
 80026c8:	18fb      	adds	r3, r7, r3
 80026ca:	681b      	ldr	r3, [r3, #0]
 80026cc:	18d3      	adds	r3, r2, r3
 80026ce:	187a      	adds	r2, r7, r1
 80026d0:	6013      	str	r3, [r2, #0]
    for (unsigned printed = 0; printed < len;
 80026d2:	683b      	ldr	r3, [r7, #0]
 80026d4:	4a08      	ldr	r2, [pc, #32]	; (80026f8 <print_data_to_uart+0x1e0>)
 80026d6:	18ba      	adds	r2, r7, r2
 80026d8:	6812      	ldr	r2, [r2, #0]
 80026da:	429a      	cmp	r2, r3
 80026dc:	d200      	bcs.n	80026e0 <print_data_to_uart+0x1c8>
 80026de:	e72a      	b.n	8002536 <print_data_to_uart+0x1e>
 80026e0:	e000      	b.n	80026e4 <print_data_to_uart+0x1cc>
                return;
 80026e2:	46c0      	nop			; (mov r8, r8)
                          HAL_MAX_DELAY);
    }
}
 80026e4:	46bd      	mov	sp, r7
 80026e6:	2389      	movs	r3, #137	; 0x89
 80026e8:	00db      	lsls	r3, r3, #3
 80026ea:	449d      	add	sp, r3
 80026ec:	bdb0      	pop	{r4, r5, r7, pc}
 80026ee:	46c0      	nop			; (mov r8, r8)
 80026f0:	fffffbb8 	.word	0xfffffbb8
 80026f4:	0000042c 	.word	0x0000042c
 80026f8:	00000444 	.word	0x00000444
 80026fc:	fffffdb4 	.word	0xfffffdb4
 8002700:	0000043c 	.word	0x0000043c
 8002704:	fffffbc0 	.word	0xfffffbc0
 8002708:	08006b88 	.word	0x08006b88
 800270c:	08006b8c 	.word	0x08006b8c
 8002710:	00000434 	.word	0x00000434
 8002714:	00000424 	.word	0x00000424
 8002718:	20000140 	.word	0x20000140

0800271c <SystemClock_Config>:

  */

void SystemClock_Config(void)

{
 800271c:	b590      	push	{r4, r7, lr}
 800271e:	b09f      	sub	sp, #124	; 0x7c
 8002720:	af00      	add	r7, sp, #0
    RCC_OscInitTypeDef RCC_OscInitStruct = {0};
 8002722:	2440      	movs	r4, #64	; 0x40
 8002724:	193b      	adds	r3, r7, r4
 8002726:	0018      	movs	r0, r3
 8002728:	2338      	movs	r3, #56	; 0x38
 800272a:	001a      	movs	r2, r3
 800272c:	2100      	movs	r1, #0
 800272e:	f003 fd60 	bl	80061f2 <memset>
    RCC_ClkInitTypeDef RCC_ClkInitStruct = {0};
 8002732:	232c      	movs	r3, #44	; 0x2c
 8002734:	18fb      	adds	r3, r7, r3
 8002736:	0018      	movs	r0, r3
 8002738:	2314      	movs	r3, #20
 800273a:	001a      	movs	r2, r3
 800273c:	2100      	movs	r1, #0
 800273e:	f003 fd58 	bl	80061f2 <memset>
    RCC_PeriphCLKInitTypeDef PeriphClkInit = {0};
 8002742:	1d3b      	adds	r3, r7, #4
 8002744:	0018      	movs	r0, r3
 8002746:	2328      	movs	r3, #40	; 0x28
 8002748:	001a      	movs	r2, r3
 800274a:	2100      	movs	r1, #0
 800274c:	f003 fd51 	bl	80061f2 <memset>

    /** Configure the main internal regulator output voltage

    */

    __HAL_PWR_VOLTAGESCALING_CONFIG(PWR_REGULATOR_VOLTAGE_SCALE1);
 8002750:	4b29      	ldr	r3, [pc, #164]	; (80027f8 <SystemClock_Config+0xdc>)
 8002752:	681b      	ldr	r3, [r3, #0]
 8002754:	4a29      	ldr	r2, [pc, #164]	; (80027fc <SystemClock_Config+0xe0>)
 8002756:	401a      	ands	r2, r3
 8002758:	4b27      	ldr	r3, [pc, #156]	; (80027f8 <SystemClock_Config+0xdc>)
 800275a:	2180      	movs	r1, #128	; 0x80
 800275c:	0109      	lsls	r1, r1, #4
 800275e:	430a      	orrs	r2, r1
 8002760:	601a      	str	r2, [r3, #0]

    * in the RCC_OscInitTypeDef structure.

    */

    RCC_OscInitStruct.OscillatorType = RCC_OSCILLATORTYPE_HSI;
 8002762:	0021      	movs	r1, r4
 8002764:	187b      	adds	r3, r7, r1
 8002766:	2202      	movs	r2, #2
 8002768:	601a      	str	r2, [r3, #0]
    RCC_OscInitStruct.HSIState = RCC_HSI_ON;
 800276a:	187b      	adds	r3, r7, r1
 800276c:	2201      	movs	r2, #1
 800276e:	60da      	str	r2, [r3, #12]
    RCC_OscInitStruct.HSICalibrationValue = RCC_HSICALIBRATION_DEFAULT;
 8002770:	187b      	adds	r3, r7, r1
 8002772:	2210      	movs	r2, #16
 8002774:	611a      	str	r2, [r3, #16]
    RCC_OscInitStruct.PLL.PLLState = RCC_PLL_ON;
 8002776:	187b      	adds	r3, r7, r1
 8002778:	2202      	movs	r2, #2
 800277a:	629a      	str	r2, [r3, #40]	; 0x28
    RCC_OscInitStruct.PLL.PLLSource = RCC_PLLSOURCE_HSI;
 800277c:	187b      	adds	r3, r7, r1
 800277e:	2200      	movs	r2, #0
 8002780:	62da      	str	r2, [r3, #44]	; 0x2c
    RCC_OscInitStruct.PLL.PLLMUL = RCC_PLLMUL_3;
 8002782:	187b      	adds	r3, r7, r1
 8002784:	2200      	movs	r2, #0
 8002786:	631a      	str	r2, [r3, #48]	; 0x30
    RCC_OscInitStruct.PLL.PLLDIV = RCC_PLLDIV_2;
 8002788:	187b      	adds	r3, r7, r1
 800278a:	2280      	movs	r2, #128	; 0x80
 800278c:	03d2      	lsls	r2, r2, #15
 800278e:	635a      	str	r2, [r3, #52]	; 0x34

    if (HAL_RCC_OscConfig(&RCC_OscInitStruct) != HAL_OK) {
 8002790:	187b      	adds	r3, r7, r1
 8002792:	0018      	movs	r0, r3
 8002794:	f001 fd6a 	bl	800426c <HAL_RCC_OscConfig>
 8002798:	1e03      	subs	r3, r0, #0
 800279a:	d001      	beq.n	80027a0 <SystemClock_Config+0x84>
        Error_Handler();
 800279c:	f000 fd8e 	bl	80032bc <Error_Handler>

    /** Initializes the CPU, AHB and APB buses clocks

    */

    RCC_ClkInitStruct.ClockType = RCC_CLOCKTYPE_HCLK | RCC_CLOCKTYPE_SYSCLK |
 80027a0:	212c      	movs	r1, #44	; 0x2c
 80027a2:	187b      	adds	r3, r7, r1
 80027a4:	220f      	movs	r2, #15
 80027a6:	601a      	str	r2, [r3, #0]
                                  RCC_CLOCKTYPE_PCLK1 | RCC_CLOCKTYPE_PCLK2;

    RCC_ClkInitStruct.SYSCLKSource = RCC_SYSCLKSOURCE_PLLCLK;
 80027a8:	187b      	adds	r3, r7, r1
 80027aa:	2203      	movs	r2, #3
 80027ac:	605a      	str	r2, [r3, #4]
    RCC_ClkInitStruct.AHBCLKDivider = RCC_SYSCLK_DIV1;
 80027ae:	187b      	adds	r3, r7, r1
 80027b0:	2200      	movs	r2, #0
 80027b2:	609a      	str	r2, [r3, #8]
    RCC_ClkInitStruct.APB1CLKDivider = RCC_HCLK_DIV1;
 80027b4:	187b      	adds	r3, r7, r1
 80027b6:	2200      	movs	r2, #0
 80027b8:	60da      	str	r2, [r3, #12]
    RCC_ClkInitStruct.APB2CLKDivider = RCC_HCLK_DIV1;
 80027ba:	187b      	adds	r3, r7, r1
 80027bc:	2200      	movs	r2, #0
 80027be:	611a      	str	r2, [r3, #16]
    if (HAL_RCC_ClockConfig(&RCC_ClkInitStruct, FLASH_LATENCY_1) != HAL_OK) {
 80027c0:	187b      	adds	r3, r7, r1
 80027c2:	2101      	movs	r1, #1
 80027c4:	0018      	movs	r0, r3
 80027c6:	f002 f925 	bl	8004a14 <HAL_RCC_ClockConfig>
 80027ca:	1e03      	subs	r3, r0, #0
 80027cc:	d001      	beq.n	80027d2 <SystemClock_Config+0xb6>
        Error_Handler();
 80027ce:	f000 fd75 	bl	80032bc <Error_Handler>
    }

    PeriphClkInit.PeriphClockSelection = RCC_PERIPHCLK_USART2;
 80027d2:	1d3b      	adds	r3, r7, #4
 80027d4:	2202      	movs	r2, #2
 80027d6:	601a      	str	r2, [r3, #0]
    PeriphClkInit.Usart2ClockSelection = RCC_USART2CLKSOURCE_PCLK1;
 80027d8:	1d3b      	adds	r3, r7, #4
 80027da:	2200      	movs	r2, #0
 80027dc:	611a      	str	r2, [r3, #16]

    if (HAL_RCCEx_PeriphCLKConfig(&PeriphClkInit) != HAL_OK) {
 80027de:	1d3b      	adds	r3, r7, #4
 80027e0:	0018      	movs	r0, r3
 80027e2:	f002 fb3b 	bl	8004e5c <HAL_RCCEx_PeriphCLKConfig>
 80027e6:	1e03      	subs	r3, r0, #0
 80027e8:	d001      	beq.n	80027ee <SystemClock_Config+0xd2>
        Error_Handler();
 80027ea:	f000 fd67 	bl	80032bc <Error_Handler>
    }
}
 80027ee:	46c0      	nop			; (mov r8, r8)
 80027f0:	46bd      	mov	sp, r7
 80027f2:	b01f      	add	sp, #124	; 0x7c
 80027f4:	bd90      	pop	{r4, r7, pc}
 80027f6:	46c0      	nop			; (mov r8, r8)
 80027f8:	40007000 	.word	0x40007000
 80027fc:	ffffe7ff 	.word	0xffffe7ff

08002800 <MX_ADC_Init>:
/**
 * @brief ADC Initialization Function
 * @param None
 * @retval None
 */
static void MX_ADC_Init(void) {
 8002800:	b580      	push	{r7, lr}
 8002802:	b082      	sub	sp, #8
 8002804:	af00      	add	r7, sp, #0
    /* USER CODE BEGIN ADC_Init 0 */

    /* USER CODE END ADC_Init 0 */

    ADC_ChannelConfTypeDef sConfig = {0};
 8002806:	003b      	movs	r3, r7
 8002808:	0018      	movs	r0, r3
 800280a:	2308      	movs	r3, #8
 800280c:	001a      	movs	r2, r3
 800280e:	2100      	movs	r1, #0
 8002810:	f003 fcef 	bl	80061f2 <memset>
    /** Configure the global features of the ADC (Clock, Resolution, Data
       Alignment and number of conversion)

    */

    hadc.Instance = ADC1;
 8002814:	4b2a      	ldr	r3, [pc, #168]	; (80028c0 <MX_ADC_Init+0xc0>)
 8002816:	4a2b      	ldr	r2, [pc, #172]	; (80028c4 <MX_ADC_Init+0xc4>)
 8002818:	601a      	str	r2, [r3, #0]

    hadc.Init.OversamplingMode = DISABLE;
 800281a:	4b29      	ldr	r3, [pc, #164]	; (80028c0 <MX_ADC_Init+0xc0>)
 800281c:	2200      	movs	r2, #0
 800281e:	63da      	str	r2, [r3, #60]	; 0x3c

    hadc.Init.ClockPrescaler = ADC_CLOCK_SYNC_PCLK_DIV2;
 8002820:	4b27      	ldr	r3, [pc, #156]	; (80028c0 <MX_ADC_Init+0xc0>)
 8002822:	2280      	movs	r2, #128	; 0x80
 8002824:	05d2      	lsls	r2, r2, #23
 8002826:	605a      	str	r2, [r3, #4]

    hadc.Init.Resolution = ADC_RESOLUTION_12B;
 8002828:	4b25      	ldr	r3, [pc, #148]	; (80028c0 <MX_ADC_Init+0xc0>)
 800282a:	2200      	movs	r2, #0
 800282c:	609a      	str	r2, [r3, #8]

    hadc.Init.SamplingTime = ADC_SAMPLETIME_1CYCLE_5;
 800282e:	4b24      	ldr	r3, [pc, #144]	; (80028c0 <MX_ADC_Init+0xc0>)
 8002830:	2200      	movs	r2, #0
 8002832:	639a      	str	r2, [r3, #56]	; 0x38

    hadc.Init.ScanConvMode = ADC_SCAN_DIRECTION_FORWARD;
 8002834:	4b22      	ldr	r3, [pc, #136]	; (80028c0 <MX_ADC_Init+0xc0>)
 8002836:	2201      	movs	r2, #1
 8002838:	611a      	str	r2, [r3, #16]

    hadc.Init.DataAlign = ADC_DATAALIGN_RIGHT;
 800283a:	4b21      	ldr	r3, [pc, #132]	; (80028c0 <MX_ADC_Init+0xc0>)
 800283c:	2200      	movs	r2, #0
 800283e:	60da      	str	r2, [r3, #12]

    hadc.Init.ContinuousConvMode = DISABLE;
 8002840:	4b1f      	ldr	r3, [pc, #124]	; (80028c0 <MX_ADC_Init+0xc0>)
 8002842:	2220      	movs	r2, #32
 8002844:	2100      	movs	r1, #0
 8002846:	5499      	strb	r1, [r3, r2]

    hadc.Init.DiscontinuousConvMode = DISABLE;
 8002848:	4b1d      	ldr	r3, [pc, #116]	; (80028c0 <MX_ADC_Init+0xc0>)
 800284a:	2221      	movs	r2, #33	; 0x21
 800284c:	2100      	movs	r1, #0
 800284e:	5499      	strb	r1, [r3, r2]

    hadc.Init.ExternalTrigConvEdge = ADC_EXTERNALTRIGCONVEDGE_NONE;
 8002850:	4b1b      	ldr	r3, [pc, #108]	; (80028c0 <MX_ADC_Init+0xc0>)
 8002852:	2200      	movs	r2, #0
 8002854:	629a      	str	r2, [r3, #40]	; 0x28

    hadc.Init.ExternalTrigConv = ADC_SOFTWARE_START;
 8002856:	4b1a      	ldr	r3, [pc, #104]	; (80028c0 <MX_ADC_Init+0xc0>)
 8002858:	22c2      	movs	r2, #194	; 0xc2
 800285a:	32ff      	adds	r2, #255	; 0xff
 800285c:	625a      	str	r2, [r3, #36]	; 0x24

    hadc.Init.DMAContinuousRequests = DISABLE;
 800285e:	4b18      	ldr	r3, [pc, #96]	; (80028c0 <MX_ADC_Init+0xc0>)
 8002860:	222c      	movs	r2, #44	; 0x2c
 8002862:	2100      	movs	r1, #0
 8002864:	5499      	strb	r1, [r3, r2]

    hadc.Init.EOCSelection = ADC_EOC_SINGLE_CONV;
 8002866:	4b16      	ldr	r3, [pc, #88]	; (80028c0 <MX_ADC_Init+0xc0>)
 8002868:	2204      	movs	r2, #4
 800286a:	615a      	str	r2, [r3, #20]

    hadc.Init.Overrun = ADC_OVR_DATA_PRESERVED;
 800286c:	4b14      	ldr	r3, [pc, #80]	; (80028c0 <MX_ADC_Init+0xc0>)
 800286e:	2200      	movs	r2, #0
 8002870:	631a      	str	r2, [r3, #48]	; 0x30

    hadc.Init.LowPowerAutoWait = DISABLE;
 8002872:	4b13      	ldr	r3, [pc, #76]	; (80028c0 <MX_ADC_Init+0xc0>)
 8002874:	2200      	movs	r2, #0
 8002876:	619a      	str	r2, [r3, #24]

    hadc.Init.LowPowerFrequencyMode = DISABLE;
 8002878:	4b11      	ldr	r3, [pc, #68]	; (80028c0 <MX_ADC_Init+0xc0>)
 800287a:	2200      	movs	r2, #0
 800287c:	635a      	str	r2, [r3, #52]	; 0x34

    hadc.Init.LowPowerAutoPowerOff = DISABLE;
 800287e:	4b10      	ldr	r3, [pc, #64]	; (80028c0 <MX_ADC_Init+0xc0>)
 8002880:	2200      	movs	r2, #0
 8002882:	61da      	str	r2, [r3, #28]

    if (HAL_ADC_Init(&hadc) != HAL_OK)
 8002884:	4b0e      	ldr	r3, [pc, #56]	; (80028c0 <MX_ADC_Init+0xc0>)
 8002886:	0018      	movs	r0, r3
 8002888:	f000 ff08 	bl	800369c <HAL_ADC_Init>
 800288c:	1e03      	subs	r3, r0, #0
 800288e:	d001      	beq.n	8002894 <MX_ADC_Init+0x94>

    {
        Error_Handler();
 8002890:	f000 fd14 	bl	80032bc <Error_Handler>

    /** Configure for the selected ADC regular channel to be converted.

    */

    sConfig.Channel = ADC_CHANNEL_0;
 8002894:	003b      	movs	r3, r7
 8002896:	2201      	movs	r2, #1
 8002898:	601a      	str	r2, [r3, #0]

    sConfig.Rank = ADC_RANK_CHANNEL_NUMBER;
 800289a:	003b      	movs	r3, r7
 800289c:	2280      	movs	r2, #128	; 0x80
 800289e:	0152      	lsls	r2, r2, #5
 80028a0:	605a      	str	r2, [r3, #4]

    if (HAL_ADC_ConfigChannel(&hadc, &sConfig) != HAL_OK)
 80028a2:	003a      	movs	r2, r7
 80028a4:	4b06      	ldr	r3, [pc, #24]	; (80028c0 <MX_ADC_Init+0xc0>)
 80028a6:	0011      	movs	r1, r2
 80028a8:	0018      	movs	r0, r3
 80028aa:	f001 f967 	bl	8003b7c <HAL_ADC_ConfigChannel>
 80028ae:	1e03      	subs	r3, r0, #0
 80028b0:	d001      	beq.n	80028b6 <MX_ADC_Init+0xb6>

    {
        Error_Handler();
 80028b2:	f000 fd03 	bl	80032bc <Error_Handler>
    }

    /* USER CODE BEGIN ADC_Init 2 */

    /* USER CODE END ADC_Init 2 */
}
 80028b6:	46c0      	nop			; (mov r8, r8)
 80028b8:	46bd      	mov	sp, r7
 80028ba:	b002      	add	sp, #8
 80028bc:	bd80      	pop	{r7, pc}
 80028be:	46c0      	nop			; (mov r8, r8)
 80028c0:	2000008c 	.word	0x2000008c
 80028c4:	40012400 	.word	0x40012400

080028c8 <MX_SPI1_Init>:

  */

static void MX_SPI1_Init(void)

{
 80028c8:	b580      	push	{r7, lr}
 80028ca:	af00      	add	r7, sp, #0

    /* USER CODE END SPI1_Init 1 */

    /* SPI1 parameter configuration*/

    hspi1.Instance = SPI1;
 80028cc:	4b18      	ldr	r3, [pc, #96]	; (8002930 <MX_SPI1_Init+0x68>)
 80028ce:	4a19      	ldr	r2, [pc, #100]	; (8002934 <MX_SPI1_Init+0x6c>)
 80028d0:	601a      	str	r2, [r3, #0]

    hspi1.Init.Mode = SPI_MODE_MASTER;
 80028d2:	4b17      	ldr	r3, [pc, #92]	; (8002930 <MX_SPI1_Init+0x68>)
 80028d4:	2282      	movs	r2, #130	; 0x82
 80028d6:	0052      	lsls	r2, r2, #1
 80028d8:	605a      	str	r2, [r3, #4]

    hspi1.Init.Direction = SPI_DIRECTION_2LINES;
 80028da:	4b15      	ldr	r3, [pc, #84]	; (8002930 <MX_SPI1_Init+0x68>)
 80028dc:	2200      	movs	r2, #0
 80028de:	609a      	str	r2, [r3, #8]

    hspi1.Init.DataSize = SPI_DATASIZE_8BIT;
 80028e0:	4b13      	ldr	r3, [pc, #76]	; (8002930 <MX_SPI1_Init+0x68>)
 80028e2:	2200      	movs	r2, #0
 80028e4:	60da      	str	r2, [r3, #12]

    hspi1.Init.CLKPolarity = SPI_POLARITY_HIGH;
 80028e6:	4b12      	ldr	r3, [pc, #72]	; (8002930 <MX_SPI1_Init+0x68>)
 80028e8:	2202      	movs	r2, #2
 80028ea:	611a      	str	r2, [r3, #16]

    hspi1.Init.CLKPhase = SPI_PHASE_1EDGE;
 80028ec:	4b10      	ldr	r3, [pc, #64]	; (8002930 <MX_SPI1_Init+0x68>)
 80028ee:	2200      	movs	r2, #0
 80028f0:	615a      	str	r2, [r3, #20]

    hspi1.Init.NSS = SPI_NSS_SOFT;
 80028f2:	4b0f      	ldr	r3, [pc, #60]	; (8002930 <MX_SPI1_Init+0x68>)
 80028f4:	2280      	movs	r2, #128	; 0x80
 80028f6:	0092      	lsls	r2, r2, #2
 80028f8:	619a      	str	r2, [r3, #24]

    hspi1.Init.BaudRatePrescaler = SPI_BAUDRATEPRESCALER_4;
 80028fa:	4b0d      	ldr	r3, [pc, #52]	; (8002930 <MX_SPI1_Init+0x68>)
 80028fc:	2208      	movs	r2, #8
 80028fe:	61da      	str	r2, [r3, #28]

    hspi1.Init.FirstBit = SPI_FIRSTBIT_MSB;
 8002900:	4b0b      	ldr	r3, [pc, #44]	; (8002930 <MX_SPI1_Init+0x68>)
 8002902:	2200      	movs	r2, #0
 8002904:	621a      	str	r2, [r3, #32]

    hspi1.Init.TIMode = SPI_TIMODE_DISABLE;
 8002906:	4b0a      	ldr	r3, [pc, #40]	; (8002930 <MX_SPI1_Init+0x68>)
 8002908:	2200      	movs	r2, #0
 800290a:	625a      	str	r2, [r3, #36]	; 0x24

    hspi1.Init.CRCCalculation = SPI_CRCCALCULATION_DISABLE;
 800290c:	4b08      	ldr	r3, [pc, #32]	; (8002930 <MX_SPI1_Init+0x68>)
 800290e:	2200      	movs	r2, #0
 8002910:	629a      	str	r2, [r3, #40]	; 0x28

    hspi1.Init.CRCPolynomial = 7;
 8002912:	4b07      	ldr	r3, [pc, #28]	; (8002930 <MX_SPI1_Init+0x68>)
 8002914:	2207      	movs	r2, #7
 8002916:	62da      	str	r2, [r3, #44]	; 0x2c

    if (HAL_SPI_Init(&hspi1) != HAL_OK)
 8002918:	4b05      	ldr	r3, [pc, #20]	; (8002930 <MX_SPI1_Init+0x68>)
 800291a:	0018      	movs	r0, r3
 800291c:	f002 fc12 	bl	8005144 <HAL_SPI_Init>
 8002920:	1e03      	subs	r3, r0, #0
 8002922:	d001      	beq.n	8002928 <MX_SPI1_Init+0x60>

    {
        Error_Handler();
 8002924:	f000 fcca 	bl	80032bc <Error_Handler>
    }

    /* USER CODE BEGIN SPI1_Init 2 */

    /* USER CODE END SPI1_Init 2 */
}
 8002928:	46c0      	nop			; (mov r8, r8)
 800292a:	46bd      	mov	sp, r7
 800292c:	bd80      	pop	{r7, pc}
 800292e:	46c0      	nop			; (mov r8, r8)
 8002930:	200000e8 	.word	0x200000e8
 8002934:	40013000 	.word	0x40013000

08002938 <MX_USART2_UART_Init>:

  */

static void MX_USART2_UART_Init(void)

{
 8002938:	b580      	push	{r7, lr}
 800293a:	af00      	add	r7, sp, #0

    /* USER CODE BEGIN USART2_Init 1 */

    /* USER CODE END USART2_Init 1 */

    huart2.Instance = USART2;
 800293c:	4b14      	ldr	r3, [pc, #80]	; (8002990 <MX_USART2_UART_Init+0x58>)
 800293e:	4a15      	ldr	r2, [pc, #84]	; (8002994 <MX_USART2_UART_Init+0x5c>)
 8002940:	601a      	str	r2, [r3, #0]

    huart2.Init.BaudRate = 115200;
 8002942:	4b13      	ldr	r3, [pc, #76]	; (8002990 <MX_USART2_UART_Init+0x58>)
 8002944:	22e1      	movs	r2, #225	; 0xe1
 8002946:	0252      	lsls	r2, r2, #9
 8002948:	605a      	str	r2, [r3, #4]

    huart2.Init.WordLength = UART_WORDLENGTH_8B;
 800294a:	4b11      	ldr	r3, [pc, #68]	; (8002990 <MX_USART2_UART_Init+0x58>)
 800294c:	2200      	movs	r2, #0
 800294e:	609a      	str	r2, [r3, #8]

    huart2.Init.StopBits = UART_STOPBITS_1;
 8002950:	4b0f      	ldr	r3, [pc, #60]	; (8002990 <MX_USART2_UART_Init+0x58>)
 8002952:	2200      	movs	r2, #0
 8002954:	60da      	str	r2, [r3, #12]

    huart2.Init.Parity = UART_PARITY_NONE;
 8002956:	4b0e      	ldr	r3, [pc, #56]	; (8002990 <MX_USART2_UART_Init+0x58>)
 8002958:	2200      	movs	r2, #0
 800295a:	611a      	str	r2, [r3, #16]

    huart2.Init.Mode = UART_MODE_TX_RX;
 800295c:	4b0c      	ldr	r3, [pc, #48]	; (8002990 <MX_USART2_UART_Init+0x58>)
 800295e:	220c      	movs	r2, #12
 8002960:	615a      	str	r2, [r3, #20]

    huart2.Init.HwFlowCtl = UART_HWCONTROL_NONE;
 8002962:	4b0b      	ldr	r3, [pc, #44]	; (8002990 <MX_USART2_UART_Init+0x58>)
 8002964:	2200      	movs	r2, #0
 8002966:	619a      	str	r2, [r3, #24]

    huart2.Init.OverSampling = UART_OVERSAMPLING_16;
 8002968:	4b09      	ldr	r3, [pc, #36]	; (8002990 <MX_USART2_UART_Init+0x58>)
 800296a:	2200      	movs	r2, #0
 800296c:	61da      	str	r2, [r3, #28]

    huart2.Init.OneBitSampling = UART_ONE_BIT_SAMPLE_DISABLE;
 800296e:	4b08      	ldr	r3, [pc, #32]	; (8002990 <MX_USART2_UART_Init+0x58>)
 8002970:	2200      	movs	r2, #0
 8002972:	621a      	str	r2, [r3, #32]

    huart2.AdvancedInit.AdvFeatureInit = UART_ADVFEATURE_NO_INIT;
 8002974:	4b06      	ldr	r3, [pc, #24]	; (8002990 <MX_USART2_UART_Init+0x58>)
 8002976:	2200      	movs	r2, #0
 8002978:	625a      	str	r2, [r3, #36]	; 0x24

    if (HAL_UART_Init(&huart2) != HAL_OK)
 800297a:	4b05      	ldr	r3, [pc, #20]	; (8002990 <MX_USART2_UART_Init+0x58>)
 800297c:	0018      	movs	r0, r3
 800297e:	f002 fe9f 	bl	80056c0 <HAL_UART_Init>
 8002982:	1e03      	subs	r3, r0, #0
 8002984:	d001      	beq.n	800298a <MX_USART2_UART_Init+0x52>

    {
        Error_Handler();
 8002986:	f000 fc99 	bl	80032bc <Error_Handler>
    }

    /* USER CODE BEGIN USART2_Init 2 */

    /* USER CODE END USART2_Init 2 */
}
 800298a:	46c0      	nop			; (mov r8, r8)
 800298c:	46bd      	mov	sp, r7
 800298e:	bd80      	pop	{r7, pc}
 8002990:	20000140 	.word	0x20000140
 8002994:	40004400 	.word	0x40004400

08002998 <MX_GPIO_Init>:

  */

static void MX_GPIO_Init(void)

{
 8002998:	b590      	push	{r4, r7, lr}
 800299a:	b08b      	sub	sp, #44	; 0x2c
 800299c:	af00      	add	r7, sp, #0
    GPIO_InitTypeDef GPIO_InitStruct = {0};
 800299e:	2414      	movs	r4, #20
 80029a0:	193b      	adds	r3, r7, r4
 80029a2:	0018      	movs	r0, r3
 80029a4:	2314      	movs	r3, #20
 80029a6:	001a      	movs	r2, r3
 80029a8:	2100      	movs	r1, #0
 80029aa:	f003 fc22 	bl	80061f2 <memset>

    /* GPIO Ports Clock Enable */

    __HAL_RCC_GPIOC_CLK_ENABLE();
 80029ae:	4b40      	ldr	r3, [pc, #256]	; (8002ab0 <MX_GPIO_Init+0x118>)
 80029b0:	6ada      	ldr	r2, [r3, #44]	; 0x2c
 80029b2:	4b3f      	ldr	r3, [pc, #252]	; (8002ab0 <MX_GPIO_Init+0x118>)
 80029b4:	2104      	movs	r1, #4
 80029b6:	430a      	orrs	r2, r1
 80029b8:	62da      	str	r2, [r3, #44]	; 0x2c
 80029ba:	4b3d      	ldr	r3, [pc, #244]	; (8002ab0 <MX_GPIO_Init+0x118>)
 80029bc:	6adb      	ldr	r3, [r3, #44]	; 0x2c
 80029be:	2204      	movs	r2, #4
 80029c0:	4013      	ands	r3, r2
 80029c2:	613b      	str	r3, [r7, #16]
 80029c4:	693b      	ldr	r3, [r7, #16]

    __HAL_RCC_GPIOH_CLK_ENABLE();
 80029c6:	4b3a      	ldr	r3, [pc, #232]	; (8002ab0 <MX_GPIO_Init+0x118>)
 80029c8:	6ada      	ldr	r2, [r3, #44]	; 0x2c
 80029ca:	4b39      	ldr	r3, [pc, #228]	; (8002ab0 <MX_GPIO_Init+0x118>)
 80029cc:	2180      	movs	r1, #128	; 0x80
 80029ce:	430a      	orrs	r2, r1
 80029d0:	62da      	str	r2, [r3, #44]	; 0x2c
 80029d2:	4b37      	ldr	r3, [pc, #220]	; (8002ab0 <MX_GPIO_Init+0x118>)
 80029d4:	6adb      	ldr	r3, [r3, #44]	; 0x2c
 80029d6:	2280      	movs	r2, #128	; 0x80
 80029d8:	4013      	ands	r3, r2
 80029da:	60fb      	str	r3, [r7, #12]
 80029dc:	68fb      	ldr	r3, [r7, #12]

    __HAL_RCC_GPIOA_CLK_ENABLE();
 80029de:	4b34      	ldr	r3, [pc, #208]	; (8002ab0 <MX_GPIO_Init+0x118>)
 80029e0:	6ada      	ldr	r2, [r3, #44]	; 0x2c
 80029e2:	4b33      	ldr	r3, [pc, #204]	; (8002ab0 <MX_GPIO_Init+0x118>)
 80029e4:	2101      	movs	r1, #1
 80029e6:	430a      	orrs	r2, r1
 80029e8:	62da      	str	r2, [r3, #44]	; 0x2c
 80029ea:	4b31      	ldr	r3, [pc, #196]	; (8002ab0 <MX_GPIO_Init+0x118>)
 80029ec:	6adb      	ldr	r3, [r3, #44]	; 0x2c
 80029ee:	2201      	movs	r2, #1
 80029f0:	4013      	ands	r3, r2
 80029f2:	60bb      	str	r3, [r7, #8]
 80029f4:	68bb      	ldr	r3, [r7, #8]

    __HAL_RCC_GPIOB_CLK_ENABLE();
 80029f6:	4b2e      	ldr	r3, [pc, #184]	; (8002ab0 <MX_GPIO_Init+0x118>)
 80029f8:	6ada      	ldr	r2, [r3, #44]	; 0x2c
 80029fa:	4b2d      	ldr	r3, [pc, #180]	; (8002ab0 <MX_GPIO_Init+0x118>)
 80029fc:	2102      	movs	r1, #2
 80029fe:	430a      	orrs	r2, r1
 8002a00:	62da      	str	r2, [r3, #44]	; 0x2c
 8002a02:	4b2b      	ldr	r3, [pc, #172]	; (8002ab0 <MX_GPIO_Init+0x118>)
 8002a04:	6adb      	ldr	r3, [r3, #44]	; 0x2c
 8002a06:	2202      	movs	r2, #2
 8002a08:	4013      	ands	r3, r2
 8002a0a:	607b      	str	r3, [r7, #4]
 8002a0c:	687b      	ldr	r3, [r7, #4]

    /*Configure GPIO pin Output Level */

    HAL_GPIO_WritePin(GPIOB, GPIO_PIN_6, GPIO_PIN_RESET);
 8002a0e:	4b29      	ldr	r3, [pc, #164]	; (8002ab4 <MX_GPIO_Init+0x11c>)
 8002a10:	2200      	movs	r2, #0
 8002a12:	2140      	movs	r1, #64	; 0x40
 8002a14:	0018      	movs	r0, r3
 8002a16:	f001 fc0b 	bl	8004230 <HAL_GPIO_WritePin>

    /*Configure GPIO pin : B1_Pin */

    GPIO_InitStruct.Pin = B1_Pin;
 8002a1a:	193b      	adds	r3, r7, r4
 8002a1c:	2280      	movs	r2, #128	; 0x80
 8002a1e:	0192      	lsls	r2, r2, #6
 8002a20:	601a      	str	r2, [r3, #0]

    GPIO_InitStruct.Mode = GPIO_MODE_IT_FALLING;
 8002a22:	193b      	adds	r3, r7, r4
 8002a24:	2284      	movs	r2, #132	; 0x84
 8002a26:	0392      	lsls	r2, r2, #14
 8002a28:	605a      	str	r2, [r3, #4]

    GPIO_InitStruct.Pull = GPIO_NOPULL;
 8002a2a:	193b      	adds	r3, r7, r4
 8002a2c:	2200      	movs	r2, #0
 8002a2e:	609a      	str	r2, [r3, #8]

    HAL_GPIO_Init(B1_GPIO_Port, &GPIO_InitStruct);
 8002a30:	193b      	adds	r3, r7, r4
 8002a32:	4a21      	ldr	r2, [pc, #132]	; (8002ab8 <MX_GPIO_Init+0x120>)
 8002a34:	0019      	movs	r1, r3
 8002a36:	0010      	movs	r0, r2
 8002a38:	f001 fa7c 	bl	8003f34 <HAL_GPIO_Init>

    /*Configure GPIO pin : PA10 */

    GPIO_InitStruct.Pin = GPIO_PIN_10;
 8002a3c:	193b      	adds	r3, r7, r4
 8002a3e:	2280      	movs	r2, #128	; 0x80
 8002a40:	00d2      	lsls	r2, r2, #3
 8002a42:	601a      	str	r2, [r3, #0]

    GPIO_InitStruct.Mode = GPIO_MODE_ANALOG;
 8002a44:	193b      	adds	r3, r7, r4
 8002a46:	2203      	movs	r2, #3
 8002a48:	605a      	str	r2, [r3, #4]

    GPIO_InitStruct.Pull = GPIO_NOPULL;
 8002a4a:	193b      	adds	r3, r7, r4
 8002a4c:	2200      	movs	r2, #0
 8002a4e:	609a      	str	r2, [r3, #8]

    HAL_GPIO_Init(GPIOA, &GPIO_InitStruct);
 8002a50:	193a      	adds	r2, r7, r4
 8002a52:	23a0      	movs	r3, #160	; 0xa0
 8002a54:	05db      	lsls	r3, r3, #23
 8002a56:	0011      	movs	r1, r2
 8002a58:	0018      	movs	r0, r3
 8002a5a:	f001 fa6b 	bl	8003f34 <HAL_GPIO_Init>

    /*Configure GPIO pin : PA12 */

    GPIO_InitStruct.Pin = GPIO_PIN_12;
 8002a5e:	193b      	adds	r3, r7, r4
 8002a60:	2280      	movs	r2, #128	; 0x80
 8002a62:	0152      	lsls	r2, r2, #5
 8002a64:	601a      	str	r2, [r3, #0]

    GPIO_InitStruct.Mode = GPIO_MODE_INPUT;
 8002a66:	193b      	adds	r3, r7, r4
 8002a68:	2200      	movs	r2, #0
 8002a6a:	605a      	str	r2, [r3, #4]

    GPIO_InitStruct.Pull = GPIO_NOPULL;
 8002a6c:	193b      	adds	r3, r7, r4
 8002a6e:	2200      	movs	r2, #0
 8002a70:	609a      	str	r2, [r3, #8]

    HAL_GPIO_Init(GPIOA, &GPIO_InitStruct);
 8002a72:	193a      	adds	r2, r7, r4
 8002a74:	23a0      	movs	r3, #160	; 0xa0
 8002a76:	05db      	lsls	r3, r3, #23
 8002a78:	0011      	movs	r1, r2
 8002a7a:	0018      	movs	r0, r3
 8002a7c:	f001 fa5a 	bl	8003f34 <HAL_GPIO_Init>

    /*Configure GPIO pin : PB6 */

    GPIO_InitStruct.Pin = GPIO_PIN_6;
 8002a80:	0021      	movs	r1, r4
 8002a82:	187b      	adds	r3, r7, r1
 8002a84:	2240      	movs	r2, #64	; 0x40
 8002a86:	601a      	str	r2, [r3, #0]

    GPIO_InitStruct.Mode = GPIO_MODE_OUTPUT_PP;
 8002a88:	187b      	adds	r3, r7, r1
 8002a8a:	2201      	movs	r2, #1
 8002a8c:	605a      	str	r2, [r3, #4]

    GPIO_InitStruct.Pull = GPIO_NOPULL;
 8002a8e:	187b      	adds	r3, r7, r1
 8002a90:	2200      	movs	r2, #0
 8002a92:	609a      	str	r2, [r3, #8]

    GPIO_InitStruct.Speed = GPIO_SPEED_FREQ_LOW;
 8002a94:	187b      	adds	r3, r7, r1
 8002a96:	2200      	movs	r2, #0
 8002a98:	60da      	str	r2, [r3, #12]

    HAL_GPIO_Init(GPIOB, &GPIO_InitStruct);
 8002a9a:	187b      	adds	r3, r7, r1
 8002a9c:	4a05      	ldr	r2, [pc, #20]	; (8002ab4 <MX_GPIO_Init+0x11c>)
 8002a9e:	0019      	movs	r1, r3
 8002aa0:	0010      	movs	r0, r2
 8002aa2:	f001 fa47 	bl	8003f34 <HAL_GPIO_Init>
}
 8002aa6:	46c0      	nop			; (mov r8, r8)
 8002aa8:	46bd      	mov	sp, r7
 8002aaa:	b00b      	add	sp, #44	; 0x2c
 8002aac:	bd90      	pop	{r4, r7, pc}
 8002aae:	46c0      	nop			; (mov r8, r8)
 8002ab0:	40021000 	.word	0x40021000
 8002ab4:	50000400 	.word	0x50000400
 8002ab8:	50000800 	.word	0x50000800

08002abc <Set_VCO_Frequency>:
    sendBytes(0x0, 0b00101000);
}

/* USER CODE BEGIN 4 */

void Set_VCO_Frequency(int freq) {
 8002abc:	b5b0      	push	{r4, r5, r7, lr}
 8002abe:	b08a      	sub	sp, #40	; 0x28
 8002ac0:	af00      	add	r7, sp, #0
 8002ac2:	6078      	str	r0, [r7, #4]
    int xtal = 50;
 8002ac4:	2332      	movs	r3, #50	; 0x32
 8002ac6:	627b      	str	r3, [r7, #36]	; 0x24

    int integer_data = freq / xtal;
 8002ac8:	6a79      	ldr	r1, [r7, #36]	; 0x24
 8002aca:	6878      	ldr	r0, [r7, #4]
 8002acc:	f7fd fbb0 	bl	8000230 <__divsi3>
 8002ad0:	0003      	movs	r3, r0
 8002ad2:	623b      	str	r3, [r7, #32]

    int frac_mod = freq % xtal;
 8002ad4:	687b      	ldr	r3, [r7, #4]
 8002ad6:	6a79      	ldr	r1, [r7, #36]	; 0x24
 8002ad8:	0018      	movs	r0, r3
 8002ada:	f7fd fc8f 	bl	80003fc <__aeabi_idivmod>
 8002ade:	000b      	movs	r3, r1
 8002ae0:	61fb      	str	r3, [r7, #28]

    double frac_value = 1.0 * freq / xtal - integer_data;
 8002ae2:	6878      	ldr	r0, [r7, #4]
 8002ae4:	f7ff f9f6 	bl	8001ed4 <__aeabi_i2d>
 8002ae8:	0004      	movs	r4, r0
 8002aea:	000d      	movs	r5, r1
 8002aec:	6a78      	ldr	r0, [r7, #36]	; 0x24
 8002aee:	f7ff f9f1 	bl	8001ed4 <__aeabi_i2d>
 8002af2:	0002      	movs	r2, r0
 8002af4:	000b      	movs	r3, r1
 8002af6:	0020      	movs	r0, r4
 8002af8:	0029      	movs	r1, r5
 8002afa:	f7fe f8c1 	bl	8000c80 <__aeabi_ddiv>
 8002afe:	0002      	movs	r2, r0
 8002b00:	000b      	movs	r3, r1
 8002b02:	0014      	movs	r4, r2
 8002b04:	001d      	movs	r5, r3
 8002b06:	6a38      	ldr	r0, [r7, #32]
 8002b08:	f7ff f9e4 	bl	8001ed4 <__aeabi_i2d>
 8002b0c:	0002      	movs	r2, r0
 8002b0e:	000b      	movs	r3, r1
 8002b10:	0020      	movs	r0, r4
 8002b12:	0029      	movs	r1, r5
 8002b14:	f7fe fe16 	bl	8001744 <__aeabi_dsub>
 8002b18:	0002      	movs	r2, r0
 8002b1a:	000b      	movs	r3, r1
 8002b1c:	613a      	str	r2, [r7, #16]
 8002b1e:	617b      	str	r3, [r7, #20]

    int frac_data = frac_value * pow(2, 24);
 8002b20:	2200      	movs	r2, #0
 8002b22:	4b18      	ldr	r3, [pc, #96]	; (8002b84 <Set_VCO_Frequency+0xc8>)
 8002b24:	6938      	ldr	r0, [r7, #16]
 8002b26:	6979      	ldr	r1, [r7, #20]
 8002b28:	f7fe fba0 	bl	800126c <__aeabi_dmul>
 8002b2c:	0002      	movs	r2, r0
 8002b2e:	000b      	movs	r3, r1
 8002b30:	0010      	movs	r0, r2
 8002b32:	0019      	movs	r1, r3
 8002b34:	f7ff f998 	bl	8001e68 <__aeabi_d2iz>
 8002b38:	0003      	movs	r3, r0
 8002b3a:	60fb      	str	r3, [r7, #12]

    uint8_t reg_5 = 0b00101000;
 8002b3c:	240b      	movs	r4, #11
 8002b3e:	193b      	adds	r3, r7, r4
 8002b40:	2228      	movs	r2, #40	; 0x28
 8002b42:	701a      	strb	r2, [r3, #0]

    // REG 3 1C

    uint8_t reg_3 = 0b00011000;
 8002b44:	210a      	movs	r1, #10
 8002b46:	187b      	adds	r3, r7, r1
 8002b48:	2218      	movs	r2, #24
 8002b4a:	701a      	strb	r2, [r3, #0]

    sendBytes(integer_data, reg_3);
 8002b4c:	187b      	adds	r3, r7, r1
 8002b4e:	781a      	ldrb	r2, [r3, #0]
 8002b50:	6a3b      	ldr	r3, [r7, #32]
 8002b52:	0011      	movs	r1, r2
 8002b54:	0018      	movs	r0, r3
 8002b56:	f000 f817 	bl	8002b88 <sendBytes>

    // REG 5 0

    sendBytes(0, reg_5);
 8002b5a:	193b      	adds	r3, r7, r4
 8002b5c:	781b      	ldrb	r3, [r3, #0]
 8002b5e:	0019      	movs	r1, r3
 8002b60:	2000      	movs	r0, #0
 8002b62:	f000 f811 	bl	8002b88 <sendBytes>

    // REG 4 0

    uint8_t reg_4 = 0b00100000;
 8002b66:	2109      	movs	r1, #9
 8002b68:	187b      	adds	r3, r7, r1
 8002b6a:	2220      	movs	r2, #32
 8002b6c:	701a      	strb	r2, [r3, #0]

    sendBytes(frac_data, reg_4);
 8002b6e:	187b      	adds	r3, r7, r1
 8002b70:	781a      	ldrb	r2, [r3, #0]
 8002b72:	68fb      	ldr	r3, [r7, #12]
 8002b74:	0011      	movs	r1, r2
 8002b76:	0018      	movs	r0, r3
 8002b78:	f000 f806 	bl	8002b88 <sendBytes>
}
 8002b7c:	46c0      	nop			; (mov r8, r8)
 8002b7e:	46bd      	mov	sp, r7
 8002b80:	b00a      	add	sp, #40	; 0x28
 8002b82:	bdb0      	pop	{r4, r5, r7, pc}
 8002b84:	41700000 	.word	0x41700000

08002b88 <sendBytes>:

void sendBytes(int data, uint8_t addressByte) {
 8002b88:	b5f0      	push	{r4, r5, r6, r7, lr}
 8002b8a:	b085      	sub	sp, #20
 8002b8c:	af00      	add	r7, sp, #0
 8002b8e:	6078      	str	r0, [r7, #4]
 8002b90:	000a      	movs	r2, r1
 8002b92:	1cfb      	adds	r3, r7, #3
 8002b94:	701a      	strb	r2, [r3, #0]
    uint8_t firstIntDataByte = data & 0xff;
 8002b96:	687b      	ldr	r3, [r7, #4]
 8002b98:	b2da      	uxtb	r2, r3
 8002b9a:	240f      	movs	r4, #15
 8002b9c:	193b      	adds	r3, r7, r4
 8002b9e:	701a      	strb	r2, [r3, #0]

    data = data >> 8;
 8002ba0:	687b      	ldr	r3, [r7, #4]
 8002ba2:	121b      	asrs	r3, r3, #8
 8002ba4:	607b      	str	r3, [r7, #4]

    uint8_t secondIntDataByte = data & 0xff;
 8002ba6:	687b      	ldr	r3, [r7, #4]
 8002ba8:	b2da      	uxtb	r2, r3
 8002baa:	250e      	movs	r5, #14
 8002bac:	197b      	adds	r3, r7, r5
 8002bae:	701a      	strb	r2, [r3, #0]

    data = data >> 8;
 8002bb0:	687b      	ldr	r3, [r7, #4]
 8002bb2:	121b      	asrs	r3, r3, #8
 8002bb4:	607b      	str	r3, [r7, #4]

    uint8_t thirdIntDataByte = data & 0xff;
 8002bb6:	687b      	ldr	r3, [r7, #4]
 8002bb8:	b2da      	uxtb	r2, r3
 8002bba:	260d      	movs	r6, #13
 8002bbc:	19bb      	adds	r3, r7, r6
 8002bbe:	701a      	strb	r2, [r3, #0]

    HAL_GPIO_WritePin(GPIOB, GPIO_PIN_6, GPIO_PIN_RESET);  // SEN Deassert
 8002bc0:	4b13      	ldr	r3, [pc, #76]	; (8002c10 <sendBytes+0x88>)
 8002bc2:	2200      	movs	r2, #0
 8002bc4:	2140      	movs	r1, #64	; 0x40
 8002bc6:	0018      	movs	r0, r3
 8002bc8:	f001 fb32 	bl	8004230 <HAL_GPIO_WritePin>

    HAL_SPI_Transmit(&hspi1, (uint8_t *)&thirdIntDataByte, 1, 100);
 8002bcc:	19b9      	adds	r1, r7, r6
 8002bce:	4811      	ldr	r0, [pc, #68]	; (8002c14 <sendBytes+0x8c>)
 8002bd0:	2364      	movs	r3, #100	; 0x64
 8002bd2:	2201      	movs	r2, #1
 8002bd4:	f002 fb4a 	bl	800526c <HAL_SPI_Transmit>

    HAL_SPI_Transmit(&hspi1, (uint8_t *)&secondIntDataByte, 1, 100);
 8002bd8:	1979      	adds	r1, r7, r5
 8002bda:	480e      	ldr	r0, [pc, #56]	; (8002c14 <sendBytes+0x8c>)
 8002bdc:	2364      	movs	r3, #100	; 0x64
 8002bde:	2201      	movs	r2, #1
 8002be0:	f002 fb44 	bl	800526c <HAL_SPI_Transmit>

    HAL_SPI_Transmit(&hspi1, (uint8_t *)&firstIntDataByte, 1, 100);
 8002be4:	1939      	adds	r1, r7, r4
 8002be6:	480b      	ldr	r0, [pc, #44]	; (8002c14 <sendBytes+0x8c>)
 8002be8:	2364      	movs	r3, #100	; 0x64
 8002bea:	2201      	movs	r2, #1
 8002bec:	f002 fb3e 	bl	800526c <HAL_SPI_Transmit>

    HAL_SPI_Transmit(&hspi1, (uint8_t *)&addressByte, 1, 100);
 8002bf0:	1cf9      	adds	r1, r7, #3
 8002bf2:	4808      	ldr	r0, [pc, #32]	; (8002c14 <sendBytes+0x8c>)
 8002bf4:	2364      	movs	r3, #100	; 0x64
 8002bf6:	2201      	movs	r2, #1
 8002bf8:	f002 fb38 	bl	800526c <HAL_SPI_Transmit>

    HAL_GPIO_WritePin(GPIOB, GPIO_PIN_6, GPIO_PIN_SET);  // SEN Assert
 8002bfc:	4b04      	ldr	r3, [pc, #16]	; (8002c10 <sendBytes+0x88>)
 8002bfe:	2201      	movs	r2, #1
 8002c00:	2140      	movs	r1, #64	; 0x40
 8002c02:	0018      	movs	r0, r3
 8002c04:	f001 fb14 	bl	8004230 <HAL_GPIO_WritePin>
}
 8002c08:	46c0      	nop			; (mov r8, r8)
 8002c0a:	46bd      	mov	sp, r7
 8002c0c:	b005      	add	sp, #20
 8002c0e:	bdf0      	pop	{r4, r5, r6, r7, pc}
 8002c10:	50000400 	.word	0x50000400
 8002c14:	200000e8 	.word	0x200000e8

08002c18 <Initialize_Microwave_Generator>:

void Initialize_Microwave_Generator(void) {
 8002c18:	b5f0      	push	{r4, r5, r6, r7, lr}
 8002c1a:	b08b      	sub	sp, #44	; 0x2c
 8002c1c:	af00      	add	r7, sp, #0
    uint8_t VarZero = 0b00000000;
 8002c1e:	2427      	movs	r4, #39	; 0x27
 8002c20:	193b      	adds	r3, r7, r4
 8002c22:	2200      	movs	r2, #0
 8002c24:	701a      	strb	r2, [r3, #0]

    uint8_t VarOne = 0b00100000;
 8002c26:	2626      	movs	r6, #38	; 0x26
 8002c28:	19bb      	adds	r3, r7, r6
 8002c2a:	2220      	movs	r2, #32
 8002c2c:	701a      	strb	r2, [r3, #0]

    uint8_t VarTwo = 0b00000010;
 8002c2e:	2325      	movs	r3, #37	; 0x25
 8002c30:	18fb      	adds	r3, r7, r3
 8002c32:	2202      	movs	r2, #2
 8002c34:	701a      	strb	r2, [r3, #0]

    uint8_t VarThree = 0b00001000;
 8002c36:	2224      	movs	r2, #36	; 0x24
 8002c38:	18bb      	adds	r3, r7, r2
 8002c3a:	2208      	movs	r2, #8
 8002c3c:	701a      	strb	r2, [r3, #0]

    uint8_t VarFour = 0b00000001;
 8002c3e:	2323      	movs	r3, #35	; 0x23
 8002c40:	18fb      	adds	r3, r7, r3
 8002c42:	2201      	movs	r2, #1
 8002c44:	701a      	strb	r2, [r3, #0]

    uint8_t VarFive = 0b00010000;
 8002c46:	2122      	movs	r1, #34	; 0x22
 8002c48:	187b      	adds	r3, r7, r1
 8002c4a:	2210      	movs	r2, #16
 8002c4c:	701a      	strb	r2, [r3, #0]

    uint8_t VarSix = 0b10010000;
 8002c4e:	2521      	movs	r5, #33	; 0x21
 8002c50:	197b      	adds	r3, r7, r5
 8002c52:	2290      	movs	r2, #144	; 0x90
 8002c54:	701a      	strb	r2, [r3, #0]

    uint8_t VarSeven = 0b00101000;
 8002c56:	2520      	movs	r5, #32
 8002c58:	197b      	adds	r3, r7, r5
 8002c5a:	2228      	movs	r2, #40	; 0x28
 8002c5c:	701a      	strb	r2, [r3, #0]

    uint8_t VarEight = 0b00001111;
 8002c5e:	221f      	movs	r2, #31
 8002c60:	18bb      	adds	r3, r7, r2
 8002c62:	220f      	movs	r2, #15
 8002c64:	701a      	strb	r2, [r3, #0]

    uint8_t VarNine = 0b10011000;
 8002c66:	211e      	movs	r1, #30
 8002c68:	187b      	adds	r3, r7, r1
 8002c6a:	2298      	movs	r2, #152	; 0x98
 8002c6c:	701a      	strb	r2, [r3, #0]

    uint8_t VarOneZero = 0b01001011;
 8002c6e:	211d      	movs	r1, #29
 8002c70:	187b      	adds	r3, r7, r1
 8002c72:	224b      	movs	r2, #75	; 0x4b
 8002c74:	701a      	strb	r2, [r3, #0]

    uint8_t VarOneOne = 0b00111000;
 8002c76:	211c      	movs	r1, #28
 8002c78:	187b      	adds	r3, r7, r1
 8002c7a:	2238      	movs	r2, #56	; 0x38
 8002c7c:	701a      	strb	r2, [r3, #0]

    uint8_t VarOneTwo = 0b01001010;
 8002c7e:	231b      	movs	r3, #27
 8002c80:	18fb      	adds	r3, r7, r3
 8002c82:	224a      	movs	r2, #74	; 0x4a
 8002c84:	701a      	strb	r2, [r3, #0]

    uint8_t VarOneThree = 0b00110000;
 8002c86:	231a      	movs	r3, #26
 8002c88:	18fb      	adds	r3, r7, r3
 8002c8a:	2230      	movs	r2, #48	; 0x30
 8002c8c:	701a      	strb	r2, [r3, #0]

    uint8_t VarOneFour = 0b01001101;
 8002c8e:	2319      	movs	r3, #25
 8002c90:	18fb      	adds	r3, r7, r3
 8002c92:	224d      	movs	r2, #77	; 0x4d
 8002c94:	701a      	strb	r2, [r3, #0]

    uint8_t VarOneFive = 0b11000001;
 8002c96:	2218      	movs	r2, #24
 8002c98:	18bb      	adds	r3, r7, r2
 8002c9a:	22c1      	movs	r2, #193	; 0xc1
 8002c9c:	701a      	strb	r2, [r3, #0]

    uint8_t VarOneSix = 0b10111110;
 8002c9e:	2117      	movs	r1, #23
 8002ca0:	187b      	adds	r3, r7, r1
 8002ca2:	22be      	movs	r2, #190	; 0xbe
 8002ca4:	701a      	strb	r2, [r3, #0]

    uint8_t VarOneSeven = 0b11111111;
 8002ca6:	2016      	movs	r0, #22
 8002ca8:	183b      	adds	r3, r7, r0
 8002caa:	22ff      	movs	r2, #255	; 0xff
 8002cac:	701a      	strb	r2, [r3, #0]

    uint8_t VarOneEight = 0b01000000;
 8002cae:	2315      	movs	r3, #21
 8002cb0:	18fb      	adds	r3, r7, r3
 8002cb2:	2240      	movs	r2, #64	; 0x40
 8002cb4:	701a      	strb	r2, [r3, #0]

    uint8_t VarOneNine = 0b00111111;
 8002cb6:	2214      	movs	r2, #20
 8002cb8:	18bb      	adds	r3, r7, r2
 8002cba:	223f      	movs	r2, #63	; 0x3f
 8002cbc:	701a      	strb	r2, [r3, #0]

    uint8_t VarTwoZero = 0b11111110;
 8002cbe:	2113      	movs	r1, #19
 8002cc0:	187b      	adds	r3, r7, r1
 8002cc2:	22fe      	movs	r2, #254	; 0xfe
 8002cc4:	701a      	strb	r2, [r3, #0]

    uint8_t VarTwoOne = 0b11111101;
 8002cc6:	2012      	movs	r0, #18
 8002cc8:	183b      	adds	r3, r7, r0
 8002cca:	22fd      	movs	r2, #253	; 0xfd
 8002ccc:	701a      	strb	r2, [r3, #0]

    uint8_t VarTwoTwo = 0b01001000;
 8002cce:	2311      	movs	r3, #17
 8002cd0:	18fb      	adds	r3, r7, r3
 8002cd2:	2248      	movs	r2, #72	; 0x48
 8002cd4:	701a      	strb	r2, [r3, #0]

    uint8_t VarTwoThree = 0b01000110;
 8002cd6:	2210      	movs	r2, #16
 8002cd8:	18bb      	adds	r3, r7, r2
 8002cda:	2246      	movs	r2, #70	; 0x46
 8002cdc:	701a      	strb	r2, [r3, #0]

    uint8_t VarTwoFour = 0b01010000;
 8002cde:	210f      	movs	r1, #15
 8002ce0:	187b      	adds	r3, r7, r1
 8002ce2:	2250      	movs	r2, #80	; 0x50
 8002ce4:	701a      	strb	r2, [r3, #0]

    uint8_t VarTwoFive = 0b01001111;
 8002ce6:	200e      	movs	r0, #14
 8002ce8:	183b      	adds	r3, r7, r0
 8002cea:	224f      	movs	r2, #79	; 0x4f
 8002cec:	701a      	strb	r2, [r3, #0]

    uint8_t VarTwoSix = 0b10000000;
 8002cee:	230d      	movs	r3, #13
 8002cf0:	18fb      	adds	r3, r7, r3
 8002cf2:	2280      	movs	r2, #128	; 0x80
 8002cf4:	701a      	strb	r2, [r3, #0]

    uint8_t VarTwoSeven = 0b01100001;
 8002cf6:	220c      	movs	r2, #12
 8002cf8:	18bb      	adds	r3, r7, r2
 8002cfa:	2261      	movs	r2, #97	; 0x61
 8002cfc:	701a      	strb	r2, [r3, #0]

    uint8_t VarTwoEight = 0b01011000;
 8002cfe:	210b      	movs	r1, #11
 8002d00:	187b      	adds	r3, r7, r1
 8002d02:	2258      	movs	r2, #88	; 0x58
 8002d04:	701a      	strb	r2, [r3, #0]

    uint8_t VarTwoNine = 0b01100000;
 8002d06:	200a      	movs	r0, #10
 8002d08:	183b      	adds	r3, r7, r0
 8002d0a:	2260      	movs	r2, #96	; 0x60
 8002d0c:	701a      	strb	r2, [r3, #0]

    uint8_t VarThreeZero = 0b10000001;
 8002d0e:	2309      	movs	r3, #9
 8002d10:	18fb      	adds	r3, r7, r3
 8002d12:	2281      	movs	r2, #129	; 0x81
 8002d14:	701a      	strb	r2, [r3, #0]

    uint8_t VarThreeOne = 0b01111000;
 8002d16:	2208      	movs	r2, #8
 8002d18:	18bb      	adds	r3, r7, r2
 8002d1a:	2278      	movs	r2, #120	; 0x78
 8002d1c:	701a      	strb	r2, [r3, #0]

    uint8_t VarThreeTwo = 0b00101010;
 8002d1e:	1dfb      	adds	r3, r7, #7
 8002d20:	222a      	movs	r2, #42	; 0x2a
 8002d22:	701a      	strb	r2, [r3, #0]

    uint8_t VarThreeThree = 0b00011000;
 8002d24:	1dbb      	adds	r3, r7, #6
 8002d26:	2218      	movs	r2, #24
 8002d28:	701a      	strb	r2, [r3, #0]

    uint8_t VarThreeFour = 0b01100110;
 8002d2a:	1d7b      	adds	r3, r7, #5
 8002d2c:	2266      	movs	r2, #102	; 0x66
 8002d2e:	701a      	strb	r2, [r3, #0]

    // REG 0 20

    // RESET command.

    HAL_GPIO_WritePin(GPIOB, GPIO_PIN_6, GPIO_PIN_RESET);  // SEN Deassert
 8002d30:	4bfe      	ldr	r3, [pc, #1016]	; (800312c <Initialize_Microwave_Generator+0x514>)
 8002d32:	2200      	movs	r2, #0
 8002d34:	2140      	movs	r1, #64	; 0x40
 8002d36:	0018      	movs	r0, r3
 8002d38:	f001 fa7a 	bl	8004230 <HAL_GPIO_WritePin>

    HAL_SPI_Transmit(&hspi1, (uint8_t *)&VarZero, 1, 100);
 8002d3c:	1939      	adds	r1, r7, r4
 8002d3e:	48fc      	ldr	r0, [pc, #1008]	; (8003130 <Initialize_Microwave_Generator+0x518>)
 8002d40:	2364      	movs	r3, #100	; 0x64
 8002d42:	2201      	movs	r2, #1
 8002d44:	f002 fa92 	bl	800526c <HAL_SPI_Transmit>

    HAL_SPI_Transmit(&hspi1, (uint8_t *)&VarZero, 1, 100);
 8002d48:	1939      	adds	r1, r7, r4
 8002d4a:	48f9      	ldr	r0, [pc, #996]	; (8003130 <Initialize_Microwave_Generator+0x518>)
 8002d4c:	2364      	movs	r3, #100	; 0x64
 8002d4e:	2201      	movs	r2, #1
 8002d50:	f002 fa8c 	bl	800526c <HAL_SPI_Transmit>

    HAL_SPI_Transmit(&hspi1, (uint8_t *)&VarOne, 1, 100);
 8002d54:	19b9      	adds	r1, r7, r6
 8002d56:	48f6      	ldr	r0, [pc, #984]	; (8003130 <Initialize_Microwave_Generator+0x518>)
 8002d58:	2364      	movs	r3, #100	; 0x64
 8002d5a:	2201      	movs	r2, #1
 8002d5c:	f002 fa86 	bl	800526c <HAL_SPI_Transmit>

    HAL_SPI_Transmit(&hspi1, (uint8_t *)&VarZero, 1, 100);
 8002d60:	1939      	adds	r1, r7, r4
 8002d62:	48f3      	ldr	r0, [pc, #972]	; (8003130 <Initialize_Microwave_Generator+0x518>)
 8002d64:	2364      	movs	r3, #100	; 0x64
 8002d66:	2201      	movs	r2, #1
 8002d68:	f002 fa80 	bl	800526c <HAL_SPI_Transmit>

    HAL_GPIO_WritePin(GPIOB, GPIO_PIN_6, GPIO_PIN_SET);  // SEN Assert
 8002d6c:	4bef      	ldr	r3, [pc, #956]	; (800312c <Initialize_Microwave_Generator+0x514>)
 8002d6e:	2201      	movs	r2, #1
 8002d70:	2140      	movs	r1, #64	; 0x40
 8002d72:	0018      	movs	r0, r3
 8002d74:	f001 fa5c 	bl	8004230 <HAL_GPIO_WritePin>

    HAL_Delay(50);
 8002d78:	2032      	movs	r0, #50	; 0x32
 8002d7a:	f000 fc6b 	bl	8003654 <HAL_Delay>

    // Default = 2.  This value assigns PLL Chip Enable control to the SPI Reg 1
    // [1], 1 enabled, 0 disabled.  To assign PLL CE control to CE pin, write
    // Reg 1[0]=1.

    HAL_GPIO_WritePin(GPIOB, GPIO_PIN_6, GPIO_PIN_RESET);  // SEN Deassert
 8002d7e:	4beb      	ldr	r3, [pc, #940]	; (800312c <Initialize_Microwave_Generator+0x514>)
 8002d80:	2200      	movs	r2, #0
 8002d82:	2140      	movs	r1, #64	; 0x40
 8002d84:	0018      	movs	r0, r3
 8002d86:	f001 fa53 	bl	8004230 <HAL_GPIO_WritePin>

    HAL_SPI_Transmit(&hspi1, (uint8_t *)&VarZero, 1, 100);
 8002d8a:	1939      	adds	r1, r7, r4
 8002d8c:	48e8      	ldr	r0, [pc, #928]	; (8003130 <Initialize_Microwave_Generator+0x518>)
 8002d8e:	2364      	movs	r3, #100	; 0x64
 8002d90:	2201      	movs	r2, #1
 8002d92:	f002 fa6b 	bl	800526c <HAL_SPI_Transmit>

    HAL_SPI_Transmit(&hspi1, (uint8_t *)&VarZero, 1, 100);
 8002d96:	1939      	adds	r1, r7, r4
 8002d98:	48e5      	ldr	r0, [pc, #916]	; (8003130 <Initialize_Microwave_Generator+0x518>)
 8002d9a:	2364      	movs	r3, #100	; 0x64
 8002d9c:	2201      	movs	r2, #1
 8002d9e:	f002 fa65 	bl	800526c <HAL_SPI_Transmit>

    HAL_SPI_Transmit(&hspi1, (uint8_t *)&VarTwo, 1, 100);
 8002da2:	2025      	movs	r0, #37	; 0x25
 8002da4:	1839      	adds	r1, r7, r0
 8002da6:	48e2      	ldr	r0, [pc, #904]	; (8003130 <Initialize_Microwave_Generator+0x518>)
 8002da8:	2364      	movs	r3, #100	; 0x64
 8002daa:	2201      	movs	r2, #1
 8002dac:	f002 fa5e 	bl	800526c <HAL_SPI_Transmit>

    HAL_SPI_Transmit(&hspi1, (uint8_t *)&VarThree, 1, 100);
 8002db0:	2024      	movs	r0, #36	; 0x24
 8002db2:	1839      	adds	r1, r7, r0
 8002db4:	48de      	ldr	r0, [pc, #888]	; (8003130 <Initialize_Microwave_Generator+0x518>)
 8002db6:	2364      	movs	r3, #100	; 0x64
 8002db8:	2201      	movs	r2, #1
 8002dba:	f002 fa57 	bl	800526c <HAL_SPI_Transmit>

    HAL_GPIO_WritePin(GPIOB, GPIO_PIN_6, GPIO_PIN_SET);  // SEN Assert
 8002dbe:	4bdb      	ldr	r3, [pc, #876]	; (800312c <Initialize_Microwave_Generator+0x514>)
 8002dc0:	2201      	movs	r2, #1
 8002dc2:	2140      	movs	r1, #64	; 0x40
 8002dc4:	0018      	movs	r0, r3
 8002dc6:	f001 fa33 	bl	8004230 <HAL_GPIO_WritePin>

    HAL_Delay(50);
 8002dca:	2032      	movs	r0, #50	; 0x32
 8002dcc:	f000 fc42 	bl	8003654 <HAL_Delay>

    // REG 2 1

    // Ref Divider Register-Default value = 1h (Rdiv=1). Program as needed.

    HAL_GPIO_WritePin(GPIOB, GPIO_PIN_6, GPIO_PIN_RESET);  // SEN Deassert
 8002dd0:	4bd6      	ldr	r3, [pc, #856]	; (800312c <Initialize_Microwave_Generator+0x514>)
 8002dd2:	2200      	movs	r2, #0
 8002dd4:	2140      	movs	r1, #64	; 0x40
 8002dd6:	0018      	movs	r0, r3
 8002dd8:	f001 fa2a 	bl	8004230 <HAL_GPIO_WritePin>

    HAL_SPI_Transmit(&hspi1, (uint8_t *)&VarZero, 1, 100);
 8002ddc:	1939      	adds	r1, r7, r4
 8002dde:	48d4      	ldr	r0, [pc, #848]	; (8003130 <Initialize_Microwave_Generator+0x518>)
 8002de0:	2364      	movs	r3, #100	; 0x64
 8002de2:	2201      	movs	r2, #1
 8002de4:	f002 fa42 	bl	800526c <HAL_SPI_Transmit>

    HAL_SPI_Transmit(&hspi1, (uint8_t *)&VarZero, 1, 100);
 8002de8:	1939      	adds	r1, r7, r4
 8002dea:	48d1      	ldr	r0, [pc, #836]	; (8003130 <Initialize_Microwave_Generator+0x518>)
 8002dec:	2364      	movs	r3, #100	; 0x64
 8002dee:	2201      	movs	r2, #1
 8002df0:	f002 fa3c 	bl	800526c <HAL_SPI_Transmit>

    HAL_SPI_Transmit(&hspi1, (uint8_t *)&VarFour, 1, 100);
 8002df4:	2323      	movs	r3, #35	; 0x23
 8002df6:	18f9      	adds	r1, r7, r3
 8002df8:	48cd      	ldr	r0, [pc, #820]	; (8003130 <Initialize_Microwave_Generator+0x518>)
 8002dfa:	2364      	movs	r3, #100	; 0x64
 8002dfc:	2201      	movs	r2, #1
 8002dfe:	f002 fa35 	bl	800526c <HAL_SPI_Transmit>

    HAL_SPI_Transmit(&hspi1, (uint8_t *)&VarFive, 1, 100);
 8002e02:	2022      	movs	r0, #34	; 0x22
 8002e04:	1839      	adds	r1, r7, r0
 8002e06:	48ca      	ldr	r0, [pc, #808]	; (8003130 <Initialize_Microwave_Generator+0x518>)
 8002e08:	2364      	movs	r3, #100	; 0x64
 8002e0a:	2201      	movs	r2, #1
 8002e0c:	f002 fa2e 	bl	800526c <HAL_SPI_Transmit>

    HAL_GPIO_WritePin(GPIOB, GPIO_PIN_6, GPIO_PIN_SET);  // SEN Assert
 8002e10:	4bc6      	ldr	r3, [pc, #792]	; (800312c <Initialize_Microwave_Generator+0x514>)
 8002e12:	2201      	movs	r2, #1
 8002e14:	2140      	movs	r1, #64	; 0x40
 8002e16:	0018      	movs	r0, r3
 8002e18:	f001 fa0a 	bl	8004230 <HAL_GPIO_WritePin>

    HAL_Delay(50);
 8002e1c:	2032      	movs	r0, #50	; 0x32
 8002e1e:	f000 fc19 	bl	8003654 <HAL_Delay>

    // REG 5 90

    // Reg02 = 000000001 = fo (VCO output Div-by-1);

    HAL_GPIO_WritePin(GPIOB, GPIO_PIN_6, GPIO_PIN_RESET);  // SEN Deassert
 8002e22:	4bc2      	ldr	r3, [pc, #776]	; (800312c <Initialize_Microwave_Generator+0x514>)
 8002e24:	2200      	movs	r2, #0
 8002e26:	2140      	movs	r1, #64	; 0x40
 8002e28:	0018      	movs	r0, r3
 8002e2a:	f001 fa01 	bl	8004230 <HAL_GPIO_WritePin>

    HAL_SPI_Transmit(&hspi1, (uint8_t *)&VarZero, 1, 100);
 8002e2e:	1939      	adds	r1, r7, r4
 8002e30:	48bf      	ldr	r0, [pc, #764]	; (8003130 <Initialize_Microwave_Generator+0x518>)
 8002e32:	2364      	movs	r3, #100	; 0x64
 8002e34:	2201      	movs	r2, #1
 8002e36:	f002 fa19 	bl	800526c <HAL_SPI_Transmit>

    HAL_SPI_Transmit(&hspi1, (uint8_t *)&VarZero, 1, 100);
 8002e3a:	1939      	adds	r1, r7, r4
 8002e3c:	48bc      	ldr	r0, [pc, #752]	; (8003130 <Initialize_Microwave_Generator+0x518>)
 8002e3e:	2364      	movs	r3, #100	; 0x64
 8002e40:	2201      	movs	r2, #1
 8002e42:	f002 fa13 	bl	800526c <HAL_SPI_Transmit>

    HAL_SPI_Transmit(&hspi1, (uint8_t *)&VarSix, 1, 100);
 8002e46:	2021      	movs	r0, #33	; 0x21
 8002e48:	1839      	adds	r1, r7, r0
 8002e4a:	48b9      	ldr	r0, [pc, #740]	; (8003130 <Initialize_Microwave_Generator+0x518>)
 8002e4c:	2364      	movs	r3, #100	; 0x64
 8002e4e:	2201      	movs	r2, #1
 8002e50:	f002 fa0c 	bl	800526c <HAL_SPI_Transmit>

    HAL_SPI_Transmit(&hspi1, (uint8_t *)&VarSeven, 1, 100);
 8002e54:	1979      	adds	r1, r7, r5
 8002e56:	48b6      	ldr	r0, [pc, #728]	; (8003130 <Initialize_Microwave_Generator+0x518>)
 8002e58:	2364      	movs	r3, #100	; 0x64
 8002e5a:	2201      	movs	r2, #1
 8002e5c:	f002 fa06 	bl	800526c <HAL_SPI_Transmit>

    HAL_GPIO_WritePin(GPIOB, GPIO_PIN_6, GPIO_PIN_SET);  // SEN Assert
 8002e60:	4bb2      	ldr	r3, [pc, #712]	; (800312c <Initialize_Microwave_Generator+0x514>)
 8002e62:	2201      	movs	r2, #1
 8002e64:	2140      	movs	r1, #64	; 0x40
 8002e66:	0018      	movs	r0, r3
 8002e68:	f001 f9e2 	bl	8004230 <HAL_GPIO_WritePin>

    HAL_Delay(50);
 8002e6c:	2032      	movs	r0, #50	; 0x32
 8002e6e:	f000 fbf1 	bl	8003654 <HAL_Delay>

    // REG 5 F98

    // Reg03 = 000011111 = Hi Perf, RF_P & RF_N enabled, 5dB RL,

    HAL_GPIO_WritePin(GPIOB, GPIO_PIN_6, GPIO_PIN_RESET);  // SEN Deassert
 8002e72:	4bae      	ldr	r3, [pc, #696]	; (800312c <Initialize_Microwave_Generator+0x514>)
 8002e74:	2200      	movs	r2, #0
 8002e76:	2140      	movs	r1, #64	; 0x40
 8002e78:	0018      	movs	r0, r3
 8002e7a:	f001 f9d9 	bl	8004230 <HAL_GPIO_WritePin>

    HAL_SPI_Transmit(&hspi1, (uint8_t *)&VarZero, 1, 100);
 8002e7e:	1939      	adds	r1, r7, r4
 8002e80:	48ab      	ldr	r0, [pc, #684]	; (8003130 <Initialize_Microwave_Generator+0x518>)
 8002e82:	2364      	movs	r3, #100	; 0x64
 8002e84:	2201      	movs	r2, #1
 8002e86:	f002 f9f1 	bl	800526c <HAL_SPI_Transmit>

    HAL_SPI_Transmit(&hspi1, (uint8_t *)&VarEight, 1, 100);
 8002e8a:	221f      	movs	r2, #31
 8002e8c:	18b9      	adds	r1, r7, r2
 8002e8e:	48a8      	ldr	r0, [pc, #672]	; (8003130 <Initialize_Microwave_Generator+0x518>)
 8002e90:	2364      	movs	r3, #100	; 0x64
 8002e92:	2201      	movs	r2, #1
 8002e94:	f002 f9ea 	bl	800526c <HAL_SPI_Transmit>

    HAL_SPI_Transmit(&hspi1, (uint8_t *)&VarNine, 1, 100);
 8002e98:	201e      	movs	r0, #30
 8002e9a:	1839      	adds	r1, r7, r0
 8002e9c:	48a4      	ldr	r0, [pc, #656]	; (8003130 <Initialize_Microwave_Generator+0x518>)
 8002e9e:	2364      	movs	r3, #100	; 0x64
 8002ea0:	2201      	movs	r2, #1
 8002ea2:	f002 f9e3 	bl	800526c <HAL_SPI_Transmit>

    HAL_SPI_Transmit(&hspi1, (uint8_t *)&VarSeven, 1, 100);
 8002ea6:	1979      	adds	r1, r7, r5
 8002ea8:	48a1      	ldr	r0, [pc, #644]	; (8003130 <Initialize_Microwave_Generator+0x518>)
 8002eaa:	2364      	movs	r3, #100	; 0x64
 8002eac:	2201      	movs	r2, #1
 8002eae:	f002 f9dd 	bl	800526c <HAL_SPI_Transmit>

    HAL_GPIO_WritePin(GPIOB, GPIO_PIN_6, GPIO_PIN_SET);  // SEN Assert
 8002eb2:	4b9e      	ldr	r3, [pc, #632]	; (800312c <Initialize_Microwave_Generator+0x514>)
 8002eb4:	2201      	movs	r2, #1
 8002eb6:	2140      	movs	r1, #64	; 0x40
 8002eb8:	0018      	movs	r0, r3
 8002eba:	f001 f9b9 	bl	8004230 <HAL_GPIO_WritePin>

    HAL_Delay(50);
 8002ebe:	2032      	movs	r0, #50	; 0x32
 8002ec0:	f000 fbc8 	bl	8003654 <HAL_Delay>

    // REG 5 4B38

    // Reg07 = 010010110 = o/p -6dB.  For maximum o/p power program 4DB8h.

    HAL_GPIO_WritePin(GPIOB, GPIO_PIN_6, GPIO_PIN_RESET);  // SEN Deassert
 8002ec4:	4b99      	ldr	r3, [pc, #612]	; (800312c <Initialize_Microwave_Generator+0x514>)
 8002ec6:	2200      	movs	r2, #0
 8002ec8:	2140      	movs	r1, #64	; 0x40
 8002eca:	0018      	movs	r0, r3
 8002ecc:	f001 f9b0 	bl	8004230 <HAL_GPIO_WritePin>

    HAL_SPI_Transmit(&hspi1, (uint8_t *)&VarZero, 1, 100);
 8002ed0:	1939      	adds	r1, r7, r4
 8002ed2:	4897      	ldr	r0, [pc, #604]	; (8003130 <Initialize_Microwave_Generator+0x518>)
 8002ed4:	2364      	movs	r3, #100	; 0x64
 8002ed6:	2201      	movs	r2, #1
 8002ed8:	f002 f9c8 	bl	800526c <HAL_SPI_Transmit>

    HAL_SPI_Transmit(&hspi1, (uint8_t *)&VarOneZero, 1, 100);
 8002edc:	201d      	movs	r0, #29
 8002ede:	1839      	adds	r1, r7, r0
 8002ee0:	4893      	ldr	r0, [pc, #588]	; (8003130 <Initialize_Microwave_Generator+0x518>)
 8002ee2:	2364      	movs	r3, #100	; 0x64
 8002ee4:	2201      	movs	r2, #1
 8002ee6:	f002 f9c1 	bl	800526c <HAL_SPI_Transmit>

    HAL_SPI_Transmit(&hspi1, (uint8_t *)&VarOneOne, 1, 100);
 8002eea:	211c      	movs	r1, #28
 8002eec:	1879      	adds	r1, r7, r1
 8002eee:	4890      	ldr	r0, [pc, #576]	; (8003130 <Initialize_Microwave_Generator+0x518>)
 8002ef0:	2364      	movs	r3, #100	; 0x64
 8002ef2:	2201      	movs	r2, #1
 8002ef4:	f002 f9ba 	bl	800526c <HAL_SPI_Transmit>

    HAL_SPI_Transmit(&hspi1, (uint8_t *)&VarSeven, 1, 100);
 8002ef8:	1979      	adds	r1, r7, r5
 8002efa:	488d      	ldr	r0, [pc, #564]	; (8003130 <Initialize_Microwave_Generator+0x518>)
 8002efc:	2364      	movs	r3, #100	; 0x64
 8002efe:	2201      	movs	r2, #1
 8002f00:	f002 f9b4 	bl	800526c <HAL_SPI_Transmit>

    HAL_GPIO_WritePin(GPIOB, GPIO_PIN_6, GPIO_PIN_SET);  // SEN Assert
 8002f04:	4b89      	ldr	r3, [pc, #548]	; (800312c <Initialize_Microwave_Generator+0x514>)
 8002f06:	2201      	movs	r2, #1
 8002f08:	2140      	movs	r1, #64	; 0x40
 8002f0a:	0018      	movs	r0, r3
 8002f0c:	f001 f990 	bl	8004230 <HAL_GPIO_WritePin>

    HAL_Delay(50);
 8002f10:	2032      	movs	r0, #50	; 0x32
 8002f12:	f000 fb9f 	bl	8003654 <HAL_Delay>

    // REG 5 0

    // Close out VCO register programming by writing Reg 5 = 0.

    HAL_GPIO_WritePin(GPIOB, GPIO_PIN_6, GPIO_PIN_RESET);  // SEN Deassert
 8002f16:	4b85      	ldr	r3, [pc, #532]	; (800312c <Initialize_Microwave_Generator+0x514>)
 8002f18:	2200      	movs	r2, #0
 8002f1a:	2140      	movs	r1, #64	; 0x40
 8002f1c:	0018      	movs	r0, r3
 8002f1e:	f001 f987 	bl	8004230 <HAL_GPIO_WritePin>

    HAL_SPI_Transmit(&hspi1, (uint8_t *)&VarZero, 1, 100);
 8002f22:	1939      	adds	r1, r7, r4
 8002f24:	4882      	ldr	r0, [pc, #520]	; (8003130 <Initialize_Microwave_Generator+0x518>)
 8002f26:	2364      	movs	r3, #100	; 0x64
 8002f28:	2201      	movs	r2, #1
 8002f2a:	f002 f99f 	bl	800526c <HAL_SPI_Transmit>

    HAL_SPI_Transmit(&hspi1, (uint8_t *)&VarZero, 1, 100);
 8002f2e:	1939      	adds	r1, r7, r4
 8002f30:	487f      	ldr	r0, [pc, #508]	; (8003130 <Initialize_Microwave_Generator+0x518>)
 8002f32:	2364      	movs	r3, #100	; 0x64
 8002f34:	2201      	movs	r2, #1
 8002f36:	f002 f999 	bl	800526c <HAL_SPI_Transmit>

    HAL_SPI_Transmit(&hspi1, (uint8_t *)&VarZero, 1, 100);
 8002f3a:	1939      	adds	r1, r7, r4
 8002f3c:	487c      	ldr	r0, [pc, #496]	; (8003130 <Initialize_Microwave_Generator+0x518>)
 8002f3e:	2364      	movs	r3, #100	; 0x64
 8002f40:	2201      	movs	r2, #1
 8002f42:	f002 f993 	bl	800526c <HAL_SPI_Transmit>

    HAL_SPI_Transmit(&hspi1, (uint8_t *)&VarSeven, 1, 100);
 8002f46:	1979      	adds	r1, r7, r5
 8002f48:	4879      	ldr	r0, [pc, #484]	; (8003130 <Initialize_Microwave_Generator+0x518>)
 8002f4a:	2364      	movs	r3, #100	; 0x64
 8002f4c:	2201      	movs	r2, #1
 8002f4e:	f002 f98d 	bl	800526c <HAL_SPI_Transmit>

    HAL_GPIO_WritePin(GPIOB, GPIO_PIN_6, GPIO_PIN_SET);  // SEN Assert
 8002f52:	4b76      	ldr	r3, [pc, #472]	; (800312c <Initialize_Microwave_Generator+0x514>)
 8002f54:	2201      	movs	r2, #1
 8002f56:	2140      	movs	r1, #64	; 0x40
 8002f58:	0018      	movs	r0, r3
 8002f5a:	f001 f969 	bl	8004230 <HAL_GPIO_WritePin>

    HAL_Delay(50);
 8002f5e:	2032      	movs	r0, #50	; 0x32
 8002f60:	f000 fb78 	bl	8003654 <HAL_Delay>
    // REG 6 F4A

    // Delta-Sigma Modulator Configuration Register. Program this value for Frac
    // Mode.

    HAL_GPIO_WritePin(GPIOB, GPIO_PIN_6, GPIO_PIN_RESET);  // SEN Deassert
 8002f64:	4b71      	ldr	r3, [pc, #452]	; (800312c <Initialize_Microwave_Generator+0x514>)
 8002f66:	2200      	movs	r2, #0
 8002f68:	2140      	movs	r1, #64	; 0x40
 8002f6a:	0018      	movs	r0, r3
 8002f6c:	f001 f960 	bl	8004230 <HAL_GPIO_WritePin>

    HAL_SPI_Transmit(&hspi1, (uint8_t *)&VarZero, 1, 100);
 8002f70:	1939      	adds	r1, r7, r4
 8002f72:	486f      	ldr	r0, [pc, #444]	; (8003130 <Initialize_Microwave_Generator+0x518>)
 8002f74:	2364      	movs	r3, #100	; 0x64
 8002f76:	2201      	movs	r2, #1
 8002f78:	f002 f978 	bl	800526c <HAL_SPI_Transmit>

    HAL_SPI_Transmit(&hspi1, (uint8_t *)&VarEight, 1, 100);
 8002f7c:	221f      	movs	r2, #31
 8002f7e:	18b9      	adds	r1, r7, r2
 8002f80:	486b      	ldr	r0, [pc, #428]	; (8003130 <Initialize_Microwave_Generator+0x518>)
 8002f82:	2364      	movs	r3, #100	; 0x64
 8002f84:	2201      	movs	r2, #1
 8002f86:	f002 f971 	bl	800526c <HAL_SPI_Transmit>

    HAL_SPI_Transmit(&hspi1, (uint8_t *)&VarOneTwo, 1, 100);
 8002f8a:	221b      	movs	r2, #27
 8002f8c:	18b9      	adds	r1, r7, r2
 8002f8e:	4868      	ldr	r0, [pc, #416]	; (8003130 <Initialize_Microwave_Generator+0x518>)
 8002f90:	2364      	movs	r3, #100	; 0x64
 8002f92:	2201      	movs	r2, #1
 8002f94:	f002 f96a 	bl	800526c <HAL_SPI_Transmit>

    HAL_SPI_Transmit(&hspi1, (uint8_t *)&VarOneThree, 1, 100);
 8002f98:	221a      	movs	r2, #26
 8002f9a:	18b9      	adds	r1, r7, r2
 8002f9c:	4864      	ldr	r0, [pc, #400]	; (8003130 <Initialize_Microwave_Generator+0x518>)
 8002f9e:	2364      	movs	r3, #100	; 0x64
 8002fa0:	2201      	movs	r2, #1
 8002fa2:	f002 f963 	bl	800526c <HAL_SPI_Transmit>

    HAL_GPIO_WritePin(GPIOB, GPIO_PIN_6, GPIO_PIN_SET);  // SEN Assert
 8002fa6:	4b61      	ldr	r3, [pc, #388]	; (800312c <Initialize_Microwave_Generator+0x514>)
 8002fa8:	2201      	movs	r2, #1
 8002faa:	2140      	movs	r1, #64	; 0x40
 8002fac:	0018      	movs	r0, r3
 8002fae:	f001 f93f 	bl	8004230 <HAL_GPIO_WritePin>

    HAL_Delay(50);
 8002fb2:	2032      	movs	r0, #50	; 0x32
 8002fb4:	f000 fb4e 	bl	8003654 <HAL_Delay>

    // 14Dh is the default value for LD programming (correct for 50MHz
    // comparison). For different configurations, especially higher PFD rates,
    // this may need to change.

    HAL_GPIO_WritePin(GPIOB, GPIO_PIN_6, GPIO_PIN_RESET);  // SEN Deassert
 8002fb8:	4b5c      	ldr	r3, [pc, #368]	; (800312c <Initialize_Microwave_Generator+0x514>)
 8002fba:	2200      	movs	r2, #0
 8002fbc:	2140      	movs	r1, #64	; 0x40
 8002fbe:	0018      	movs	r0, r3
 8002fc0:	f001 f936 	bl	8004230 <HAL_GPIO_WritePin>

    HAL_SPI_Transmit(&hspi1, (uint8_t *)&VarZero, 1, 100);
 8002fc4:	1939      	adds	r1, r7, r4
 8002fc6:	485a      	ldr	r0, [pc, #360]	; (8003130 <Initialize_Microwave_Generator+0x518>)
 8002fc8:	2364      	movs	r3, #100	; 0x64
 8002fca:	2201      	movs	r2, #1
 8002fcc:	f002 f94e 	bl	800526c <HAL_SPI_Transmit>

    HAL_SPI_Transmit(&hspi1, (uint8_t *)&VarFour, 1, 100);
 8002fd0:	2323      	movs	r3, #35	; 0x23
 8002fd2:	18f9      	adds	r1, r7, r3
 8002fd4:	4856      	ldr	r0, [pc, #344]	; (8003130 <Initialize_Microwave_Generator+0x518>)
 8002fd6:	2364      	movs	r3, #100	; 0x64
 8002fd8:	2201      	movs	r2, #1
 8002fda:	f002 f947 	bl	800526c <HAL_SPI_Transmit>

    HAL_SPI_Transmit(&hspi1, (uint8_t *)&VarOneFour, 1, 100);
 8002fde:	2319      	movs	r3, #25
 8002fe0:	18f9      	adds	r1, r7, r3
 8002fe2:	4853      	ldr	r0, [pc, #332]	; (8003130 <Initialize_Microwave_Generator+0x518>)
 8002fe4:	2364      	movs	r3, #100	; 0x64
 8002fe6:	2201      	movs	r2, #1
 8002fe8:	f002 f940 	bl	800526c <HAL_SPI_Transmit>

    HAL_SPI_Transmit(&hspi1, (uint8_t *)&VarOneOne, 1, 100);
 8002fec:	211c      	movs	r1, #28
 8002fee:	1879      	adds	r1, r7, r1
 8002ff0:	484f      	ldr	r0, [pc, #316]	; (8003130 <Initialize_Microwave_Generator+0x518>)
 8002ff2:	2364      	movs	r3, #100	; 0x64
 8002ff4:	2201      	movs	r2, #1
 8002ff6:	f002 f939 	bl	800526c <HAL_SPI_Transmit>

    HAL_GPIO_WritePin(GPIOB, GPIO_PIN_6, GPIO_PIN_SET);  // SEN Assert
 8002ffa:	4b4c      	ldr	r3, [pc, #304]	; (800312c <Initialize_Microwave_Generator+0x514>)
 8002ffc:	2201      	movs	r2, #1
 8002ffe:	2140      	movs	r1, #64	; 0x40
 8003000:	0018      	movs	r0, r3
 8003002:	f001 f915 	bl	8004230 <HAL_GPIO_WritePin>

    HAL_Delay(50);
 8003006:	2032      	movs	r0, #50	; 0x32
 8003008:	f000 fb24 	bl	8003654 <HAL_Delay>

    // REG 8 C1BEFF

    // Default value = C1BEFFh.  No need to program.

    HAL_GPIO_WritePin(GPIOB, GPIO_PIN_6, GPIO_PIN_RESET);  // SEN Deassert
 800300c:	4b47      	ldr	r3, [pc, #284]	; (800312c <Initialize_Microwave_Generator+0x514>)
 800300e:	2200      	movs	r2, #0
 8003010:	2140      	movs	r1, #64	; 0x40
 8003012:	0018      	movs	r0, r3
 8003014:	f001 f90c 	bl	8004230 <HAL_GPIO_WritePin>

    HAL_SPI_Transmit(&hspi1, (uint8_t *)&VarOneFive, 1, 100);
 8003018:	2218      	movs	r2, #24
 800301a:	18b9      	adds	r1, r7, r2
 800301c:	4844      	ldr	r0, [pc, #272]	; (8003130 <Initialize_Microwave_Generator+0x518>)
 800301e:	2364      	movs	r3, #100	; 0x64
 8003020:	2201      	movs	r2, #1
 8003022:	f002 f923 	bl	800526c <HAL_SPI_Transmit>

    HAL_SPI_Transmit(&hspi1, (uint8_t *)&VarOneSix, 1, 100);
 8003026:	2117      	movs	r1, #23
 8003028:	1879      	adds	r1, r7, r1
 800302a:	4841      	ldr	r0, [pc, #260]	; (8003130 <Initialize_Microwave_Generator+0x518>)
 800302c:	2364      	movs	r3, #100	; 0x64
 800302e:	2201      	movs	r2, #1
 8003030:	f002 f91c 	bl	800526c <HAL_SPI_Transmit>

    HAL_SPI_Transmit(&hspi1, (uint8_t *)&VarOneSeven, 1, 100);
 8003034:	2016      	movs	r0, #22
 8003036:	1839      	adds	r1, r7, r0
 8003038:	483d      	ldr	r0, [pc, #244]	; (8003130 <Initialize_Microwave_Generator+0x518>)
 800303a:	2364      	movs	r3, #100	; 0x64
 800303c:	2201      	movs	r2, #1
 800303e:	f002 f915 	bl	800526c <HAL_SPI_Transmit>

    HAL_SPI_Transmit(&hspi1, (uint8_t *)&VarOneEight, 1, 100);
 8003042:	2315      	movs	r3, #21
 8003044:	18f9      	adds	r1, r7, r3
 8003046:	483a      	ldr	r0, [pc, #232]	; (8003130 <Initialize_Microwave_Generator+0x518>)
 8003048:	2364      	movs	r3, #100	; 0x64
 800304a:	2201      	movs	r2, #1
 800304c:	f002 f90e 	bl	800526c <HAL_SPI_Transmit>

    HAL_GPIO_WritePin(GPIOB, GPIO_PIN_6, GPIO_PIN_SET);  // SEN Assert
 8003050:	4b36      	ldr	r3, [pc, #216]	; (800312c <Initialize_Microwave_Generator+0x514>)
 8003052:	2201      	movs	r2, #1
 8003054:	2140      	movs	r1, #64	; 0x40
 8003056:	0018      	movs	r0, r3
 8003058:	f001 f8ea 	bl	8004230 <HAL_GPIO_WritePin>

    HAL_Delay(50);
 800305c:	2032      	movs	r0, #50	; 0x32
 800305e:	f000 faf9 	bl	8003654 <HAL_Delay>
    // REG 9 3FFEFD

    // CP Register-Program as needed. 3FFEFDh = 2.54mA CP current with 635uA Up
    // CP Offset current.

    HAL_GPIO_WritePin(GPIOB, GPIO_PIN_6, GPIO_PIN_RESET);  // SEN Deassert
 8003062:	4b32      	ldr	r3, [pc, #200]	; (800312c <Initialize_Microwave_Generator+0x514>)
 8003064:	2200      	movs	r2, #0
 8003066:	2140      	movs	r1, #64	; 0x40
 8003068:	0018      	movs	r0, r3
 800306a:	f001 f8e1 	bl	8004230 <HAL_GPIO_WritePin>

    HAL_SPI_Transmit(&hspi1, (uint8_t *)&VarOneNine, 1, 100);
 800306e:	2214      	movs	r2, #20
 8003070:	18b9      	adds	r1, r7, r2
 8003072:	482f      	ldr	r0, [pc, #188]	; (8003130 <Initialize_Microwave_Generator+0x518>)
 8003074:	2364      	movs	r3, #100	; 0x64
 8003076:	2201      	movs	r2, #1
 8003078:	f002 f8f8 	bl	800526c <HAL_SPI_Transmit>

    HAL_SPI_Transmit(&hspi1, (uint8_t *)&VarTwoZero, 1, 100);
 800307c:	2113      	movs	r1, #19
 800307e:	1879      	adds	r1, r7, r1
 8003080:	482b      	ldr	r0, [pc, #172]	; (8003130 <Initialize_Microwave_Generator+0x518>)
 8003082:	2364      	movs	r3, #100	; 0x64
 8003084:	2201      	movs	r2, #1
 8003086:	f002 f8f1 	bl	800526c <HAL_SPI_Transmit>

    HAL_SPI_Transmit(&hspi1, (uint8_t *)&VarTwoOne, 1, 100);
 800308a:	2012      	movs	r0, #18
 800308c:	1839      	adds	r1, r7, r0
 800308e:	4828      	ldr	r0, [pc, #160]	; (8003130 <Initialize_Microwave_Generator+0x518>)
 8003090:	2364      	movs	r3, #100	; 0x64
 8003092:	2201      	movs	r2, #1
 8003094:	f002 f8ea 	bl	800526c <HAL_SPI_Transmit>

    HAL_SPI_Transmit(&hspi1, (uint8_t *)&VarTwoTwo, 1, 100);
 8003098:	2311      	movs	r3, #17
 800309a:	18f9      	adds	r1, r7, r3
 800309c:	4824      	ldr	r0, [pc, #144]	; (8003130 <Initialize_Microwave_Generator+0x518>)
 800309e:	2364      	movs	r3, #100	; 0x64
 80030a0:	2201      	movs	r2, #1
 80030a2:	f002 f8e3 	bl	800526c <HAL_SPI_Transmit>

    HAL_GPIO_WritePin(GPIOB, GPIO_PIN_6, GPIO_PIN_SET);  // SEN Assert
 80030a6:	4b21      	ldr	r3, [pc, #132]	; (800312c <Initialize_Microwave_Generator+0x514>)
 80030a8:	2201      	movs	r2, #1
 80030aa:	2140      	movs	r1, #64	; 0x40
 80030ac:	0018      	movs	r0, r3
 80030ae:	f001 f8bf 	bl	8004230 <HAL_GPIO_WritePin>

    HAL_Delay(50);
 80030b2:	2032      	movs	r0, #50	; 0x32
 80030b4:	f000 face 	bl	8003654 <HAL_Delay>

    // REG A 2046

    // VCO Tuning Configuration Register-Program this value.

    HAL_GPIO_WritePin(GPIOB, GPIO_PIN_6, GPIO_PIN_RESET);  // SEN Deassert
 80030b8:	4b1c      	ldr	r3, [pc, #112]	; (800312c <Initialize_Microwave_Generator+0x514>)
 80030ba:	2200      	movs	r2, #0
 80030bc:	2140      	movs	r1, #64	; 0x40
 80030be:	0018      	movs	r0, r3
 80030c0:	f001 f8b6 	bl	8004230 <HAL_GPIO_WritePin>

    HAL_SPI_Transmit(&hspi1, (uint8_t *)&VarZero, 1, 100);
 80030c4:	1939      	adds	r1, r7, r4
 80030c6:	481a      	ldr	r0, [pc, #104]	; (8003130 <Initialize_Microwave_Generator+0x518>)
 80030c8:	2364      	movs	r3, #100	; 0x64
 80030ca:	2201      	movs	r2, #1
 80030cc:	f002 f8ce 	bl	800526c <HAL_SPI_Transmit>

    HAL_SPI_Transmit(&hspi1, (uint8_t *)&VarOne, 1, 100);
 80030d0:	19b9      	adds	r1, r7, r6
 80030d2:	4817      	ldr	r0, [pc, #92]	; (8003130 <Initialize_Microwave_Generator+0x518>)
 80030d4:	2364      	movs	r3, #100	; 0x64
 80030d6:	2201      	movs	r2, #1
 80030d8:	f002 f8c8 	bl	800526c <HAL_SPI_Transmit>

    HAL_SPI_Transmit(&hspi1, (uint8_t *)&VarTwoThree, 1, 100);
 80030dc:	2210      	movs	r2, #16
 80030de:	18b9      	adds	r1, r7, r2
 80030e0:	4813      	ldr	r0, [pc, #76]	; (8003130 <Initialize_Microwave_Generator+0x518>)
 80030e2:	2364      	movs	r3, #100	; 0x64
 80030e4:	2201      	movs	r2, #1
 80030e6:	f002 f8c1 	bl	800526c <HAL_SPI_Transmit>

    HAL_SPI_Transmit(&hspi1, (uint8_t *)&VarTwoFour, 1, 100);
 80030ea:	210f      	movs	r1, #15
 80030ec:	1879      	adds	r1, r7, r1
 80030ee:	4810      	ldr	r0, [pc, #64]	; (8003130 <Initialize_Microwave_Generator+0x518>)
 80030f0:	2364      	movs	r3, #100	; 0x64
 80030f2:	2201      	movs	r2, #1
 80030f4:	f002 f8ba 	bl	800526c <HAL_SPI_Transmit>

    HAL_GPIO_WritePin(GPIOB, GPIO_PIN_6, GPIO_PIN_SET);  // SEN Assert
 80030f8:	4b0c      	ldr	r3, [pc, #48]	; (800312c <Initialize_Microwave_Generator+0x514>)
 80030fa:	2201      	movs	r2, #1
 80030fc:	2140      	movs	r1, #64	; 0x40
 80030fe:	0018      	movs	r0, r3
 8003100:	f001 f896 	bl	8004230 <HAL_GPIO_WritePin>

    HAL_Delay(50);
 8003104:	2032      	movs	r0, #50	; 0x32
 8003106:	f000 faa5 	bl	8003654 <HAL_Delay>

    // PFD/CP Control Register.  Default value = F8061h.  4F8061h sets LD/SDO
    // output level to 3.3V from 1.8V default (bit[22]=1 sets 3.3V output
    // level).

    HAL_GPIO_WritePin(GPIOB, GPIO_PIN_6, GPIO_PIN_RESET);  // SEN Deassert
 800310a:	4b08      	ldr	r3, [pc, #32]	; (800312c <Initialize_Microwave_Generator+0x514>)
 800310c:	2200      	movs	r2, #0
 800310e:	2140      	movs	r1, #64	; 0x40
 8003110:	0018      	movs	r0, r3
 8003112:	f001 f88d 	bl	8004230 <HAL_GPIO_WritePin>

    HAL_SPI_Transmit(&hspi1, (uint8_t *)&VarTwoFive, 1, 100);
 8003116:	200e      	movs	r0, #14
 8003118:	1839      	adds	r1, r7, r0
 800311a:	4805      	ldr	r0, [pc, #20]	; (8003130 <Initialize_Microwave_Generator+0x518>)
 800311c:	2364      	movs	r3, #100	; 0x64
 800311e:	2201      	movs	r2, #1
 8003120:	f002 f8a4 	bl	800526c <HAL_SPI_Transmit>

    HAL_SPI_Transmit(&hspi1, (uint8_t *)&VarTwoSix, 1, 100);
 8003124:	230d      	movs	r3, #13
 8003126:	18f9      	adds	r1, r7, r3
 8003128:	e004      	b.n	8003134 <Initialize_Microwave_Generator+0x51c>
 800312a:	46c0      	nop			; (mov r8, r8)
 800312c:	50000400 	.word	0x50000400
 8003130:	200000e8 	.word	0x200000e8
 8003134:	485f      	ldr	r0, [pc, #380]	; (80032b4 <Initialize_Microwave_Generator+0x69c>)
 8003136:	2364      	movs	r3, #100	; 0x64
 8003138:	2201      	movs	r2, #1
 800313a:	f002 f897 	bl	800526c <HAL_SPI_Transmit>

    HAL_SPI_Transmit(&hspi1, (uint8_t *)&VarTwoSeven, 1, 100);
 800313e:	220c      	movs	r2, #12
 8003140:	18b9      	adds	r1, r7, r2
 8003142:	485c      	ldr	r0, [pc, #368]	; (80032b4 <Initialize_Microwave_Generator+0x69c>)
 8003144:	2364      	movs	r3, #100	; 0x64
 8003146:	2201      	movs	r2, #1
 8003148:	f002 f890 	bl	800526c <HAL_SPI_Transmit>

    HAL_SPI_Transmit(&hspi1, (uint8_t *)&VarTwoEight, 1, 100);
 800314c:	210b      	movs	r1, #11
 800314e:	1879      	adds	r1, r7, r1
 8003150:	4858      	ldr	r0, [pc, #352]	; (80032b4 <Initialize_Microwave_Generator+0x69c>)
 8003152:	2364      	movs	r3, #100	; 0x64
 8003154:	2201      	movs	r2, #1
 8003156:	f002 f889 	bl	800526c <HAL_SPI_Transmit>

    HAL_GPIO_WritePin(GPIOB, GPIO_PIN_6, GPIO_PIN_SET);  // SEN Assert
 800315a:	4b57      	ldr	r3, [pc, #348]	; (80032b8 <Initialize_Microwave_Generator+0x6a0>)
 800315c:	2201      	movs	r2, #1
 800315e:	2140      	movs	r1, #64	; 0x40
 8003160:	0018      	movs	r0, r3
 8003162:	f001 f865 	bl	8004230 <HAL_GPIO_WritePin>

    HAL_Delay(50);
 8003166:	2032      	movs	r0, #50	; 0x32
 8003168:	f000 fa74 	bl	8003654 <HAL_Delay>
    // REG C 0

    // Exact Frequency register.  Default value =0h.  No need to program if not
    // using Exact Frequency Mode.

    HAL_GPIO_WritePin(GPIOB, GPIO_PIN_6, GPIO_PIN_RESET);  // SEN Deassert
 800316c:	4b52      	ldr	r3, [pc, #328]	; (80032b8 <Initialize_Microwave_Generator+0x6a0>)
 800316e:	2200      	movs	r2, #0
 8003170:	2140      	movs	r1, #64	; 0x40
 8003172:	0018      	movs	r0, r3
 8003174:	f001 f85c 	bl	8004230 <HAL_GPIO_WritePin>

    HAL_SPI_Transmit(&hspi1, (uint8_t *)&VarZero, 1, 100);
 8003178:	1939      	adds	r1, r7, r4
 800317a:	484e      	ldr	r0, [pc, #312]	; (80032b4 <Initialize_Microwave_Generator+0x69c>)
 800317c:	2364      	movs	r3, #100	; 0x64
 800317e:	2201      	movs	r2, #1
 8003180:	f002 f874 	bl	800526c <HAL_SPI_Transmit>

    HAL_SPI_Transmit(&hspi1, (uint8_t *)&VarZero, 1, 100);
 8003184:	1939      	adds	r1, r7, r4
 8003186:	484b      	ldr	r0, [pc, #300]	; (80032b4 <Initialize_Microwave_Generator+0x69c>)
 8003188:	2364      	movs	r3, #100	; 0x64
 800318a:	2201      	movs	r2, #1
 800318c:	f002 f86e 	bl	800526c <HAL_SPI_Transmit>

    HAL_SPI_Transmit(&hspi1, (uint8_t *)&VarZero, 1, 100);
 8003190:	1939      	adds	r1, r7, r4
 8003192:	4848      	ldr	r0, [pc, #288]	; (80032b4 <Initialize_Microwave_Generator+0x69c>)
 8003194:	2364      	movs	r3, #100	; 0x64
 8003196:	2201      	movs	r2, #1
 8003198:	f002 f868 	bl	800526c <HAL_SPI_Transmit>

    HAL_SPI_Transmit(&hspi1, (uint8_t *)&VarTwoNine, 1, 100);
 800319c:	200a      	movs	r0, #10
 800319e:	1839      	adds	r1, r7, r0
 80031a0:	4844      	ldr	r0, [pc, #272]	; (80032b4 <Initialize_Microwave_Generator+0x69c>)
 80031a2:	2364      	movs	r3, #100	; 0x64
 80031a4:	2201      	movs	r2, #1
 80031a6:	f002 f861 	bl	800526c <HAL_SPI_Transmit>

    HAL_GPIO_WritePin(GPIOB, GPIO_PIN_6, GPIO_PIN_SET);  // SEN Assert
 80031aa:	4b43      	ldr	r3, [pc, #268]	; (80032b8 <Initialize_Microwave_Generator+0x6a0>)
 80031ac:	2201      	movs	r2, #1
 80031ae:	2140      	movs	r1, #64	; 0x40
 80031b0:	0018      	movs	r0, r3
 80031b2:	f001 f83d 	bl	8004230 <HAL_GPIO_WritePin>

    HAL_Delay(50);
 80031b6:	2032      	movs	r0, #50	; 0x32
 80031b8:	f000 fa4c 	bl	8003654 <HAL_Delay>

    // Default vaue =1. 81h configures LD/SDO pin to output LD status always,
    // except during SPI reads when the pin is automatically mux'ed to output
    // the serial data.

    HAL_GPIO_WritePin(GPIOB, GPIO_PIN_6, GPIO_PIN_RESET);  // SEN Deassert
 80031bc:	4b3e      	ldr	r3, [pc, #248]	; (80032b8 <Initialize_Microwave_Generator+0x6a0>)
 80031be:	2200      	movs	r2, #0
 80031c0:	2140      	movs	r1, #64	; 0x40
 80031c2:	0018      	movs	r0, r3
 80031c4:	f001 f834 	bl	8004230 <HAL_GPIO_WritePin>

    HAL_SPI_Transmit(&hspi1, (uint8_t *)&VarZero, 1, 100);
 80031c8:	1939      	adds	r1, r7, r4
 80031ca:	483a      	ldr	r0, [pc, #232]	; (80032b4 <Initialize_Microwave_Generator+0x69c>)
 80031cc:	2364      	movs	r3, #100	; 0x64
 80031ce:	2201      	movs	r2, #1
 80031d0:	f002 f84c 	bl	800526c <HAL_SPI_Transmit>

    HAL_SPI_Transmit(&hspi1, (uint8_t *)&VarZero, 1, 100);
 80031d4:	1939      	adds	r1, r7, r4
 80031d6:	4837      	ldr	r0, [pc, #220]	; (80032b4 <Initialize_Microwave_Generator+0x69c>)
 80031d8:	2364      	movs	r3, #100	; 0x64
 80031da:	2201      	movs	r2, #1
 80031dc:	f002 f846 	bl	800526c <HAL_SPI_Transmit>

    HAL_SPI_Transmit(&hspi1, (uint8_t *)&VarThreeZero, 1, 100);
 80031e0:	2309      	movs	r3, #9
 80031e2:	18f9      	adds	r1, r7, r3
 80031e4:	4833      	ldr	r0, [pc, #204]	; (80032b4 <Initialize_Microwave_Generator+0x69c>)
 80031e6:	2364      	movs	r3, #100	; 0x64
 80031e8:	2201      	movs	r2, #1
 80031ea:	f002 f83f 	bl	800526c <HAL_SPI_Transmit>

    HAL_SPI_Transmit(&hspi1, (uint8_t *)&VarThreeOne, 1, 100);
 80031ee:	2208      	movs	r2, #8
 80031f0:	18b9      	adds	r1, r7, r2
 80031f2:	4830      	ldr	r0, [pc, #192]	; (80032b4 <Initialize_Microwave_Generator+0x69c>)
 80031f4:	2364      	movs	r3, #100	; 0x64
 80031f6:	2201      	movs	r2, #1
 80031f8:	f002 f838 	bl	800526c <HAL_SPI_Transmit>

    HAL_GPIO_WritePin(GPIOB, GPIO_PIN_6, GPIO_PIN_SET);  // SEN Assert
 80031fc:	4b2e      	ldr	r3, [pc, #184]	; (80032b8 <Initialize_Microwave_Generator+0x6a0>)
 80031fe:	2201      	movs	r2, #1
 8003200:	2140      	movs	r1, #64	; 0x40
 8003202:	0018      	movs	r0, r3
 8003204:	f001 f814 	bl	8004230 <HAL_GPIO_WritePin>

    HAL_Delay(50);
 8003208:	2032      	movs	r0, #50	; 0x32
 800320a:	f000 fa23 	bl	8003654 <HAL_Delay>

    // REG 3 2A

    // Integer VCO Divider Register-Progarm as needed to set frequency.

    HAL_GPIO_WritePin(GPIOB, GPIO_PIN_6, GPIO_PIN_RESET);  // SEN Deassert
 800320e:	4b2a      	ldr	r3, [pc, #168]	; (80032b8 <Initialize_Microwave_Generator+0x6a0>)
 8003210:	2200      	movs	r2, #0
 8003212:	2140      	movs	r1, #64	; 0x40
 8003214:	0018      	movs	r0, r3
 8003216:	f001 f80b 	bl	8004230 <HAL_GPIO_WritePin>

    HAL_SPI_Transmit(&hspi1, (uint8_t *)&VarZero, 1, 100);
 800321a:	1939      	adds	r1, r7, r4
 800321c:	4825      	ldr	r0, [pc, #148]	; (80032b4 <Initialize_Microwave_Generator+0x69c>)
 800321e:	2364      	movs	r3, #100	; 0x64
 8003220:	2201      	movs	r2, #1
 8003222:	f002 f823 	bl	800526c <HAL_SPI_Transmit>

    HAL_SPI_Transmit(&hspi1, (uint8_t *)&VarZero, 1, 100);
 8003226:	1939      	adds	r1, r7, r4
 8003228:	4822      	ldr	r0, [pc, #136]	; (80032b4 <Initialize_Microwave_Generator+0x69c>)
 800322a:	2364      	movs	r3, #100	; 0x64
 800322c:	2201      	movs	r2, #1
 800322e:	f002 f81d 	bl	800526c <HAL_SPI_Transmit>

    HAL_SPI_Transmit(&hspi1, (uint8_t *)&VarThreeTwo, 1, 100);
 8003232:	1df9      	adds	r1, r7, #7
 8003234:	481f      	ldr	r0, [pc, #124]	; (80032b4 <Initialize_Microwave_Generator+0x69c>)
 8003236:	2364      	movs	r3, #100	; 0x64
 8003238:	2201      	movs	r2, #1
 800323a:	f002 f817 	bl	800526c <HAL_SPI_Transmit>

    HAL_SPI_Transmit(&hspi1, (uint8_t *)&VarThreeThree, 1, 100);
 800323e:	1db9      	adds	r1, r7, #6
 8003240:	481c      	ldr	r0, [pc, #112]	; (80032b4 <Initialize_Microwave_Generator+0x69c>)
 8003242:	2364      	movs	r3, #100	; 0x64
 8003244:	2201      	movs	r2, #1
 8003246:	f002 f811 	bl	800526c <HAL_SPI_Transmit>

    HAL_GPIO_WritePin(GPIOB, GPIO_PIN_6, GPIO_PIN_SET);  // SEN Assert
 800324a:	4b1b      	ldr	r3, [pc, #108]	; (80032b8 <Initialize_Microwave_Generator+0x6a0>)
 800324c:	2201      	movs	r2, #1
 800324e:	2140      	movs	r1, #64	; 0x40
 8003250:	0018      	movs	r0, r3
 8003252:	f000 ffed 	bl	8004230 <HAL_GPIO_WritePin>

    HAL_Delay(50);
 8003256:	2032      	movs	r0, #50	; 0x32
 8003258:	f000 f9fc 	bl	8003654 <HAL_Delay>
    // REG 4 666666

    // Fractional VCO Divider Register-Program as needed to set frequency. When
    // this register is written, a VCO auto-cal is initiated.

    HAL_GPIO_WritePin(GPIOB, GPIO_PIN_6, GPIO_PIN_RESET);  // SEN Deassert
 800325c:	4b16      	ldr	r3, [pc, #88]	; (80032b8 <Initialize_Microwave_Generator+0x6a0>)
 800325e:	2200      	movs	r2, #0
 8003260:	2140      	movs	r1, #64	; 0x40
 8003262:	0018      	movs	r0, r3
 8003264:	f000 ffe4 	bl	8004230 <HAL_GPIO_WritePin>

    HAL_SPI_Transmit(&hspi1, (uint8_t *)&VarThreeFour, 1, 100);
 8003268:	1d79      	adds	r1, r7, #5
 800326a:	4812      	ldr	r0, [pc, #72]	; (80032b4 <Initialize_Microwave_Generator+0x69c>)
 800326c:	2364      	movs	r3, #100	; 0x64
 800326e:	2201      	movs	r2, #1
 8003270:	f001 fffc 	bl	800526c <HAL_SPI_Transmit>

    HAL_SPI_Transmit(&hspi1, (uint8_t *)&VarThreeFour, 1, 100);
 8003274:	1d79      	adds	r1, r7, #5
 8003276:	480f      	ldr	r0, [pc, #60]	; (80032b4 <Initialize_Microwave_Generator+0x69c>)
 8003278:	2364      	movs	r3, #100	; 0x64
 800327a:	2201      	movs	r2, #1
 800327c:	f001 fff6 	bl	800526c <HAL_SPI_Transmit>

    HAL_SPI_Transmit(&hspi1, (uint8_t *)&VarThreeFour, 1, 100);
 8003280:	1d79      	adds	r1, r7, #5
 8003282:	480c      	ldr	r0, [pc, #48]	; (80032b4 <Initialize_Microwave_Generator+0x69c>)
 8003284:	2364      	movs	r3, #100	; 0x64
 8003286:	2201      	movs	r2, #1
 8003288:	f001 fff0 	bl	800526c <HAL_SPI_Transmit>

    HAL_SPI_Transmit(&hspi1, (uint8_t *)&VarOne, 1, 100);
 800328c:	19b9      	adds	r1, r7, r6
 800328e:	4809      	ldr	r0, [pc, #36]	; (80032b4 <Initialize_Microwave_Generator+0x69c>)
 8003290:	2364      	movs	r3, #100	; 0x64
 8003292:	2201      	movs	r2, #1
 8003294:	f001 ffea 	bl	800526c <HAL_SPI_Transmit>

    HAL_GPIO_WritePin(GPIOB, GPIO_PIN_6, GPIO_PIN_SET);  // SEN Assert
 8003298:	4b07      	ldr	r3, [pc, #28]	; (80032b8 <Initialize_Microwave_Generator+0x6a0>)
 800329a:	2201      	movs	r2, #1
 800329c:	2140      	movs	r1, #64	; 0x40
 800329e:	0018      	movs	r0, r3
 80032a0:	f000 ffc6 	bl	8004230 <HAL_GPIO_WritePin>

    HAL_Delay(50);
 80032a4:	2032      	movs	r0, #50	; 0x32
 80032a6:	f000 f9d5 	bl	8003654 <HAL_Delay>
}
 80032aa:	46c0      	nop			; (mov r8, r8)
 80032ac:	46bd      	mov	sp, r7
 80032ae:	b00b      	add	sp, #44	; 0x2c
 80032b0:	bdf0      	pop	{r4, r5, r6, r7, pc}
 80032b2:	46c0      	nop			; (mov r8, r8)
 80032b4:	200000e8 	.word	0x200000e8
 80032b8:	50000400 	.word	0x50000400

080032bc <Error_Handler>:

  */

void Error_Handler(void)

{
 80032bc:	b580      	push	{r7, lr}
 80032be:	af00      	add	r7, sp, #0
  \details Disables IRQ interrupts by setting the I-bit in the CPSR.
           Can only be executed in Privileged modes.
 */
__STATIC_FORCEINLINE void __disable_irq(void)
{
  __ASM volatile ("cpsid i" : : : "memory");
 80032c0:	b672      	cpsid	i
}
 80032c2:	46c0      	nop			; (mov r8, r8)
    /* User can add his own implementation to report the HAL error return state
     */

    __disable_irq();

    while (1)
 80032c4:	e7fe      	b.n	80032c4 <Error_Handler+0x8>
	...

080032c8 <HAL_MspInit>:
/* USER CODE END 0 */
/**
  * Initializes the Global MSP.
  */
void HAL_MspInit(void)
{
 80032c8:	b580      	push	{r7, lr}
 80032ca:	af00      	add	r7, sp, #0
  /* USER CODE BEGIN MspInit 0 */

  /* USER CODE END MspInit 0 */

  __HAL_RCC_SYSCFG_CLK_ENABLE();
 80032cc:	4b07      	ldr	r3, [pc, #28]	; (80032ec <HAL_MspInit+0x24>)
 80032ce:	6b5a      	ldr	r2, [r3, #52]	; 0x34
 80032d0:	4b06      	ldr	r3, [pc, #24]	; (80032ec <HAL_MspInit+0x24>)
 80032d2:	2101      	movs	r1, #1
 80032d4:	430a      	orrs	r2, r1
 80032d6:	635a      	str	r2, [r3, #52]	; 0x34
  __HAL_RCC_PWR_CLK_ENABLE();
 80032d8:	4b04      	ldr	r3, [pc, #16]	; (80032ec <HAL_MspInit+0x24>)
 80032da:	6b9a      	ldr	r2, [r3, #56]	; 0x38
 80032dc:	4b03      	ldr	r3, [pc, #12]	; (80032ec <HAL_MspInit+0x24>)
 80032de:	2180      	movs	r1, #128	; 0x80
 80032e0:	0549      	lsls	r1, r1, #21
 80032e2:	430a      	orrs	r2, r1
 80032e4:	639a      	str	r2, [r3, #56]	; 0x38
  /* System interrupt init*/

  /* USER CODE BEGIN MspInit 1 */

  /* USER CODE END MspInit 1 */
}
 80032e6:	46c0      	nop			; (mov r8, r8)
 80032e8:	46bd      	mov	sp, r7
 80032ea:	bd80      	pop	{r7, pc}
 80032ec:	40021000 	.word	0x40021000

080032f0 <HAL_ADC_MspInit>:
* This function configures the hardware resources used in this example
* @param hadc: ADC handle pointer
* @retval None
*/
void HAL_ADC_MspInit(ADC_HandleTypeDef* hadc)
{
 80032f0:	b590      	push	{r4, r7, lr}
 80032f2:	b089      	sub	sp, #36	; 0x24
 80032f4:	af00      	add	r7, sp, #0
 80032f6:	6078      	str	r0, [r7, #4]
  GPIO_InitTypeDef GPIO_InitStruct = {0};
 80032f8:	240c      	movs	r4, #12
 80032fa:	193b      	adds	r3, r7, r4
 80032fc:	0018      	movs	r0, r3
 80032fe:	2314      	movs	r3, #20
 8003300:	001a      	movs	r2, r3
 8003302:	2100      	movs	r1, #0
 8003304:	f002 ff75 	bl	80061f2 <memset>
  if(hadc->Instance==ADC1)
 8003308:	687b      	ldr	r3, [r7, #4]
 800330a:	681b      	ldr	r3, [r3, #0]
 800330c:	4a14      	ldr	r2, [pc, #80]	; (8003360 <HAL_ADC_MspInit+0x70>)
 800330e:	4293      	cmp	r3, r2
 8003310:	d122      	bne.n	8003358 <HAL_ADC_MspInit+0x68>
  {
  /* USER CODE BEGIN ADC1_MspInit 0 */

  /* USER CODE END ADC1_MspInit 0 */
    /* Peripheral clock enable */
    __HAL_RCC_ADC1_CLK_ENABLE();
 8003312:	4b14      	ldr	r3, [pc, #80]	; (8003364 <HAL_ADC_MspInit+0x74>)
 8003314:	6b5a      	ldr	r2, [r3, #52]	; 0x34
 8003316:	4b13      	ldr	r3, [pc, #76]	; (8003364 <HAL_ADC_MspInit+0x74>)
 8003318:	2180      	movs	r1, #128	; 0x80
 800331a:	0089      	lsls	r1, r1, #2
 800331c:	430a      	orrs	r2, r1
 800331e:	635a      	str	r2, [r3, #52]	; 0x34

    __HAL_RCC_GPIOA_CLK_ENABLE();
 8003320:	4b10      	ldr	r3, [pc, #64]	; (8003364 <HAL_ADC_MspInit+0x74>)
 8003322:	6ada      	ldr	r2, [r3, #44]	; 0x2c
 8003324:	4b0f      	ldr	r3, [pc, #60]	; (8003364 <HAL_ADC_MspInit+0x74>)
 8003326:	2101      	movs	r1, #1
 8003328:	430a      	orrs	r2, r1
 800332a:	62da      	str	r2, [r3, #44]	; 0x2c
 800332c:	4b0d      	ldr	r3, [pc, #52]	; (8003364 <HAL_ADC_MspInit+0x74>)
 800332e:	6adb      	ldr	r3, [r3, #44]	; 0x2c
 8003330:	2201      	movs	r2, #1
 8003332:	4013      	ands	r3, r2
 8003334:	60bb      	str	r3, [r7, #8]
 8003336:	68bb      	ldr	r3, [r7, #8]
    /**ADC GPIO Configuration
    PA0     ------> ADC_IN0
    */
    GPIO_InitStruct.Pin = GPIO_PIN_0;
 8003338:	193b      	adds	r3, r7, r4
 800333a:	2201      	movs	r2, #1
 800333c:	601a      	str	r2, [r3, #0]
    GPIO_InitStruct.Mode = GPIO_MODE_ANALOG;
 800333e:	193b      	adds	r3, r7, r4
 8003340:	2203      	movs	r2, #3
 8003342:	605a      	str	r2, [r3, #4]
    GPIO_InitStruct.Pull = GPIO_NOPULL;
 8003344:	193b      	adds	r3, r7, r4
 8003346:	2200      	movs	r2, #0
 8003348:	609a      	str	r2, [r3, #8]
    HAL_GPIO_Init(GPIOA, &GPIO_InitStruct);
 800334a:	193a      	adds	r2, r7, r4
 800334c:	23a0      	movs	r3, #160	; 0xa0
 800334e:	05db      	lsls	r3, r3, #23
 8003350:	0011      	movs	r1, r2
 8003352:	0018      	movs	r0, r3
 8003354:	f000 fdee 	bl	8003f34 <HAL_GPIO_Init>
  /* USER CODE BEGIN ADC1_MspInit 1 */

  /* USER CODE END ADC1_MspInit 1 */
  }

}
 8003358:	46c0      	nop			; (mov r8, r8)
 800335a:	46bd      	mov	sp, r7
 800335c:	b009      	add	sp, #36	; 0x24
 800335e:	bd90      	pop	{r4, r7, pc}
 8003360:	40012400 	.word	0x40012400
 8003364:	40021000 	.word	0x40021000

08003368 <HAL_SPI_MspInit>:
* This function configures the hardware resources used in this example
* @param hspi: SPI handle pointer
* @retval None
*/
void HAL_SPI_MspInit(SPI_HandleTypeDef* hspi)
{
 8003368:	b590      	push	{r4, r7, lr}
 800336a:	b089      	sub	sp, #36	; 0x24
 800336c:	af00      	add	r7, sp, #0
 800336e:	6078      	str	r0, [r7, #4]
  GPIO_InitTypeDef GPIO_InitStruct = {0};
 8003370:	240c      	movs	r4, #12
 8003372:	193b      	adds	r3, r7, r4
 8003374:	0018      	movs	r0, r3
 8003376:	2314      	movs	r3, #20
 8003378:	001a      	movs	r2, r3
 800337a:	2100      	movs	r1, #0
 800337c:	f002 ff39 	bl	80061f2 <memset>
  if(hspi->Instance==SPI1)
 8003380:	687b      	ldr	r3, [r7, #4]
 8003382:	681b      	ldr	r3, [r3, #0]
 8003384:	4a18      	ldr	r2, [pc, #96]	; (80033e8 <HAL_SPI_MspInit+0x80>)
 8003386:	4293      	cmp	r3, r2
 8003388:	d129      	bne.n	80033de <HAL_SPI_MspInit+0x76>
  {
  /* USER CODE BEGIN SPI1_MspInit 0 */

  /* USER CODE END SPI1_MspInit 0 */
    /* Peripheral clock enable */
    __HAL_RCC_SPI1_CLK_ENABLE();
 800338a:	4b18      	ldr	r3, [pc, #96]	; (80033ec <HAL_SPI_MspInit+0x84>)
 800338c:	6b5a      	ldr	r2, [r3, #52]	; 0x34
 800338e:	4b17      	ldr	r3, [pc, #92]	; (80033ec <HAL_SPI_MspInit+0x84>)
 8003390:	2180      	movs	r1, #128	; 0x80
 8003392:	0149      	lsls	r1, r1, #5
 8003394:	430a      	orrs	r2, r1
 8003396:	635a      	str	r2, [r3, #52]	; 0x34

    __HAL_RCC_GPIOA_CLK_ENABLE();
 8003398:	4b14      	ldr	r3, [pc, #80]	; (80033ec <HAL_SPI_MspInit+0x84>)
 800339a:	6ada      	ldr	r2, [r3, #44]	; 0x2c
 800339c:	4b13      	ldr	r3, [pc, #76]	; (80033ec <HAL_SPI_MspInit+0x84>)
 800339e:	2101      	movs	r1, #1
 80033a0:	430a      	orrs	r2, r1
 80033a2:	62da      	str	r2, [r3, #44]	; 0x2c
 80033a4:	4b11      	ldr	r3, [pc, #68]	; (80033ec <HAL_SPI_MspInit+0x84>)
 80033a6:	6adb      	ldr	r3, [r3, #44]	; 0x2c
 80033a8:	2201      	movs	r2, #1
 80033aa:	4013      	ands	r3, r2
 80033ac:	60bb      	str	r3, [r7, #8]
 80033ae:	68bb      	ldr	r3, [r7, #8]
    /**SPI1 GPIO Configuration
    PA5     ------> SPI1_SCK
    PA6     ------> SPI1_MISO
    PA7     ------> SPI1_MOSI
    */
    GPIO_InitStruct.Pin = GPIO_PIN_5|GPIO_PIN_6|GPIO_PIN_7;
 80033b0:	0021      	movs	r1, r4
 80033b2:	187b      	adds	r3, r7, r1
 80033b4:	22e0      	movs	r2, #224	; 0xe0
 80033b6:	601a      	str	r2, [r3, #0]
    GPIO_InitStruct.Mode = GPIO_MODE_AF_PP;
 80033b8:	187b      	adds	r3, r7, r1
 80033ba:	2202      	movs	r2, #2
 80033bc:	605a      	str	r2, [r3, #4]
    GPIO_InitStruct.Pull = GPIO_NOPULL;
 80033be:	187b      	adds	r3, r7, r1
 80033c0:	2200      	movs	r2, #0
 80033c2:	609a      	str	r2, [r3, #8]
    GPIO_InitStruct.Speed = GPIO_SPEED_FREQ_VERY_HIGH;
 80033c4:	187b      	adds	r3, r7, r1
 80033c6:	2203      	movs	r2, #3
 80033c8:	60da      	str	r2, [r3, #12]
    GPIO_InitStruct.Alternate = GPIO_AF0_SPI1;
 80033ca:	187b      	adds	r3, r7, r1
 80033cc:	2200      	movs	r2, #0
 80033ce:	611a      	str	r2, [r3, #16]
    HAL_GPIO_Init(GPIOA, &GPIO_InitStruct);
 80033d0:	187a      	adds	r2, r7, r1
 80033d2:	23a0      	movs	r3, #160	; 0xa0
 80033d4:	05db      	lsls	r3, r3, #23
 80033d6:	0011      	movs	r1, r2
 80033d8:	0018      	movs	r0, r3
 80033da:	f000 fdab 	bl	8003f34 <HAL_GPIO_Init>
  /* USER CODE BEGIN SPI1_MspInit 1 */

  /* USER CODE END SPI1_MspInit 1 */
  }

}
 80033de:	46c0      	nop			; (mov r8, r8)
 80033e0:	46bd      	mov	sp, r7
 80033e2:	b009      	add	sp, #36	; 0x24
 80033e4:	bd90      	pop	{r4, r7, pc}
 80033e6:	46c0      	nop			; (mov r8, r8)
 80033e8:	40013000 	.word	0x40013000
 80033ec:	40021000 	.word	0x40021000

080033f0 <HAL_UART_MspInit>:
* This function configures the hardware resources used in this example
* @param huart: UART handle pointer
* @retval None
*/
void HAL_UART_MspInit(UART_HandleTypeDef* huart)
{
 80033f0:	b590      	push	{r4, r7, lr}
 80033f2:	b089      	sub	sp, #36	; 0x24
 80033f4:	af00      	add	r7, sp, #0
 80033f6:	6078      	str	r0, [r7, #4]
  GPIO_InitTypeDef GPIO_InitStruct = {0};
 80033f8:	240c      	movs	r4, #12
 80033fa:	193b      	adds	r3, r7, r4
 80033fc:	0018      	movs	r0, r3
 80033fe:	2314      	movs	r3, #20
 8003400:	001a      	movs	r2, r3
 8003402:	2100      	movs	r1, #0
 8003404:	f002 fef5 	bl	80061f2 <memset>
  if(huart->Instance==USART2)
 8003408:	687b      	ldr	r3, [r7, #4]
 800340a:	681b      	ldr	r3, [r3, #0]
 800340c:	4a18      	ldr	r2, [pc, #96]	; (8003470 <HAL_UART_MspInit+0x80>)
 800340e:	4293      	cmp	r3, r2
 8003410:	d129      	bne.n	8003466 <HAL_UART_MspInit+0x76>
  {
  /* USER CODE BEGIN USART2_MspInit 0 */

  /* USER CODE END USART2_MspInit 0 */
    /* Peripheral clock enable */
    __HAL_RCC_USART2_CLK_ENABLE();
 8003412:	4b18      	ldr	r3, [pc, #96]	; (8003474 <HAL_UART_MspInit+0x84>)
 8003414:	6b9a      	ldr	r2, [r3, #56]	; 0x38
 8003416:	4b17      	ldr	r3, [pc, #92]	; (8003474 <HAL_UART_MspInit+0x84>)
 8003418:	2180      	movs	r1, #128	; 0x80
 800341a:	0289      	lsls	r1, r1, #10
 800341c:	430a      	orrs	r2, r1
 800341e:	639a      	str	r2, [r3, #56]	; 0x38

    __HAL_RCC_GPIOA_CLK_ENABLE();
 8003420:	4b14      	ldr	r3, [pc, #80]	; (8003474 <HAL_UART_MspInit+0x84>)
 8003422:	6ada      	ldr	r2, [r3, #44]	; 0x2c
 8003424:	4b13      	ldr	r3, [pc, #76]	; (8003474 <HAL_UART_MspInit+0x84>)
 8003426:	2101      	movs	r1, #1
 8003428:	430a      	orrs	r2, r1
 800342a:	62da      	str	r2, [r3, #44]	; 0x2c
 800342c:	4b11      	ldr	r3, [pc, #68]	; (8003474 <HAL_UART_MspInit+0x84>)
 800342e:	6adb      	ldr	r3, [r3, #44]	; 0x2c
 8003430:	2201      	movs	r2, #1
 8003432:	4013      	ands	r3, r2
 8003434:	60bb      	str	r3, [r7, #8]
 8003436:	68bb      	ldr	r3, [r7, #8]
    /**USART2 GPIO Configuration
    PA2     ------> USART2_TX
    PA3     ------> USART2_RX
    */
    GPIO_InitStruct.Pin = USART_TX_Pin|USART_RX_Pin;
 8003438:	0021      	movs	r1, r4
 800343a:	187b      	adds	r3, r7, r1
 800343c:	220c      	movs	r2, #12
 800343e:	601a      	str	r2, [r3, #0]
    GPIO_InitStruct.Mode = GPIO_MODE_AF_PP;
 8003440:	187b      	adds	r3, r7, r1
 8003442:	2202      	movs	r2, #2
 8003444:	605a      	str	r2, [r3, #4]
    GPIO_InitStruct.Pull = GPIO_NOPULL;
 8003446:	187b      	adds	r3, r7, r1
 8003448:	2200      	movs	r2, #0
 800344a:	609a      	str	r2, [r3, #8]
    GPIO_InitStruct.Speed = GPIO_SPEED_FREQ_VERY_HIGH;
 800344c:	187b      	adds	r3, r7, r1
 800344e:	2203      	movs	r2, #3
 8003450:	60da      	str	r2, [r3, #12]
    GPIO_InitStruct.Alternate = GPIO_AF4_USART2;
 8003452:	187b      	adds	r3, r7, r1
 8003454:	2204      	movs	r2, #4
 8003456:	611a      	str	r2, [r3, #16]
    HAL_GPIO_Init(GPIOA, &GPIO_InitStruct);
 8003458:	187a      	adds	r2, r7, r1
 800345a:	23a0      	movs	r3, #160	; 0xa0
 800345c:	05db      	lsls	r3, r3, #23
 800345e:	0011      	movs	r1, r2
 8003460:	0018      	movs	r0, r3
 8003462:	f000 fd67 	bl	8003f34 <HAL_GPIO_Init>
  /* USER CODE BEGIN USART2_MspInit 1 */

  /* USER CODE END USART2_MspInit 1 */
  }

}
 8003466:	46c0      	nop			; (mov r8, r8)
 8003468:	46bd      	mov	sp, r7
 800346a:	b009      	add	sp, #36	; 0x24
 800346c:	bd90      	pop	{r4, r7, pc}
 800346e:	46c0      	nop			; (mov r8, r8)
 8003470:	40004400 	.word	0x40004400
 8003474:	40021000 	.word	0x40021000

08003478 <NMI_Handler>:
/******************************************************************************/
/**
  * @brief This function handles Non maskable Interrupt.
  */
void NMI_Handler(void)
{
 8003478:	b580      	push	{r7, lr}
 800347a:	af00      	add	r7, sp, #0
  /* USER CODE BEGIN NonMaskableInt_IRQn 0 */

  /* USER CODE END NonMaskableInt_IRQn 0 */
  /* USER CODE BEGIN NonMaskableInt_IRQn 1 */
  while (1)
 800347c:	e7fe      	b.n	800347c <NMI_Handler+0x4>

0800347e <HardFault_Handler>:

/**
  * @brief This function handles Hard fault interrupt.
  */
void HardFault_Handler(void)
{
 800347e:	b580      	push	{r7, lr}
 8003480:	af00      	add	r7, sp, #0
  /* USER CODE BEGIN HardFault_IRQn 0 */

  /* USER CODE END HardFault_IRQn 0 */
  while (1)
 8003482:	e7fe      	b.n	8003482 <HardFault_Handler+0x4>

08003484 <SVC_Handler>:

/**
  * @brief This function handles System service call via SWI instruction.
  */
void SVC_Handler(void)
{
 8003484:	b580      	push	{r7, lr}
 8003486:	af00      	add	r7, sp, #0

  /* USER CODE END SVC_IRQn 0 */
  /* USER CODE BEGIN SVC_IRQn 1 */

  /* USER CODE END SVC_IRQn 1 */
}
 8003488:	46c0      	nop			; (mov r8, r8)
 800348a:	46bd      	mov	sp, r7
 800348c:	bd80      	pop	{r7, pc}

0800348e <PendSV_Handler>:

/**
  * @brief This function handles Pendable request for system service.
  */
void PendSV_Handler(void)
{
 800348e:	b580      	push	{r7, lr}
 8003490:	af00      	add	r7, sp, #0

  /* USER CODE END PendSV_IRQn 0 */
  /* USER CODE BEGIN PendSV_IRQn 1 */

  /* USER CODE END PendSV_IRQn 1 */
}
 8003492:	46c0      	nop			; (mov r8, r8)
 8003494:	46bd      	mov	sp, r7
 8003496:	bd80      	pop	{r7, pc}

08003498 <SysTick_Handler>:

/**
  * @brief This function handles System tick timer.
  */
void SysTick_Handler(void)
{
 8003498:	b580      	push	{r7, lr}
 800349a:	af00      	add	r7, sp, #0
  /* USER CODE BEGIN SysTick_IRQn 0 */

  /* USER CODE END SysTick_IRQn 0 */
  HAL_IncTick();
 800349c:	f000 f8be 	bl	800361c <HAL_IncTick>
  /* USER CODE BEGIN SysTick_IRQn 1 */

  /* USER CODE END SysTick_IRQn 1 */
}
 80034a0:	46c0      	nop			; (mov r8, r8)
 80034a2:	46bd      	mov	sp, r7
 80034a4:	bd80      	pop	{r7, pc}
	...

080034a8 <_sbrk>:
 *
 * @param incr Memory size
 * @return Pointer to allocated memory
 */
void *_sbrk(ptrdiff_t incr)
{
 80034a8:	b580      	push	{r7, lr}
 80034aa:	b086      	sub	sp, #24
 80034ac:	af00      	add	r7, sp, #0
 80034ae:	6078      	str	r0, [r7, #4]
  extern uint8_t _end; /* Symbol defined in the linker script */
  extern uint8_t _estack; /* Symbol defined in the linker script */
  extern uint32_t _Min_Stack_Size; /* Symbol defined in the linker script */
  const uint32_t stack_limit = (uint32_t)&_estack - (uint32_t)&_Min_Stack_Size;
 80034b0:	4a14      	ldr	r2, [pc, #80]	; (8003504 <_sbrk+0x5c>)
 80034b2:	4b15      	ldr	r3, [pc, #84]	; (8003508 <_sbrk+0x60>)
 80034b4:	1ad3      	subs	r3, r2, r3
 80034b6:	617b      	str	r3, [r7, #20]
  const uint8_t *max_heap = (uint8_t *)stack_limit;
 80034b8:	697b      	ldr	r3, [r7, #20]
 80034ba:	613b      	str	r3, [r7, #16]
  uint8_t *prev_heap_end;

  /* Initialize heap end at first call */
  if (NULL == __sbrk_heap_end)
 80034bc:	4b13      	ldr	r3, [pc, #76]	; (800350c <_sbrk+0x64>)
 80034be:	681b      	ldr	r3, [r3, #0]
 80034c0:	2b00      	cmp	r3, #0
 80034c2:	d102      	bne.n	80034ca <_sbrk+0x22>
  {
    __sbrk_heap_end = &_end;
 80034c4:	4b11      	ldr	r3, [pc, #68]	; (800350c <_sbrk+0x64>)
 80034c6:	4a12      	ldr	r2, [pc, #72]	; (8003510 <_sbrk+0x68>)
 80034c8:	601a      	str	r2, [r3, #0]
  }

  /* Protect heap from growing into the reserved MSP stack */
  if (__sbrk_heap_end + incr > max_heap)
 80034ca:	4b10      	ldr	r3, [pc, #64]	; (800350c <_sbrk+0x64>)
 80034cc:	681a      	ldr	r2, [r3, #0]
 80034ce:	687b      	ldr	r3, [r7, #4]
 80034d0:	18d3      	adds	r3, r2, r3
 80034d2:	693a      	ldr	r2, [r7, #16]
 80034d4:	429a      	cmp	r2, r3
 80034d6:	d207      	bcs.n	80034e8 <_sbrk+0x40>
  {
    errno = ENOMEM;
 80034d8:	f002 fe4e 	bl	8006178 <__errno>
 80034dc:	0003      	movs	r3, r0
 80034de:	220c      	movs	r2, #12
 80034e0:	601a      	str	r2, [r3, #0]
    return (void *)-1;
 80034e2:	2301      	movs	r3, #1
 80034e4:	425b      	negs	r3, r3
 80034e6:	e009      	b.n	80034fc <_sbrk+0x54>
  }

  prev_heap_end = __sbrk_heap_end;
 80034e8:	4b08      	ldr	r3, [pc, #32]	; (800350c <_sbrk+0x64>)
 80034ea:	681b      	ldr	r3, [r3, #0]
 80034ec:	60fb      	str	r3, [r7, #12]
  __sbrk_heap_end += incr;
 80034ee:	4b07      	ldr	r3, [pc, #28]	; (800350c <_sbrk+0x64>)
 80034f0:	681a      	ldr	r2, [r3, #0]
 80034f2:	687b      	ldr	r3, [r7, #4]
 80034f4:	18d2      	adds	r2, r2, r3
 80034f6:	4b05      	ldr	r3, [pc, #20]	; (800350c <_sbrk+0x64>)
 80034f8:	601a      	str	r2, [r3, #0]

  return (void *)prev_heap_end;
 80034fa:	68fb      	ldr	r3, [r7, #12]
}
 80034fc:	0018      	movs	r0, r3
 80034fe:	46bd      	mov	sp, r7
 8003500:	b006      	add	sp, #24
 8003502:	bd80      	pop	{r7, pc}
 8003504:	20005000 	.word	0x20005000
 8003508:	00000400 	.word	0x00000400
 800350c:	200001c4 	.word	0x200001c4
 8003510:	200001e0 	.word	0x200001e0

08003514 <SystemInit>:
  * @brief  Setup the microcontroller system.
  * @param  None
  * @retval None
  */
void SystemInit (void)
{
 8003514:	b580      	push	{r7, lr}
 8003516:	af00      	add	r7, sp, #0
  /* Configure the Vector Table location add offset address ------------------*/
#if defined (USER_VECT_TAB_ADDRESS)
  SCB->VTOR = VECT_TAB_BASE_ADDRESS | VECT_TAB_OFFSET; /* Vector Table Relocation in Internal SRAM */
#endif /* USER_VECT_TAB_ADDRESS */
}
 8003518:	46c0      	nop			; (mov r8, r8)
 800351a:	46bd      	mov	sp, r7
 800351c:	bd80      	pop	{r7, pc}
	...

08003520 <Reset_Handler>:

    .section  .text.Reset_Handler
  .weak  Reset_Handler
  .type  Reset_Handler, %function
Reset_Handler:  
   ldr   r0, =_estack
 8003520:	480d      	ldr	r0, [pc, #52]	; (8003558 <LoopForever+0x2>)
   mov   sp, r0          /* set stack pointer */
 8003522:	4685      	mov	sp, r0

/* Copy the data segment initializers from flash to SRAM */
  ldr r0, =_sdata
 8003524:	480d      	ldr	r0, [pc, #52]	; (800355c <LoopForever+0x6>)
  ldr r1, =_edata
 8003526:	490e      	ldr	r1, [pc, #56]	; (8003560 <LoopForever+0xa>)
  ldr r2, =_sidata
 8003528:	4a0e      	ldr	r2, [pc, #56]	; (8003564 <LoopForever+0xe>)
  movs r3, #0
 800352a:	2300      	movs	r3, #0
  b LoopCopyDataInit
 800352c:	e002      	b.n	8003534 <LoopCopyDataInit>

0800352e <CopyDataInit>:

CopyDataInit:
  ldr r4, [r2, r3]
 800352e:	58d4      	ldr	r4, [r2, r3]
  str r4, [r0, r3]
 8003530:	50c4      	str	r4, [r0, r3]
  adds r3, r3, #4
 8003532:	3304      	adds	r3, #4

08003534 <LoopCopyDataInit>:

LoopCopyDataInit:
  adds r4, r0, r3
 8003534:	18c4      	adds	r4, r0, r3
  cmp r4, r1
 8003536:	428c      	cmp	r4, r1
  bcc CopyDataInit
 8003538:	d3f9      	bcc.n	800352e <CopyDataInit>
  
/* Zero fill the bss segment. */
  ldr r2, =_sbss
 800353a:	4a0b      	ldr	r2, [pc, #44]	; (8003568 <LoopForever+0x12>)
  ldr r4, =_ebss
 800353c:	4c0b      	ldr	r4, [pc, #44]	; (800356c <LoopForever+0x16>)
  movs r3, #0
 800353e:	2300      	movs	r3, #0
  b LoopFillZerobss
 8003540:	e001      	b.n	8003546 <LoopFillZerobss>

08003542 <FillZerobss>:

FillZerobss:
  str  r3, [r2]
 8003542:	6013      	str	r3, [r2, #0]
  adds r2, r2, #4
 8003544:	3204      	adds	r2, #4

08003546 <LoopFillZerobss>:

LoopFillZerobss:
  cmp r2, r4
 8003546:	42a2      	cmp	r2, r4
  bcc FillZerobss
 8003548:	d3fb      	bcc.n	8003542 <FillZerobss>

/* Call the clock system intitialization function.*/
  bl  SystemInit
 800354a:	f7ff ffe3 	bl	8003514 <SystemInit>
/* Call static constructors */
    bl __libc_init_array
 800354e:	f002 fe19 	bl	8006184 <__libc_init_array>
/* Call the application's entry point.*/
  bl  main
 8003552:	f7fe feab 	bl	80022ac <main>

08003556 <LoopForever>:

LoopForever:
    b LoopForever
 8003556:	e7fe      	b.n	8003556 <LoopForever>
   ldr   r0, =_estack
 8003558:	20005000 	.word	0x20005000
  ldr r0, =_sdata
 800355c:	20000000 	.word	0x20000000
  ldr r1, =_edata
 8003560:	20000070 	.word	0x20000070
  ldr r2, =_sidata
 8003564:	08006d44 	.word	0x08006d44
  ldr r2, =_sbss
 8003568:	20000070 	.word	0x20000070
  ldr r4, =_ebss
 800356c:	200001dc 	.word	0x200001dc

08003570 <ADC1_COMP_IRQHandler>:
 * @retval : None
*/
    .section  .text.Default_Handler,"ax",%progbits
Default_Handler:
Infinite_Loop:
  b  Infinite_Loop
 8003570:	e7fe      	b.n	8003570 <ADC1_COMP_IRQHandler>
	...

08003574 <HAL_Init>:
  *        In the default implementation,Systick is used as source of time base.
  *        the tick variable is incremented each 1ms in its ISR.
  * @retval HAL status
  */
HAL_StatusTypeDef HAL_Init(void)
{
 8003574:	b580      	push	{r7, lr}
 8003576:	b082      	sub	sp, #8
 8003578:	af00      	add	r7, sp, #0
  HAL_StatusTypeDef  status = HAL_OK;
 800357a:	1dfb      	adds	r3, r7, #7
 800357c:	2200      	movs	r2, #0
 800357e:	701a      	strb	r2, [r3, #0]
#if (BUFFER_CACHE_DISABLE != 0)
  __HAL_FLASH_BUFFER_CACHE_DISABLE();
#endif /* BUFFER_CACHE_DISABLE */

#if (PREREAD_ENABLE != 0)
  __HAL_FLASH_PREREAD_BUFFER_ENABLE();
 8003580:	4b0b      	ldr	r3, [pc, #44]	; (80035b0 <HAL_Init+0x3c>)
 8003582:	681a      	ldr	r2, [r3, #0]
 8003584:	4b0a      	ldr	r3, [pc, #40]	; (80035b0 <HAL_Init+0x3c>)
 8003586:	2140      	movs	r1, #64	; 0x40
 8003588:	430a      	orrs	r2, r1
 800358a:	601a      	str	r2, [r3, #0]
#if (PREFETCH_ENABLE != 0)
  __HAL_FLASH_PREFETCH_BUFFER_ENABLE();
#endif /* PREFETCH_ENABLE */

  /* Use SysTick as time base source and configure 1ms tick (default clock after Reset is MSI) */
  if (HAL_InitTick(TICK_INT_PRIORITY) != HAL_OK)
 800358c:	2000      	movs	r0, #0
 800358e:	f000 f811 	bl	80035b4 <HAL_InitTick>
 8003592:	1e03      	subs	r3, r0, #0
 8003594:	d003      	beq.n	800359e <HAL_Init+0x2a>
  {
    status = HAL_ERROR;
 8003596:	1dfb      	adds	r3, r7, #7
 8003598:	2201      	movs	r2, #1
 800359a:	701a      	strb	r2, [r3, #0]
 800359c:	e001      	b.n	80035a2 <HAL_Init+0x2e>
  }
  else
  {
    /* Init the low level hardware */
    HAL_MspInit();
 800359e:	f7ff fe93 	bl	80032c8 <HAL_MspInit>
  }

  /* Return function status */
  return status;
 80035a2:	1dfb      	adds	r3, r7, #7
 80035a4:	781b      	ldrb	r3, [r3, #0]
}
 80035a6:	0018      	movs	r0, r3
 80035a8:	46bd      	mov	sp, r7
 80035aa:	b002      	add	sp, #8
 80035ac:	bd80      	pop	{r7, pc}
 80035ae:	46c0      	nop			; (mov r8, r8)
 80035b0:	40022000 	.word	0x40022000

080035b4 <HAL_InitTick>:
  *       implementation  in user file.
  * @param TickPriority Tick interrupt priority.
  * @retval HAL status
  */
__weak HAL_StatusTypeDef HAL_InitTick(uint32_t TickPriority)
{
 80035b4:	b590      	push	{r4, r7, lr}
 80035b6:	b083      	sub	sp, #12
 80035b8:	af00      	add	r7, sp, #0
 80035ba:	6078      	str	r0, [r7, #4]
  /* Configure the SysTick to have interrupt in 1ms time basis*/
  if (HAL_SYSTICK_Config(SystemCoreClock / (1000U / uwTickFreq)) > 0U)
 80035bc:	4b14      	ldr	r3, [pc, #80]	; (8003610 <HAL_InitTick+0x5c>)
 80035be:	681c      	ldr	r4, [r3, #0]
 80035c0:	4b14      	ldr	r3, [pc, #80]	; (8003614 <HAL_InitTick+0x60>)
 80035c2:	781b      	ldrb	r3, [r3, #0]
 80035c4:	0019      	movs	r1, r3
 80035c6:	23fa      	movs	r3, #250	; 0xfa
 80035c8:	0098      	lsls	r0, r3, #2
 80035ca:	f7fc fda7 	bl	800011c <__udivsi3>
 80035ce:	0003      	movs	r3, r0
 80035d0:	0019      	movs	r1, r3
 80035d2:	0020      	movs	r0, r4
 80035d4:	f7fc fda2 	bl	800011c <__udivsi3>
 80035d8:	0003      	movs	r3, r0
 80035da:	0018      	movs	r0, r3
 80035dc:	f000 fc9d 	bl	8003f1a <HAL_SYSTICK_Config>
 80035e0:	1e03      	subs	r3, r0, #0
 80035e2:	d001      	beq.n	80035e8 <HAL_InitTick+0x34>
  {
    return HAL_ERROR;
 80035e4:	2301      	movs	r3, #1
 80035e6:	e00f      	b.n	8003608 <HAL_InitTick+0x54>
  }

  /* Configure the SysTick IRQ priority */
  if (TickPriority < (1UL << __NVIC_PRIO_BITS))
 80035e8:	687b      	ldr	r3, [r7, #4]
 80035ea:	2b03      	cmp	r3, #3
 80035ec:	d80b      	bhi.n	8003606 <HAL_InitTick+0x52>
  {
    HAL_NVIC_SetPriority(SysTick_IRQn, TickPriority, 0U);
 80035ee:	6879      	ldr	r1, [r7, #4]
 80035f0:	2301      	movs	r3, #1
 80035f2:	425b      	negs	r3, r3
 80035f4:	2200      	movs	r2, #0
 80035f6:	0018      	movs	r0, r3
 80035f8:	f000 fc7a 	bl	8003ef0 <HAL_NVIC_SetPriority>
    uwTickPrio = TickPriority;
 80035fc:	4b06      	ldr	r3, [pc, #24]	; (8003618 <HAL_InitTick+0x64>)
 80035fe:	687a      	ldr	r2, [r7, #4]
 8003600:	601a      	str	r2, [r3, #0]
  {
    return HAL_ERROR;
  }

  /* Return function status */
  return HAL_OK;
 8003602:	2300      	movs	r3, #0
 8003604:	e000      	b.n	8003608 <HAL_InitTick+0x54>
    return HAL_ERROR;
 8003606:	2301      	movs	r3, #1
}
 8003608:	0018      	movs	r0, r3
 800360a:	46bd      	mov	sp, r7
 800360c:	b003      	add	sp, #12
 800360e:	bd90      	pop	{r4, r7, pc}
 8003610:	20000000 	.word	0x20000000
 8003614:	20000008 	.word	0x20000008
 8003618:	20000004 	.word	0x20000004

0800361c <HAL_IncTick>:
 * @note This function is declared as __weak to be overwritten in case of other
  *      implementations in user file.
  * @retval None
  */
__weak void HAL_IncTick(void)
{
 800361c:	b580      	push	{r7, lr}
 800361e:	af00      	add	r7, sp, #0
  uwTick += uwTickFreq;
 8003620:	4b05      	ldr	r3, [pc, #20]	; (8003638 <HAL_IncTick+0x1c>)
 8003622:	781b      	ldrb	r3, [r3, #0]
 8003624:	001a      	movs	r2, r3
 8003626:	4b05      	ldr	r3, [pc, #20]	; (800363c <HAL_IncTick+0x20>)
 8003628:	681b      	ldr	r3, [r3, #0]
 800362a:	18d2      	adds	r2, r2, r3
 800362c:	4b03      	ldr	r3, [pc, #12]	; (800363c <HAL_IncTick+0x20>)
 800362e:	601a      	str	r2, [r3, #0]
}
 8003630:	46c0      	nop			; (mov r8, r8)
 8003632:	46bd      	mov	sp, r7
 8003634:	bd80      	pop	{r7, pc}
 8003636:	46c0      	nop			; (mov r8, r8)
 8003638:	20000008 	.word	0x20000008
 800363c:	200001c8 	.word	0x200001c8

08003640 <HAL_GetTick>:
  * @note This function is declared as __weak to be overwritten in case of other
  *       implementations in user file.
  * @retval tick value
  */
__weak uint32_t HAL_GetTick(void)
{
 8003640:	b580      	push	{r7, lr}
 8003642:	af00      	add	r7, sp, #0
  return uwTick;
 8003644:	4b02      	ldr	r3, [pc, #8]	; (8003650 <HAL_GetTick+0x10>)
 8003646:	681b      	ldr	r3, [r3, #0]
}
 8003648:	0018      	movs	r0, r3
 800364a:	46bd      	mov	sp, r7
 800364c:	bd80      	pop	{r7, pc}
 800364e:	46c0      	nop			; (mov r8, r8)
 8003650:	200001c8 	.word	0x200001c8

08003654 <HAL_Delay>:
  *       implementations in user file.
  * @param Delay specifies the delay time length, in milliseconds.
  * @retval None
  */
__weak void HAL_Delay(uint32_t Delay)
{
 8003654:	b580      	push	{r7, lr}
 8003656:	b084      	sub	sp, #16
 8003658:	af00      	add	r7, sp, #0
 800365a:	6078      	str	r0, [r7, #4]
  uint32_t tickstart = HAL_GetTick();
 800365c:	f7ff fff0 	bl	8003640 <HAL_GetTick>
 8003660:	0003      	movs	r3, r0
 8003662:	60bb      	str	r3, [r7, #8]
  uint32_t wait = Delay;
 8003664:	687b      	ldr	r3, [r7, #4]
 8003666:	60fb      	str	r3, [r7, #12]

  /* Add a freq to guarantee minimum wait */
  if (wait < HAL_MAX_DELAY)
 8003668:	68fb      	ldr	r3, [r7, #12]
 800366a:	3301      	adds	r3, #1
 800366c:	d005      	beq.n	800367a <HAL_Delay+0x26>
  {
    wait += (uint32_t)(uwTickFreq);
 800366e:	4b0a      	ldr	r3, [pc, #40]	; (8003698 <HAL_Delay+0x44>)
 8003670:	781b      	ldrb	r3, [r3, #0]
 8003672:	001a      	movs	r2, r3
 8003674:	68fb      	ldr	r3, [r7, #12]
 8003676:	189b      	adds	r3, r3, r2
 8003678:	60fb      	str	r3, [r7, #12]
  }

  while((HAL_GetTick() - tickstart) < wait)
 800367a:	46c0      	nop			; (mov r8, r8)
 800367c:	f7ff ffe0 	bl	8003640 <HAL_GetTick>
 8003680:	0002      	movs	r2, r0
 8003682:	68bb      	ldr	r3, [r7, #8]
 8003684:	1ad3      	subs	r3, r2, r3
 8003686:	68fa      	ldr	r2, [r7, #12]
 8003688:	429a      	cmp	r2, r3
 800368a:	d8f7      	bhi.n	800367c <HAL_Delay+0x28>
  {
  }
}
 800368c:	46c0      	nop			; (mov r8, r8)
 800368e:	46c0      	nop			; (mov r8, r8)
 8003690:	46bd      	mov	sp, r7
 8003692:	b004      	add	sp, #16
 8003694:	bd80      	pop	{r7, pc}
 8003696:	46c0      	nop			; (mov r8, r8)
 8003698:	20000008 	.word	0x20000008

0800369c <HAL_ADC_Init>:
  *         function "HAL_ADCEx_EnableVREFINTTempSensor()" must be called similarilly.  
  * @param  hadc ADC handle
  * @retval HAL status
  */
HAL_StatusTypeDef HAL_ADC_Init(ADC_HandleTypeDef* hadc)
{
 800369c:	b580      	push	{r7, lr}
 800369e:	b082      	sub	sp, #8
 80036a0:	af00      	add	r7, sp, #0
 80036a2:	6078      	str	r0, [r7, #4]
 
  /* Check ADC handle */
  if(hadc == NULL)
 80036a4:	687b      	ldr	r3, [r7, #4]
 80036a6:	2b00      	cmp	r3, #0
 80036a8:	d101      	bne.n	80036ae <HAL_ADC_Init+0x12>
  {
    return HAL_ERROR;
 80036aa:	2301      	movs	r3, #1
 80036ac:	e159      	b.n	8003962 <HAL_ADC_Init+0x2c6>
  /* Refer to header of this file for more details on clock enabling procedure*/
  
  /* Actions performed only if ADC is coming from state reset:                */
  /* - Initialization of ADC MSP                                              */
  /* - ADC voltage regulator enable                                           */
  if(hadc->State == HAL_ADC_STATE_RESET)
 80036ae:	687b      	ldr	r3, [r7, #4]
 80036b0:	6d5b      	ldr	r3, [r3, #84]	; 0x54
 80036b2:	2b00      	cmp	r3, #0
 80036b4:	d10a      	bne.n	80036cc <HAL_ADC_Init+0x30>
  {
    /* Initialize ADC error code */
    ADC_CLEAR_ERRORCODE(hadc);
 80036b6:	687b      	ldr	r3, [r7, #4]
 80036b8:	2200      	movs	r2, #0
 80036ba:	659a      	str	r2, [r3, #88]	; 0x58
    
    /* Allocate lock resource and initialize it */
    hadc->Lock = HAL_UNLOCKED;
 80036bc:	687b      	ldr	r3, [r7, #4]
 80036be:	2250      	movs	r2, #80	; 0x50
 80036c0:	2100      	movs	r1, #0
 80036c2:	5499      	strb	r1, [r3, r2]
    
    /* Init the low level hardware */
    hadc->MspInitCallback(hadc);
#else
    /* Init the low level hardware */
    HAL_ADC_MspInit(hadc);
 80036c4:	687b      	ldr	r3, [r7, #4]
 80036c6:	0018      	movs	r0, r3
 80036c8:	f7ff fe12 	bl	80032f0 <HAL_ADC_MspInit>
  /* Configuration of ADC parameters if previous preliminary actions are      */ 
  /* correctly completed.                                                     */
  /* and if there is no conversion on going on regular group (ADC can be      */
  /* enabled anyway, in case of call of this function to update a parameter   */
  /* on the fly).                                                             */
  if (HAL_IS_BIT_SET(hadc->State, HAL_ADC_STATE_ERROR_INTERNAL) ||
 80036cc:	687b      	ldr	r3, [r7, #4]
 80036ce:	6d5b      	ldr	r3, [r3, #84]	; 0x54
 80036d0:	2210      	movs	r2, #16
 80036d2:	4013      	ands	r3, r2
 80036d4:	2b10      	cmp	r3, #16
 80036d6:	d005      	beq.n	80036e4 <HAL_ADC_Init+0x48>
     (ADC_IS_CONVERSION_ONGOING_REGULAR(hadc) != RESET)  )
 80036d8:	687b      	ldr	r3, [r7, #4]
 80036da:	681b      	ldr	r3, [r3, #0]
 80036dc:	689b      	ldr	r3, [r3, #8]
 80036de:	2204      	movs	r2, #4
 80036e0:	4013      	ands	r3, r2
  if (HAL_IS_BIT_SET(hadc->State, HAL_ADC_STATE_ERROR_INTERNAL) ||
 80036e2:	d00b      	beq.n	80036fc <HAL_ADC_Init+0x60>
  {
    /* Update ADC state machine to error */
    SET_BIT(hadc->State, HAL_ADC_STATE_ERROR_INTERNAL);
 80036e4:	687b      	ldr	r3, [r7, #4]
 80036e6:	6d5b      	ldr	r3, [r3, #84]	; 0x54
 80036e8:	2210      	movs	r2, #16
 80036ea:	431a      	orrs	r2, r3
 80036ec:	687b      	ldr	r3, [r7, #4]
 80036ee:	655a      	str	r2, [r3, #84]	; 0x54
        
    /* Process unlocked */
    __HAL_UNLOCK(hadc);
 80036f0:	687b      	ldr	r3, [r7, #4]
 80036f2:	2250      	movs	r2, #80	; 0x50
 80036f4:	2100      	movs	r1, #0
 80036f6:	5499      	strb	r1, [r3, r2]
    return HAL_ERROR;
 80036f8:	2301      	movs	r3, #1
 80036fa:	e132      	b.n	8003962 <HAL_ADC_Init+0x2c6>
  }

  /* Set ADC state */
  ADC_STATE_CLR_SET(hadc->State,
 80036fc:	687b      	ldr	r3, [r7, #4]
 80036fe:	6d5b      	ldr	r3, [r3, #84]	; 0x54
 8003700:	4a9a      	ldr	r2, [pc, #616]	; (800396c <HAL_ADC_Init+0x2d0>)
 8003702:	4013      	ands	r3, r2
 8003704:	2202      	movs	r2, #2
 8003706:	431a      	orrs	r2, r3
 8003708:	687b      	ldr	r3, [r7, #4]
 800370a:	655a      	str	r2, [r3, #84]	; 0x54
  /* Parameters update conditioned to ADC state:                            */
  /* Parameters that can be updated only when ADC is disabled:              */
  /*  - ADC clock mode                                                      */
  /*  - ADC clock prescaler                                                 */
  /*  - ADC Resolution                                                      */
  if (ADC_IS_ENABLE(hadc) == RESET)
 800370c:	687b      	ldr	r3, [r7, #4]
 800370e:	681b      	ldr	r3, [r3, #0]
 8003710:	689b      	ldr	r3, [r3, #8]
 8003712:	2203      	movs	r2, #3
 8003714:	4013      	ands	r3, r2
 8003716:	2b01      	cmp	r3, #1
 8003718:	d108      	bne.n	800372c <HAL_ADC_Init+0x90>
 800371a:	687b      	ldr	r3, [r7, #4]
 800371c:	681b      	ldr	r3, [r3, #0]
 800371e:	681b      	ldr	r3, [r3, #0]
 8003720:	2201      	movs	r2, #1
 8003722:	4013      	ands	r3, r2
 8003724:	2b01      	cmp	r3, #1
 8003726:	d101      	bne.n	800372c <HAL_ADC_Init+0x90>
 8003728:	2301      	movs	r3, #1
 800372a:	e000      	b.n	800372e <HAL_ADC_Init+0x92>
 800372c:	2300      	movs	r3, #0
 800372e:	2b00      	cmp	r3, #0
 8003730:	d149      	bne.n	80037c6 <HAL_ADC_Init+0x12a>
    /*   - internal measurement paths: Vbat, temperature sensor, Vref       */
    /*     (set into HAL_ADC_ConfigChannel() )                              */
   
    /* Configuration of ADC clock: clock source PCLK or asynchronous with 
    selectable prescaler */
    __HAL_ADC_CLOCK_PRESCALER(hadc);
 8003732:	687b      	ldr	r3, [r7, #4]
 8003734:	685a      	ldr	r2, [r3, #4]
 8003736:	23c0      	movs	r3, #192	; 0xc0
 8003738:	061b      	lsls	r3, r3, #24
 800373a:	429a      	cmp	r2, r3
 800373c:	d00b      	beq.n	8003756 <HAL_ADC_Init+0xba>
 800373e:	687b      	ldr	r3, [r7, #4]
 8003740:	685a      	ldr	r2, [r3, #4]
 8003742:	2380      	movs	r3, #128	; 0x80
 8003744:	05db      	lsls	r3, r3, #23
 8003746:	429a      	cmp	r2, r3
 8003748:	d005      	beq.n	8003756 <HAL_ADC_Init+0xba>
 800374a:	687b      	ldr	r3, [r7, #4]
 800374c:	685a      	ldr	r2, [r3, #4]
 800374e:	2380      	movs	r3, #128	; 0x80
 8003750:	061b      	lsls	r3, r3, #24
 8003752:	429a      	cmp	r2, r3
 8003754:	d111      	bne.n	800377a <HAL_ADC_Init+0xde>
 8003756:	687b      	ldr	r3, [r7, #4]
 8003758:	681b      	ldr	r3, [r3, #0]
 800375a:	691a      	ldr	r2, [r3, #16]
 800375c:	687b      	ldr	r3, [r7, #4]
 800375e:	681b      	ldr	r3, [r3, #0]
 8003760:	0092      	lsls	r2, r2, #2
 8003762:	0892      	lsrs	r2, r2, #2
 8003764:	611a      	str	r2, [r3, #16]
 8003766:	687b      	ldr	r3, [r7, #4]
 8003768:	681b      	ldr	r3, [r3, #0]
 800376a:	6919      	ldr	r1, [r3, #16]
 800376c:	687b      	ldr	r3, [r7, #4]
 800376e:	685a      	ldr	r2, [r3, #4]
 8003770:	687b      	ldr	r3, [r7, #4]
 8003772:	681b      	ldr	r3, [r3, #0]
 8003774:	430a      	orrs	r2, r1
 8003776:	611a      	str	r2, [r3, #16]
 8003778:	e014      	b.n	80037a4 <HAL_ADC_Init+0x108>
 800377a:	687b      	ldr	r3, [r7, #4]
 800377c:	681b      	ldr	r3, [r3, #0]
 800377e:	691a      	ldr	r2, [r3, #16]
 8003780:	687b      	ldr	r3, [r7, #4]
 8003782:	681b      	ldr	r3, [r3, #0]
 8003784:	0092      	lsls	r2, r2, #2
 8003786:	0892      	lsrs	r2, r2, #2
 8003788:	611a      	str	r2, [r3, #16]
 800378a:	4b79      	ldr	r3, [pc, #484]	; (8003970 <HAL_ADC_Init+0x2d4>)
 800378c:	681a      	ldr	r2, [r3, #0]
 800378e:	4b78      	ldr	r3, [pc, #480]	; (8003970 <HAL_ADC_Init+0x2d4>)
 8003790:	4978      	ldr	r1, [pc, #480]	; (8003974 <HAL_ADC_Init+0x2d8>)
 8003792:	400a      	ands	r2, r1
 8003794:	601a      	str	r2, [r3, #0]
 8003796:	4b76      	ldr	r3, [pc, #472]	; (8003970 <HAL_ADC_Init+0x2d4>)
 8003798:	6819      	ldr	r1, [r3, #0]
 800379a:	687b      	ldr	r3, [r7, #4]
 800379c:	685a      	ldr	r2, [r3, #4]
 800379e:	4b74      	ldr	r3, [pc, #464]	; (8003970 <HAL_ADC_Init+0x2d4>)
 80037a0:	430a      	orrs	r2, r1
 80037a2:	601a      	str	r2, [r3, #0]
    
    /* Configuration of ADC:                                                */
    /*  - Resolution                                                        */
    hadc->Instance->CFGR1 &= ~( ADC_CFGR1_RES);
 80037a4:	687b      	ldr	r3, [r7, #4]
 80037a6:	681b      	ldr	r3, [r3, #0]
 80037a8:	68da      	ldr	r2, [r3, #12]
 80037aa:	687b      	ldr	r3, [r7, #4]
 80037ac:	681b      	ldr	r3, [r3, #0]
 80037ae:	2118      	movs	r1, #24
 80037b0:	438a      	bics	r2, r1
 80037b2:	60da      	str	r2, [r3, #12]
    hadc->Instance->CFGR1 |= hadc->Init.Resolution;    
 80037b4:	687b      	ldr	r3, [r7, #4]
 80037b6:	681b      	ldr	r3, [r3, #0]
 80037b8:	68d9      	ldr	r1, [r3, #12]
 80037ba:	687b      	ldr	r3, [r7, #4]
 80037bc:	689a      	ldr	r2, [r3, #8]
 80037be:	687b      	ldr	r3, [r7, #4]
 80037c0:	681b      	ldr	r3, [r3, #0]
 80037c2:	430a      	orrs	r2, r1
 80037c4:	60da      	str	r2, [r3, #12]
  }
  
  /* Set the Low Frequency mode */
  ADC->CCR &= (uint32_t)~ADC_CCR_LFMEN;
 80037c6:	4b6a      	ldr	r3, [pc, #424]	; (8003970 <HAL_ADC_Init+0x2d4>)
 80037c8:	681a      	ldr	r2, [r3, #0]
 80037ca:	4b69      	ldr	r3, [pc, #420]	; (8003970 <HAL_ADC_Init+0x2d4>)
 80037cc:	496a      	ldr	r1, [pc, #424]	; (8003978 <HAL_ADC_Init+0x2dc>)
 80037ce:	400a      	ands	r2, r1
 80037d0:	601a      	str	r2, [r3, #0]
  ADC->CCR |=__HAL_ADC_CCR_LOWFREQUENCY(hadc->Init.LowPowerFrequencyMode);  
 80037d2:	4b67      	ldr	r3, [pc, #412]	; (8003970 <HAL_ADC_Init+0x2d4>)
 80037d4:	6819      	ldr	r1, [r3, #0]
 80037d6:	687b      	ldr	r3, [r7, #4]
 80037d8:	6b5b      	ldr	r3, [r3, #52]	; 0x34
 80037da:	065a      	lsls	r2, r3, #25
 80037dc:	4b64      	ldr	r3, [pc, #400]	; (8003970 <HAL_ADC_Init+0x2d4>)
 80037de:	430a      	orrs	r2, r1
 80037e0:	601a      	str	r2, [r3, #0]
   
  /* Enable voltage regulator (if disabled at this step) */
  if (HAL_IS_BIT_CLR(hadc->Instance->CR, ADC_CR_ADVREGEN))
 80037e2:	687b      	ldr	r3, [r7, #4]
 80037e4:	681b      	ldr	r3, [r3, #0]
 80037e6:	689a      	ldr	r2, [r3, #8]
 80037e8:	2380      	movs	r3, #128	; 0x80
 80037ea:	055b      	lsls	r3, r3, #21
 80037ec:	4013      	ands	r3, r2
 80037ee:	d108      	bne.n	8003802 <HAL_ADC_Init+0x166>
  {
    /* Set ADVREGEN bit */
    hadc->Instance->CR |= ADC_CR_ADVREGEN;
 80037f0:	687b      	ldr	r3, [r7, #4]
 80037f2:	681b      	ldr	r3, [r3, #0]
 80037f4:	689a      	ldr	r2, [r3, #8]
 80037f6:	687b      	ldr	r3, [r7, #4]
 80037f8:	681b      	ldr	r3, [r3, #0]
 80037fa:	2180      	movs	r1, #128	; 0x80
 80037fc:	0549      	lsls	r1, r1, #21
 80037fe:	430a      	orrs	r2, r1
 8003800:	609a      	str	r2, [r3, #8]
  /*  - Continuous conversion mode                                            */
  /*  - DMA continuous request                                                */
  /*  - Overrun                                                               */
  /*  - AutoDelay feature                                                     */
  /*  - Discontinuous mode                                                    */
  hadc->Instance->CFGR1 &= ~(ADC_CFGR1_ALIGN   |
 8003802:	687b      	ldr	r3, [r7, #4]
 8003804:	681b      	ldr	r3, [r3, #0]
 8003806:	68da      	ldr	r2, [r3, #12]
 8003808:	687b      	ldr	r3, [r7, #4]
 800380a:	681b      	ldr	r3, [r3, #0]
 800380c:	495b      	ldr	r1, [pc, #364]	; (800397c <HAL_ADC_Init+0x2e0>)
 800380e:	400a      	ands	r2, r1
 8003810:	60da      	str	r2, [r3, #12]
                             ADC_CFGR1_OVRMOD  |
                             ADC_CFGR1_AUTDLY  |
                             ADC_CFGR1_AUTOFF  |
                             ADC_CFGR1_DISCEN   );
  
  hadc->Instance->CFGR1 |= (hadc->Init.DataAlign                             |
 8003812:	687b      	ldr	r3, [r7, #4]
 8003814:	681b      	ldr	r3, [r3, #0]
 8003816:	68d9      	ldr	r1, [r3, #12]
 8003818:	687b      	ldr	r3, [r7, #4]
 800381a:	68da      	ldr	r2, [r3, #12]
                            ADC_SCANDIR(hadc->Init.ScanConvMode)             |
 800381c:	687b      	ldr	r3, [r7, #4]
 800381e:	691b      	ldr	r3, [r3, #16]
 8003820:	2b02      	cmp	r3, #2
 8003822:	d101      	bne.n	8003828 <HAL_ADC_Init+0x18c>
 8003824:	2304      	movs	r3, #4
 8003826:	e000      	b.n	800382a <HAL_ADC_Init+0x18e>
 8003828:	2300      	movs	r3, #0
  hadc->Instance->CFGR1 |= (hadc->Init.DataAlign                             |
 800382a:	431a      	orrs	r2, r3
                            ADC_CONTINUOUS((uint32_t)hadc->Init.ContinuousConvMode)    |
 800382c:	687b      	ldr	r3, [r7, #4]
 800382e:	2020      	movs	r0, #32
 8003830:	5c1b      	ldrb	r3, [r3, r0]
 8003832:	035b      	lsls	r3, r3, #13
                            ADC_SCANDIR(hadc->Init.ScanConvMode)             |
 8003834:	431a      	orrs	r2, r3
                            ADC_DMACONTREQ((uint32_t)hadc->Init.DMAContinuousRequests) |
 8003836:	687b      	ldr	r3, [r7, #4]
 8003838:	202c      	movs	r0, #44	; 0x2c
 800383a:	5c1b      	ldrb	r3, [r3, r0]
 800383c:	005b      	lsls	r3, r3, #1
                            ADC_CONTINUOUS((uint32_t)hadc->Init.ContinuousConvMode)    |
 800383e:	431a      	orrs	r2, r3
                            hadc->Init.Overrun                               |
 8003840:	687b      	ldr	r3, [r7, #4]
 8003842:	6b1b      	ldr	r3, [r3, #48]	; 0x30
                            ADC_DMACONTREQ((uint32_t)hadc->Init.DMAContinuousRequests) |
 8003844:	431a      	orrs	r2, r3
                            __HAL_ADC_CFGR1_AutoDelay(hadc->Init.LowPowerAutoWait) |
 8003846:	687b      	ldr	r3, [r7, #4]
 8003848:	699b      	ldr	r3, [r3, #24]
 800384a:	039b      	lsls	r3, r3, #14
                            hadc->Init.Overrun                               |
 800384c:	431a      	orrs	r2, r3
                            __HAL_ADC_CFGR1_AUTOFF(hadc->Init.LowPowerAutoPowerOff));
 800384e:	687b      	ldr	r3, [r7, #4]
 8003850:	69db      	ldr	r3, [r3, #28]
 8003852:	03db      	lsls	r3, r3, #15
                            __HAL_ADC_CFGR1_AutoDelay(hadc->Init.LowPowerAutoWait) |
 8003854:	431a      	orrs	r2, r3
  hadc->Instance->CFGR1 |= (hadc->Init.DataAlign                             |
 8003856:	687b      	ldr	r3, [r7, #4]
 8003858:	681b      	ldr	r3, [r3, #0]
 800385a:	430a      	orrs	r2, r1
 800385c:	60da      	str	r2, [r3, #12]
  /* Enable external trigger if trigger selection is different of software  */
  /* start.                                                                 */
  /* Note: This configuration keeps the hardware feature of parameter       */
  /*       ExternalTrigConvEdge "trigger edge none" equivalent to           */
  /*       software start.                                                  */
  if (hadc->Init.ExternalTrigConv != ADC_SOFTWARE_START)
 800385e:	687b      	ldr	r3, [r7, #4]
 8003860:	6a5a      	ldr	r2, [r3, #36]	; 0x24
 8003862:	23c2      	movs	r3, #194	; 0xc2
 8003864:	33ff      	adds	r3, #255	; 0xff
 8003866:	429a      	cmp	r2, r3
 8003868:	d00b      	beq.n	8003882 <HAL_ADC_Init+0x1e6>
  {
    hadc->Instance->CFGR1 |= hadc->Init.ExternalTrigConv |
 800386a:	687b      	ldr	r3, [r7, #4]
 800386c:	681b      	ldr	r3, [r3, #0]
 800386e:	68d9      	ldr	r1, [r3, #12]
 8003870:	687b      	ldr	r3, [r7, #4]
 8003872:	6a5a      	ldr	r2, [r3, #36]	; 0x24
                             hadc->Init.ExternalTrigConvEdge;
 8003874:	687b      	ldr	r3, [r7, #4]
 8003876:	6a9b      	ldr	r3, [r3, #40]	; 0x28
    hadc->Instance->CFGR1 |= hadc->Init.ExternalTrigConv |
 8003878:	431a      	orrs	r2, r3
 800387a:	687b      	ldr	r3, [r7, #4]
 800387c:	681b      	ldr	r3, [r3, #0]
 800387e:	430a      	orrs	r2, r1
 8003880:	60da      	str	r2, [r3, #12]
  }
  
  /* Enable discontinuous mode only if continuous mode is disabled */
  if (hadc->Init.DiscontinuousConvMode == ENABLE)
 8003882:	687b      	ldr	r3, [r7, #4]
 8003884:	2221      	movs	r2, #33	; 0x21
 8003886:	5c9b      	ldrb	r3, [r3, r2]
 8003888:	2b01      	cmp	r3, #1
 800388a:	d11a      	bne.n	80038c2 <HAL_ADC_Init+0x226>
  {
    if (hadc->Init.ContinuousConvMode == DISABLE)
 800388c:	687b      	ldr	r3, [r7, #4]
 800388e:	2220      	movs	r2, #32
 8003890:	5c9b      	ldrb	r3, [r3, r2]
 8003892:	2b00      	cmp	r3, #0
 8003894:	d109      	bne.n	80038aa <HAL_ADC_Init+0x20e>
    {
      /* Enable the selected ADC group regular discontinuous mode */
      hadc->Instance->CFGR1 |= (ADC_CFGR1_DISCEN);
 8003896:	687b      	ldr	r3, [r7, #4]
 8003898:	681b      	ldr	r3, [r3, #0]
 800389a:	68da      	ldr	r2, [r3, #12]
 800389c:	687b      	ldr	r3, [r7, #4]
 800389e:	681b      	ldr	r3, [r3, #0]
 80038a0:	2180      	movs	r1, #128	; 0x80
 80038a2:	0249      	lsls	r1, r1, #9
 80038a4:	430a      	orrs	r2, r1
 80038a6:	60da      	str	r2, [r3, #12]
 80038a8:	e00b      	b.n	80038c2 <HAL_ADC_Init+0x226>
      /* ADC regular group discontinuous was intended to be enabled,        */
      /* but ADC regular group modes continuous and sequencer discontinuous */
      /* cannot be enabled simultaneously.                                  */
      
      /* Update ADC state machine to error */
      SET_BIT(hadc->State, HAL_ADC_STATE_ERROR_CONFIG);
 80038aa:	687b      	ldr	r3, [r7, #4]
 80038ac:	6d5b      	ldr	r3, [r3, #84]	; 0x54
 80038ae:	2220      	movs	r2, #32
 80038b0:	431a      	orrs	r2, r3
 80038b2:	687b      	ldr	r3, [r7, #4]
 80038b4:	655a      	str	r2, [r3, #84]	; 0x54
      
      /* Set ADC error code to ADC peripheral internal error */
      SET_BIT(hadc->ErrorCode, HAL_ADC_ERROR_INTERNAL);
 80038b6:	687b      	ldr	r3, [r7, #4]
 80038b8:	6d9b      	ldr	r3, [r3, #88]	; 0x58
 80038ba:	2201      	movs	r2, #1
 80038bc:	431a      	orrs	r2, r3
 80038be:	687b      	ldr	r3, [r7, #4]
 80038c0:	659a      	str	r2, [r3, #88]	; 0x58
    }
  }
  
  if (hadc->Init.OversamplingMode == ENABLE)
 80038c2:	687b      	ldr	r3, [r7, #4]
 80038c4:	6bdb      	ldr	r3, [r3, #60]	; 0x3c
 80038c6:	2b01      	cmp	r3, #1
 80038c8:	d11f      	bne.n	800390a <HAL_ADC_Init+0x26e>
    /* Configuration of Oversampler:                                          */
    /*  - Oversampling Ratio                                                  */
    /*  - Right bit shift                                                     */
    /*  - Triggered mode                                                      */
    
    hadc->Instance->CFGR2 &= ~( ADC_CFGR2_OVSR |
 80038ca:	687b      	ldr	r3, [r7, #4]
 80038cc:	681b      	ldr	r3, [r3, #0]
 80038ce:	691a      	ldr	r2, [r3, #16]
 80038d0:	687b      	ldr	r3, [r7, #4]
 80038d2:	681b      	ldr	r3, [r3, #0]
 80038d4:	492a      	ldr	r1, [pc, #168]	; (8003980 <HAL_ADC_Init+0x2e4>)
 80038d6:	400a      	ands	r2, r1
 80038d8:	611a      	str	r2, [r3, #16]
                                ADC_CFGR2_OVSS |
                                ADC_CFGR2_TOVS );
    
    hadc->Instance->CFGR2 |= ( hadc->Init.Oversample.Ratio         |
 80038da:	687b      	ldr	r3, [r7, #4]
 80038dc:	681b      	ldr	r3, [r3, #0]
 80038de:	6919      	ldr	r1, [r3, #16]
 80038e0:	687b      	ldr	r3, [r7, #4]
 80038e2:	6c1a      	ldr	r2, [r3, #64]	; 0x40
                               hadc->Init.Oversample.RightBitShift             |
 80038e4:	687b      	ldr	r3, [r7, #4]
 80038e6:	6c5b      	ldr	r3, [r3, #68]	; 0x44
    hadc->Instance->CFGR2 |= ( hadc->Init.Oversample.Ratio         |
 80038e8:	431a      	orrs	r2, r3
                               hadc->Init.Oversample.TriggeredMode );
 80038ea:	687b      	ldr	r3, [r7, #4]
 80038ec:	6c9b      	ldr	r3, [r3, #72]	; 0x48
                               hadc->Init.Oversample.RightBitShift             |
 80038ee:	431a      	orrs	r2, r3
    hadc->Instance->CFGR2 |= ( hadc->Init.Oversample.Ratio         |
 80038f0:	687b      	ldr	r3, [r7, #4]
 80038f2:	681b      	ldr	r3, [r3, #0]
 80038f4:	430a      	orrs	r2, r1
 80038f6:	611a      	str	r2, [r3, #16]
    
    /* Enable OverSampling mode */
     hadc->Instance->CFGR2 |= ADC_CFGR2_OVSE;
 80038f8:	687b      	ldr	r3, [r7, #4]
 80038fa:	681b      	ldr	r3, [r3, #0]
 80038fc:	691a      	ldr	r2, [r3, #16]
 80038fe:	687b      	ldr	r3, [r7, #4]
 8003900:	681b      	ldr	r3, [r3, #0]
 8003902:	2101      	movs	r1, #1
 8003904:	430a      	orrs	r2, r1
 8003906:	611a      	str	r2, [r3, #16]
 8003908:	e00e      	b.n	8003928 <HAL_ADC_Init+0x28c>
  }
  else
  {
    if(HAL_IS_BIT_SET(hadc->Instance->CFGR2, ADC_CFGR2_OVSE))
 800390a:	687b      	ldr	r3, [r7, #4]
 800390c:	681b      	ldr	r3, [r3, #0]
 800390e:	691b      	ldr	r3, [r3, #16]
 8003910:	2201      	movs	r2, #1
 8003912:	4013      	ands	r3, r2
 8003914:	2b01      	cmp	r3, #1
 8003916:	d107      	bne.n	8003928 <HAL_ADC_Init+0x28c>
    {
      /* Disable OverSampling mode if needed */
      hadc->Instance->CFGR2 &= ~ADC_CFGR2_OVSE;
 8003918:	687b      	ldr	r3, [r7, #4]
 800391a:	681b      	ldr	r3, [r3, #0]
 800391c:	691a      	ldr	r2, [r3, #16]
 800391e:	687b      	ldr	r3, [r7, #4]
 8003920:	681b      	ldr	r3, [r3, #0]
 8003922:	2101      	movs	r1, #1
 8003924:	438a      	bics	r2, r1
 8003926:	611a      	str	r2, [r3, #16]
    }
  }    
  
  /* Clear the old sampling time */
  hadc->Instance->SMPR &= (uint32_t)(~ADC_SMPR_SMPR);
 8003928:	687b      	ldr	r3, [r7, #4]
 800392a:	681b      	ldr	r3, [r3, #0]
 800392c:	695a      	ldr	r2, [r3, #20]
 800392e:	687b      	ldr	r3, [r7, #4]
 8003930:	681b      	ldr	r3, [r3, #0]
 8003932:	2107      	movs	r1, #7
 8003934:	438a      	bics	r2, r1
 8003936:	615a      	str	r2, [r3, #20]
  
  /* Set the new sample time */
  hadc->Instance->SMPR |= hadc->Init.SamplingTime;
 8003938:	687b      	ldr	r3, [r7, #4]
 800393a:	681b      	ldr	r3, [r3, #0]
 800393c:	6959      	ldr	r1, [r3, #20]
 800393e:	687b      	ldr	r3, [r7, #4]
 8003940:	6b9a      	ldr	r2, [r3, #56]	; 0x38
 8003942:	687b      	ldr	r3, [r7, #4]
 8003944:	681b      	ldr	r3, [r3, #0]
 8003946:	430a      	orrs	r2, r1
 8003948:	615a      	str	r2, [r3, #20]
  
  /* Clear ADC error code */
  ADC_CLEAR_ERRORCODE(hadc);
 800394a:	687b      	ldr	r3, [r7, #4]
 800394c:	2200      	movs	r2, #0
 800394e:	659a      	str	r2, [r3, #88]	; 0x58

  /* Set the ADC state */
  ADC_STATE_CLR_SET(hadc->State,
 8003950:	687b      	ldr	r3, [r7, #4]
 8003952:	6d5b      	ldr	r3, [r3, #84]	; 0x54
 8003954:	2203      	movs	r2, #3
 8003956:	4393      	bics	r3, r2
 8003958:	2201      	movs	r2, #1
 800395a:	431a      	orrs	r2, r3
 800395c:	687b      	ldr	r3, [r7, #4]
 800395e:	655a      	str	r2, [r3, #84]	; 0x54
                    HAL_ADC_STATE_BUSY_INTERNAL,
                    HAL_ADC_STATE_READY);


  /* Return function status */
  return HAL_OK;
 8003960:	2300      	movs	r3, #0
}
 8003962:	0018      	movs	r0, r3
 8003964:	46bd      	mov	sp, r7
 8003966:	b002      	add	sp, #8
 8003968:	bd80      	pop	{r7, pc}
 800396a:	46c0      	nop			; (mov r8, r8)
 800396c:	fffffefd 	.word	0xfffffefd
 8003970:	40012708 	.word	0x40012708
 8003974:	ffc3ffff 	.word	0xffc3ffff
 8003978:	fdffffff 	.word	0xfdffffff
 800397c:	fffe0219 	.word	0xfffe0219
 8003980:	fffffc03 	.word	0xfffffc03

08003984 <HAL_ADC_Start>:
  * @note   Interruptions enabled in this function: None.
  * @param  hadc ADC handle
  * @retval HAL status
  */
HAL_StatusTypeDef HAL_ADC_Start(ADC_HandleTypeDef* hadc)
{
 8003984:	b590      	push	{r4, r7, lr}
 8003986:	b085      	sub	sp, #20
 8003988:	af00      	add	r7, sp, #0
 800398a:	6078      	str	r0, [r7, #4]
  HAL_StatusTypeDef tmp_hal_status = HAL_OK;
 800398c:	230f      	movs	r3, #15
 800398e:	18fb      	adds	r3, r7, r3
 8003990:	2200      	movs	r2, #0
 8003992:	701a      	strb	r2, [r3, #0]
  
  /* Check the parameters */
  assert_param(IS_ADC_ALL_INSTANCE(hadc->Instance));
  
  /* Perform ADC enable and conversion start if no conversion is on going */
  if (ADC_IS_CONVERSION_ONGOING_REGULAR(hadc) == RESET)
 8003994:	687b      	ldr	r3, [r7, #4]
 8003996:	681b      	ldr	r3, [r3, #0]
 8003998:	689b      	ldr	r3, [r3, #8]
 800399a:	2204      	movs	r2, #4
 800399c:	4013      	ands	r3, r2
 800399e:	d138      	bne.n	8003a12 <HAL_ADC_Start+0x8e>
  {
    /* Process locked */
    __HAL_LOCK(hadc);
 80039a0:	687b      	ldr	r3, [r7, #4]
 80039a2:	2250      	movs	r2, #80	; 0x50
 80039a4:	5c9b      	ldrb	r3, [r3, r2]
 80039a6:	2b01      	cmp	r3, #1
 80039a8:	d101      	bne.n	80039ae <HAL_ADC_Start+0x2a>
 80039aa:	2302      	movs	r3, #2
 80039ac:	e038      	b.n	8003a20 <HAL_ADC_Start+0x9c>
 80039ae:	687b      	ldr	r3, [r7, #4]
 80039b0:	2250      	movs	r2, #80	; 0x50
 80039b2:	2101      	movs	r1, #1
 80039b4:	5499      	strb	r1, [r3, r2]
    
    /* Enable the ADC peripheral */
    /* If low power mode AutoPowerOff is enabled, power-on/off phases are     */
    /* performed automatically by hardware.                                   */
    if (hadc->Init.LowPowerAutoPowerOff != ENABLE)
 80039b6:	687b      	ldr	r3, [r7, #4]
 80039b8:	69db      	ldr	r3, [r3, #28]
 80039ba:	2b01      	cmp	r3, #1
 80039bc:	d007      	beq.n	80039ce <HAL_ADC_Start+0x4a>
    {
      tmp_hal_status = ADC_Enable(hadc);
 80039be:	230f      	movs	r3, #15
 80039c0:	18fc      	adds	r4, r7, r3
 80039c2:	687b      	ldr	r3, [r7, #4]
 80039c4:	0018      	movs	r0, r3
 80039c6:	f000 f979 	bl	8003cbc <ADC_Enable>
 80039ca:	0003      	movs	r3, r0
 80039cc:	7023      	strb	r3, [r4, #0]
    }
    
    /* Start conversion if ADC is effectively enabled */
    if (tmp_hal_status == HAL_OK)
 80039ce:	230f      	movs	r3, #15
 80039d0:	18fb      	adds	r3, r7, r3
 80039d2:	781b      	ldrb	r3, [r3, #0]
 80039d4:	2b00      	cmp	r3, #0
 80039d6:	d120      	bne.n	8003a1a <HAL_ADC_Start+0x96>
    {
      /* Set ADC state                                                        */
      /* - Clear state bitfield related to regular group conversion results   */
      /* - Set state bitfield related to regular operation                    */
      ADC_STATE_CLR_SET(hadc->State,
 80039d8:	687b      	ldr	r3, [r7, #4]
 80039da:	6d5b      	ldr	r3, [r3, #84]	; 0x54
 80039dc:	4a12      	ldr	r2, [pc, #72]	; (8003a28 <HAL_ADC_Start+0xa4>)
 80039de:	4013      	ands	r3, r2
 80039e0:	2280      	movs	r2, #128	; 0x80
 80039e2:	0052      	lsls	r2, r2, #1
 80039e4:	431a      	orrs	r2, r3
 80039e6:	687b      	ldr	r3, [r7, #4]
 80039e8:	655a      	str	r2, [r3, #84]	; 0x54
                        HAL_ADC_STATE_READY | HAL_ADC_STATE_REG_EOC | HAL_ADC_STATE_REG_OVR | HAL_ADC_STATE_REG_EOSMP,
                        HAL_ADC_STATE_REG_BUSY);
      
      /* Reset ADC all error code fields */
      ADC_CLEAR_ERRORCODE(hadc);
 80039ea:	687b      	ldr	r3, [r7, #4]
 80039ec:	2200      	movs	r2, #0
 80039ee:	659a      	str	r2, [r3, #88]	; 0x58
      
      /* Process unlocked */
      /* Unlock before starting ADC conversions: in case of potential         */
      /* interruption, to let the process to ADC IRQ Handler.                 */
      __HAL_UNLOCK(hadc);
 80039f0:	687b      	ldr	r3, [r7, #4]
 80039f2:	2250      	movs	r2, #80	; 0x50
 80039f4:	2100      	movs	r1, #0
 80039f6:	5499      	strb	r1, [r3, r2]
      
      /* Clear regular group conversion flag and overrun flag */
      /* (To ensure of no unknown state from potential previous ADC           */
      /* operations)                                                          */
      __HAL_ADC_CLEAR_FLAG(hadc, (ADC_FLAG_EOC | ADC_FLAG_EOS | ADC_FLAG_OVR));
 80039f8:	687b      	ldr	r3, [r7, #4]
 80039fa:	681b      	ldr	r3, [r3, #0]
 80039fc:	221c      	movs	r2, #28
 80039fe:	601a      	str	r2, [r3, #0]
      
      /* Enable conversion of regular group.                                  */
      /* If software start has been selected, conversion starts immediately.  */
      /* If external trigger has been selected, conversion will start at next */
      /* trigger event.                                                       */
      hadc->Instance->CR |= ADC_CR_ADSTART;
 8003a00:	687b      	ldr	r3, [r7, #4]
 8003a02:	681b      	ldr	r3, [r3, #0]
 8003a04:	689a      	ldr	r2, [r3, #8]
 8003a06:	687b      	ldr	r3, [r7, #4]
 8003a08:	681b      	ldr	r3, [r3, #0]
 8003a0a:	2104      	movs	r1, #4
 8003a0c:	430a      	orrs	r2, r1
 8003a0e:	609a      	str	r2, [r3, #8]
 8003a10:	e003      	b.n	8003a1a <HAL_ADC_Start+0x96>
    }
  }
  else
  {
    tmp_hal_status = HAL_BUSY;
 8003a12:	230f      	movs	r3, #15
 8003a14:	18fb      	adds	r3, r7, r3
 8003a16:	2202      	movs	r2, #2
 8003a18:	701a      	strb	r2, [r3, #0]
  }
  
  /* Return function status */
  return tmp_hal_status;
 8003a1a:	230f      	movs	r3, #15
 8003a1c:	18fb      	adds	r3, r7, r3
 8003a1e:	781b      	ldrb	r3, [r3, #0]
}
 8003a20:	0018      	movs	r0, r3
 8003a22:	46bd      	mov	sp, r7
 8003a24:	b005      	add	sp, #20
 8003a26:	bd90      	pop	{r4, r7, pc}
 8003a28:	fffff0fe 	.word	0xfffff0fe

08003a2c <HAL_ADC_PollForConversion>:
  * @param  hadc ADC handle
  * @param  Timeout Timeout value in millisecond.
  * @retval HAL status
  */
HAL_StatusTypeDef HAL_ADC_PollForConversion(ADC_HandleTypeDef* hadc, uint32_t Timeout)
{
 8003a2c:	b580      	push	{r7, lr}
 8003a2e:	b084      	sub	sp, #16
 8003a30:	af00      	add	r7, sp, #0
 8003a32:	6078      	str	r0, [r7, #4]
 8003a34:	6039      	str	r1, [r7, #0]
  uint32_t tickstart = 0;
 8003a36:	2300      	movs	r3, #0
 8003a38:	60bb      	str	r3, [r7, #8]
  uint32_t tmp_Flag_EOC   = 0x00;
 8003a3a:	2300      	movs	r3, #0
 8003a3c:	60fb      	str	r3, [r7, #12]
  
  /* Check the parameters */
  assert_param(IS_ADC_ALL_INSTANCE(hadc->Instance));
  
  /* If end of conversion selected to end of sequence conversions */
  if (hadc->Init.EOCSelection == ADC_EOC_SEQ_CONV)
 8003a3e:	687b      	ldr	r3, [r7, #4]
 8003a40:	695b      	ldr	r3, [r3, #20]
 8003a42:	2b08      	cmp	r3, #8
 8003a44:	d102      	bne.n	8003a4c <HAL_ADC_PollForConversion+0x20>
  {
    tmp_Flag_EOC = ADC_FLAG_EOS;
 8003a46:	2308      	movs	r3, #8
 8003a48:	60fb      	str	r3, [r7, #12]
 8003a4a:	e014      	b.n	8003a76 <HAL_ADC_PollForConversion+0x4a>
    /* each conversion:                                                       */
    /* Particular case is ADC configured in DMA mode and ADC sequencer with   */
    /* several ranks and polling for end of each conversion.                  */
    /* For code simplicity sake, this particular case is generalized to       */
    /* ADC configured in DMA mode and and polling for end of each conversion. */
    if (HAL_IS_BIT_SET(hadc->Instance->CFGR1, ADC_CFGR1_DMAEN))
 8003a4c:	687b      	ldr	r3, [r7, #4]
 8003a4e:	681b      	ldr	r3, [r3, #0]
 8003a50:	68db      	ldr	r3, [r3, #12]
 8003a52:	2201      	movs	r2, #1
 8003a54:	4013      	ands	r3, r2
 8003a56:	2b01      	cmp	r3, #1
 8003a58:	d10b      	bne.n	8003a72 <HAL_ADC_PollForConversion+0x46>
    {
      /* Update ADC state machine to error */
      SET_BIT(hadc->State, HAL_ADC_STATE_ERROR_CONFIG);
 8003a5a:	687b      	ldr	r3, [r7, #4]
 8003a5c:	6d5b      	ldr	r3, [r3, #84]	; 0x54
 8003a5e:	2220      	movs	r2, #32
 8003a60:	431a      	orrs	r2, r3
 8003a62:	687b      	ldr	r3, [r7, #4]
 8003a64:	655a      	str	r2, [r3, #84]	; 0x54
      
      /* Process unlocked */
      __HAL_UNLOCK(hadc);
 8003a66:	687b      	ldr	r3, [r7, #4]
 8003a68:	2250      	movs	r2, #80	; 0x50
 8003a6a:	2100      	movs	r1, #0
 8003a6c:	5499      	strb	r1, [r3, r2]
      
      return HAL_ERROR;
 8003a6e:	2301      	movs	r3, #1
 8003a70:	e072      	b.n	8003b58 <HAL_ADC_PollForConversion+0x12c>
    }
    else
    {
      tmp_Flag_EOC = (ADC_FLAG_EOC | ADC_FLAG_EOS);
 8003a72:	230c      	movs	r3, #12
 8003a74:	60fb      	str	r3, [r7, #12]
    }
  }
  
  /* Get tick count */
  tickstart = HAL_GetTick();
 8003a76:	f7ff fde3 	bl	8003640 <HAL_GetTick>
 8003a7a:	0003      	movs	r3, r0
 8003a7c:	60bb      	str	r3, [r7, #8]
  
  /* Wait until End of unitary conversion or sequence conversions flag is raised */
  while(HAL_IS_BIT_CLR(hadc->Instance->ISR, tmp_Flag_EOC))
 8003a7e:	e01f      	b.n	8003ac0 <HAL_ADC_PollForConversion+0x94>
  {
    /* Check if timeout is disabled (set to infinite wait) */
    if(Timeout != HAL_MAX_DELAY)
 8003a80:	683b      	ldr	r3, [r7, #0]
 8003a82:	3301      	adds	r3, #1
 8003a84:	d01c      	beq.n	8003ac0 <HAL_ADC_PollForConversion+0x94>
    {
      if((Timeout == 0U) || ((HAL_GetTick()-tickstart) > Timeout))
 8003a86:	683b      	ldr	r3, [r7, #0]
 8003a88:	2b00      	cmp	r3, #0
 8003a8a:	d007      	beq.n	8003a9c <HAL_ADC_PollForConversion+0x70>
 8003a8c:	f7ff fdd8 	bl	8003640 <HAL_GetTick>
 8003a90:	0002      	movs	r2, r0
 8003a92:	68bb      	ldr	r3, [r7, #8]
 8003a94:	1ad3      	subs	r3, r2, r3
 8003a96:	683a      	ldr	r2, [r7, #0]
 8003a98:	429a      	cmp	r2, r3
 8003a9a:	d211      	bcs.n	8003ac0 <HAL_ADC_PollForConversion+0x94>
      {
        /* New check to avoid false timeout detection in case of preemption */
        if(HAL_IS_BIT_CLR(hadc->Instance->ISR, tmp_Flag_EOC))
 8003a9c:	687b      	ldr	r3, [r7, #4]
 8003a9e:	681b      	ldr	r3, [r3, #0]
 8003aa0:	681b      	ldr	r3, [r3, #0]
 8003aa2:	68fa      	ldr	r2, [r7, #12]
 8003aa4:	4013      	ands	r3, r2
 8003aa6:	d10b      	bne.n	8003ac0 <HAL_ADC_PollForConversion+0x94>
        {
          /* Update ADC state machine to timeout */
          SET_BIT(hadc->State, HAL_ADC_STATE_TIMEOUT);
 8003aa8:	687b      	ldr	r3, [r7, #4]
 8003aaa:	6d5b      	ldr	r3, [r3, #84]	; 0x54
 8003aac:	2204      	movs	r2, #4
 8003aae:	431a      	orrs	r2, r3
 8003ab0:	687b      	ldr	r3, [r7, #4]
 8003ab2:	655a      	str	r2, [r3, #84]	; 0x54

          /* Process unlocked */
          __HAL_UNLOCK(hadc);
 8003ab4:	687b      	ldr	r3, [r7, #4]
 8003ab6:	2250      	movs	r2, #80	; 0x50
 8003ab8:	2100      	movs	r1, #0
 8003aba:	5499      	strb	r1, [r3, r2]

          return HAL_TIMEOUT;
 8003abc:	2303      	movs	r3, #3
 8003abe:	e04b      	b.n	8003b58 <HAL_ADC_PollForConversion+0x12c>
  while(HAL_IS_BIT_CLR(hadc->Instance->ISR, tmp_Flag_EOC))
 8003ac0:	687b      	ldr	r3, [r7, #4]
 8003ac2:	681b      	ldr	r3, [r3, #0]
 8003ac4:	681b      	ldr	r3, [r3, #0]
 8003ac6:	68fa      	ldr	r2, [r7, #12]
 8003ac8:	4013      	ands	r3, r2
 8003aca:	d0d9      	beq.n	8003a80 <HAL_ADC_PollForConversion+0x54>
      }
    }
  }
  
  /* Update ADC state machine */
  SET_BIT(hadc->State, HAL_ADC_STATE_REG_EOC);
 8003acc:	687b      	ldr	r3, [r7, #4]
 8003ace:	6d5b      	ldr	r3, [r3, #84]	; 0x54
 8003ad0:	2280      	movs	r2, #128	; 0x80
 8003ad2:	0092      	lsls	r2, r2, #2
 8003ad4:	431a      	orrs	r2, r3
 8003ad6:	687b      	ldr	r3, [r7, #4]
 8003ad8:	655a      	str	r2, [r3, #84]	; 0x54
  
  /* Determine whether any further conversion upcoming on group regular       */
  /* by external trigger, continuous mode or scan sequence on going.          */
  if(ADC_IS_SOFTWARE_START_REGULAR(hadc)        && 
 8003ada:	687b      	ldr	r3, [r7, #4]
 8003adc:	681b      	ldr	r3, [r3, #0]
 8003ade:	68da      	ldr	r2, [r3, #12]
 8003ae0:	23c0      	movs	r3, #192	; 0xc0
 8003ae2:	011b      	lsls	r3, r3, #4
 8003ae4:	4013      	ands	r3, r2
 8003ae6:	d12e      	bne.n	8003b46 <HAL_ADC_PollForConversion+0x11a>
     (hadc->Init.ContinuousConvMode == DISABLE)   )
 8003ae8:	687b      	ldr	r3, [r7, #4]
 8003aea:	2220      	movs	r2, #32
 8003aec:	5c9b      	ldrb	r3, [r3, r2]
  if(ADC_IS_SOFTWARE_START_REGULAR(hadc)        && 
 8003aee:	2b00      	cmp	r3, #0
 8003af0:	d129      	bne.n	8003b46 <HAL_ADC_PollForConversion+0x11a>
  {
    /* If End of Sequence is reached, disable interrupts */
    if( __HAL_ADC_GET_FLAG(hadc, ADC_FLAG_EOS) )
 8003af2:	687b      	ldr	r3, [r7, #4]
 8003af4:	681b      	ldr	r3, [r3, #0]
 8003af6:	681b      	ldr	r3, [r3, #0]
 8003af8:	2208      	movs	r2, #8
 8003afa:	4013      	ands	r3, r2
 8003afc:	2b08      	cmp	r3, #8
 8003afe:	d122      	bne.n	8003b46 <HAL_ADC_PollForConversion+0x11a>
    {
      /* Allowed to modify bits ADC_IT_EOC/ADC_IT_EOS only if bit             */
      /* ADSTART==0 (no conversion on going)                                  */
      if (ADC_IS_CONVERSION_ONGOING_REGULAR(hadc) == RESET)
 8003b00:	687b      	ldr	r3, [r7, #4]
 8003b02:	681b      	ldr	r3, [r3, #0]
 8003b04:	689b      	ldr	r3, [r3, #8]
 8003b06:	2204      	movs	r2, #4
 8003b08:	4013      	ands	r3, r2
 8003b0a:	d110      	bne.n	8003b2e <HAL_ADC_PollForConversion+0x102>
      {
        /* Disable ADC end of single conversion interrupt on group regular */
        /* Note: Overrun interrupt was enabled with EOC interrupt in          */
        /* HAL_Start_IT(), but is not disabled here because can be used       */
        /* by overrun IRQ process below.                                      */
        __HAL_ADC_DISABLE_IT(hadc, ADC_IT_EOC | ADC_IT_EOS);
 8003b0c:	687b      	ldr	r3, [r7, #4]
 8003b0e:	681b      	ldr	r3, [r3, #0]
 8003b10:	685a      	ldr	r2, [r3, #4]
 8003b12:	687b      	ldr	r3, [r7, #4]
 8003b14:	681b      	ldr	r3, [r3, #0]
 8003b16:	210c      	movs	r1, #12
 8003b18:	438a      	bics	r2, r1
 8003b1a:	605a      	str	r2, [r3, #4]
        
        /* Set ADC state */
        ADC_STATE_CLR_SET(hadc->State,
 8003b1c:	687b      	ldr	r3, [r7, #4]
 8003b1e:	6d5b      	ldr	r3, [r3, #84]	; 0x54
 8003b20:	4a0f      	ldr	r2, [pc, #60]	; (8003b60 <HAL_ADC_PollForConversion+0x134>)
 8003b22:	4013      	ands	r3, r2
 8003b24:	2201      	movs	r2, #1
 8003b26:	431a      	orrs	r2, r3
 8003b28:	687b      	ldr	r3, [r7, #4]
 8003b2a:	655a      	str	r2, [r3, #84]	; 0x54
 8003b2c:	e00b      	b.n	8003b46 <HAL_ADC_PollForConversion+0x11a>
                          HAL_ADC_STATE_READY);
      }
      else
      {
        /* Change ADC state to error state */
        SET_BIT(hadc->State, HAL_ADC_STATE_ERROR_CONFIG);
 8003b2e:	687b      	ldr	r3, [r7, #4]
 8003b30:	6d5b      	ldr	r3, [r3, #84]	; 0x54
 8003b32:	2220      	movs	r2, #32
 8003b34:	431a      	orrs	r2, r3
 8003b36:	687b      	ldr	r3, [r7, #4]
 8003b38:	655a      	str	r2, [r3, #84]	; 0x54
        
        /* Set ADC error code to ADC peripheral internal error */
        SET_BIT(hadc->ErrorCode, HAL_ADC_ERROR_INTERNAL);
 8003b3a:	687b      	ldr	r3, [r7, #4]
 8003b3c:	6d9b      	ldr	r3, [r3, #88]	; 0x58
 8003b3e:	2201      	movs	r2, #1
 8003b40:	431a      	orrs	r2, r3
 8003b42:	687b      	ldr	r3, [r7, #4]
 8003b44:	659a      	str	r2, [r3, #88]	; 0x58
  }
  
  /* Clear end of conversion flag of regular group if low power feature       */
  /* "LowPowerAutoWait " is disabled, to not interfere with this feature      */
  /* until data register is read using function HAL_ADC_GetValue().           */
  if (hadc->Init.LowPowerAutoWait == DISABLE)
 8003b46:	687b      	ldr	r3, [r7, #4]
 8003b48:	699b      	ldr	r3, [r3, #24]
 8003b4a:	2b00      	cmp	r3, #0
 8003b4c:	d103      	bne.n	8003b56 <HAL_ADC_PollForConversion+0x12a>
  {
    /* Clear regular group conversion flag */
    __HAL_ADC_CLEAR_FLAG(hadc, (ADC_FLAG_EOC | ADC_FLAG_EOS));
 8003b4e:	687b      	ldr	r3, [r7, #4]
 8003b50:	681b      	ldr	r3, [r3, #0]
 8003b52:	220c      	movs	r2, #12
 8003b54:	601a      	str	r2, [r3, #0]
  }
  
  /* Return function status */
  return HAL_OK;
 8003b56:	2300      	movs	r3, #0
}
 8003b58:	0018      	movs	r0, r3
 8003b5a:	46bd      	mov	sp, r7
 8003b5c:	b004      	add	sp, #16
 8003b5e:	bd80      	pop	{r7, pc}
 8003b60:	fffffefe 	.word	0xfffffefe

08003b64 <HAL_ADC_GetValue>:
  *         or @ref __HAL_ADC_CLEAR_FLAG(&hadc, ADC_FLAG_EOS).
  * @param  hadc ADC handle
  * @retval ADC group regular conversion data
  */
uint32_t HAL_ADC_GetValue(ADC_HandleTypeDef* hadc)
{
 8003b64:	b580      	push	{r7, lr}
 8003b66:	b082      	sub	sp, #8
 8003b68:	af00      	add	r7, sp, #0
 8003b6a:	6078      	str	r0, [r7, #4]

  /* Note: EOC flag is not cleared here by software because automatically     */
  /*       cleared by hardware when reading register DR.                      */
  
  /* Return ADC converted value */ 
  return hadc->Instance->DR;
 8003b6c:	687b      	ldr	r3, [r7, #4]
 8003b6e:	681b      	ldr	r3, [r3, #0]
 8003b70:	6c1b      	ldr	r3, [r3, #64]	; 0x40
}
 8003b72:	0018      	movs	r0, r3
 8003b74:	46bd      	mov	sp, r7
 8003b76:	b002      	add	sp, #8
 8003b78:	bd80      	pop	{r7, pc}
	...

08003b7c <HAL_ADC_ConfigChannel>:
  * @param  hadc ADC handle
  * @param  sConfig Structure of ADC channel assigned to ADC group regular.
  * @retval HAL status
  */
HAL_StatusTypeDef HAL_ADC_ConfigChannel(ADC_HandleTypeDef* hadc, ADC_ChannelConfTypeDef* sConfig)
{
 8003b7c:	b580      	push	{r7, lr}
 8003b7e:	b082      	sub	sp, #8
 8003b80:	af00      	add	r7, sp, #0
 8003b82:	6078      	str	r0, [r7, #4]
 8003b84:	6039      	str	r1, [r7, #0]
  assert_param(IS_ADC_ALL_INSTANCE(hadc->Instance));
  assert_param(IS_ADC_CHANNEL(sConfig->Channel));
  assert_param(IS_ADC_RANK(sConfig->Rank));
  
  /* Process locked */
  __HAL_LOCK(hadc);
 8003b86:	687b      	ldr	r3, [r7, #4]
 8003b88:	2250      	movs	r2, #80	; 0x50
 8003b8a:	5c9b      	ldrb	r3, [r3, r2]
 8003b8c:	2b01      	cmp	r3, #1
 8003b8e:	d101      	bne.n	8003b94 <HAL_ADC_ConfigChannel+0x18>
 8003b90:	2302      	movs	r3, #2
 8003b92:	e085      	b.n	8003ca0 <HAL_ADC_ConfigChannel+0x124>
 8003b94:	687b      	ldr	r3, [r7, #4]
 8003b96:	2250      	movs	r2, #80	; 0x50
 8003b98:	2101      	movs	r1, #1
 8003b9a:	5499      	strb	r1, [r3, r2]
  /* Parameters update conditioned to ADC state:                              */
  /* Parameters that can be updated when ADC is disabled or enabled without   */
  /* conversion on going on regular group:                                    */
  /*  - Channel number                                                        */
  /*  - Management of internal measurement channels: Vbat/VrefInt/TempSensor  */
  if (ADC_IS_CONVERSION_ONGOING_REGULAR(hadc) != RESET)
 8003b9c:	687b      	ldr	r3, [r7, #4]
 8003b9e:	681b      	ldr	r3, [r3, #0]
 8003ba0:	689b      	ldr	r3, [r3, #8]
 8003ba2:	2204      	movs	r2, #4
 8003ba4:	4013      	ands	r3, r2
 8003ba6:	d00b      	beq.n	8003bc0 <HAL_ADC_ConfigChannel+0x44>
  {
    /* Update ADC state machine to error */
    SET_BIT(hadc->State, HAL_ADC_STATE_ERROR_CONFIG);
 8003ba8:	687b      	ldr	r3, [r7, #4]
 8003baa:	6d5b      	ldr	r3, [r3, #84]	; 0x54
 8003bac:	2220      	movs	r2, #32
 8003bae:	431a      	orrs	r2, r3
 8003bb0:	687b      	ldr	r3, [r7, #4]
 8003bb2:	655a      	str	r2, [r3, #84]	; 0x54
    /* Process unlocked */
    __HAL_UNLOCK(hadc);
 8003bb4:	687b      	ldr	r3, [r7, #4]
 8003bb6:	2250      	movs	r2, #80	; 0x50
 8003bb8:	2100      	movs	r1, #0
 8003bba:	5499      	strb	r1, [r3, r2]
    return HAL_ERROR;
 8003bbc:	2301      	movs	r3, #1
 8003bbe:	e06f      	b.n	8003ca0 <HAL_ADC_ConfigChannel+0x124>
  }
  
  if (sConfig->Rank != ADC_RANK_NONE)
 8003bc0:	683b      	ldr	r3, [r7, #0]
 8003bc2:	685b      	ldr	r3, [r3, #4]
 8003bc4:	4a38      	ldr	r2, [pc, #224]	; (8003ca8 <HAL_ADC_ConfigChannel+0x12c>)
 8003bc6:	4293      	cmp	r3, r2
 8003bc8:	d035      	beq.n	8003c36 <HAL_ADC_ConfigChannel+0xba>
  {
    /* Enable selected channels */
    hadc->Instance->CHSELR |= (uint32_t)(sConfig->Channel & ADC_CHANNEL_MASK);
 8003bca:	687b      	ldr	r3, [r7, #4]
 8003bcc:	681b      	ldr	r3, [r3, #0]
 8003bce:	6a99      	ldr	r1, [r3, #40]	; 0x28
 8003bd0:	683b      	ldr	r3, [r7, #0]
 8003bd2:	681b      	ldr	r3, [r3, #0]
 8003bd4:	035b      	lsls	r3, r3, #13
 8003bd6:	0b5a      	lsrs	r2, r3, #13
 8003bd8:	687b      	ldr	r3, [r7, #4]
 8003bda:	681b      	ldr	r3, [r3, #0]
 8003bdc:	430a      	orrs	r2, r1
 8003bde:	629a      	str	r2, [r3, #40]	; 0x28
    /* dedicated internal buffers and path.                                     */
    
    #if defined(ADC_CCR_TSEN)
    /* If Temperature sensor channel is selected, then enable the internal      */
    /* buffers and path  */
    if (((sConfig->Channel & ADC_CHANNEL_MASK) & ADC_CHANNEL_TEMPSENSOR ) == (ADC_CHANNEL_TEMPSENSOR & ADC_CHANNEL_MASK))
 8003be0:	683b      	ldr	r3, [r7, #0]
 8003be2:	681a      	ldr	r2, [r3, #0]
 8003be4:	2380      	movs	r3, #128	; 0x80
 8003be6:	02db      	lsls	r3, r3, #11
 8003be8:	4013      	ands	r3, r2
 8003bea:	d009      	beq.n	8003c00 <HAL_ADC_ConfigChannel+0x84>
    {
      ADC->CCR |= ADC_CCR_TSEN;   
 8003bec:	4b2f      	ldr	r3, [pc, #188]	; (8003cac <HAL_ADC_ConfigChannel+0x130>)
 8003bee:	681a      	ldr	r2, [r3, #0]
 8003bf0:	4b2e      	ldr	r3, [pc, #184]	; (8003cac <HAL_ADC_ConfigChannel+0x130>)
 8003bf2:	2180      	movs	r1, #128	; 0x80
 8003bf4:	0409      	lsls	r1, r1, #16
 8003bf6:	430a      	orrs	r2, r1
 8003bf8:	601a      	str	r2, [r3, #0]
      
      /* Delay for temperature sensor stabilization time */
      ADC_DelayMicroSecond(ADC_TEMPSENSOR_DELAY_US);
 8003bfa:	200a      	movs	r0, #10
 8003bfc:	f000 f8c6 	bl	8003d8c <ADC_DelayMicroSecond>
    }
    #endif
    
    /* If VRefInt channel is selected, then enable the internal buffers and path   */
    if (((sConfig->Channel & ADC_CHANNEL_MASK) & ADC_CHANNEL_VREFINT) == (ADC_CHANNEL_VREFINT & ADC_CHANNEL_MASK))
 8003c00:	683b      	ldr	r3, [r7, #0]
 8003c02:	681a      	ldr	r2, [r3, #0]
 8003c04:	2380      	movs	r3, #128	; 0x80
 8003c06:	029b      	lsls	r3, r3, #10
 8003c08:	4013      	ands	r3, r2
 8003c0a:	d006      	beq.n	8003c1a <HAL_ADC_ConfigChannel+0x9e>
    {
      ADC->CCR |= ADC_CCR_VREFEN;   
 8003c0c:	4b27      	ldr	r3, [pc, #156]	; (8003cac <HAL_ADC_ConfigChannel+0x130>)
 8003c0e:	681a      	ldr	r2, [r3, #0]
 8003c10:	4b26      	ldr	r3, [pc, #152]	; (8003cac <HAL_ADC_ConfigChannel+0x130>)
 8003c12:	2180      	movs	r1, #128	; 0x80
 8003c14:	03c9      	lsls	r1, r1, #15
 8003c16:	430a      	orrs	r2, r1
 8003c18:	601a      	str	r2, [r3, #0]
    }
    
#if defined (STM32L053xx) || defined (STM32L063xx) || defined (STM32L073xx) || defined (STM32L083xx)
    /* If Vlcd channel is selected, then enable the internal buffers and path   */
    if (((sConfig->Channel & ADC_CHANNEL_MASK) & ADC_CHANNEL_VLCD) == (ADC_CHANNEL_VLCD & ADC_CHANNEL_MASK))
 8003c1a:	683b      	ldr	r3, [r7, #0]
 8003c1c:	681a      	ldr	r2, [r3, #0]
 8003c1e:	2380      	movs	r3, #128	; 0x80
 8003c20:	025b      	lsls	r3, r3, #9
 8003c22:	4013      	ands	r3, r2
 8003c24:	d037      	beq.n	8003c96 <HAL_ADC_ConfigChannel+0x11a>
    {
      ADC->CCR |= ADC_CCR_VLCDEN;   
 8003c26:	4b21      	ldr	r3, [pc, #132]	; (8003cac <HAL_ADC_ConfigChannel+0x130>)
 8003c28:	681a      	ldr	r2, [r3, #0]
 8003c2a:	4b20      	ldr	r3, [pc, #128]	; (8003cac <HAL_ADC_ConfigChannel+0x130>)
 8003c2c:	2180      	movs	r1, #128	; 0x80
 8003c2e:	0449      	lsls	r1, r1, #17
 8003c30:	430a      	orrs	r2, r1
 8003c32:	601a      	str	r2, [r3, #0]
 8003c34:	e02f      	b.n	8003c96 <HAL_ADC_ConfigChannel+0x11a>
  }
  else
  {
    /* Regular sequence configuration */
    /* Reset the channel selection register from the selected channel */
    hadc->Instance->CHSELR &= ~((uint32_t)(sConfig->Channel & ADC_CHANNEL_MASK));
 8003c36:	687b      	ldr	r3, [r7, #4]
 8003c38:	681b      	ldr	r3, [r3, #0]
 8003c3a:	6a9a      	ldr	r2, [r3, #40]	; 0x28
 8003c3c:	683b      	ldr	r3, [r7, #0]
 8003c3e:	681b      	ldr	r3, [r3, #0]
 8003c40:	035b      	lsls	r3, r3, #13
 8003c42:	0b5b      	lsrs	r3, r3, #13
 8003c44:	43d9      	mvns	r1, r3
 8003c46:	687b      	ldr	r3, [r7, #4]
 8003c48:	681b      	ldr	r3, [r3, #0]
 8003c4a:	400a      	ands	r2, r1
 8003c4c:	629a      	str	r2, [r3, #40]	; 0x28
    
    /* Management of internal measurement channels: VrefInt/TempSensor/Vbat */
    /* internal measurement paths disable: If internal channel selected,    */
    /* disable dedicated internal buffers and path.                         */
    #if defined(ADC_CCR_TSEN)
    if (((sConfig->Channel & ADC_CHANNEL_MASK) & ADC_CHANNEL_TEMPSENSOR ) == (ADC_CHANNEL_TEMPSENSOR & ADC_CHANNEL_MASK))
 8003c4e:	683b      	ldr	r3, [r7, #0]
 8003c50:	681a      	ldr	r2, [r3, #0]
 8003c52:	2380      	movs	r3, #128	; 0x80
 8003c54:	02db      	lsls	r3, r3, #11
 8003c56:	4013      	ands	r3, r2
 8003c58:	d005      	beq.n	8003c66 <HAL_ADC_ConfigChannel+0xea>
    {
      ADC->CCR &= ~ADC_CCR_TSEN;   
 8003c5a:	4b14      	ldr	r3, [pc, #80]	; (8003cac <HAL_ADC_ConfigChannel+0x130>)
 8003c5c:	681a      	ldr	r2, [r3, #0]
 8003c5e:	4b13      	ldr	r3, [pc, #76]	; (8003cac <HAL_ADC_ConfigChannel+0x130>)
 8003c60:	4913      	ldr	r1, [pc, #76]	; (8003cb0 <HAL_ADC_ConfigChannel+0x134>)
 8003c62:	400a      	ands	r2, r1
 8003c64:	601a      	str	r2, [r3, #0]
    }
    #endif
    
    /* If VRefInt channel is selected, then enable the internal buffers and path   */
    if (((sConfig->Channel & ADC_CHANNEL_MASK) & ADC_CHANNEL_VREFINT) == (ADC_CHANNEL_VREFINT & ADC_CHANNEL_MASK))
 8003c66:	683b      	ldr	r3, [r7, #0]
 8003c68:	681a      	ldr	r2, [r3, #0]
 8003c6a:	2380      	movs	r3, #128	; 0x80
 8003c6c:	029b      	lsls	r3, r3, #10
 8003c6e:	4013      	ands	r3, r2
 8003c70:	d005      	beq.n	8003c7e <HAL_ADC_ConfigChannel+0x102>
    {
      ADC->CCR &= ~ADC_CCR_VREFEN;   
 8003c72:	4b0e      	ldr	r3, [pc, #56]	; (8003cac <HAL_ADC_ConfigChannel+0x130>)
 8003c74:	681a      	ldr	r2, [r3, #0]
 8003c76:	4b0d      	ldr	r3, [pc, #52]	; (8003cac <HAL_ADC_ConfigChannel+0x130>)
 8003c78:	490e      	ldr	r1, [pc, #56]	; (8003cb4 <HAL_ADC_ConfigChannel+0x138>)
 8003c7a:	400a      	ands	r2, r1
 8003c7c:	601a      	str	r2, [r3, #0]
    }
    
#if defined (STM32L053xx) || defined (STM32L063xx) || defined (STM32L073xx) || defined (STM32L083xx)
    /* If Vlcd channel is selected, then enable the internal buffers and path   */
    if (((sConfig->Channel & ADC_CHANNEL_MASK) & ADC_CHANNEL_VLCD) == (ADC_CHANNEL_VLCD & ADC_CHANNEL_MASK))
 8003c7e:	683b      	ldr	r3, [r7, #0]
 8003c80:	681a      	ldr	r2, [r3, #0]
 8003c82:	2380      	movs	r3, #128	; 0x80
 8003c84:	025b      	lsls	r3, r3, #9
 8003c86:	4013      	ands	r3, r2
 8003c88:	d005      	beq.n	8003c96 <HAL_ADC_ConfigChannel+0x11a>
    {
      ADC->CCR &= ~ADC_CCR_VLCDEN;   
 8003c8a:	4b08      	ldr	r3, [pc, #32]	; (8003cac <HAL_ADC_ConfigChannel+0x130>)
 8003c8c:	681a      	ldr	r2, [r3, #0]
 8003c8e:	4b07      	ldr	r3, [pc, #28]	; (8003cac <HAL_ADC_ConfigChannel+0x130>)
 8003c90:	4909      	ldr	r1, [pc, #36]	; (8003cb8 <HAL_ADC_ConfigChannel+0x13c>)
 8003c92:	400a      	ands	r2, r1
 8003c94:	601a      	str	r2, [r3, #0]
    }
#endif
  }
  
  /* Process unlocked */
  __HAL_UNLOCK(hadc);
 8003c96:	687b      	ldr	r3, [r7, #4]
 8003c98:	2250      	movs	r2, #80	; 0x50
 8003c9a:	2100      	movs	r1, #0
 8003c9c:	5499      	strb	r1, [r3, r2]
  
  /* Return function status */
  return HAL_OK;
 8003c9e:	2300      	movs	r3, #0
}
 8003ca0:	0018      	movs	r0, r3
 8003ca2:	46bd      	mov	sp, r7
 8003ca4:	b002      	add	sp, #8
 8003ca6:	bd80      	pop	{r7, pc}
 8003ca8:	00001001 	.word	0x00001001
 8003cac:	40012708 	.word	0x40012708
 8003cb0:	ff7fffff 	.word	0xff7fffff
 8003cb4:	ffbfffff 	.word	0xffbfffff
 8003cb8:	feffffff 	.word	0xfeffffff

08003cbc <ADC_Enable>:
  *         "if (hadc->Init.LowPowerAutoPowerOff != ENABLE)".
  * @param  hadc ADC handle
  * @retval HAL status.
  */
static HAL_StatusTypeDef ADC_Enable(ADC_HandleTypeDef* hadc)
{
 8003cbc:	b580      	push	{r7, lr}
 8003cbe:	b084      	sub	sp, #16
 8003cc0:	af00      	add	r7, sp, #0
 8003cc2:	6078      	str	r0, [r7, #4]
  uint32_t tickstart = 0U;
 8003cc4:	2300      	movs	r3, #0
 8003cc6:	60fb      	str	r3, [r7, #12]

  /* ADC enable and wait for ADC ready (in case of ADC is disabled or         */
  /* enabling phase not yet completed: flag ADC ready not yet set).           */
  /* Timeout implemented to not be stuck if ADC cannot be enabled (possible   */
  /* causes: ADC clock not running, ...).                                     */
  if (ADC_IS_ENABLE(hadc) == RESET)
 8003cc8:	687b      	ldr	r3, [r7, #4]
 8003cca:	681b      	ldr	r3, [r3, #0]
 8003ccc:	689b      	ldr	r3, [r3, #8]
 8003cce:	2203      	movs	r2, #3
 8003cd0:	4013      	ands	r3, r2
 8003cd2:	2b01      	cmp	r3, #1
 8003cd4:	d108      	bne.n	8003ce8 <ADC_Enable+0x2c>
 8003cd6:	687b      	ldr	r3, [r7, #4]
 8003cd8:	681b      	ldr	r3, [r3, #0]
 8003cda:	681b      	ldr	r3, [r3, #0]
 8003cdc:	2201      	movs	r2, #1
 8003cde:	4013      	ands	r3, r2
 8003ce0:	2b01      	cmp	r3, #1
 8003ce2:	d101      	bne.n	8003ce8 <ADC_Enable+0x2c>
 8003ce4:	2301      	movs	r3, #1
 8003ce6:	e000      	b.n	8003cea <ADC_Enable+0x2e>
 8003ce8:	2300      	movs	r3, #0
 8003cea:	2b00      	cmp	r3, #0
 8003cec:	d146      	bne.n	8003d7c <ADC_Enable+0xc0>
  {
    /* Check if conditions to enable the ADC are fulfilled */
    if (ADC_ENABLING_CONDITIONS(hadc) == RESET)
 8003cee:	687b      	ldr	r3, [r7, #4]
 8003cf0:	681b      	ldr	r3, [r3, #0]
 8003cf2:	689b      	ldr	r3, [r3, #8]
 8003cf4:	4a24      	ldr	r2, [pc, #144]	; (8003d88 <ADC_Enable+0xcc>)
 8003cf6:	4013      	ands	r3, r2
 8003cf8:	d00d      	beq.n	8003d16 <ADC_Enable+0x5a>
    {
      /* Update ADC state machine to error */
      SET_BIT(hadc->State, HAL_ADC_STATE_ERROR_INTERNAL);
 8003cfa:	687b      	ldr	r3, [r7, #4]
 8003cfc:	6d5b      	ldr	r3, [r3, #84]	; 0x54
 8003cfe:	2210      	movs	r2, #16
 8003d00:	431a      	orrs	r2, r3
 8003d02:	687b      	ldr	r3, [r7, #4]
 8003d04:	655a      	str	r2, [r3, #84]	; 0x54
      
      /* Set ADC error code to ADC peripheral internal error */
      SET_BIT(hadc->ErrorCode, HAL_ADC_ERROR_INTERNAL);
 8003d06:	687b      	ldr	r3, [r7, #4]
 8003d08:	6d9b      	ldr	r3, [r3, #88]	; 0x58
 8003d0a:	2201      	movs	r2, #1
 8003d0c:	431a      	orrs	r2, r3
 8003d0e:	687b      	ldr	r3, [r7, #4]
 8003d10:	659a      	str	r2, [r3, #88]	; 0x58
      
      return HAL_ERROR;
 8003d12:	2301      	movs	r3, #1
 8003d14:	e033      	b.n	8003d7e <ADC_Enable+0xc2>
    }
    
    /* Enable the ADC peripheral */
    __HAL_ADC_ENABLE(hadc);
 8003d16:	687b      	ldr	r3, [r7, #4]
 8003d18:	681b      	ldr	r3, [r3, #0]
 8003d1a:	689a      	ldr	r2, [r3, #8]
 8003d1c:	687b      	ldr	r3, [r7, #4]
 8003d1e:	681b      	ldr	r3, [r3, #0]
 8003d20:	2101      	movs	r1, #1
 8003d22:	430a      	orrs	r2, r1
 8003d24:	609a      	str	r2, [r3, #8]
    
    /* Delay for ADC stabilization time. */
    ADC_DelayMicroSecond(ADC_STAB_DELAY_US);
 8003d26:	2001      	movs	r0, #1
 8003d28:	f000 f830 	bl	8003d8c <ADC_DelayMicroSecond>

    /* Get tick count */
    tickstart = HAL_GetTick();
 8003d2c:	f7ff fc88 	bl	8003640 <HAL_GetTick>
 8003d30:	0003      	movs	r3, r0
 8003d32:	60fb      	str	r3, [r7, #12]
    
    /* Wait for ADC effectively enabled */
    while(__HAL_ADC_GET_FLAG(hadc, ADC_FLAG_RDY) == RESET)
 8003d34:	e01b      	b.n	8003d6e <ADC_Enable+0xb2>
    {
      if((HAL_GetTick() - tickstart) > ADC_ENABLE_TIMEOUT)
 8003d36:	f7ff fc83 	bl	8003640 <HAL_GetTick>
 8003d3a:	0002      	movs	r2, r0
 8003d3c:	68fb      	ldr	r3, [r7, #12]
 8003d3e:	1ad3      	subs	r3, r2, r3
 8003d40:	2b0a      	cmp	r3, #10
 8003d42:	d914      	bls.n	8003d6e <ADC_Enable+0xb2>
      {
        /* New check to avoid false timeout detection in case of preemption */
        if(__HAL_ADC_GET_FLAG(hadc, ADC_FLAG_RDY) == RESET)
 8003d44:	687b      	ldr	r3, [r7, #4]
 8003d46:	681b      	ldr	r3, [r3, #0]
 8003d48:	681b      	ldr	r3, [r3, #0]
 8003d4a:	2201      	movs	r2, #1
 8003d4c:	4013      	ands	r3, r2
 8003d4e:	2b01      	cmp	r3, #1
 8003d50:	d00d      	beq.n	8003d6e <ADC_Enable+0xb2>
        {
          /* Update ADC state machine to error */
          SET_BIT(hadc->State, HAL_ADC_STATE_ERROR_INTERNAL);
 8003d52:	687b      	ldr	r3, [r7, #4]
 8003d54:	6d5b      	ldr	r3, [r3, #84]	; 0x54
 8003d56:	2210      	movs	r2, #16
 8003d58:	431a      	orrs	r2, r3
 8003d5a:	687b      	ldr	r3, [r7, #4]
 8003d5c:	655a      	str	r2, [r3, #84]	; 0x54

          /* Set ADC error code to ADC peripheral internal error */
          SET_BIT(hadc->ErrorCode, HAL_ADC_ERROR_INTERNAL);
 8003d5e:	687b      	ldr	r3, [r7, #4]
 8003d60:	6d9b      	ldr	r3, [r3, #88]	; 0x58
 8003d62:	2201      	movs	r2, #1
 8003d64:	431a      	orrs	r2, r3
 8003d66:	687b      	ldr	r3, [r7, #4]
 8003d68:	659a      	str	r2, [r3, #88]	; 0x58

          return HAL_ERROR;
 8003d6a:	2301      	movs	r3, #1
 8003d6c:	e007      	b.n	8003d7e <ADC_Enable+0xc2>
    while(__HAL_ADC_GET_FLAG(hadc, ADC_FLAG_RDY) == RESET)
 8003d6e:	687b      	ldr	r3, [r7, #4]
 8003d70:	681b      	ldr	r3, [r3, #0]
 8003d72:	681b      	ldr	r3, [r3, #0]
 8003d74:	2201      	movs	r2, #1
 8003d76:	4013      	ands	r3, r2
 8003d78:	2b01      	cmp	r3, #1
 8003d7a:	d1dc      	bne.n	8003d36 <ADC_Enable+0x7a>
      }
    }
  }
   
  /* Return HAL status */
  return HAL_OK;
 8003d7c:	2300      	movs	r3, #0
}
 8003d7e:	0018      	movs	r0, r3
 8003d80:	46bd      	mov	sp, r7
 8003d82:	b004      	add	sp, #16
 8003d84:	bd80      	pop	{r7, pc}
 8003d86:	46c0      	nop			; (mov r8, r8)
 8003d88:	80000017 	.word	0x80000017

08003d8c <ADC_DelayMicroSecond>:
  * @brief  Delay micro seconds 
  * @param  microSecond  delay
  * @retval None
  */
static void ADC_DelayMicroSecond(uint32_t microSecond)
{
 8003d8c:	b580      	push	{r7, lr}
 8003d8e:	b084      	sub	sp, #16
 8003d90:	af00      	add	r7, sp, #0
 8003d92:	6078      	str	r0, [r7, #4]
  /* Compute number of CPU cycles to wait for */
  __IO uint32_t waitLoopIndex = (microSecond * (SystemCoreClock / 1000000U));
 8003d94:	4b0b      	ldr	r3, [pc, #44]	; (8003dc4 <ADC_DelayMicroSecond+0x38>)
 8003d96:	681b      	ldr	r3, [r3, #0]
 8003d98:	490b      	ldr	r1, [pc, #44]	; (8003dc8 <ADC_DelayMicroSecond+0x3c>)
 8003d9a:	0018      	movs	r0, r3
 8003d9c:	f7fc f9be 	bl	800011c <__udivsi3>
 8003da0:	0003      	movs	r3, r0
 8003da2:	001a      	movs	r2, r3
 8003da4:	687b      	ldr	r3, [r7, #4]
 8003da6:	4353      	muls	r3, r2
 8003da8:	60fb      	str	r3, [r7, #12]

  while(waitLoopIndex != 0U)
 8003daa:	e002      	b.n	8003db2 <ADC_DelayMicroSecond+0x26>
  {
    waitLoopIndex--;
 8003dac:	68fb      	ldr	r3, [r7, #12]
 8003dae:	3b01      	subs	r3, #1
 8003db0:	60fb      	str	r3, [r7, #12]
  while(waitLoopIndex != 0U)
 8003db2:	68fb      	ldr	r3, [r7, #12]
 8003db4:	2b00      	cmp	r3, #0
 8003db6:	d1f9      	bne.n	8003dac <ADC_DelayMicroSecond+0x20>
  } 
}
 8003db8:	46c0      	nop			; (mov r8, r8)
 8003dba:	46c0      	nop			; (mov r8, r8)
 8003dbc:	46bd      	mov	sp, r7
 8003dbe:	b004      	add	sp, #16
 8003dc0:	bd80      	pop	{r7, pc}
 8003dc2:	46c0      	nop			; (mov r8, r8)
 8003dc4:	20000000 	.word	0x20000000
 8003dc8:	000f4240 	.word	0x000f4240

08003dcc <__NVIC_SetPriority>:
  \param [in]      IRQn  Interrupt number.
  \param [in]  priority  Priority to set.
  \note    The priority cannot be set for every processor exception.
 */
__STATIC_INLINE void __NVIC_SetPriority(IRQn_Type IRQn, uint32_t priority)
{
 8003dcc:	b590      	push	{r4, r7, lr}
 8003dce:	b083      	sub	sp, #12
 8003dd0:	af00      	add	r7, sp, #0
 8003dd2:	0002      	movs	r2, r0
 8003dd4:	6039      	str	r1, [r7, #0]
 8003dd6:	1dfb      	adds	r3, r7, #7
 8003dd8:	701a      	strb	r2, [r3, #0]
  if ((int32_t)(IRQn) >= 0)
 8003dda:	1dfb      	adds	r3, r7, #7
 8003ddc:	781b      	ldrb	r3, [r3, #0]
 8003dde:	2b7f      	cmp	r3, #127	; 0x7f
 8003de0:	d828      	bhi.n	8003e34 <__NVIC_SetPriority+0x68>
  {
    NVIC->IP[_IP_IDX(IRQn)]  = ((uint32_t)(NVIC->IP[_IP_IDX(IRQn)]  & ~(0xFFUL << _BIT_SHIFT(IRQn))) |
 8003de2:	4a2f      	ldr	r2, [pc, #188]	; (8003ea0 <__NVIC_SetPriority+0xd4>)
 8003de4:	1dfb      	adds	r3, r7, #7
 8003de6:	781b      	ldrb	r3, [r3, #0]
 8003de8:	b25b      	sxtb	r3, r3
 8003dea:	089b      	lsrs	r3, r3, #2
 8003dec:	33c0      	adds	r3, #192	; 0xc0
 8003dee:	009b      	lsls	r3, r3, #2
 8003df0:	589b      	ldr	r3, [r3, r2]
 8003df2:	1dfa      	adds	r2, r7, #7
 8003df4:	7812      	ldrb	r2, [r2, #0]
 8003df6:	0011      	movs	r1, r2
 8003df8:	2203      	movs	r2, #3
 8003dfa:	400a      	ands	r2, r1
 8003dfc:	00d2      	lsls	r2, r2, #3
 8003dfe:	21ff      	movs	r1, #255	; 0xff
 8003e00:	4091      	lsls	r1, r2
 8003e02:	000a      	movs	r2, r1
 8003e04:	43d2      	mvns	r2, r2
 8003e06:	401a      	ands	r2, r3
 8003e08:	0011      	movs	r1, r2
       (((priority << (8U - __NVIC_PRIO_BITS)) & (uint32_t)0xFFUL) << _BIT_SHIFT(IRQn)));
 8003e0a:	683b      	ldr	r3, [r7, #0]
 8003e0c:	019b      	lsls	r3, r3, #6
 8003e0e:	22ff      	movs	r2, #255	; 0xff
 8003e10:	401a      	ands	r2, r3
 8003e12:	1dfb      	adds	r3, r7, #7
 8003e14:	781b      	ldrb	r3, [r3, #0]
 8003e16:	0018      	movs	r0, r3
 8003e18:	2303      	movs	r3, #3
 8003e1a:	4003      	ands	r3, r0
 8003e1c:	00db      	lsls	r3, r3, #3
 8003e1e:	409a      	lsls	r2, r3
    NVIC->IP[_IP_IDX(IRQn)]  = ((uint32_t)(NVIC->IP[_IP_IDX(IRQn)]  & ~(0xFFUL << _BIT_SHIFT(IRQn))) |
 8003e20:	481f      	ldr	r0, [pc, #124]	; (8003ea0 <__NVIC_SetPriority+0xd4>)
 8003e22:	1dfb      	adds	r3, r7, #7
 8003e24:	781b      	ldrb	r3, [r3, #0]
 8003e26:	b25b      	sxtb	r3, r3
 8003e28:	089b      	lsrs	r3, r3, #2
 8003e2a:	430a      	orrs	r2, r1
 8003e2c:	33c0      	adds	r3, #192	; 0xc0
 8003e2e:	009b      	lsls	r3, r3, #2
 8003e30:	501a      	str	r2, [r3, r0]
  else
  {
    SCB->SHP[_SHP_IDX(IRQn)] = ((uint32_t)(SCB->SHP[_SHP_IDX(IRQn)] & ~(0xFFUL << _BIT_SHIFT(IRQn))) |
       (((priority << (8U - __NVIC_PRIO_BITS)) & (uint32_t)0xFFUL) << _BIT_SHIFT(IRQn)));
  }
}
 8003e32:	e031      	b.n	8003e98 <__NVIC_SetPriority+0xcc>
    SCB->SHP[_SHP_IDX(IRQn)] = ((uint32_t)(SCB->SHP[_SHP_IDX(IRQn)] & ~(0xFFUL << _BIT_SHIFT(IRQn))) |
 8003e34:	4a1b      	ldr	r2, [pc, #108]	; (8003ea4 <__NVIC_SetPriority+0xd8>)
 8003e36:	1dfb      	adds	r3, r7, #7
 8003e38:	781b      	ldrb	r3, [r3, #0]
 8003e3a:	0019      	movs	r1, r3
 8003e3c:	230f      	movs	r3, #15
 8003e3e:	400b      	ands	r3, r1
 8003e40:	3b08      	subs	r3, #8
 8003e42:	089b      	lsrs	r3, r3, #2
 8003e44:	3306      	adds	r3, #6
 8003e46:	009b      	lsls	r3, r3, #2
 8003e48:	18d3      	adds	r3, r2, r3
 8003e4a:	3304      	adds	r3, #4
 8003e4c:	681b      	ldr	r3, [r3, #0]
 8003e4e:	1dfa      	adds	r2, r7, #7
 8003e50:	7812      	ldrb	r2, [r2, #0]
 8003e52:	0011      	movs	r1, r2
 8003e54:	2203      	movs	r2, #3
 8003e56:	400a      	ands	r2, r1
 8003e58:	00d2      	lsls	r2, r2, #3
 8003e5a:	21ff      	movs	r1, #255	; 0xff
 8003e5c:	4091      	lsls	r1, r2
 8003e5e:	000a      	movs	r2, r1
 8003e60:	43d2      	mvns	r2, r2
 8003e62:	401a      	ands	r2, r3
 8003e64:	0011      	movs	r1, r2
       (((priority << (8U - __NVIC_PRIO_BITS)) & (uint32_t)0xFFUL) << _BIT_SHIFT(IRQn)));
 8003e66:	683b      	ldr	r3, [r7, #0]
 8003e68:	019b      	lsls	r3, r3, #6
 8003e6a:	22ff      	movs	r2, #255	; 0xff
 8003e6c:	401a      	ands	r2, r3
 8003e6e:	1dfb      	adds	r3, r7, #7
 8003e70:	781b      	ldrb	r3, [r3, #0]
 8003e72:	0018      	movs	r0, r3
 8003e74:	2303      	movs	r3, #3
 8003e76:	4003      	ands	r3, r0
 8003e78:	00db      	lsls	r3, r3, #3
 8003e7a:	409a      	lsls	r2, r3
    SCB->SHP[_SHP_IDX(IRQn)] = ((uint32_t)(SCB->SHP[_SHP_IDX(IRQn)] & ~(0xFFUL << _BIT_SHIFT(IRQn))) |
 8003e7c:	4809      	ldr	r0, [pc, #36]	; (8003ea4 <__NVIC_SetPriority+0xd8>)
 8003e7e:	1dfb      	adds	r3, r7, #7
 8003e80:	781b      	ldrb	r3, [r3, #0]
 8003e82:	001c      	movs	r4, r3
 8003e84:	230f      	movs	r3, #15
 8003e86:	4023      	ands	r3, r4
 8003e88:	3b08      	subs	r3, #8
 8003e8a:	089b      	lsrs	r3, r3, #2
 8003e8c:	430a      	orrs	r2, r1
 8003e8e:	3306      	adds	r3, #6
 8003e90:	009b      	lsls	r3, r3, #2
 8003e92:	18c3      	adds	r3, r0, r3
 8003e94:	3304      	adds	r3, #4
 8003e96:	601a      	str	r2, [r3, #0]
}
 8003e98:	46c0      	nop			; (mov r8, r8)
 8003e9a:	46bd      	mov	sp, r7
 8003e9c:	b003      	add	sp, #12
 8003e9e:	bd90      	pop	{r4, r7, pc}
 8003ea0:	e000e100 	.word	0xe000e100
 8003ea4:	e000ed00 	.word	0xe000ed00

08003ea8 <SysTick_Config>:
  \note    When the variable <b>__Vendor_SysTickConfig</b> is set to 1, then the
           function <b>SysTick_Config</b> is not included. In this case, the file <b><i>device</i>.h</b>
           must contain a vendor-specific implementation of this function.
 */
__STATIC_INLINE uint32_t SysTick_Config(uint32_t ticks)
{
 8003ea8:	b580      	push	{r7, lr}
 8003eaa:	b082      	sub	sp, #8
 8003eac:	af00      	add	r7, sp, #0
 8003eae:	6078      	str	r0, [r7, #4]
  if ((ticks - 1UL) > SysTick_LOAD_RELOAD_Msk)
 8003eb0:	687b      	ldr	r3, [r7, #4]
 8003eb2:	1e5a      	subs	r2, r3, #1
 8003eb4:	2380      	movs	r3, #128	; 0x80
 8003eb6:	045b      	lsls	r3, r3, #17
 8003eb8:	429a      	cmp	r2, r3
 8003eba:	d301      	bcc.n	8003ec0 <SysTick_Config+0x18>
  {
    return (1UL);                                                   /* Reload value impossible */
 8003ebc:	2301      	movs	r3, #1
 8003ebe:	e010      	b.n	8003ee2 <SysTick_Config+0x3a>
  }

  SysTick->LOAD  = (uint32_t)(ticks - 1UL);                         /* set reload register */
 8003ec0:	4b0a      	ldr	r3, [pc, #40]	; (8003eec <SysTick_Config+0x44>)
 8003ec2:	687a      	ldr	r2, [r7, #4]
 8003ec4:	3a01      	subs	r2, #1
 8003ec6:	605a      	str	r2, [r3, #4]
  NVIC_SetPriority (SysTick_IRQn, (1UL << __NVIC_PRIO_BITS) - 1UL); /* set Priority for Systick Interrupt */
 8003ec8:	2301      	movs	r3, #1
 8003eca:	425b      	negs	r3, r3
 8003ecc:	2103      	movs	r1, #3
 8003ece:	0018      	movs	r0, r3
 8003ed0:	f7ff ff7c 	bl	8003dcc <__NVIC_SetPriority>
  SysTick->VAL   = 0UL;                                             /* Load the SysTick Counter Value */
 8003ed4:	4b05      	ldr	r3, [pc, #20]	; (8003eec <SysTick_Config+0x44>)
 8003ed6:	2200      	movs	r2, #0
 8003ed8:	609a      	str	r2, [r3, #8]
  SysTick->CTRL  = SysTick_CTRL_CLKSOURCE_Msk |
 8003eda:	4b04      	ldr	r3, [pc, #16]	; (8003eec <SysTick_Config+0x44>)
 8003edc:	2207      	movs	r2, #7
 8003ede:	601a      	str	r2, [r3, #0]
                   SysTick_CTRL_TICKINT_Msk   |
                   SysTick_CTRL_ENABLE_Msk;                         /* Enable SysTick IRQ and SysTick Timer */
  return (0UL);                                                     /* Function successful */
 8003ee0:	2300      	movs	r3, #0
}
 8003ee2:	0018      	movs	r0, r3
 8003ee4:	46bd      	mov	sp, r7
 8003ee6:	b002      	add	sp, #8
 8003ee8:	bd80      	pop	{r7, pc}
 8003eea:	46c0      	nop			; (mov r8, r8)
 8003eec:	e000e010 	.word	0xe000e010

08003ef0 <HAL_NVIC_SetPriority>:
  *         with stm32l0xx devices, this parameter is a dummy value and it is ignored, because 
  *         no subpriority supported in Cortex M0+ based products.   
  * @retval None
  */
void HAL_NVIC_SetPriority(IRQn_Type IRQn, uint32_t PreemptPriority, uint32_t SubPriority)
{ 
 8003ef0:	b580      	push	{r7, lr}
 8003ef2:	b084      	sub	sp, #16
 8003ef4:	af00      	add	r7, sp, #0
 8003ef6:	60b9      	str	r1, [r7, #8]
 8003ef8:	607a      	str	r2, [r7, #4]
 8003efa:	210f      	movs	r1, #15
 8003efc:	187b      	adds	r3, r7, r1
 8003efe:	1c02      	adds	r2, r0, #0
 8003f00:	701a      	strb	r2, [r3, #0]
    /* Check the parameters */
  assert_param(IS_NVIC_PREEMPTION_PRIORITY(PreemptPriority));
  NVIC_SetPriority(IRQn,PreemptPriority);
 8003f02:	68ba      	ldr	r2, [r7, #8]
 8003f04:	187b      	adds	r3, r7, r1
 8003f06:	781b      	ldrb	r3, [r3, #0]
 8003f08:	b25b      	sxtb	r3, r3
 8003f0a:	0011      	movs	r1, r2
 8003f0c:	0018      	movs	r0, r3
 8003f0e:	f7ff ff5d 	bl	8003dcc <__NVIC_SetPriority>
}
 8003f12:	46c0      	nop			; (mov r8, r8)
 8003f14:	46bd      	mov	sp, r7
 8003f16:	b004      	add	sp, #16
 8003f18:	bd80      	pop	{r7, pc}

08003f1a <HAL_SYSTICK_Config>:
  * @param  TicksNumb Specifies the ticks Number of ticks between two interrupts.
  * @retval status:  - 0  Function succeeded.
  *                  - 1  Function failed.
  */
uint32_t HAL_SYSTICK_Config(uint32_t TicksNumb)
{
 8003f1a:	b580      	push	{r7, lr}
 8003f1c:	b082      	sub	sp, #8
 8003f1e:	af00      	add	r7, sp, #0
 8003f20:	6078      	str	r0, [r7, #4]
   return SysTick_Config(TicksNumb);
 8003f22:	687b      	ldr	r3, [r7, #4]
 8003f24:	0018      	movs	r0, r3
 8003f26:	f7ff ffbf 	bl	8003ea8 <SysTick_Config>
 8003f2a:	0003      	movs	r3, r0
}
 8003f2c:	0018      	movs	r0, r3
 8003f2e:	46bd      	mov	sp, r7
 8003f30:	b002      	add	sp, #8
 8003f32:	bd80      	pop	{r7, pc}

08003f34 <HAL_GPIO_Init>:
  * @param  GPIO_Init pointer to a GPIO_InitTypeDef structure that contains
  *                    the configuration information for the specified GPIO peripheral.
  * @retval None
  */
void HAL_GPIO_Init(GPIO_TypeDef  *GPIOx, GPIO_InitTypeDef *GPIO_Init)
{
 8003f34:	b580      	push	{r7, lr}
 8003f36:	b086      	sub	sp, #24
 8003f38:	af00      	add	r7, sp, #0
 8003f3a:	6078      	str	r0, [r7, #4]
 8003f3c:	6039      	str	r1, [r7, #0]
  uint32_t position = 0x00U;
 8003f3e:	2300      	movs	r3, #0
 8003f40:	617b      	str	r3, [r7, #20]
  uint32_t iocurrent = 0x00U;
 8003f42:	2300      	movs	r3, #0
 8003f44:	60fb      	str	r3, [r7, #12]
  uint32_t temp = 0x00U;
 8003f46:	2300      	movs	r3, #0
 8003f48:	613b      	str	r3, [r7, #16]
  /* Check the parameters */
  assert_param(IS_GPIO_MODE(GPIO_Init->Mode));
  assert_param(IS_GPIO_PIN_AVAILABLE(GPIOx, (GPIO_Init->Pin)));

  /* Configure the port pins */
  while (((GPIO_Init->Pin) >> position) != 0)
 8003f4a:	e155      	b.n	80041f8 <HAL_GPIO_Init+0x2c4>
  {
    /* Get the IO position */
    iocurrent = (GPIO_Init->Pin) & (1U << position);
 8003f4c:	683b      	ldr	r3, [r7, #0]
 8003f4e:	681b      	ldr	r3, [r3, #0]
 8003f50:	2101      	movs	r1, #1
 8003f52:	697a      	ldr	r2, [r7, #20]
 8003f54:	4091      	lsls	r1, r2
 8003f56:	000a      	movs	r2, r1
 8003f58:	4013      	ands	r3, r2
 8003f5a:	60fb      	str	r3, [r7, #12]

    if (iocurrent)
 8003f5c:	68fb      	ldr	r3, [r7, #12]
 8003f5e:	2b00      	cmp	r3, #0
 8003f60:	d100      	bne.n	8003f64 <HAL_GPIO_Init+0x30>
 8003f62:	e146      	b.n	80041f2 <HAL_GPIO_Init+0x2be>
    {
      /*--------------------- GPIO Mode Configuration ------------------------*/
      /* In case of Output or Alternate function mode selection */
      if (((GPIO_Init->Mode & GPIO_MODE) == MODE_OUTPUT) ||
 8003f64:	683b      	ldr	r3, [r7, #0]
 8003f66:	685b      	ldr	r3, [r3, #4]
 8003f68:	2203      	movs	r2, #3
 8003f6a:	4013      	ands	r3, r2
 8003f6c:	2b01      	cmp	r3, #1
 8003f6e:	d005      	beq.n	8003f7c <HAL_GPIO_Init+0x48>
          ((GPIO_Init->Mode & GPIO_MODE) == MODE_AF))
 8003f70:	683b      	ldr	r3, [r7, #0]
 8003f72:	685b      	ldr	r3, [r3, #4]
 8003f74:	2203      	movs	r2, #3
 8003f76:	4013      	ands	r3, r2
      if (((GPIO_Init->Mode & GPIO_MODE) == MODE_OUTPUT) ||
 8003f78:	2b02      	cmp	r3, #2
 8003f7a:	d130      	bne.n	8003fde <HAL_GPIO_Init+0xaa>
      {
        /* Check the Speed parameter */
        assert_param(IS_GPIO_SPEED(GPIO_Init->Speed));
        /* Configure the IO Speed */
        temp = GPIOx->OSPEEDR;
 8003f7c:	687b      	ldr	r3, [r7, #4]
 8003f7e:	689b      	ldr	r3, [r3, #8]
 8003f80:	613b      	str	r3, [r7, #16]
        temp &= ~(GPIO_OSPEEDER_OSPEED0 << (position * 2U));
 8003f82:	697b      	ldr	r3, [r7, #20]
 8003f84:	005b      	lsls	r3, r3, #1
 8003f86:	2203      	movs	r2, #3
 8003f88:	409a      	lsls	r2, r3
 8003f8a:	0013      	movs	r3, r2
 8003f8c:	43da      	mvns	r2, r3
 8003f8e:	693b      	ldr	r3, [r7, #16]
 8003f90:	4013      	ands	r3, r2
 8003f92:	613b      	str	r3, [r7, #16]
        temp |= (GPIO_Init->Speed << (position * 2U));
 8003f94:	683b      	ldr	r3, [r7, #0]
 8003f96:	68da      	ldr	r2, [r3, #12]
 8003f98:	697b      	ldr	r3, [r7, #20]
 8003f9a:	005b      	lsls	r3, r3, #1
 8003f9c:	409a      	lsls	r2, r3
 8003f9e:	0013      	movs	r3, r2
 8003fa0:	693a      	ldr	r2, [r7, #16]
 8003fa2:	4313      	orrs	r3, r2
 8003fa4:	613b      	str	r3, [r7, #16]
        GPIOx->OSPEEDR = temp;
 8003fa6:	687b      	ldr	r3, [r7, #4]
 8003fa8:	693a      	ldr	r2, [r7, #16]
 8003faa:	609a      	str	r2, [r3, #8]

        /* Configure the IO Output Type */
        temp = GPIOx->OTYPER;
 8003fac:	687b      	ldr	r3, [r7, #4]
 8003fae:	685b      	ldr	r3, [r3, #4]
 8003fb0:	613b      	str	r3, [r7, #16]
        temp &= ~(GPIO_OTYPER_OT_0 << position) ;
 8003fb2:	2201      	movs	r2, #1
 8003fb4:	697b      	ldr	r3, [r7, #20]
 8003fb6:	409a      	lsls	r2, r3
 8003fb8:	0013      	movs	r3, r2
 8003fba:	43da      	mvns	r2, r3
 8003fbc:	693b      	ldr	r3, [r7, #16]
 8003fbe:	4013      	ands	r3, r2
 8003fc0:	613b      	str	r3, [r7, #16]
        temp |= (((GPIO_Init->Mode & OUTPUT_TYPE) >> OUTPUT_TYPE_Pos) << position);
 8003fc2:	683b      	ldr	r3, [r7, #0]
 8003fc4:	685b      	ldr	r3, [r3, #4]
 8003fc6:	091b      	lsrs	r3, r3, #4
 8003fc8:	2201      	movs	r2, #1
 8003fca:	401a      	ands	r2, r3
 8003fcc:	697b      	ldr	r3, [r7, #20]
 8003fce:	409a      	lsls	r2, r3
 8003fd0:	0013      	movs	r3, r2
 8003fd2:	693a      	ldr	r2, [r7, #16]
 8003fd4:	4313      	orrs	r3, r2
 8003fd6:	613b      	str	r3, [r7, #16]
        GPIOx->OTYPER = temp;
 8003fd8:	687b      	ldr	r3, [r7, #4]
 8003fda:	693a      	ldr	r2, [r7, #16]
 8003fdc:	605a      	str	r2, [r3, #4]
      }

      if ((GPIO_Init->Mode & GPIO_MODE) != MODE_ANALOG)
 8003fde:	683b      	ldr	r3, [r7, #0]
 8003fe0:	685b      	ldr	r3, [r3, #4]
 8003fe2:	2203      	movs	r2, #3
 8003fe4:	4013      	ands	r3, r2
 8003fe6:	2b03      	cmp	r3, #3
 8003fe8:	d017      	beq.n	800401a <HAL_GPIO_Init+0xe6>
      {
        /* Check the Pull parameter */
        assert_param(IS_GPIO_PULL(GPIO_Init->Pull));

        /* Activate the Pull-up or Pull down resistor for the current IO */
        temp = GPIOx->PUPDR;
 8003fea:	687b      	ldr	r3, [r7, #4]
 8003fec:	68db      	ldr	r3, [r3, #12]
 8003fee:	613b      	str	r3, [r7, #16]
        temp &= ~(GPIO_PUPDR_PUPD0 << (position * 2U));
 8003ff0:	697b      	ldr	r3, [r7, #20]
 8003ff2:	005b      	lsls	r3, r3, #1
 8003ff4:	2203      	movs	r2, #3
 8003ff6:	409a      	lsls	r2, r3
 8003ff8:	0013      	movs	r3, r2
 8003ffa:	43da      	mvns	r2, r3
 8003ffc:	693b      	ldr	r3, [r7, #16]
 8003ffe:	4013      	ands	r3, r2
 8004000:	613b      	str	r3, [r7, #16]
        temp |= ((GPIO_Init->Pull) << (position * 2U));
 8004002:	683b      	ldr	r3, [r7, #0]
 8004004:	689a      	ldr	r2, [r3, #8]
 8004006:	697b      	ldr	r3, [r7, #20]
 8004008:	005b      	lsls	r3, r3, #1
 800400a:	409a      	lsls	r2, r3
 800400c:	0013      	movs	r3, r2
 800400e:	693a      	ldr	r2, [r7, #16]
 8004010:	4313      	orrs	r3, r2
 8004012:	613b      	str	r3, [r7, #16]
        GPIOx->PUPDR = temp;
 8004014:	687b      	ldr	r3, [r7, #4]
 8004016:	693a      	ldr	r2, [r7, #16]
 8004018:	60da      	str	r2, [r3, #12]
      }

      /* In case of Alternate function mode selection */
      if ((GPIO_Init->Mode & GPIO_MODE) == MODE_AF)
 800401a:	683b      	ldr	r3, [r7, #0]
 800401c:	685b      	ldr	r3, [r3, #4]
 800401e:	2203      	movs	r2, #3
 8004020:	4013      	ands	r3, r2
 8004022:	2b02      	cmp	r3, #2
 8004024:	d123      	bne.n	800406e <HAL_GPIO_Init+0x13a>
        /* Check the Alternate function parameters */
        assert_param(IS_GPIO_AF_INSTANCE(GPIOx));
        assert_param(IS_GPIO_AF(GPIO_Init->Alternate));

        /* Configure Alternate function mapped with the current IO */
        temp = GPIOx->AFR[position >> 3U];
 8004026:	697b      	ldr	r3, [r7, #20]
 8004028:	08da      	lsrs	r2, r3, #3
 800402a:	687b      	ldr	r3, [r7, #4]
 800402c:	3208      	adds	r2, #8
 800402e:	0092      	lsls	r2, r2, #2
 8004030:	58d3      	ldr	r3, [r2, r3]
 8004032:	613b      	str	r3, [r7, #16]
        temp &= ~(0xFUL << ((uint32_t)(position & 0x07UL) * 4U));
 8004034:	697b      	ldr	r3, [r7, #20]
 8004036:	2207      	movs	r2, #7
 8004038:	4013      	ands	r3, r2
 800403a:	009b      	lsls	r3, r3, #2
 800403c:	220f      	movs	r2, #15
 800403e:	409a      	lsls	r2, r3
 8004040:	0013      	movs	r3, r2
 8004042:	43da      	mvns	r2, r3
 8004044:	693b      	ldr	r3, [r7, #16]
 8004046:	4013      	ands	r3, r2
 8004048:	613b      	str	r3, [r7, #16]
        temp |= ((uint32_t)(GPIO_Init->Alternate) << (((uint32_t)position & (uint32_t)0x07U) * 4U));
 800404a:	683b      	ldr	r3, [r7, #0]
 800404c:	691a      	ldr	r2, [r3, #16]
 800404e:	697b      	ldr	r3, [r7, #20]
 8004050:	2107      	movs	r1, #7
 8004052:	400b      	ands	r3, r1
 8004054:	009b      	lsls	r3, r3, #2
 8004056:	409a      	lsls	r2, r3
 8004058:	0013      	movs	r3, r2
 800405a:	693a      	ldr	r2, [r7, #16]
 800405c:	4313      	orrs	r3, r2
 800405e:	613b      	str	r3, [r7, #16]
        GPIOx->AFR[position >> 3U] = temp;
 8004060:	697b      	ldr	r3, [r7, #20]
 8004062:	08da      	lsrs	r2, r3, #3
 8004064:	687b      	ldr	r3, [r7, #4]
 8004066:	3208      	adds	r2, #8
 8004068:	0092      	lsls	r2, r2, #2
 800406a:	6939      	ldr	r1, [r7, #16]
 800406c:	50d1      	str	r1, [r2, r3]
      }

      /* Configure IO Direction mode (Input, Output, Alternate or Analog) */
      temp = GPIOx->MODER;
 800406e:	687b      	ldr	r3, [r7, #4]
 8004070:	681b      	ldr	r3, [r3, #0]
 8004072:	613b      	str	r3, [r7, #16]
      temp &= ~(GPIO_MODER_MODE0 << (position * 2U));
 8004074:	697b      	ldr	r3, [r7, #20]
 8004076:	005b      	lsls	r3, r3, #1
 8004078:	2203      	movs	r2, #3
 800407a:	409a      	lsls	r2, r3
 800407c:	0013      	movs	r3, r2
 800407e:	43da      	mvns	r2, r3
 8004080:	693b      	ldr	r3, [r7, #16]
 8004082:	4013      	ands	r3, r2
 8004084:	613b      	str	r3, [r7, #16]
      temp |= ((GPIO_Init->Mode & GPIO_MODE) << (position * 2U));
 8004086:	683b      	ldr	r3, [r7, #0]
 8004088:	685b      	ldr	r3, [r3, #4]
 800408a:	2203      	movs	r2, #3
 800408c:	401a      	ands	r2, r3
 800408e:	697b      	ldr	r3, [r7, #20]
 8004090:	005b      	lsls	r3, r3, #1
 8004092:	409a      	lsls	r2, r3
 8004094:	0013      	movs	r3, r2
 8004096:	693a      	ldr	r2, [r7, #16]
 8004098:	4313      	orrs	r3, r2
 800409a:	613b      	str	r3, [r7, #16]
      GPIOx->MODER = temp;
 800409c:	687b      	ldr	r3, [r7, #4]
 800409e:	693a      	ldr	r2, [r7, #16]
 80040a0:	601a      	str	r2, [r3, #0]

      /*--------------------- EXTI Mode Configuration ------------------------*/
      /* Configure the External Interrupt or event for the current IO */
      if ((GPIO_Init->Mode & EXTI_MODE) != 0x00U)
 80040a2:	683b      	ldr	r3, [r7, #0]
 80040a4:	685a      	ldr	r2, [r3, #4]
 80040a6:	23c0      	movs	r3, #192	; 0xc0
 80040a8:	029b      	lsls	r3, r3, #10
 80040aa:	4013      	ands	r3, r2
 80040ac:	d100      	bne.n	80040b0 <HAL_GPIO_Init+0x17c>
 80040ae:	e0a0      	b.n	80041f2 <HAL_GPIO_Init+0x2be>
      {
        /* Enable SYSCFG Clock */
        __HAL_RCC_SYSCFG_CLK_ENABLE();
 80040b0:	4b57      	ldr	r3, [pc, #348]	; (8004210 <HAL_GPIO_Init+0x2dc>)
 80040b2:	6b5a      	ldr	r2, [r3, #52]	; 0x34
 80040b4:	4b56      	ldr	r3, [pc, #344]	; (8004210 <HAL_GPIO_Init+0x2dc>)
 80040b6:	2101      	movs	r1, #1
 80040b8:	430a      	orrs	r2, r1
 80040ba:	635a      	str	r2, [r3, #52]	; 0x34

        temp = SYSCFG->EXTICR[position >> 2U];
 80040bc:	4a55      	ldr	r2, [pc, #340]	; (8004214 <HAL_GPIO_Init+0x2e0>)
 80040be:	697b      	ldr	r3, [r7, #20]
 80040c0:	089b      	lsrs	r3, r3, #2
 80040c2:	3302      	adds	r3, #2
 80040c4:	009b      	lsls	r3, r3, #2
 80040c6:	589b      	ldr	r3, [r3, r2]
 80040c8:	613b      	str	r3, [r7, #16]
        CLEAR_BIT(temp, (0x0FUL) << (4U * (position & 0x03U)));
 80040ca:	697b      	ldr	r3, [r7, #20]
 80040cc:	2203      	movs	r2, #3
 80040ce:	4013      	ands	r3, r2
 80040d0:	009b      	lsls	r3, r3, #2
 80040d2:	220f      	movs	r2, #15
 80040d4:	409a      	lsls	r2, r3
 80040d6:	0013      	movs	r3, r2
 80040d8:	43da      	mvns	r2, r3
 80040da:	693b      	ldr	r3, [r7, #16]
 80040dc:	4013      	ands	r3, r2
 80040de:	613b      	str	r3, [r7, #16]
        SET_BIT(temp, (GPIO_GET_INDEX(GPIOx)) << (4 * (position & 0x03U)));
 80040e0:	687a      	ldr	r2, [r7, #4]
 80040e2:	23a0      	movs	r3, #160	; 0xa0
 80040e4:	05db      	lsls	r3, r3, #23
 80040e6:	429a      	cmp	r2, r3
 80040e8:	d01f      	beq.n	800412a <HAL_GPIO_Init+0x1f6>
 80040ea:	687b      	ldr	r3, [r7, #4]
 80040ec:	4a4a      	ldr	r2, [pc, #296]	; (8004218 <HAL_GPIO_Init+0x2e4>)
 80040ee:	4293      	cmp	r3, r2
 80040f0:	d019      	beq.n	8004126 <HAL_GPIO_Init+0x1f2>
 80040f2:	687b      	ldr	r3, [r7, #4]
 80040f4:	4a49      	ldr	r2, [pc, #292]	; (800421c <HAL_GPIO_Init+0x2e8>)
 80040f6:	4293      	cmp	r3, r2
 80040f8:	d013      	beq.n	8004122 <HAL_GPIO_Init+0x1ee>
 80040fa:	687b      	ldr	r3, [r7, #4]
 80040fc:	4a48      	ldr	r2, [pc, #288]	; (8004220 <HAL_GPIO_Init+0x2ec>)
 80040fe:	4293      	cmp	r3, r2
 8004100:	d00d      	beq.n	800411e <HAL_GPIO_Init+0x1ea>
 8004102:	687b      	ldr	r3, [r7, #4]
 8004104:	4a47      	ldr	r2, [pc, #284]	; (8004224 <HAL_GPIO_Init+0x2f0>)
 8004106:	4293      	cmp	r3, r2
 8004108:	d007      	beq.n	800411a <HAL_GPIO_Init+0x1e6>
 800410a:	687b      	ldr	r3, [r7, #4]
 800410c:	4a46      	ldr	r2, [pc, #280]	; (8004228 <HAL_GPIO_Init+0x2f4>)
 800410e:	4293      	cmp	r3, r2
 8004110:	d101      	bne.n	8004116 <HAL_GPIO_Init+0x1e2>
 8004112:	2305      	movs	r3, #5
 8004114:	e00a      	b.n	800412c <HAL_GPIO_Init+0x1f8>
 8004116:	2306      	movs	r3, #6
 8004118:	e008      	b.n	800412c <HAL_GPIO_Init+0x1f8>
 800411a:	2304      	movs	r3, #4
 800411c:	e006      	b.n	800412c <HAL_GPIO_Init+0x1f8>
 800411e:	2303      	movs	r3, #3
 8004120:	e004      	b.n	800412c <HAL_GPIO_Init+0x1f8>
 8004122:	2302      	movs	r3, #2
 8004124:	e002      	b.n	800412c <HAL_GPIO_Init+0x1f8>
 8004126:	2301      	movs	r3, #1
 8004128:	e000      	b.n	800412c <HAL_GPIO_Init+0x1f8>
 800412a:	2300      	movs	r3, #0
 800412c:	697a      	ldr	r2, [r7, #20]
 800412e:	2103      	movs	r1, #3
 8004130:	400a      	ands	r2, r1
 8004132:	0092      	lsls	r2, r2, #2
 8004134:	4093      	lsls	r3, r2
 8004136:	693a      	ldr	r2, [r7, #16]
 8004138:	4313      	orrs	r3, r2
 800413a:	613b      	str	r3, [r7, #16]
        SYSCFG->EXTICR[position >> 2U] = temp;
 800413c:	4935      	ldr	r1, [pc, #212]	; (8004214 <HAL_GPIO_Init+0x2e0>)
 800413e:	697b      	ldr	r3, [r7, #20]
 8004140:	089b      	lsrs	r3, r3, #2
 8004142:	3302      	adds	r3, #2
 8004144:	009b      	lsls	r3, r3, #2
 8004146:	693a      	ldr	r2, [r7, #16]
 8004148:	505a      	str	r2, [r3, r1]

        /* Clear EXTI line configuration */
        temp = EXTI->IMR;
 800414a:	4b38      	ldr	r3, [pc, #224]	; (800422c <HAL_GPIO_Init+0x2f8>)
 800414c:	681b      	ldr	r3, [r3, #0]
 800414e:	613b      	str	r3, [r7, #16]
        temp &= ~((uint32_t)iocurrent);
 8004150:	68fb      	ldr	r3, [r7, #12]
 8004152:	43da      	mvns	r2, r3
 8004154:	693b      	ldr	r3, [r7, #16]
 8004156:	4013      	ands	r3, r2
 8004158:	613b      	str	r3, [r7, #16]
        if ((GPIO_Init->Mode & EXTI_IT) != 0x00U)
 800415a:	683b      	ldr	r3, [r7, #0]
 800415c:	685a      	ldr	r2, [r3, #4]
 800415e:	2380      	movs	r3, #128	; 0x80
 8004160:	025b      	lsls	r3, r3, #9
 8004162:	4013      	ands	r3, r2
 8004164:	d003      	beq.n	800416e <HAL_GPIO_Init+0x23a>
        {
          temp |= iocurrent;
 8004166:	693a      	ldr	r2, [r7, #16]
 8004168:	68fb      	ldr	r3, [r7, #12]
 800416a:	4313      	orrs	r3, r2
 800416c:	613b      	str	r3, [r7, #16]
        }
        EXTI->IMR = temp;
 800416e:	4b2f      	ldr	r3, [pc, #188]	; (800422c <HAL_GPIO_Init+0x2f8>)
 8004170:	693a      	ldr	r2, [r7, #16]
 8004172:	601a      	str	r2, [r3, #0]

        temp = EXTI->EMR;
 8004174:	4b2d      	ldr	r3, [pc, #180]	; (800422c <HAL_GPIO_Init+0x2f8>)
 8004176:	685b      	ldr	r3, [r3, #4]
 8004178:	613b      	str	r3, [r7, #16]
        temp &= ~((uint32_t)iocurrent);
 800417a:	68fb      	ldr	r3, [r7, #12]
 800417c:	43da      	mvns	r2, r3
 800417e:	693b      	ldr	r3, [r7, #16]
 8004180:	4013      	ands	r3, r2
 8004182:	613b      	str	r3, [r7, #16]
        if ((GPIO_Init->Mode & EXTI_EVT) != 0x00U)
 8004184:	683b      	ldr	r3, [r7, #0]
 8004186:	685a      	ldr	r2, [r3, #4]
 8004188:	2380      	movs	r3, #128	; 0x80
 800418a:	029b      	lsls	r3, r3, #10
 800418c:	4013      	ands	r3, r2
 800418e:	d003      	beq.n	8004198 <HAL_GPIO_Init+0x264>
        {
          temp |= iocurrent;
 8004190:	693a      	ldr	r2, [r7, #16]
 8004192:	68fb      	ldr	r3, [r7, #12]
 8004194:	4313      	orrs	r3, r2
 8004196:	613b      	str	r3, [r7, #16]
        }
        EXTI->EMR = temp;
 8004198:	4b24      	ldr	r3, [pc, #144]	; (800422c <HAL_GPIO_Init+0x2f8>)
 800419a:	693a      	ldr	r2, [r7, #16]
 800419c:	605a      	str	r2, [r3, #4]

        /* Clear Rising Falling edge configuration */
        temp = EXTI->RTSR;
 800419e:	4b23      	ldr	r3, [pc, #140]	; (800422c <HAL_GPIO_Init+0x2f8>)
 80041a0:	689b      	ldr	r3, [r3, #8]
 80041a2:	613b      	str	r3, [r7, #16]
        temp &= ~((uint32_t)iocurrent);
 80041a4:	68fb      	ldr	r3, [r7, #12]
 80041a6:	43da      	mvns	r2, r3
 80041a8:	693b      	ldr	r3, [r7, #16]
 80041aa:	4013      	ands	r3, r2
 80041ac:	613b      	str	r3, [r7, #16]
        if ((GPIO_Init->Mode & TRIGGER_RISING) != 0x00U)
 80041ae:	683b      	ldr	r3, [r7, #0]
 80041b0:	685a      	ldr	r2, [r3, #4]
 80041b2:	2380      	movs	r3, #128	; 0x80
 80041b4:	035b      	lsls	r3, r3, #13
 80041b6:	4013      	ands	r3, r2
 80041b8:	d003      	beq.n	80041c2 <HAL_GPIO_Init+0x28e>
        {
          temp |= iocurrent;
 80041ba:	693a      	ldr	r2, [r7, #16]
 80041bc:	68fb      	ldr	r3, [r7, #12]
 80041be:	4313      	orrs	r3, r2
 80041c0:	613b      	str	r3, [r7, #16]
        }
        EXTI->RTSR = temp;
 80041c2:	4b1a      	ldr	r3, [pc, #104]	; (800422c <HAL_GPIO_Init+0x2f8>)
 80041c4:	693a      	ldr	r2, [r7, #16]
 80041c6:	609a      	str	r2, [r3, #8]

        temp = EXTI->FTSR;
 80041c8:	4b18      	ldr	r3, [pc, #96]	; (800422c <HAL_GPIO_Init+0x2f8>)
 80041ca:	68db      	ldr	r3, [r3, #12]
 80041cc:	613b      	str	r3, [r7, #16]
        temp &= ~((uint32_t)iocurrent);
 80041ce:	68fb      	ldr	r3, [r7, #12]
 80041d0:	43da      	mvns	r2, r3
 80041d2:	693b      	ldr	r3, [r7, #16]
 80041d4:	4013      	ands	r3, r2
 80041d6:	613b      	str	r3, [r7, #16]
        if ((GPIO_Init->Mode & TRIGGER_FALLING) != 0x00U)
 80041d8:	683b      	ldr	r3, [r7, #0]
 80041da:	685a      	ldr	r2, [r3, #4]
 80041dc:	2380      	movs	r3, #128	; 0x80
 80041de:	039b      	lsls	r3, r3, #14
 80041e0:	4013      	ands	r3, r2
 80041e2:	d003      	beq.n	80041ec <HAL_GPIO_Init+0x2b8>
        {
          temp |= iocurrent;
 80041e4:	693a      	ldr	r2, [r7, #16]
 80041e6:	68fb      	ldr	r3, [r7, #12]
 80041e8:	4313      	orrs	r3, r2
 80041ea:	613b      	str	r3, [r7, #16]
        }
        EXTI->FTSR = temp;
 80041ec:	4b0f      	ldr	r3, [pc, #60]	; (800422c <HAL_GPIO_Init+0x2f8>)
 80041ee:	693a      	ldr	r2, [r7, #16]
 80041f0:	60da      	str	r2, [r3, #12]
      }
    }
    position++;
 80041f2:	697b      	ldr	r3, [r7, #20]
 80041f4:	3301      	adds	r3, #1
 80041f6:	617b      	str	r3, [r7, #20]
  while (((GPIO_Init->Pin) >> position) != 0)
 80041f8:	683b      	ldr	r3, [r7, #0]
 80041fa:	681a      	ldr	r2, [r3, #0]
 80041fc:	697b      	ldr	r3, [r7, #20]
 80041fe:	40da      	lsrs	r2, r3
 8004200:	1e13      	subs	r3, r2, #0
 8004202:	d000      	beq.n	8004206 <HAL_GPIO_Init+0x2d2>
 8004204:	e6a2      	b.n	8003f4c <HAL_GPIO_Init+0x18>
  }
}
 8004206:	46c0      	nop			; (mov r8, r8)
 8004208:	46c0      	nop			; (mov r8, r8)
 800420a:	46bd      	mov	sp, r7
 800420c:	b006      	add	sp, #24
 800420e:	bd80      	pop	{r7, pc}
 8004210:	40021000 	.word	0x40021000
 8004214:	40010000 	.word	0x40010000
 8004218:	50000400 	.word	0x50000400
 800421c:	50000800 	.word	0x50000800
 8004220:	50000c00 	.word	0x50000c00
 8004224:	50001000 	.word	0x50001000
 8004228:	50001c00 	.word	0x50001c00
 800422c:	40010400 	.word	0x40010400

08004230 <HAL_GPIO_WritePin>:
  *                        GPIO_PIN_RESET: to clear the port pin
  *                        GPIO_PIN_SET: to set the port pin
  * @retval None
  */
void HAL_GPIO_WritePin(GPIO_TypeDef *GPIOx, uint16_t GPIO_Pin, GPIO_PinState PinState)
{
 8004230:	b580      	push	{r7, lr}
 8004232:	b082      	sub	sp, #8
 8004234:	af00      	add	r7, sp, #0
 8004236:	6078      	str	r0, [r7, #4]
 8004238:	0008      	movs	r0, r1
 800423a:	0011      	movs	r1, r2
 800423c:	1cbb      	adds	r3, r7, #2
 800423e:	1c02      	adds	r2, r0, #0
 8004240:	801a      	strh	r2, [r3, #0]
 8004242:	1c7b      	adds	r3, r7, #1
 8004244:	1c0a      	adds	r2, r1, #0
 8004246:	701a      	strb	r2, [r3, #0]
  /* Check the parameters */
  assert_param(IS_GPIO_PIN_AVAILABLE(GPIOx, GPIO_Pin));
  assert_param(IS_GPIO_PIN_ACTION(PinState));

  if (PinState != GPIO_PIN_RESET)
 8004248:	1c7b      	adds	r3, r7, #1
 800424a:	781b      	ldrb	r3, [r3, #0]
 800424c:	2b00      	cmp	r3, #0
 800424e:	d004      	beq.n	800425a <HAL_GPIO_WritePin+0x2a>
  {
    GPIOx->BSRR = GPIO_Pin;
 8004250:	1cbb      	adds	r3, r7, #2
 8004252:	881a      	ldrh	r2, [r3, #0]
 8004254:	687b      	ldr	r3, [r7, #4]
 8004256:	619a      	str	r2, [r3, #24]
  }
  else
  {
    GPIOx->BRR = GPIO_Pin ;
  }
}
 8004258:	e003      	b.n	8004262 <HAL_GPIO_WritePin+0x32>
    GPIOx->BRR = GPIO_Pin ;
 800425a:	1cbb      	adds	r3, r7, #2
 800425c:	881a      	ldrh	r2, [r3, #0]
 800425e:	687b      	ldr	r3, [r7, #4]
 8004260:	629a      	str	r2, [r3, #40]	; 0x28
}
 8004262:	46c0      	nop			; (mov r8, r8)
 8004264:	46bd      	mov	sp, r7
 8004266:	b002      	add	sp, #8
 8004268:	bd80      	pop	{r7, pc}
	...

0800426c <HAL_RCC_OscConfig>:
  *         supported by this macro. User should request a transition to HSE Off
  *         first and then HSE On or HSE Bypass.
  * @retval HAL status
  */
HAL_StatusTypeDef HAL_RCC_OscConfig(RCC_OscInitTypeDef  *RCC_OscInitStruct)
{
 800426c:	b5b0      	push	{r4, r5, r7, lr}
 800426e:	b08a      	sub	sp, #40	; 0x28
 8004270:	af00      	add	r7, sp, #0
 8004272:	6078      	str	r0, [r7, #4]
  uint32_t hsi_state;
  HAL_StatusTypeDef status;
  uint32_t sysclk_source, pll_config;

  /* Check Null pointer */
  if(RCC_OscInitStruct == NULL)
 8004274:	687b      	ldr	r3, [r7, #4]
 8004276:	2b00      	cmp	r3, #0
 8004278:	d102      	bne.n	8004280 <HAL_RCC_OscConfig+0x14>
  {
    return HAL_ERROR;
 800427a:	2301      	movs	r3, #1
 800427c:	f000 fbbf 	bl	80049fe <HAL_RCC_OscConfig+0x792>
  }

  /* Check the parameters */
  assert_param(IS_RCC_OSCILLATORTYPE(RCC_OscInitStruct->OscillatorType));

  sysclk_source = __HAL_RCC_GET_SYSCLK_SOURCE();
 8004280:	4bc9      	ldr	r3, [pc, #804]	; (80045a8 <HAL_RCC_OscConfig+0x33c>)
 8004282:	68db      	ldr	r3, [r3, #12]
 8004284:	220c      	movs	r2, #12
 8004286:	4013      	ands	r3, r2
 8004288:	61fb      	str	r3, [r7, #28]
  pll_config = __HAL_RCC_GET_PLL_OSCSOURCE();
 800428a:	4bc7      	ldr	r3, [pc, #796]	; (80045a8 <HAL_RCC_OscConfig+0x33c>)
 800428c:	68da      	ldr	r2, [r3, #12]
 800428e:	2380      	movs	r3, #128	; 0x80
 8004290:	025b      	lsls	r3, r3, #9
 8004292:	4013      	ands	r3, r2
 8004294:	61bb      	str	r3, [r7, #24]

  /*------------------------------- HSE Configuration ------------------------*/
  if(((RCC_OscInitStruct->OscillatorType) & RCC_OSCILLATORTYPE_HSE) == RCC_OSCILLATORTYPE_HSE)
 8004296:	687b      	ldr	r3, [r7, #4]
 8004298:	681b      	ldr	r3, [r3, #0]
 800429a:	2201      	movs	r2, #1
 800429c:	4013      	ands	r3, r2
 800429e:	d100      	bne.n	80042a2 <HAL_RCC_OscConfig+0x36>
 80042a0:	e07e      	b.n	80043a0 <HAL_RCC_OscConfig+0x134>
  {
    /* Check the parameters */
    assert_param(IS_RCC_HSE(RCC_OscInitStruct->HSEState));

    /* When the HSE is used as system clock or clock source for PLL in these cases it is not allowed to be disabled */
    if((sysclk_source == RCC_SYSCLKSOURCE_STATUS_HSE)
 80042a2:	69fb      	ldr	r3, [r7, #28]
 80042a4:	2b08      	cmp	r3, #8
 80042a6:	d007      	beq.n	80042b8 <HAL_RCC_OscConfig+0x4c>
       || ((sysclk_source == RCC_SYSCLKSOURCE_STATUS_PLLCLK) && (pll_config == RCC_PLLSOURCE_HSE)))
 80042a8:	69fb      	ldr	r3, [r7, #28]
 80042aa:	2b0c      	cmp	r3, #12
 80042ac:	d112      	bne.n	80042d4 <HAL_RCC_OscConfig+0x68>
 80042ae:	69ba      	ldr	r2, [r7, #24]
 80042b0:	2380      	movs	r3, #128	; 0x80
 80042b2:	025b      	lsls	r3, r3, #9
 80042b4:	429a      	cmp	r2, r3
 80042b6:	d10d      	bne.n	80042d4 <HAL_RCC_OscConfig+0x68>
    {
      if((__HAL_RCC_GET_FLAG(RCC_FLAG_HSERDY) != 0U) && (RCC_OscInitStruct->HSEState == RCC_HSE_OFF))
 80042b8:	4bbb      	ldr	r3, [pc, #748]	; (80045a8 <HAL_RCC_OscConfig+0x33c>)
 80042ba:	681a      	ldr	r2, [r3, #0]
 80042bc:	2380      	movs	r3, #128	; 0x80
 80042be:	029b      	lsls	r3, r3, #10
 80042c0:	4013      	ands	r3, r2
 80042c2:	d100      	bne.n	80042c6 <HAL_RCC_OscConfig+0x5a>
 80042c4:	e06b      	b.n	800439e <HAL_RCC_OscConfig+0x132>
 80042c6:	687b      	ldr	r3, [r7, #4]
 80042c8:	685b      	ldr	r3, [r3, #4]
 80042ca:	2b00      	cmp	r3, #0
 80042cc:	d167      	bne.n	800439e <HAL_RCC_OscConfig+0x132>
      {
        return HAL_ERROR;
 80042ce:	2301      	movs	r3, #1
 80042d0:	f000 fb95 	bl	80049fe <HAL_RCC_OscConfig+0x792>
      }
    }
    else
    {
      /* Set the new HSE configuration ---------------------------------------*/
      __HAL_RCC_HSE_CONFIG(RCC_OscInitStruct->HSEState);
 80042d4:	687b      	ldr	r3, [r7, #4]
 80042d6:	685a      	ldr	r2, [r3, #4]
 80042d8:	2380      	movs	r3, #128	; 0x80
 80042da:	025b      	lsls	r3, r3, #9
 80042dc:	429a      	cmp	r2, r3
 80042de:	d107      	bne.n	80042f0 <HAL_RCC_OscConfig+0x84>
 80042e0:	4bb1      	ldr	r3, [pc, #708]	; (80045a8 <HAL_RCC_OscConfig+0x33c>)
 80042e2:	681a      	ldr	r2, [r3, #0]
 80042e4:	4bb0      	ldr	r3, [pc, #704]	; (80045a8 <HAL_RCC_OscConfig+0x33c>)
 80042e6:	2180      	movs	r1, #128	; 0x80
 80042e8:	0249      	lsls	r1, r1, #9
 80042ea:	430a      	orrs	r2, r1
 80042ec:	601a      	str	r2, [r3, #0]
 80042ee:	e027      	b.n	8004340 <HAL_RCC_OscConfig+0xd4>
 80042f0:	687b      	ldr	r3, [r7, #4]
 80042f2:	685a      	ldr	r2, [r3, #4]
 80042f4:	23a0      	movs	r3, #160	; 0xa0
 80042f6:	02db      	lsls	r3, r3, #11
 80042f8:	429a      	cmp	r2, r3
 80042fa:	d10e      	bne.n	800431a <HAL_RCC_OscConfig+0xae>
 80042fc:	4baa      	ldr	r3, [pc, #680]	; (80045a8 <HAL_RCC_OscConfig+0x33c>)
 80042fe:	681a      	ldr	r2, [r3, #0]
 8004300:	4ba9      	ldr	r3, [pc, #676]	; (80045a8 <HAL_RCC_OscConfig+0x33c>)
 8004302:	2180      	movs	r1, #128	; 0x80
 8004304:	02c9      	lsls	r1, r1, #11
 8004306:	430a      	orrs	r2, r1
 8004308:	601a      	str	r2, [r3, #0]
 800430a:	4ba7      	ldr	r3, [pc, #668]	; (80045a8 <HAL_RCC_OscConfig+0x33c>)
 800430c:	681a      	ldr	r2, [r3, #0]
 800430e:	4ba6      	ldr	r3, [pc, #664]	; (80045a8 <HAL_RCC_OscConfig+0x33c>)
 8004310:	2180      	movs	r1, #128	; 0x80
 8004312:	0249      	lsls	r1, r1, #9
 8004314:	430a      	orrs	r2, r1
 8004316:	601a      	str	r2, [r3, #0]
 8004318:	e012      	b.n	8004340 <HAL_RCC_OscConfig+0xd4>
 800431a:	4ba3      	ldr	r3, [pc, #652]	; (80045a8 <HAL_RCC_OscConfig+0x33c>)
 800431c:	681a      	ldr	r2, [r3, #0]
 800431e:	4ba2      	ldr	r3, [pc, #648]	; (80045a8 <HAL_RCC_OscConfig+0x33c>)
 8004320:	49a2      	ldr	r1, [pc, #648]	; (80045ac <HAL_RCC_OscConfig+0x340>)
 8004322:	400a      	ands	r2, r1
 8004324:	601a      	str	r2, [r3, #0]
 8004326:	4ba0      	ldr	r3, [pc, #640]	; (80045a8 <HAL_RCC_OscConfig+0x33c>)
 8004328:	681a      	ldr	r2, [r3, #0]
 800432a:	2380      	movs	r3, #128	; 0x80
 800432c:	025b      	lsls	r3, r3, #9
 800432e:	4013      	ands	r3, r2
 8004330:	60fb      	str	r3, [r7, #12]
 8004332:	68fb      	ldr	r3, [r7, #12]
 8004334:	4b9c      	ldr	r3, [pc, #624]	; (80045a8 <HAL_RCC_OscConfig+0x33c>)
 8004336:	681a      	ldr	r2, [r3, #0]
 8004338:	4b9b      	ldr	r3, [pc, #620]	; (80045a8 <HAL_RCC_OscConfig+0x33c>)
 800433a:	499d      	ldr	r1, [pc, #628]	; (80045b0 <HAL_RCC_OscConfig+0x344>)
 800433c:	400a      	ands	r2, r1
 800433e:	601a      	str	r2, [r3, #0]

      /* Check the HSE State */
      if(RCC_OscInitStruct->HSEState != RCC_HSE_OFF)
 8004340:	687b      	ldr	r3, [r7, #4]
 8004342:	685b      	ldr	r3, [r3, #4]
 8004344:	2b00      	cmp	r3, #0
 8004346:	d015      	beq.n	8004374 <HAL_RCC_OscConfig+0x108>
      {
        /* Get Start Tick */
        tickstart = HAL_GetTick();
 8004348:	f7ff f97a 	bl	8003640 <HAL_GetTick>
 800434c:	0003      	movs	r3, r0
 800434e:	617b      	str	r3, [r7, #20]

        /* Wait till HSE is ready */
        while(__HAL_RCC_GET_FLAG(RCC_FLAG_HSERDY) == 0U)
 8004350:	e009      	b.n	8004366 <HAL_RCC_OscConfig+0xfa>
        {
          if((HAL_GetTick() - tickstart ) > HSE_TIMEOUT_VALUE)
 8004352:	f7ff f975 	bl	8003640 <HAL_GetTick>
 8004356:	0002      	movs	r2, r0
 8004358:	697b      	ldr	r3, [r7, #20]
 800435a:	1ad3      	subs	r3, r2, r3
 800435c:	2b64      	cmp	r3, #100	; 0x64
 800435e:	d902      	bls.n	8004366 <HAL_RCC_OscConfig+0xfa>
          {
            return HAL_TIMEOUT;
 8004360:	2303      	movs	r3, #3
 8004362:	f000 fb4c 	bl	80049fe <HAL_RCC_OscConfig+0x792>
        while(__HAL_RCC_GET_FLAG(RCC_FLAG_HSERDY) == 0U)
 8004366:	4b90      	ldr	r3, [pc, #576]	; (80045a8 <HAL_RCC_OscConfig+0x33c>)
 8004368:	681a      	ldr	r2, [r3, #0]
 800436a:	2380      	movs	r3, #128	; 0x80
 800436c:	029b      	lsls	r3, r3, #10
 800436e:	4013      	ands	r3, r2
 8004370:	d0ef      	beq.n	8004352 <HAL_RCC_OscConfig+0xe6>
 8004372:	e015      	b.n	80043a0 <HAL_RCC_OscConfig+0x134>
        }
      }
      else
      {
        /* Get Start Tick */
        tickstart = HAL_GetTick();
 8004374:	f7ff f964 	bl	8003640 <HAL_GetTick>
 8004378:	0003      	movs	r3, r0
 800437a:	617b      	str	r3, [r7, #20]

        /* Wait till HSE is disabled */
        while(__HAL_RCC_GET_FLAG(RCC_FLAG_HSERDY) != 0U)
 800437c:	e008      	b.n	8004390 <HAL_RCC_OscConfig+0x124>
        {
           if((HAL_GetTick() - tickstart ) > HSE_TIMEOUT_VALUE)
 800437e:	f7ff f95f 	bl	8003640 <HAL_GetTick>
 8004382:	0002      	movs	r2, r0
 8004384:	697b      	ldr	r3, [r7, #20]
 8004386:	1ad3      	subs	r3, r2, r3
 8004388:	2b64      	cmp	r3, #100	; 0x64
 800438a:	d901      	bls.n	8004390 <HAL_RCC_OscConfig+0x124>
          {
            return HAL_TIMEOUT;
 800438c:	2303      	movs	r3, #3
 800438e:	e336      	b.n	80049fe <HAL_RCC_OscConfig+0x792>
        while(__HAL_RCC_GET_FLAG(RCC_FLAG_HSERDY) != 0U)
 8004390:	4b85      	ldr	r3, [pc, #532]	; (80045a8 <HAL_RCC_OscConfig+0x33c>)
 8004392:	681a      	ldr	r2, [r3, #0]
 8004394:	2380      	movs	r3, #128	; 0x80
 8004396:	029b      	lsls	r3, r3, #10
 8004398:	4013      	ands	r3, r2
 800439a:	d1f0      	bne.n	800437e <HAL_RCC_OscConfig+0x112>
 800439c:	e000      	b.n	80043a0 <HAL_RCC_OscConfig+0x134>
      if((__HAL_RCC_GET_FLAG(RCC_FLAG_HSERDY) != 0U) && (RCC_OscInitStruct->HSEState == RCC_HSE_OFF))
 800439e:	46c0      	nop			; (mov r8, r8)
        }
      }
    }
  }
  /*----------------------------- HSI Configuration --------------------------*/
  if(((RCC_OscInitStruct->OscillatorType) & RCC_OSCILLATORTYPE_HSI) == RCC_OSCILLATORTYPE_HSI)
 80043a0:	687b      	ldr	r3, [r7, #4]
 80043a2:	681b      	ldr	r3, [r3, #0]
 80043a4:	2202      	movs	r2, #2
 80043a6:	4013      	ands	r3, r2
 80043a8:	d100      	bne.n	80043ac <HAL_RCC_OscConfig+0x140>
 80043aa:	e099      	b.n	80044e0 <HAL_RCC_OscConfig+0x274>
  {
    /* Check the parameters */
    assert_param(IS_RCC_HSI(RCC_OscInitStruct->HSIState));
    assert_param(IS_RCC_CALIBRATION_VALUE(RCC_OscInitStruct->HSICalibrationValue));

    hsi_state = RCC_OscInitStruct->HSIState;
 80043ac:	687b      	ldr	r3, [r7, #4]
 80043ae:	68db      	ldr	r3, [r3, #12]
 80043b0:	627b      	str	r3, [r7, #36]	; 0x24

#if defined(RCC_CR_HSIOUTEN)
    if((hsi_state & RCC_HSI_OUTEN) != 0U)
 80043b2:	6a7b      	ldr	r3, [r7, #36]	; 0x24
 80043b4:	2220      	movs	r2, #32
 80043b6:	4013      	ands	r3, r2
 80043b8:	d009      	beq.n	80043ce <HAL_RCC_OscConfig+0x162>
    {
      /* HSI Output enable for timer requested */
      SET_BIT(RCC->CR, RCC_CR_HSIOUTEN);
 80043ba:	4b7b      	ldr	r3, [pc, #492]	; (80045a8 <HAL_RCC_OscConfig+0x33c>)
 80043bc:	681a      	ldr	r2, [r3, #0]
 80043be:	4b7a      	ldr	r3, [pc, #488]	; (80045a8 <HAL_RCC_OscConfig+0x33c>)
 80043c0:	2120      	movs	r1, #32
 80043c2:	430a      	orrs	r2, r1
 80043c4:	601a      	str	r2, [r3, #0]

      hsi_state &= ~RCC_CR_HSIOUTEN;
 80043c6:	6a7b      	ldr	r3, [r7, #36]	; 0x24
 80043c8:	2220      	movs	r2, #32
 80043ca:	4393      	bics	r3, r2
 80043cc:	627b      	str	r3, [r7, #36]	; 0x24
    }
#endif

    /* Check if HSI is used as system clock or as PLL source when PLL is selected as system clock */
    if((sysclk_source == RCC_SYSCLKSOURCE_STATUS_HSI)
 80043ce:	69fb      	ldr	r3, [r7, #28]
 80043d0:	2b04      	cmp	r3, #4
 80043d2:	d005      	beq.n	80043e0 <HAL_RCC_OscConfig+0x174>
       || ((sysclk_source == RCC_SYSCLKSOURCE_STATUS_PLLCLK) && (pll_config == RCC_PLLSOURCE_HSI)))
 80043d4:	69fb      	ldr	r3, [r7, #28]
 80043d6:	2b0c      	cmp	r3, #12
 80043d8:	d13e      	bne.n	8004458 <HAL_RCC_OscConfig+0x1ec>
 80043da:	69bb      	ldr	r3, [r7, #24]
 80043dc:	2b00      	cmp	r3, #0
 80043de:	d13b      	bne.n	8004458 <HAL_RCC_OscConfig+0x1ec>
    {
      /* When HSI is used as system clock it will not disabled */
      if((__HAL_RCC_GET_FLAG(RCC_FLAG_HSIRDY) != 0U) && (hsi_state == RCC_HSI_OFF))
 80043e0:	4b71      	ldr	r3, [pc, #452]	; (80045a8 <HAL_RCC_OscConfig+0x33c>)
 80043e2:	681b      	ldr	r3, [r3, #0]
 80043e4:	2204      	movs	r2, #4
 80043e6:	4013      	ands	r3, r2
 80043e8:	d004      	beq.n	80043f4 <HAL_RCC_OscConfig+0x188>
 80043ea:	6a7b      	ldr	r3, [r7, #36]	; 0x24
 80043ec:	2b00      	cmp	r3, #0
 80043ee:	d101      	bne.n	80043f4 <HAL_RCC_OscConfig+0x188>
      {
        return HAL_ERROR;
 80043f0:	2301      	movs	r3, #1
 80043f2:	e304      	b.n	80049fe <HAL_RCC_OscConfig+0x792>
      }
      /* Otherwise, just the calibration and HSI or HSIdiv4 are allowed */
      else
      {
        /* Adjusts the Internal High Speed oscillator (HSI) calibration value.*/
        __HAL_RCC_HSI_CALIBRATIONVALUE_ADJUST(RCC_OscInitStruct->HSICalibrationValue);
 80043f4:	4b6c      	ldr	r3, [pc, #432]	; (80045a8 <HAL_RCC_OscConfig+0x33c>)
 80043f6:	685b      	ldr	r3, [r3, #4]
 80043f8:	4a6e      	ldr	r2, [pc, #440]	; (80045b4 <HAL_RCC_OscConfig+0x348>)
 80043fa:	4013      	ands	r3, r2
 80043fc:	0019      	movs	r1, r3
 80043fe:	687b      	ldr	r3, [r7, #4]
 8004400:	691b      	ldr	r3, [r3, #16]
 8004402:	021a      	lsls	r2, r3, #8
 8004404:	4b68      	ldr	r3, [pc, #416]	; (80045a8 <HAL_RCC_OscConfig+0x33c>)
 8004406:	430a      	orrs	r2, r1
 8004408:	605a      	str	r2, [r3, #4]

        /* Enable the Internal High Speed oscillator (HSI or HSIdiv4) */
        __HAL_RCC_HSI_CONFIG(hsi_state);
 800440a:	4b67      	ldr	r3, [pc, #412]	; (80045a8 <HAL_RCC_OscConfig+0x33c>)
 800440c:	681b      	ldr	r3, [r3, #0]
 800440e:	2209      	movs	r2, #9
 8004410:	4393      	bics	r3, r2
 8004412:	0019      	movs	r1, r3
 8004414:	4b64      	ldr	r3, [pc, #400]	; (80045a8 <HAL_RCC_OscConfig+0x33c>)
 8004416:	6a7a      	ldr	r2, [r7, #36]	; 0x24
 8004418:	430a      	orrs	r2, r1
 800441a:	601a      	str	r2, [r3, #0]
      }

      /* Update the SystemCoreClock global variable */
      SystemCoreClock = HAL_RCC_GetSysClockFreq() >> AHBPrescTable[(RCC->CFGR & RCC_CFGR_HPRE)>> RCC_CFGR_HPRE_Pos];
 800441c:	f000 fc42 	bl	8004ca4 <HAL_RCC_GetSysClockFreq>
 8004420:	0001      	movs	r1, r0
 8004422:	4b61      	ldr	r3, [pc, #388]	; (80045a8 <HAL_RCC_OscConfig+0x33c>)
 8004424:	68db      	ldr	r3, [r3, #12]
 8004426:	091b      	lsrs	r3, r3, #4
 8004428:	220f      	movs	r2, #15
 800442a:	4013      	ands	r3, r2
 800442c:	4a62      	ldr	r2, [pc, #392]	; (80045b8 <HAL_RCC_OscConfig+0x34c>)
 800442e:	5cd3      	ldrb	r3, [r2, r3]
 8004430:	000a      	movs	r2, r1
 8004432:	40da      	lsrs	r2, r3
 8004434:	4b61      	ldr	r3, [pc, #388]	; (80045bc <HAL_RCC_OscConfig+0x350>)
 8004436:	601a      	str	r2, [r3, #0]

      /* Configure the source of time base considering new system clocks settings*/
      status = HAL_InitTick (uwTickPrio);
 8004438:	4b61      	ldr	r3, [pc, #388]	; (80045c0 <HAL_RCC_OscConfig+0x354>)
 800443a:	681b      	ldr	r3, [r3, #0]
 800443c:	2513      	movs	r5, #19
 800443e:	197c      	adds	r4, r7, r5
 8004440:	0018      	movs	r0, r3
 8004442:	f7ff f8b7 	bl	80035b4 <HAL_InitTick>
 8004446:	0003      	movs	r3, r0
 8004448:	7023      	strb	r3, [r4, #0]
      if(status != HAL_OK)
 800444a:	197b      	adds	r3, r7, r5
 800444c:	781b      	ldrb	r3, [r3, #0]
 800444e:	2b00      	cmp	r3, #0
 8004450:	d046      	beq.n	80044e0 <HAL_RCC_OscConfig+0x274>
      {
        return status;
 8004452:	197b      	adds	r3, r7, r5
 8004454:	781b      	ldrb	r3, [r3, #0]
 8004456:	e2d2      	b.n	80049fe <HAL_RCC_OscConfig+0x792>
      }
    }
    else
    {
      /* Check the HSI State */
      if(hsi_state != RCC_HSI_OFF)
 8004458:	6a7b      	ldr	r3, [r7, #36]	; 0x24
 800445a:	2b00      	cmp	r3, #0
 800445c:	d027      	beq.n	80044ae <HAL_RCC_OscConfig+0x242>
      {
        /* Enable the Internal High Speed oscillator (HSI or HSIdiv4) */
        __HAL_RCC_HSI_CONFIG(hsi_state);
 800445e:	4b52      	ldr	r3, [pc, #328]	; (80045a8 <HAL_RCC_OscConfig+0x33c>)
 8004460:	681b      	ldr	r3, [r3, #0]
 8004462:	2209      	movs	r2, #9
 8004464:	4393      	bics	r3, r2
 8004466:	0019      	movs	r1, r3
 8004468:	4b4f      	ldr	r3, [pc, #316]	; (80045a8 <HAL_RCC_OscConfig+0x33c>)
 800446a:	6a7a      	ldr	r2, [r7, #36]	; 0x24
 800446c:	430a      	orrs	r2, r1
 800446e:	601a      	str	r2, [r3, #0]

        /* Get Start Tick */
        tickstart = HAL_GetTick();
 8004470:	f7ff f8e6 	bl	8003640 <HAL_GetTick>
 8004474:	0003      	movs	r3, r0
 8004476:	617b      	str	r3, [r7, #20]

        /* Wait till HSI is ready */
        while(__HAL_RCC_GET_FLAG(RCC_FLAG_HSIRDY) == 0U)
 8004478:	e008      	b.n	800448c <HAL_RCC_OscConfig+0x220>
        {
          if((HAL_GetTick() - tickstart ) > HSI_TIMEOUT_VALUE)
 800447a:	f7ff f8e1 	bl	8003640 <HAL_GetTick>
 800447e:	0002      	movs	r2, r0
 8004480:	697b      	ldr	r3, [r7, #20]
 8004482:	1ad3      	subs	r3, r2, r3
 8004484:	2b02      	cmp	r3, #2
 8004486:	d901      	bls.n	800448c <HAL_RCC_OscConfig+0x220>
          {
            return HAL_TIMEOUT;
 8004488:	2303      	movs	r3, #3
 800448a:	e2b8      	b.n	80049fe <HAL_RCC_OscConfig+0x792>
        while(__HAL_RCC_GET_FLAG(RCC_FLAG_HSIRDY) == 0U)
 800448c:	4b46      	ldr	r3, [pc, #280]	; (80045a8 <HAL_RCC_OscConfig+0x33c>)
 800448e:	681b      	ldr	r3, [r3, #0]
 8004490:	2204      	movs	r2, #4
 8004492:	4013      	ands	r3, r2
 8004494:	d0f1      	beq.n	800447a <HAL_RCC_OscConfig+0x20e>
          }
        }

        /* Adjusts the Internal High Speed oscillator (HSI) calibration value.*/
        __HAL_RCC_HSI_CALIBRATIONVALUE_ADJUST(RCC_OscInitStruct->HSICalibrationValue);
 8004496:	4b44      	ldr	r3, [pc, #272]	; (80045a8 <HAL_RCC_OscConfig+0x33c>)
 8004498:	685b      	ldr	r3, [r3, #4]
 800449a:	4a46      	ldr	r2, [pc, #280]	; (80045b4 <HAL_RCC_OscConfig+0x348>)
 800449c:	4013      	ands	r3, r2
 800449e:	0019      	movs	r1, r3
 80044a0:	687b      	ldr	r3, [r7, #4]
 80044a2:	691b      	ldr	r3, [r3, #16]
 80044a4:	021a      	lsls	r2, r3, #8
 80044a6:	4b40      	ldr	r3, [pc, #256]	; (80045a8 <HAL_RCC_OscConfig+0x33c>)
 80044a8:	430a      	orrs	r2, r1
 80044aa:	605a      	str	r2, [r3, #4]
 80044ac:	e018      	b.n	80044e0 <HAL_RCC_OscConfig+0x274>
      }
      else
      {
        /* Disable the Internal High Speed oscillator (HSI). */
        __HAL_RCC_HSI_DISABLE();
 80044ae:	4b3e      	ldr	r3, [pc, #248]	; (80045a8 <HAL_RCC_OscConfig+0x33c>)
 80044b0:	681a      	ldr	r2, [r3, #0]
 80044b2:	4b3d      	ldr	r3, [pc, #244]	; (80045a8 <HAL_RCC_OscConfig+0x33c>)
 80044b4:	2101      	movs	r1, #1
 80044b6:	438a      	bics	r2, r1
 80044b8:	601a      	str	r2, [r3, #0]

        /* Get Start Tick */
        tickstart = HAL_GetTick();
 80044ba:	f7ff f8c1 	bl	8003640 <HAL_GetTick>
 80044be:	0003      	movs	r3, r0
 80044c0:	617b      	str	r3, [r7, #20]

        /* Wait till HSI is disabled */
        while(__HAL_RCC_GET_FLAG(RCC_FLAG_HSIRDY) != 0U)
 80044c2:	e008      	b.n	80044d6 <HAL_RCC_OscConfig+0x26a>
        {
          if((HAL_GetTick() - tickstart ) > HSI_TIMEOUT_VALUE)
 80044c4:	f7ff f8bc 	bl	8003640 <HAL_GetTick>
 80044c8:	0002      	movs	r2, r0
 80044ca:	697b      	ldr	r3, [r7, #20]
 80044cc:	1ad3      	subs	r3, r2, r3
 80044ce:	2b02      	cmp	r3, #2
 80044d0:	d901      	bls.n	80044d6 <HAL_RCC_OscConfig+0x26a>
          {
            return HAL_TIMEOUT;
 80044d2:	2303      	movs	r3, #3
 80044d4:	e293      	b.n	80049fe <HAL_RCC_OscConfig+0x792>
        while(__HAL_RCC_GET_FLAG(RCC_FLAG_HSIRDY) != 0U)
 80044d6:	4b34      	ldr	r3, [pc, #208]	; (80045a8 <HAL_RCC_OscConfig+0x33c>)
 80044d8:	681b      	ldr	r3, [r3, #0]
 80044da:	2204      	movs	r2, #4
 80044dc:	4013      	ands	r3, r2
 80044de:	d1f1      	bne.n	80044c4 <HAL_RCC_OscConfig+0x258>
        }
      }
    }
  }
  /*----------------------------- MSI Configuration --------------------------*/
  if(((RCC_OscInitStruct->OscillatorType) & RCC_OSCILLATORTYPE_MSI) == RCC_OSCILLATORTYPE_MSI)
 80044e0:	687b      	ldr	r3, [r7, #4]
 80044e2:	681b      	ldr	r3, [r3, #0]
 80044e4:	2210      	movs	r2, #16
 80044e6:	4013      	ands	r3, r2
 80044e8:	d100      	bne.n	80044ec <HAL_RCC_OscConfig+0x280>
 80044ea:	e0a2      	b.n	8004632 <HAL_RCC_OscConfig+0x3c6>
  {
    /* When the MSI is used as system clock it will not be disabled */
    if(sysclk_source == RCC_CFGR_SWS_MSI)
 80044ec:	69fb      	ldr	r3, [r7, #28]
 80044ee:	2b00      	cmp	r3, #0
 80044f0:	d140      	bne.n	8004574 <HAL_RCC_OscConfig+0x308>
    {
      if((__HAL_RCC_GET_FLAG(RCC_FLAG_MSIRDY) != 0U) && (RCC_OscInitStruct->MSIState == RCC_MSI_OFF))
 80044f2:	4b2d      	ldr	r3, [pc, #180]	; (80045a8 <HAL_RCC_OscConfig+0x33c>)
 80044f4:	681a      	ldr	r2, [r3, #0]
 80044f6:	2380      	movs	r3, #128	; 0x80
 80044f8:	009b      	lsls	r3, r3, #2
 80044fa:	4013      	ands	r3, r2
 80044fc:	d005      	beq.n	800450a <HAL_RCC_OscConfig+0x29e>
 80044fe:	687b      	ldr	r3, [r7, #4]
 8004500:	69db      	ldr	r3, [r3, #28]
 8004502:	2b00      	cmp	r3, #0
 8004504:	d101      	bne.n	800450a <HAL_RCC_OscConfig+0x29e>
      {
        return HAL_ERROR;
 8004506:	2301      	movs	r3, #1
 8004508:	e279      	b.n	80049fe <HAL_RCC_OscConfig+0x792>
        /* Check MSICalibrationValue and MSIClockRange input parameters */
        assert_param(IS_RCC_MSICALIBRATION_VALUE(RCC_OscInitStruct->MSICalibrationValue));
        assert_param(IS_RCC_MSI_CLOCK_RANGE(RCC_OscInitStruct->MSIClockRange));

        /* Selects the Multiple Speed oscillator (MSI) clock range .*/
        __HAL_RCC_MSI_RANGE_CONFIG(RCC_OscInitStruct->MSIClockRange);
 800450a:	4b27      	ldr	r3, [pc, #156]	; (80045a8 <HAL_RCC_OscConfig+0x33c>)
 800450c:	685b      	ldr	r3, [r3, #4]
 800450e:	4a2d      	ldr	r2, [pc, #180]	; (80045c4 <HAL_RCC_OscConfig+0x358>)
 8004510:	4013      	ands	r3, r2
 8004512:	0019      	movs	r1, r3
 8004514:	687b      	ldr	r3, [r7, #4]
 8004516:	6a5a      	ldr	r2, [r3, #36]	; 0x24
 8004518:	4b23      	ldr	r3, [pc, #140]	; (80045a8 <HAL_RCC_OscConfig+0x33c>)
 800451a:	430a      	orrs	r2, r1
 800451c:	605a      	str	r2, [r3, #4]
        /* Adjusts the Multiple Speed oscillator (MSI) calibration value.*/
        __HAL_RCC_MSI_CALIBRATIONVALUE_ADJUST(RCC_OscInitStruct->MSICalibrationValue);
 800451e:	4b22      	ldr	r3, [pc, #136]	; (80045a8 <HAL_RCC_OscConfig+0x33c>)
 8004520:	685b      	ldr	r3, [r3, #4]
 8004522:	021b      	lsls	r3, r3, #8
 8004524:	0a19      	lsrs	r1, r3, #8
 8004526:	687b      	ldr	r3, [r7, #4]
 8004528:	6a1b      	ldr	r3, [r3, #32]
 800452a:	061a      	lsls	r2, r3, #24
 800452c:	4b1e      	ldr	r3, [pc, #120]	; (80045a8 <HAL_RCC_OscConfig+0x33c>)
 800452e:	430a      	orrs	r2, r1
 8004530:	605a      	str	r2, [r3, #4]


        /* Update the SystemCoreClock global variable */
        SystemCoreClock =  (32768U * (1UL << ((RCC_OscInitStruct->MSIClockRange >> RCC_ICSCR_MSIRANGE_Pos) + 1U)))
 8004532:	687b      	ldr	r3, [r7, #4]
 8004534:	6a5b      	ldr	r3, [r3, #36]	; 0x24
 8004536:	0b5b      	lsrs	r3, r3, #13
 8004538:	3301      	adds	r3, #1
 800453a:	2280      	movs	r2, #128	; 0x80
 800453c:	0212      	lsls	r2, r2, #8
 800453e:	409a      	lsls	r2, r3
                           >> AHBPrescTable[((RCC->CFGR & RCC_CFGR_HPRE) >> RCC_CFGR_HPRE_Pos)];
 8004540:	4b19      	ldr	r3, [pc, #100]	; (80045a8 <HAL_RCC_OscConfig+0x33c>)
 8004542:	68db      	ldr	r3, [r3, #12]
 8004544:	091b      	lsrs	r3, r3, #4
 8004546:	210f      	movs	r1, #15
 8004548:	400b      	ands	r3, r1
 800454a:	491b      	ldr	r1, [pc, #108]	; (80045b8 <HAL_RCC_OscConfig+0x34c>)
 800454c:	5ccb      	ldrb	r3, [r1, r3]
 800454e:	40da      	lsrs	r2, r3
        SystemCoreClock =  (32768U * (1UL << ((RCC_OscInitStruct->MSIClockRange >> RCC_ICSCR_MSIRANGE_Pos) + 1U)))
 8004550:	4b1a      	ldr	r3, [pc, #104]	; (80045bc <HAL_RCC_OscConfig+0x350>)
 8004552:	601a      	str	r2, [r3, #0]

        /* Configure the source of time base considering new system clocks settings*/
        status = HAL_InitTick (uwTickPrio);
 8004554:	4b1a      	ldr	r3, [pc, #104]	; (80045c0 <HAL_RCC_OscConfig+0x354>)
 8004556:	681b      	ldr	r3, [r3, #0]
 8004558:	2513      	movs	r5, #19
 800455a:	197c      	adds	r4, r7, r5
 800455c:	0018      	movs	r0, r3
 800455e:	f7ff f829 	bl	80035b4 <HAL_InitTick>
 8004562:	0003      	movs	r3, r0
 8004564:	7023      	strb	r3, [r4, #0]
        if(status != HAL_OK)
 8004566:	197b      	adds	r3, r7, r5
 8004568:	781b      	ldrb	r3, [r3, #0]
 800456a:	2b00      	cmp	r3, #0
 800456c:	d061      	beq.n	8004632 <HAL_RCC_OscConfig+0x3c6>
        {
          return status;
 800456e:	197b      	adds	r3, r7, r5
 8004570:	781b      	ldrb	r3, [r3, #0]
 8004572:	e244      	b.n	80049fe <HAL_RCC_OscConfig+0x792>
    {
      /* Check MSI State */
      assert_param(IS_RCC_MSI(RCC_OscInitStruct->MSIState));

      /* Check the MSI State */
      if(RCC_OscInitStruct->MSIState != RCC_MSI_OFF)
 8004574:	687b      	ldr	r3, [r7, #4]
 8004576:	69db      	ldr	r3, [r3, #28]
 8004578:	2b00      	cmp	r3, #0
 800457a:	d040      	beq.n	80045fe <HAL_RCC_OscConfig+0x392>
      {
        /* Enable the Multi Speed oscillator (MSI). */
        __HAL_RCC_MSI_ENABLE();
 800457c:	4b0a      	ldr	r3, [pc, #40]	; (80045a8 <HAL_RCC_OscConfig+0x33c>)
 800457e:	681a      	ldr	r2, [r3, #0]
 8004580:	4b09      	ldr	r3, [pc, #36]	; (80045a8 <HAL_RCC_OscConfig+0x33c>)
 8004582:	2180      	movs	r1, #128	; 0x80
 8004584:	0049      	lsls	r1, r1, #1
 8004586:	430a      	orrs	r2, r1
 8004588:	601a      	str	r2, [r3, #0]

        /* Get Start Tick */
        tickstart = HAL_GetTick();
 800458a:	f7ff f859 	bl	8003640 <HAL_GetTick>
 800458e:	0003      	movs	r3, r0
 8004590:	617b      	str	r3, [r7, #20]

        /* Wait till MSI is ready */
        while(__HAL_RCC_GET_FLAG(RCC_FLAG_MSIRDY) == 0U)
 8004592:	e019      	b.n	80045c8 <HAL_RCC_OscConfig+0x35c>
        {
          if((HAL_GetTick() - tickstart) > MSI_TIMEOUT_VALUE)
 8004594:	f7ff f854 	bl	8003640 <HAL_GetTick>
 8004598:	0002      	movs	r2, r0
 800459a:	697b      	ldr	r3, [r7, #20]
 800459c:	1ad3      	subs	r3, r2, r3
 800459e:	2b02      	cmp	r3, #2
 80045a0:	d912      	bls.n	80045c8 <HAL_RCC_OscConfig+0x35c>
          {
            return HAL_TIMEOUT;
 80045a2:	2303      	movs	r3, #3
 80045a4:	e22b      	b.n	80049fe <HAL_RCC_OscConfig+0x792>
 80045a6:	46c0      	nop			; (mov r8, r8)
 80045a8:	40021000 	.word	0x40021000
 80045ac:	fffeffff 	.word	0xfffeffff
 80045b0:	fffbffff 	.word	0xfffbffff
 80045b4:	ffffe0ff 	.word	0xffffe0ff
 80045b8:	08006c94 	.word	0x08006c94
 80045bc:	20000000 	.word	0x20000000
 80045c0:	20000004 	.word	0x20000004
 80045c4:	ffff1fff 	.word	0xffff1fff
        while(__HAL_RCC_GET_FLAG(RCC_FLAG_MSIRDY) == 0U)
 80045c8:	4bca      	ldr	r3, [pc, #808]	; (80048f4 <HAL_RCC_OscConfig+0x688>)
 80045ca:	681a      	ldr	r2, [r3, #0]
 80045cc:	2380      	movs	r3, #128	; 0x80
 80045ce:	009b      	lsls	r3, r3, #2
 80045d0:	4013      	ands	r3, r2
 80045d2:	d0df      	beq.n	8004594 <HAL_RCC_OscConfig+0x328>
        /* Check MSICalibrationValue and MSIClockRange input parameters */
        assert_param(IS_RCC_MSICALIBRATION_VALUE(RCC_OscInitStruct->MSICalibrationValue));
        assert_param(IS_RCC_MSI_CLOCK_RANGE(RCC_OscInitStruct->MSIClockRange));

        /* Selects the Multiple Speed oscillator (MSI) clock range .*/
        __HAL_RCC_MSI_RANGE_CONFIG(RCC_OscInitStruct->MSIClockRange);
 80045d4:	4bc7      	ldr	r3, [pc, #796]	; (80048f4 <HAL_RCC_OscConfig+0x688>)
 80045d6:	685b      	ldr	r3, [r3, #4]
 80045d8:	4ac7      	ldr	r2, [pc, #796]	; (80048f8 <HAL_RCC_OscConfig+0x68c>)
 80045da:	4013      	ands	r3, r2
 80045dc:	0019      	movs	r1, r3
 80045de:	687b      	ldr	r3, [r7, #4]
 80045e0:	6a5a      	ldr	r2, [r3, #36]	; 0x24
 80045e2:	4bc4      	ldr	r3, [pc, #784]	; (80048f4 <HAL_RCC_OscConfig+0x688>)
 80045e4:	430a      	orrs	r2, r1
 80045e6:	605a      	str	r2, [r3, #4]
         /* Adjusts the Multiple Speed oscillator (MSI) calibration value.*/
        __HAL_RCC_MSI_CALIBRATIONVALUE_ADJUST(RCC_OscInitStruct->MSICalibrationValue);
 80045e8:	4bc2      	ldr	r3, [pc, #776]	; (80048f4 <HAL_RCC_OscConfig+0x688>)
 80045ea:	685b      	ldr	r3, [r3, #4]
 80045ec:	021b      	lsls	r3, r3, #8
 80045ee:	0a19      	lsrs	r1, r3, #8
 80045f0:	687b      	ldr	r3, [r7, #4]
 80045f2:	6a1b      	ldr	r3, [r3, #32]
 80045f4:	061a      	lsls	r2, r3, #24
 80045f6:	4bbf      	ldr	r3, [pc, #764]	; (80048f4 <HAL_RCC_OscConfig+0x688>)
 80045f8:	430a      	orrs	r2, r1
 80045fa:	605a      	str	r2, [r3, #4]
 80045fc:	e019      	b.n	8004632 <HAL_RCC_OscConfig+0x3c6>
      }
      else
      {
        /* Disable the Multi Speed oscillator (MSI). */
        __HAL_RCC_MSI_DISABLE();
 80045fe:	4bbd      	ldr	r3, [pc, #756]	; (80048f4 <HAL_RCC_OscConfig+0x688>)
 8004600:	681a      	ldr	r2, [r3, #0]
 8004602:	4bbc      	ldr	r3, [pc, #752]	; (80048f4 <HAL_RCC_OscConfig+0x688>)
 8004604:	49bd      	ldr	r1, [pc, #756]	; (80048fc <HAL_RCC_OscConfig+0x690>)
 8004606:	400a      	ands	r2, r1
 8004608:	601a      	str	r2, [r3, #0]

        /* Get Start Tick */
        tickstart = HAL_GetTick();
 800460a:	f7ff f819 	bl	8003640 <HAL_GetTick>
 800460e:	0003      	movs	r3, r0
 8004610:	617b      	str	r3, [r7, #20]

        /* Wait till MSI is ready */
        while(__HAL_RCC_GET_FLAG(RCC_FLAG_MSIRDY) != 0U)
 8004612:	e008      	b.n	8004626 <HAL_RCC_OscConfig+0x3ba>
        {
          if((HAL_GetTick() - tickstart) > MSI_TIMEOUT_VALUE)
 8004614:	f7ff f814 	bl	8003640 <HAL_GetTick>
 8004618:	0002      	movs	r2, r0
 800461a:	697b      	ldr	r3, [r7, #20]
 800461c:	1ad3      	subs	r3, r2, r3
 800461e:	2b02      	cmp	r3, #2
 8004620:	d901      	bls.n	8004626 <HAL_RCC_OscConfig+0x3ba>
          {
            return HAL_TIMEOUT;
 8004622:	2303      	movs	r3, #3
 8004624:	e1eb      	b.n	80049fe <HAL_RCC_OscConfig+0x792>
        while(__HAL_RCC_GET_FLAG(RCC_FLAG_MSIRDY) != 0U)
 8004626:	4bb3      	ldr	r3, [pc, #716]	; (80048f4 <HAL_RCC_OscConfig+0x688>)
 8004628:	681a      	ldr	r2, [r3, #0]
 800462a:	2380      	movs	r3, #128	; 0x80
 800462c:	009b      	lsls	r3, r3, #2
 800462e:	4013      	ands	r3, r2
 8004630:	d1f0      	bne.n	8004614 <HAL_RCC_OscConfig+0x3a8>
        }
      }
    }
  }
  /*------------------------------ LSI Configuration -------------------------*/
  if(((RCC_OscInitStruct->OscillatorType) & RCC_OSCILLATORTYPE_LSI) == RCC_OSCILLATORTYPE_LSI)
 8004632:	687b      	ldr	r3, [r7, #4]
 8004634:	681b      	ldr	r3, [r3, #0]
 8004636:	2208      	movs	r2, #8
 8004638:	4013      	ands	r3, r2
 800463a:	d036      	beq.n	80046aa <HAL_RCC_OscConfig+0x43e>
  {
    /* Check the parameters */
    assert_param(IS_RCC_LSI(RCC_OscInitStruct->LSIState));

    /* Check the LSI State */
    if(RCC_OscInitStruct->LSIState != RCC_LSI_OFF)
 800463c:	687b      	ldr	r3, [r7, #4]
 800463e:	695b      	ldr	r3, [r3, #20]
 8004640:	2b00      	cmp	r3, #0
 8004642:	d019      	beq.n	8004678 <HAL_RCC_OscConfig+0x40c>
    {
      /* Enable the Internal Low Speed oscillator (LSI). */
      __HAL_RCC_LSI_ENABLE();
 8004644:	4bab      	ldr	r3, [pc, #684]	; (80048f4 <HAL_RCC_OscConfig+0x688>)
 8004646:	6d1a      	ldr	r2, [r3, #80]	; 0x50
 8004648:	4baa      	ldr	r3, [pc, #680]	; (80048f4 <HAL_RCC_OscConfig+0x688>)
 800464a:	2101      	movs	r1, #1
 800464c:	430a      	orrs	r2, r1
 800464e:	651a      	str	r2, [r3, #80]	; 0x50

      /* Get Start Tick */
      tickstart = HAL_GetTick();
 8004650:	f7fe fff6 	bl	8003640 <HAL_GetTick>
 8004654:	0003      	movs	r3, r0
 8004656:	617b      	str	r3, [r7, #20]

      /* Wait till LSI is ready */
      while(__HAL_RCC_GET_FLAG(RCC_FLAG_LSIRDY) == 0U)
 8004658:	e008      	b.n	800466c <HAL_RCC_OscConfig+0x400>
      {
        if((HAL_GetTick() - tickstart ) > LSI_TIMEOUT_VALUE)
 800465a:	f7fe fff1 	bl	8003640 <HAL_GetTick>
 800465e:	0002      	movs	r2, r0
 8004660:	697b      	ldr	r3, [r7, #20]
 8004662:	1ad3      	subs	r3, r2, r3
 8004664:	2b02      	cmp	r3, #2
 8004666:	d901      	bls.n	800466c <HAL_RCC_OscConfig+0x400>
        {
          return HAL_TIMEOUT;
 8004668:	2303      	movs	r3, #3
 800466a:	e1c8      	b.n	80049fe <HAL_RCC_OscConfig+0x792>
      while(__HAL_RCC_GET_FLAG(RCC_FLAG_LSIRDY) == 0U)
 800466c:	4ba1      	ldr	r3, [pc, #644]	; (80048f4 <HAL_RCC_OscConfig+0x688>)
 800466e:	6d1b      	ldr	r3, [r3, #80]	; 0x50
 8004670:	2202      	movs	r2, #2
 8004672:	4013      	ands	r3, r2
 8004674:	d0f1      	beq.n	800465a <HAL_RCC_OscConfig+0x3ee>
 8004676:	e018      	b.n	80046aa <HAL_RCC_OscConfig+0x43e>
      }
    }
    else
    {
      /* Disable the Internal Low Speed oscillator (LSI). */
      __HAL_RCC_LSI_DISABLE();
 8004678:	4b9e      	ldr	r3, [pc, #632]	; (80048f4 <HAL_RCC_OscConfig+0x688>)
 800467a:	6d1a      	ldr	r2, [r3, #80]	; 0x50
 800467c:	4b9d      	ldr	r3, [pc, #628]	; (80048f4 <HAL_RCC_OscConfig+0x688>)
 800467e:	2101      	movs	r1, #1
 8004680:	438a      	bics	r2, r1
 8004682:	651a      	str	r2, [r3, #80]	; 0x50

      /* Get Start Tick */
      tickstart = HAL_GetTick();
 8004684:	f7fe ffdc 	bl	8003640 <HAL_GetTick>
 8004688:	0003      	movs	r3, r0
 800468a:	617b      	str	r3, [r7, #20]

      /* Wait till LSI is disabled */
      while(__HAL_RCC_GET_FLAG(RCC_FLAG_LSIRDY) != 0U)
 800468c:	e008      	b.n	80046a0 <HAL_RCC_OscConfig+0x434>
      {
        if((HAL_GetTick() - tickstart ) > LSI_TIMEOUT_VALUE)
 800468e:	f7fe ffd7 	bl	8003640 <HAL_GetTick>
 8004692:	0002      	movs	r2, r0
 8004694:	697b      	ldr	r3, [r7, #20]
 8004696:	1ad3      	subs	r3, r2, r3
 8004698:	2b02      	cmp	r3, #2
 800469a:	d901      	bls.n	80046a0 <HAL_RCC_OscConfig+0x434>
        {
          return HAL_TIMEOUT;
 800469c:	2303      	movs	r3, #3
 800469e:	e1ae      	b.n	80049fe <HAL_RCC_OscConfig+0x792>
      while(__HAL_RCC_GET_FLAG(RCC_FLAG_LSIRDY) != 0U)
 80046a0:	4b94      	ldr	r3, [pc, #592]	; (80048f4 <HAL_RCC_OscConfig+0x688>)
 80046a2:	6d1b      	ldr	r3, [r3, #80]	; 0x50
 80046a4:	2202      	movs	r2, #2
 80046a6:	4013      	ands	r3, r2
 80046a8:	d1f1      	bne.n	800468e <HAL_RCC_OscConfig+0x422>
        }
      }
    }
  }
  /*------------------------------ LSE Configuration -------------------------*/
  if(((RCC_OscInitStruct->OscillatorType) & RCC_OSCILLATORTYPE_LSE) == RCC_OSCILLATORTYPE_LSE)
 80046aa:	687b      	ldr	r3, [r7, #4]
 80046ac:	681b      	ldr	r3, [r3, #0]
 80046ae:	2204      	movs	r2, #4
 80046b0:	4013      	ands	r3, r2
 80046b2:	d100      	bne.n	80046b6 <HAL_RCC_OscConfig+0x44a>
 80046b4:	e0ae      	b.n	8004814 <HAL_RCC_OscConfig+0x5a8>
  {
    FlagStatus       pwrclkchanged = RESET;
 80046b6:	2023      	movs	r0, #35	; 0x23
 80046b8:	183b      	adds	r3, r7, r0
 80046ba:	2200      	movs	r2, #0
 80046bc:	701a      	strb	r2, [r3, #0]
    /* Check the parameters */
    assert_param(IS_RCC_LSE(RCC_OscInitStruct->LSEState));

    /* Update LSE configuration in Backup Domain control register    */
    /* Requires to enable write access to Backup Domain of necessary */
    if(__HAL_RCC_PWR_IS_CLK_DISABLED())
 80046be:	4b8d      	ldr	r3, [pc, #564]	; (80048f4 <HAL_RCC_OscConfig+0x688>)
 80046c0:	6b9a      	ldr	r2, [r3, #56]	; 0x38
 80046c2:	2380      	movs	r3, #128	; 0x80
 80046c4:	055b      	lsls	r3, r3, #21
 80046c6:	4013      	ands	r3, r2
 80046c8:	d109      	bne.n	80046de <HAL_RCC_OscConfig+0x472>
    {
      __HAL_RCC_PWR_CLK_ENABLE();
 80046ca:	4b8a      	ldr	r3, [pc, #552]	; (80048f4 <HAL_RCC_OscConfig+0x688>)
 80046cc:	6b9a      	ldr	r2, [r3, #56]	; 0x38
 80046ce:	4b89      	ldr	r3, [pc, #548]	; (80048f4 <HAL_RCC_OscConfig+0x688>)
 80046d0:	2180      	movs	r1, #128	; 0x80
 80046d2:	0549      	lsls	r1, r1, #21
 80046d4:	430a      	orrs	r2, r1
 80046d6:	639a      	str	r2, [r3, #56]	; 0x38
      pwrclkchanged = SET;
 80046d8:	183b      	adds	r3, r7, r0
 80046da:	2201      	movs	r2, #1
 80046dc:	701a      	strb	r2, [r3, #0]
    }

    if(HAL_IS_BIT_CLR(PWR->CR, PWR_CR_DBP))
 80046de:	4b88      	ldr	r3, [pc, #544]	; (8004900 <HAL_RCC_OscConfig+0x694>)
 80046e0:	681a      	ldr	r2, [r3, #0]
 80046e2:	2380      	movs	r3, #128	; 0x80
 80046e4:	005b      	lsls	r3, r3, #1
 80046e6:	4013      	ands	r3, r2
 80046e8:	d11a      	bne.n	8004720 <HAL_RCC_OscConfig+0x4b4>
    {
      /* Enable write access to Backup domain */
      SET_BIT(PWR->CR, PWR_CR_DBP);
 80046ea:	4b85      	ldr	r3, [pc, #532]	; (8004900 <HAL_RCC_OscConfig+0x694>)
 80046ec:	681a      	ldr	r2, [r3, #0]
 80046ee:	4b84      	ldr	r3, [pc, #528]	; (8004900 <HAL_RCC_OscConfig+0x694>)
 80046f0:	2180      	movs	r1, #128	; 0x80
 80046f2:	0049      	lsls	r1, r1, #1
 80046f4:	430a      	orrs	r2, r1
 80046f6:	601a      	str	r2, [r3, #0]

      /* Wait for Backup domain Write protection disable */
      tickstart = HAL_GetTick();
 80046f8:	f7fe ffa2 	bl	8003640 <HAL_GetTick>
 80046fc:	0003      	movs	r3, r0
 80046fe:	617b      	str	r3, [r7, #20]

      while(HAL_IS_BIT_CLR(PWR->CR, PWR_CR_DBP))
 8004700:	e008      	b.n	8004714 <HAL_RCC_OscConfig+0x4a8>
      {
        if((HAL_GetTick() - tickstart) > RCC_DBP_TIMEOUT_VALUE)
 8004702:	f7fe ff9d 	bl	8003640 <HAL_GetTick>
 8004706:	0002      	movs	r2, r0
 8004708:	697b      	ldr	r3, [r7, #20]
 800470a:	1ad3      	subs	r3, r2, r3
 800470c:	2b64      	cmp	r3, #100	; 0x64
 800470e:	d901      	bls.n	8004714 <HAL_RCC_OscConfig+0x4a8>
        {
          return HAL_TIMEOUT;
 8004710:	2303      	movs	r3, #3
 8004712:	e174      	b.n	80049fe <HAL_RCC_OscConfig+0x792>
      while(HAL_IS_BIT_CLR(PWR->CR, PWR_CR_DBP))
 8004714:	4b7a      	ldr	r3, [pc, #488]	; (8004900 <HAL_RCC_OscConfig+0x694>)
 8004716:	681a      	ldr	r2, [r3, #0]
 8004718:	2380      	movs	r3, #128	; 0x80
 800471a:	005b      	lsls	r3, r3, #1
 800471c:	4013      	ands	r3, r2
 800471e:	d0f0      	beq.n	8004702 <HAL_RCC_OscConfig+0x496>
        }
      }
    }

    /* Set the new LSE configuration -----------------------------------------*/
    __HAL_RCC_LSE_CONFIG(RCC_OscInitStruct->LSEState);
 8004720:	687b      	ldr	r3, [r7, #4]
 8004722:	689a      	ldr	r2, [r3, #8]
 8004724:	2380      	movs	r3, #128	; 0x80
 8004726:	005b      	lsls	r3, r3, #1
 8004728:	429a      	cmp	r2, r3
 800472a:	d107      	bne.n	800473c <HAL_RCC_OscConfig+0x4d0>
 800472c:	4b71      	ldr	r3, [pc, #452]	; (80048f4 <HAL_RCC_OscConfig+0x688>)
 800472e:	6d1a      	ldr	r2, [r3, #80]	; 0x50
 8004730:	4b70      	ldr	r3, [pc, #448]	; (80048f4 <HAL_RCC_OscConfig+0x688>)
 8004732:	2180      	movs	r1, #128	; 0x80
 8004734:	0049      	lsls	r1, r1, #1
 8004736:	430a      	orrs	r2, r1
 8004738:	651a      	str	r2, [r3, #80]	; 0x50
 800473a:	e031      	b.n	80047a0 <HAL_RCC_OscConfig+0x534>
 800473c:	687b      	ldr	r3, [r7, #4]
 800473e:	689b      	ldr	r3, [r3, #8]
 8004740:	2b00      	cmp	r3, #0
 8004742:	d10c      	bne.n	800475e <HAL_RCC_OscConfig+0x4f2>
 8004744:	4b6b      	ldr	r3, [pc, #428]	; (80048f4 <HAL_RCC_OscConfig+0x688>)
 8004746:	6d1a      	ldr	r2, [r3, #80]	; 0x50
 8004748:	4b6a      	ldr	r3, [pc, #424]	; (80048f4 <HAL_RCC_OscConfig+0x688>)
 800474a:	496c      	ldr	r1, [pc, #432]	; (80048fc <HAL_RCC_OscConfig+0x690>)
 800474c:	400a      	ands	r2, r1
 800474e:	651a      	str	r2, [r3, #80]	; 0x50
 8004750:	4b68      	ldr	r3, [pc, #416]	; (80048f4 <HAL_RCC_OscConfig+0x688>)
 8004752:	6d1a      	ldr	r2, [r3, #80]	; 0x50
 8004754:	4b67      	ldr	r3, [pc, #412]	; (80048f4 <HAL_RCC_OscConfig+0x688>)
 8004756:	496b      	ldr	r1, [pc, #428]	; (8004904 <HAL_RCC_OscConfig+0x698>)
 8004758:	400a      	ands	r2, r1
 800475a:	651a      	str	r2, [r3, #80]	; 0x50
 800475c:	e020      	b.n	80047a0 <HAL_RCC_OscConfig+0x534>
 800475e:	687b      	ldr	r3, [r7, #4]
 8004760:	689a      	ldr	r2, [r3, #8]
 8004762:	23a0      	movs	r3, #160	; 0xa0
 8004764:	00db      	lsls	r3, r3, #3
 8004766:	429a      	cmp	r2, r3
 8004768:	d10e      	bne.n	8004788 <HAL_RCC_OscConfig+0x51c>
 800476a:	4b62      	ldr	r3, [pc, #392]	; (80048f4 <HAL_RCC_OscConfig+0x688>)
 800476c:	6d1a      	ldr	r2, [r3, #80]	; 0x50
 800476e:	4b61      	ldr	r3, [pc, #388]	; (80048f4 <HAL_RCC_OscConfig+0x688>)
 8004770:	2180      	movs	r1, #128	; 0x80
 8004772:	00c9      	lsls	r1, r1, #3
 8004774:	430a      	orrs	r2, r1
 8004776:	651a      	str	r2, [r3, #80]	; 0x50
 8004778:	4b5e      	ldr	r3, [pc, #376]	; (80048f4 <HAL_RCC_OscConfig+0x688>)
 800477a:	6d1a      	ldr	r2, [r3, #80]	; 0x50
 800477c:	4b5d      	ldr	r3, [pc, #372]	; (80048f4 <HAL_RCC_OscConfig+0x688>)
 800477e:	2180      	movs	r1, #128	; 0x80
 8004780:	0049      	lsls	r1, r1, #1
 8004782:	430a      	orrs	r2, r1
 8004784:	651a      	str	r2, [r3, #80]	; 0x50
 8004786:	e00b      	b.n	80047a0 <HAL_RCC_OscConfig+0x534>
 8004788:	4b5a      	ldr	r3, [pc, #360]	; (80048f4 <HAL_RCC_OscConfig+0x688>)
 800478a:	6d1a      	ldr	r2, [r3, #80]	; 0x50
 800478c:	4b59      	ldr	r3, [pc, #356]	; (80048f4 <HAL_RCC_OscConfig+0x688>)
 800478e:	495b      	ldr	r1, [pc, #364]	; (80048fc <HAL_RCC_OscConfig+0x690>)
 8004790:	400a      	ands	r2, r1
 8004792:	651a      	str	r2, [r3, #80]	; 0x50
 8004794:	4b57      	ldr	r3, [pc, #348]	; (80048f4 <HAL_RCC_OscConfig+0x688>)
 8004796:	6d1a      	ldr	r2, [r3, #80]	; 0x50
 8004798:	4b56      	ldr	r3, [pc, #344]	; (80048f4 <HAL_RCC_OscConfig+0x688>)
 800479a:	495a      	ldr	r1, [pc, #360]	; (8004904 <HAL_RCC_OscConfig+0x698>)
 800479c:	400a      	ands	r2, r1
 800479e:	651a      	str	r2, [r3, #80]	; 0x50

    /* Check the LSE State */
    if(RCC_OscInitStruct->LSEState != RCC_LSE_OFF)
 80047a0:	687b      	ldr	r3, [r7, #4]
 80047a2:	689b      	ldr	r3, [r3, #8]
 80047a4:	2b00      	cmp	r3, #0
 80047a6:	d015      	beq.n	80047d4 <HAL_RCC_OscConfig+0x568>
    {
      /* Get Start Tick */
      tickstart = HAL_GetTick();
 80047a8:	f7fe ff4a 	bl	8003640 <HAL_GetTick>
 80047ac:	0003      	movs	r3, r0
 80047ae:	617b      	str	r3, [r7, #20]

      /* Wait till LSE is ready */
      while(__HAL_RCC_GET_FLAG(RCC_FLAG_LSERDY) == 0U)
 80047b0:	e009      	b.n	80047c6 <HAL_RCC_OscConfig+0x55a>
      {
        if((HAL_GetTick() - tickstart ) > RCC_LSE_TIMEOUT_VALUE)
 80047b2:	f7fe ff45 	bl	8003640 <HAL_GetTick>
 80047b6:	0002      	movs	r2, r0
 80047b8:	697b      	ldr	r3, [r7, #20]
 80047ba:	1ad3      	subs	r3, r2, r3
 80047bc:	4a52      	ldr	r2, [pc, #328]	; (8004908 <HAL_RCC_OscConfig+0x69c>)
 80047be:	4293      	cmp	r3, r2
 80047c0:	d901      	bls.n	80047c6 <HAL_RCC_OscConfig+0x55a>
        {
          return HAL_TIMEOUT;
 80047c2:	2303      	movs	r3, #3
 80047c4:	e11b      	b.n	80049fe <HAL_RCC_OscConfig+0x792>
      while(__HAL_RCC_GET_FLAG(RCC_FLAG_LSERDY) == 0U)
 80047c6:	4b4b      	ldr	r3, [pc, #300]	; (80048f4 <HAL_RCC_OscConfig+0x688>)
 80047c8:	6d1a      	ldr	r2, [r3, #80]	; 0x50
 80047ca:	2380      	movs	r3, #128	; 0x80
 80047cc:	009b      	lsls	r3, r3, #2
 80047ce:	4013      	ands	r3, r2
 80047d0:	d0ef      	beq.n	80047b2 <HAL_RCC_OscConfig+0x546>
 80047d2:	e014      	b.n	80047fe <HAL_RCC_OscConfig+0x592>
      }
    }
    else
    {
      /* Get Start Tick */
      tickstart = HAL_GetTick();
 80047d4:	f7fe ff34 	bl	8003640 <HAL_GetTick>
 80047d8:	0003      	movs	r3, r0
 80047da:	617b      	str	r3, [r7, #20]

      /* Wait till LSE is disabled */
      while(__HAL_RCC_GET_FLAG(RCC_FLAG_LSERDY) != 0U)
 80047dc:	e009      	b.n	80047f2 <HAL_RCC_OscConfig+0x586>
      {
        if((HAL_GetTick() - tickstart ) > RCC_LSE_TIMEOUT_VALUE)
 80047de:	f7fe ff2f 	bl	8003640 <HAL_GetTick>
 80047e2:	0002      	movs	r2, r0
 80047e4:	697b      	ldr	r3, [r7, #20]
 80047e6:	1ad3      	subs	r3, r2, r3
 80047e8:	4a47      	ldr	r2, [pc, #284]	; (8004908 <HAL_RCC_OscConfig+0x69c>)
 80047ea:	4293      	cmp	r3, r2
 80047ec:	d901      	bls.n	80047f2 <HAL_RCC_OscConfig+0x586>
        {
          return HAL_TIMEOUT;
 80047ee:	2303      	movs	r3, #3
 80047f0:	e105      	b.n	80049fe <HAL_RCC_OscConfig+0x792>
      while(__HAL_RCC_GET_FLAG(RCC_FLAG_LSERDY) != 0U)
 80047f2:	4b40      	ldr	r3, [pc, #256]	; (80048f4 <HAL_RCC_OscConfig+0x688>)
 80047f4:	6d1a      	ldr	r2, [r3, #80]	; 0x50
 80047f6:	2380      	movs	r3, #128	; 0x80
 80047f8:	009b      	lsls	r3, r3, #2
 80047fa:	4013      	ands	r3, r2
 80047fc:	d1ef      	bne.n	80047de <HAL_RCC_OscConfig+0x572>
        }
      }
    }

    /* Require to disable power clock if necessary */
    if(pwrclkchanged == SET)
 80047fe:	2323      	movs	r3, #35	; 0x23
 8004800:	18fb      	adds	r3, r7, r3
 8004802:	781b      	ldrb	r3, [r3, #0]
 8004804:	2b01      	cmp	r3, #1
 8004806:	d105      	bne.n	8004814 <HAL_RCC_OscConfig+0x5a8>
    {
      __HAL_RCC_PWR_CLK_DISABLE();
 8004808:	4b3a      	ldr	r3, [pc, #232]	; (80048f4 <HAL_RCC_OscConfig+0x688>)
 800480a:	6b9a      	ldr	r2, [r3, #56]	; 0x38
 800480c:	4b39      	ldr	r3, [pc, #228]	; (80048f4 <HAL_RCC_OscConfig+0x688>)
 800480e:	493f      	ldr	r1, [pc, #252]	; (800490c <HAL_RCC_OscConfig+0x6a0>)
 8004810:	400a      	ands	r2, r1
 8004812:	639a      	str	r2, [r3, #56]	; 0x38
    }
  }

#if defined(RCC_HSI48_SUPPORT)
  /*----------------------------- HSI48 Configuration --------------------------*/
  if(((RCC_OscInitStruct->OscillatorType) & RCC_OSCILLATORTYPE_HSI48) == RCC_OSCILLATORTYPE_HSI48)
 8004814:	687b      	ldr	r3, [r7, #4]
 8004816:	681b      	ldr	r3, [r3, #0]
 8004818:	2220      	movs	r2, #32
 800481a:	4013      	ands	r3, r2
 800481c:	d049      	beq.n	80048b2 <HAL_RCC_OscConfig+0x646>
  {
    /* Check the parameters */
    assert_param(IS_RCC_HSI48(RCC_OscInitStruct->HSI48State));

      /* Check the HSI48 State */
      if(RCC_OscInitStruct->HSI48State != RCC_HSI48_OFF)
 800481e:	687b      	ldr	r3, [r7, #4]
 8004820:	699b      	ldr	r3, [r3, #24]
 8004822:	2b00      	cmp	r3, #0
 8004824:	d026      	beq.n	8004874 <HAL_RCC_OscConfig+0x608>
      {
        /* Enable the Internal High Speed oscillator (HSI48). */
        __HAL_RCC_HSI48_ENABLE();
 8004826:	4b33      	ldr	r3, [pc, #204]	; (80048f4 <HAL_RCC_OscConfig+0x688>)
 8004828:	689a      	ldr	r2, [r3, #8]
 800482a:	4b32      	ldr	r3, [pc, #200]	; (80048f4 <HAL_RCC_OscConfig+0x688>)
 800482c:	2101      	movs	r1, #1
 800482e:	430a      	orrs	r2, r1
 8004830:	609a      	str	r2, [r3, #8]
 8004832:	4b30      	ldr	r3, [pc, #192]	; (80048f4 <HAL_RCC_OscConfig+0x688>)
 8004834:	6b5a      	ldr	r2, [r3, #52]	; 0x34
 8004836:	4b2f      	ldr	r3, [pc, #188]	; (80048f4 <HAL_RCC_OscConfig+0x688>)
 8004838:	2101      	movs	r1, #1
 800483a:	430a      	orrs	r2, r1
 800483c:	635a      	str	r2, [r3, #52]	; 0x34
 800483e:	4b34      	ldr	r3, [pc, #208]	; (8004910 <HAL_RCC_OscConfig+0x6a4>)
 8004840:	6a1a      	ldr	r2, [r3, #32]
 8004842:	4b33      	ldr	r3, [pc, #204]	; (8004910 <HAL_RCC_OscConfig+0x6a4>)
 8004844:	2180      	movs	r1, #128	; 0x80
 8004846:	0189      	lsls	r1, r1, #6
 8004848:	430a      	orrs	r2, r1
 800484a:	621a      	str	r2, [r3, #32]

        /* Get Start Tick */
        tickstart = HAL_GetTick();
 800484c:	f7fe fef8 	bl	8003640 <HAL_GetTick>
 8004850:	0003      	movs	r3, r0
 8004852:	617b      	str	r3, [r7, #20]

        /* Wait till HSI48 is ready */
        while(__HAL_RCC_GET_FLAG(RCC_FLAG_HSI48RDY) == 0U)
 8004854:	e008      	b.n	8004868 <HAL_RCC_OscConfig+0x5fc>
        {
          if((HAL_GetTick() - tickstart) > HSI48_TIMEOUT_VALUE)
 8004856:	f7fe fef3 	bl	8003640 <HAL_GetTick>
 800485a:	0002      	movs	r2, r0
 800485c:	697b      	ldr	r3, [r7, #20]
 800485e:	1ad3      	subs	r3, r2, r3
 8004860:	2b02      	cmp	r3, #2
 8004862:	d901      	bls.n	8004868 <HAL_RCC_OscConfig+0x5fc>
          {
            return HAL_TIMEOUT;
 8004864:	2303      	movs	r3, #3
 8004866:	e0ca      	b.n	80049fe <HAL_RCC_OscConfig+0x792>
        while(__HAL_RCC_GET_FLAG(RCC_FLAG_HSI48RDY) == 0U)
 8004868:	4b22      	ldr	r3, [pc, #136]	; (80048f4 <HAL_RCC_OscConfig+0x688>)
 800486a:	689b      	ldr	r3, [r3, #8]
 800486c:	2202      	movs	r2, #2
 800486e:	4013      	ands	r3, r2
 8004870:	d0f1      	beq.n	8004856 <HAL_RCC_OscConfig+0x5ea>
 8004872:	e01e      	b.n	80048b2 <HAL_RCC_OscConfig+0x646>
        }
      }
      else
      {
        /* Disable the Internal High Speed oscillator (HSI48). */
        __HAL_RCC_HSI48_DISABLE();
 8004874:	4b1f      	ldr	r3, [pc, #124]	; (80048f4 <HAL_RCC_OscConfig+0x688>)
 8004876:	689a      	ldr	r2, [r3, #8]
 8004878:	4b1e      	ldr	r3, [pc, #120]	; (80048f4 <HAL_RCC_OscConfig+0x688>)
 800487a:	2101      	movs	r1, #1
 800487c:	438a      	bics	r2, r1
 800487e:	609a      	str	r2, [r3, #8]
 8004880:	4b23      	ldr	r3, [pc, #140]	; (8004910 <HAL_RCC_OscConfig+0x6a4>)
 8004882:	6a1a      	ldr	r2, [r3, #32]
 8004884:	4b22      	ldr	r3, [pc, #136]	; (8004910 <HAL_RCC_OscConfig+0x6a4>)
 8004886:	4923      	ldr	r1, [pc, #140]	; (8004914 <HAL_RCC_OscConfig+0x6a8>)
 8004888:	400a      	ands	r2, r1
 800488a:	621a      	str	r2, [r3, #32]

        /* Get Start Tick */
        tickstart = HAL_GetTick();
 800488c:	f7fe fed8 	bl	8003640 <HAL_GetTick>
 8004890:	0003      	movs	r3, r0
 8004892:	617b      	str	r3, [r7, #20]

        /* Wait till HSI48 is ready */
        while(__HAL_RCC_GET_FLAG(RCC_FLAG_HSI48RDY) != 0U)
 8004894:	e008      	b.n	80048a8 <HAL_RCC_OscConfig+0x63c>
        {
          if((HAL_GetTick() - tickstart) > HSI48_TIMEOUT_VALUE)
 8004896:	f7fe fed3 	bl	8003640 <HAL_GetTick>
 800489a:	0002      	movs	r2, r0
 800489c:	697b      	ldr	r3, [r7, #20]
 800489e:	1ad3      	subs	r3, r2, r3
 80048a0:	2b02      	cmp	r3, #2
 80048a2:	d901      	bls.n	80048a8 <HAL_RCC_OscConfig+0x63c>
          {
            return HAL_TIMEOUT;
 80048a4:	2303      	movs	r3, #3
 80048a6:	e0aa      	b.n	80049fe <HAL_RCC_OscConfig+0x792>
        while(__HAL_RCC_GET_FLAG(RCC_FLAG_HSI48RDY) != 0U)
 80048a8:	4b12      	ldr	r3, [pc, #72]	; (80048f4 <HAL_RCC_OscConfig+0x688>)
 80048aa:	689b      	ldr	r3, [r3, #8]
 80048ac:	2202      	movs	r2, #2
 80048ae:	4013      	ands	r3, r2
 80048b0:	d1f1      	bne.n	8004896 <HAL_RCC_OscConfig+0x62a>
#endif /* RCC_HSI48_SUPPORT */

  /*-------------------------------- PLL Configuration -----------------------*/
  /* Check the parameters */
  assert_param(IS_RCC_PLL(RCC_OscInitStruct->PLL.PLLState));
  if ((RCC_OscInitStruct->PLL.PLLState) != RCC_PLL_NONE)
 80048b2:	687b      	ldr	r3, [r7, #4]
 80048b4:	6a9b      	ldr	r3, [r3, #40]	; 0x28
 80048b6:	2b00      	cmp	r3, #0
 80048b8:	d100      	bne.n	80048bc <HAL_RCC_OscConfig+0x650>
 80048ba:	e09f      	b.n	80049fc <HAL_RCC_OscConfig+0x790>
  {
    /* Check if the PLL is used as system clock or not */
    if(sysclk_source != RCC_SYSCLKSOURCE_STATUS_PLLCLK)
 80048bc:	69fb      	ldr	r3, [r7, #28]
 80048be:	2b0c      	cmp	r3, #12
 80048c0:	d100      	bne.n	80048c4 <HAL_RCC_OscConfig+0x658>
 80048c2:	e078      	b.n	80049b6 <HAL_RCC_OscConfig+0x74a>
    {
      if((RCC_OscInitStruct->PLL.PLLState) == RCC_PLL_ON)
 80048c4:	687b      	ldr	r3, [r7, #4]
 80048c6:	6a9b      	ldr	r3, [r3, #40]	; 0x28
 80048c8:	2b02      	cmp	r3, #2
 80048ca:	d159      	bne.n	8004980 <HAL_RCC_OscConfig+0x714>
        assert_param(IS_RCC_PLLSOURCE(RCC_OscInitStruct->PLL.PLLSource));
        assert_param(IS_RCC_PLL_MUL(RCC_OscInitStruct->PLL.PLLMUL));
        assert_param(IS_RCC_PLL_DIV(RCC_OscInitStruct->PLL.PLLDIV));

        /* Disable the main PLL. */
        __HAL_RCC_PLL_DISABLE();
 80048cc:	4b09      	ldr	r3, [pc, #36]	; (80048f4 <HAL_RCC_OscConfig+0x688>)
 80048ce:	681a      	ldr	r2, [r3, #0]
 80048d0:	4b08      	ldr	r3, [pc, #32]	; (80048f4 <HAL_RCC_OscConfig+0x688>)
 80048d2:	4911      	ldr	r1, [pc, #68]	; (8004918 <HAL_RCC_OscConfig+0x6ac>)
 80048d4:	400a      	ands	r2, r1
 80048d6:	601a      	str	r2, [r3, #0]

        /* Get Start Tick */
        tickstart = HAL_GetTick();
 80048d8:	f7fe feb2 	bl	8003640 <HAL_GetTick>
 80048dc:	0003      	movs	r3, r0
 80048de:	617b      	str	r3, [r7, #20]

        /* Wait till PLL is ready */
        while(__HAL_RCC_GET_FLAG(RCC_FLAG_PLLRDY)  != 0U)
 80048e0:	e01c      	b.n	800491c <HAL_RCC_OscConfig+0x6b0>
        {
          if((HAL_GetTick() - tickstart ) > PLL_TIMEOUT_VALUE)
 80048e2:	f7fe fead 	bl	8003640 <HAL_GetTick>
 80048e6:	0002      	movs	r2, r0
 80048e8:	697b      	ldr	r3, [r7, #20]
 80048ea:	1ad3      	subs	r3, r2, r3
 80048ec:	2b02      	cmp	r3, #2
 80048ee:	d915      	bls.n	800491c <HAL_RCC_OscConfig+0x6b0>
          {
            return HAL_TIMEOUT;
 80048f0:	2303      	movs	r3, #3
 80048f2:	e084      	b.n	80049fe <HAL_RCC_OscConfig+0x792>
 80048f4:	40021000 	.word	0x40021000
 80048f8:	ffff1fff 	.word	0xffff1fff
 80048fc:	fffffeff 	.word	0xfffffeff
 8004900:	40007000 	.word	0x40007000
 8004904:	fffffbff 	.word	0xfffffbff
 8004908:	00001388 	.word	0x00001388
 800490c:	efffffff 	.word	0xefffffff
 8004910:	40010000 	.word	0x40010000
 8004914:	ffffdfff 	.word	0xffffdfff
 8004918:	feffffff 	.word	0xfeffffff
        while(__HAL_RCC_GET_FLAG(RCC_FLAG_PLLRDY)  != 0U)
 800491c:	4b3a      	ldr	r3, [pc, #232]	; (8004a08 <HAL_RCC_OscConfig+0x79c>)
 800491e:	681a      	ldr	r2, [r3, #0]
 8004920:	2380      	movs	r3, #128	; 0x80
 8004922:	049b      	lsls	r3, r3, #18
 8004924:	4013      	ands	r3, r2
 8004926:	d1dc      	bne.n	80048e2 <HAL_RCC_OscConfig+0x676>
          }
        }

        /* Configure the main PLL clock source, multiplication and division factors. */
        __HAL_RCC_PLL_CONFIG(RCC_OscInitStruct->PLL.PLLSource,
 8004928:	4b37      	ldr	r3, [pc, #220]	; (8004a08 <HAL_RCC_OscConfig+0x79c>)
 800492a:	68db      	ldr	r3, [r3, #12]
 800492c:	4a37      	ldr	r2, [pc, #220]	; (8004a0c <HAL_RCC_OscConfig+0x7a0>)
 800492e:	4013      	ands	r3, r2
 8004930:	0019      	movs	r1, r3
 8004932:	687b      	ldr	r3, [r7, #4]
 8004934:	6ada      	ldr	r2, [r3, #44]	; 0x2c
 8004936:	687b      	ldr	r3, [r7, #4]
 8004938:	6b1b      	ldr	r3, [r3, #48]	; 0x30
 800493a:	431a      	orrs	r2, r3
 800493c:	687b      	ldr	r3, [r7, #4]
 800493e:	6b5b      	ldr	r3, [r3, #52]	; 0x34
 8004940:	431a      	orrs	r2, r3
 8004942:	4b31      	ldr	r3, [pc, #196]	; (8004a08 <HAL_RCC_OscConfig+0x79c>)
 8004944:	430a      	orrs	r2, r1
 8004946:	60da      	str	r2, [r3, #12]
                             RCC_OscInitStruct->PLL.PLLMUL,
                             RCC_OscInitStruct->PLL.PLLDIV);
        /* Enable the main PLL. */
        __HAL_RCC_PLL_ENABLE();
 8004948:	4b2f      	ldr	r3, [pc, #188]	; (8004a08 <HAL_RCC_OscConfig+0x79c>)
 800494a:	681a      	ldr	r2, [r3, #0]
 800494c:	4b2e      	ldr	r3, [pc, #184]	; (8004a08 <HAL_RCC_OscConfig+0x79c>)
 800494e:	2180      	movs	r1, #128	; 0x80
 8004950:	0449      	lsls	r1, r1, #17
 8004952:	430a      	orrs	r2, r1
 8004954:	601a      	str	r2, [r3, #0]

        /* Get Start Tick */
        tickstart = HAL_GetTick();
 8004956:	f7fe fe73 	bl	8003640 <HAL_GetTick>
 800495a:	0003      	movs	r3, r0
 800495c:	617b      	str	r3, [r7, #20]

        /* Wait till PLL is ready */
        while(__HAL_RCC_GET_FLAG(RCC_FLAG_PLLRDY)  == 0U)
 800495e:	e008      	b.n	8004972 <HAL_RCC_OscConfig+0x706>
        {
          if((HAL_GetTick() - tickstart ) > PLL_TIMEOUT_VALUE)
 8004960:	f7fe fe6e 	bl	8003640 <HAL_GetTick>
 8004964:	0002      	movs	r2, r0
 8004966:	697b      	ldr	r3, [r7, #20]
 8004968:	1ad3      	subs	r3, r2, r3
 800496a:	2b02      	cmp	r3, #2
 800496c:	d901      	bls.n	8004972 <HAL_RCC_OscConfig+0x706>
          {
            return HAL_TIMEOUT;
 800496e:	2303      	movs	r3, #3
 8004970:	e045      	b.n	80049fe <HAL_RCC_OscConfig+0x792>
        while(__HAL_RCC_GET_FLAG(RCC_FLAG_PLLRDY)  == 0U)
 8004972:	4b25      	ldr	r3, [pc, #148]	; (8004a08 <HAL_RCC_OscConfig+0x79c>)
 8004974:	681a      	ldr	r2, [r3, #0]
 8004976:	2380      	movs	r3, #128	; 0x80
 8004978:	049b      	lsls	r3, r3, #18
 800497a:	4013      	ands	r3, r2
 800497c:	d0f0      	beq.n	8004960 <HAL_RCC_OscConfig+0x6f4>
 800497e:	e03d      	b.n	80049fc <HAL_RCC_OscConfig+0x790>
        }
      }
      else
      {
        /* Disable the main PLL. */
        __HAL_RCC_PLL_DISABLE();
 8004980:	4b21      	ldr	r3, [pc, #132]	; (8004a08 <HAL_RCC_OscConfig+0x79c>)
 8004982:	681a      	ldr	r2, [r3, #0]
 8004984:	4b20      	ldr	r3, [pc, #128]	; (8004a08 <HAL_RCC_OscConfig+0x79c>)
 8004986:	4922      	ldr	r1, [pc, #136]	; (8004a10 <HAL_RCC_OscConfig+0x7a4>)
 8004988:	400a      	ands	r2, r1
 800498a:	601a      	str	r2, [r3, #0]

        /* Get Start Tick */
        tickstart = HAL_GetTick();
 800498c:	f7fe fe58 	bl	8003640 <HAL_GetTick>
 8004990:	0003      	movs	r3, r0
 8004992:	617b      	str	r3, [r7, #20]

        /* Wait till PLL is disabled */
        while(__HAL_RCC_GET_FLAG(RCC_FLAG_PLLRDY)  != 0U)
 8004994:	e008      	b.n	80049a8 <HAL_RCC_OscConfig+0x73c>
        {
          if((HAL_GetTick() - tickstart ) > PLL_TIMEOUT_VALUE)
 8004996:	f7fe fe53 	bl	8003640 <HAL_GetTick>
 800499a:	0002      	movs	r2, r0
 800499c:	697b      	ldr	r3, [r7, #20]
 800499e:	1ad3      	subs	r3, r2, r3
 80049a0:	2b02      	cmp	r3, #2
 80049a2:	d901      	bls.n	80049a8 <HAL_RCC_OscConfig+0x73c>
          {
            return HAL_TIMEOUT;
 80049a4:	2303      	movs	r3, #3
 80049a6:	e02a      	b.n	80049fe <HAL_RCC_OscConfig+0x792>
        while(__HAL_RCC_GET_FLAG(RCC_FLAG_PLLRDY)  != 0U)
 80049a8:	4b17      	ldr	r3, [pc, #92]	; (8004a08 <HAL_RCC_OscConfig+0x79c>)
 80049aa:	681a      	ldr	r2, [r3, #0]
 80049ac:	2380      	movs	r3, #128	; 0x80
 80049ae:	049b      	lsls	r3, r3, #18
 80049b0:	4013      	ands	r3, r2
 80049b2:	d1f0      	bne.n	8004996 <HAL_RCC_OscConfig+0x72a>
 80049b4:	e022      	b.n	80049fc <HAL_RCC_OscConfig+0x790>
      }
    }
    else
    {
      /* Check if there is a request to disable the PLL used as System clock source */
      if((RCC_OscInitStruct->PLL.PLLState) == RCC_PLL_OFF)
 80049b6:	687b      	ldr	r3, [r7, #4]
 80049b8:	6a9b      	ldr	r3, [r3, #40]	; 0x28
 80049ba:	2b01      	cmp	r3, #1
 80049bc:	d101      	bne.n	80049c2 <HAL_RCC_OscConfig+0x756>
      {
        return HAL_ERROR;
 80049be:	2301      	movs	r3, #1
 80049c0:	e01d      	b.n	80049fe <HAL_RCC_OscConfig+0x792>
      }
      else
      {
        /* Do not return HAL_ERROR if request repeats the current configuration */
        pll_config = RCC->CFGR;
 80049c2:	4b11      	ldr	r3, [pc, #68]	; (8004a08 <HAL_RCC_OscConfig+0x79c>)
 80049c4:	68db      	ldr	r3, [r3, #12]
 80049c6:	61bb      	str	r3, [r7, #24]
        if((READ_BIT(pll_config, RCC_CFGR_PLLSRC) != RCC_OscInitStruct->PLL.PLLSource) ||
 80049c8:	69ba      	ldr	r2, [r7, #24]
 80049ca:	2380      	movs	r3, #128	; 0x80
 80049cc:	025b      	lsls	r3, r3, #9
 80049ce:	401a      	ands	r2, r3
 80049d0:	687b      	ldr	r3, [r7, #4]
 80049d2:	6adb      	ldr	r3, [r3, #44]	; 0x2c
 80049d4:	429a      	cmp	r2, r3
 80049d6:	d10f      	bne.n	80049f8 <HAL_RCC_OscConfig+0x78c>
           (READ_BIT(pll_config, RCC_CFGR_PLLMUL) != RCC_OscInitStruct->PLL.PLLMUL) ||
 80049d8:	69ba      	ldr	r2, [r7, #24]
 80049da:	23f0      	movs	r3, #240	; 0xf0
 80049dc:	039b      	lsls	r3, r3, #14
 80049de:	401a      	ands	r2, r3
 80049e0:	687b      	ldr	r3, [r7, #4]
 80049e2:	6b1b      	ldr	r3, [r3, #48]	; 0x30
        if((READ_BIT(pll_config, RCC_CFGR_PLLSRC) != RCC_OscInitStruct->PLL.PLLSource) ||
 80049e4:	429a      	cmp	r2, r3
 80049e6:	d107      	bne.n	80049f8 <HAL_RCC_OscConfig+0x78c>
           (READ_BIT(pll_config, RCC_CFGR_PLLDIV) != RCC_OscInitStruct->PLL.PLLDIV))
 80049e8:	69ba      	ldr	r2, [r7, #24]
 80049ea:	23c0      	movs	r3, #192	; 0xc0
 80049ec:	041b      	lsls	r3, r3, #16
 80049ee:	401a      	ands	r2, r3
 80049f0:	687b      	ldr	r3, [r7, #4]
 80049f2:	6b5b      	ldr	r3, [r3, #52]	; 0x34
           (READ_BIT(pll_config, RCC_CFGR_PLLMUL) != RCC_OscInitStruct->PLL.PLLMUL) ||
 80049f4:	429a      	cmp	r2, r3
 80049f6:	d001      	beq.n	80049fc <HAL_RCC_OscConfig+0x790>
        {
          return HAL_ERROR;
 80049f8:	2301      	movs	r3, #1
 80049fa:	e000      	b.n	80049fe <HAL_RCC_OscConfig+0x792>
        }
      }
    }
  }
  return HAL_OK;
 80049fc:	2300      	movs	r3, #0
}
 80049fe:	0018      	movs	r0, r3
 8004a00:	46bd      	mov	sp, r7
 8004a02:	b00a      	add	sp, #40	; 0x28
 8004a04:	bdb0      	pop	{r4, r5, r7, pc}
 8004a06:	46c0      	nop			; (mov r8, r8)
 8004a08:	40021000 	.word	0x40021000
 8004a0c:	ff02ffff 	.word	0xff02ffff
 8004a10:	feffffff 	.word	0xfeffffff

08004a14 <HAL_RCC_ClockConfig>:
  *         HPRE[3:0] bits to ensure that HCLK not exceed the maximum allowed frequency
  *         (for more details refer to section above "Initialization/de-initialization functions")
  * @retval HAL status
  */
HAL_StatusTypeDef HAL_RCC_ClockConfig(RCC_ClkInitTypeDef  *RCC_ClkInitStruct, uint32_t FLatency)
{
 8004a14:	b5b0      	push	{r4, r5, r7, lr}
 8004a16:	b084      	sub	sp, #16
 8004a18:	af00      	add	r7, sp, #0
 8004a1a:	6078      	str	r0, [r7, #4]
 8004a1c:	6039      	str	r1, [r7, #0]
  uint32_t tickstart;
  HAL_StatusTypeDef status;

  /* Check Null pointer */
  if(RCC_ClkInitStruct == NULL)
 8004a1e:	687b      	ldr	r3, [r7, #4]
 8004a20:	2b00      	cmp	r3, #0
 8004a22:	d101      	bne.n	8004a28 <HAL_RCC_ClockConfig+0x14>
  {
    return HAL_ERROR;
 8004a24:	2301      	movs	r3, #1
 8004a26:	e128      	b.n	8004c7a <HAL_RCC_ClockConfig+0x266>
  /* To correctly read data from FLASH memory, the number of wait states (LATENCY)
  must be correctly programmed according to the frequency of the CPU clock
  (HCLK) and the supply voltage of the device. */

  /* Increasing the number of wait states because of higher CPU frequency */
  if(FLatency > __HAL_FLASH_GET_LATENCY())
 8004a28:	4b96      	ldr	r3, [pc, #600]	; (8004c84 <HAL_RCC_ClockConfig+0x270>)
 8004a2a:	681b      	ldr	r3, [r3, #0]
 8004a2c:	2201      	movs	r2, #1
 8004a2e:	4013      	ands	r3, r2
 8004a30:	683a      	ldr	r2, [r7, #0]
 8004a32:	429a      	cmp	r2, r3
 8004a34:	d91e      	bls.n	8004a74 <HAL_RCC_ClockConfig+0x60>
  {
    /* Program the new number of wait states to the LATENCY bits in the FLASH_ACR register */
    __HAL_FLASH_SET_LATENCY(FLatency);
 8004a36:	4b93      	ldr	r3, [pc, #588]	; (8004c84 <HAL_RCC_ClockConfig+0x270>)
 8004a38:	681b      	ldr	r3, [r3, #0]
 8004a3a:	2201      	movs	r2, #1
 8004a3c:	4393      	bics	r3, r2
 8004a3e:	0019      	movs	r1, r3
 8004a40:	4b90      	ldr	r3, [pc, #576]	; (8004c84 <HAL_RCC_ClockConfig+0x270>)
 8004a42:	683a      	ldr	r2, [r7, #0]
 8004a44:	430a      	orrs	r2, r1
 8004a46:	601a      	str	r2, [r3, #0]

    /* Check that the new number of wait states is taken into account to access the Flash
    memory by polling the FLASH_ACR register */
    tickstart = HAL_GetTick();
 8004a48:	f7fe fdfa 	bl	8003640 <HAL_GetTick>
 8004a4c:	0003      	movs	r3, r0
 8004a4e:	60fb      	str	r3, [r7, #12]

    while (__HAL_FLASH_GET_LATENCY() != FLatency)
 8004a50:	e009      	b.n	8004a66 <HAL_RCC_ClockConfig+0x52>
    {
      if ((HAL_GetTick() - tickstart) > CLOCKSWITCH_TIMEOUT_VALUE)
 8004a52:	f7fe fdf5 	bl	8003640 <HAL_GetTick>
 8004a56:	0002      	movs	r2, r0
 8004a58:	68fb      	ldr	r3, [r7, #12]
 8004a5a:	1ad3      	subs	r3, r2, r3
 8004a5c:	4a8a      	ldr	r2, [pc, #552]	; (8004c88 <HAL_RCC_ClockConfig+0x274>)
 8004a5e:	4293      	cmp	r3, r2
 8004a60:	d901      	bls.n	8004a66 <HAL_RCC_ClockConfig+0x52>
      {
        return HAL_TIMEOUT;
 8004a62:	2303      	movs	r3, #3
 8004a64:	e109      	b.n	8004c7a <HAL_RCC_ClockConfig+0x266>
    while (__HAL_FLASH_GET_LATENCY() != FLatency)
 8004a66:	4b87      	ldr	r3, [pc, #540]	; (8004c84 <HAL_RCC_ClockConfig+0x270>)
 8004a68:	681b      	ldr	r3, [r3, #0]
 8004a6a:	2201      	movs	r2, #1
 8004a6c:	4013      	ands	r3, r2
 8004a6e:	683a      	ldr	r2, [r7, #0]
 8004a70:	429a      	cmp	r2, r3
 8004a72:	d1ee      	bne.n	8004a52 <HAL_RCC_ClockConfig+0x3e>
      }
    }
  }

  /*-------------------------- HCLK Configuration --------------------------*/
  if(((RCC_ClkInitStruct->ClockType) & RCC_CLOCKTYPE_HCLK) == RCC_CLOCKTYPE_HCLK)
 8004a74:	687b      	ldr	r3, [r7, #4]
 8004a76:	681b      	ldr	r3, [r3, #0]
 8004a78:	2202      	movs	r2, #2
 8004a7a:	4013      	ands	r3, r2
 8004a7c:	d009      	beq.n	8004a92 <HAL_RCC_ClockConfig+0x7e>
  {
    assert_param(IS_RCC_HCLK(RCC_ClkInitStruct->AHBCLKDivider));
    MODIFY_REG(RCC->CFGR, RCC_CFGR_HPRE, RCC_ClkInitStruct->AHBCLKDivider);
 8004a7e:	4b83      	ldr	r3, [pc, #524]	; (8004c8c <HAL_RCC_ClockConfig+0x278>)
 8004a80:	68db      	ldr	r3, [r3, #12]
 8004a82:	22f0      	movs	r2, #240	; 0xf0
 8004a84:	4393      	bics	r3, r2
 8004a86:	0019      	movs	r1, r3
 8004a88:	687b      	ldr	r3, [r7, #4]
 8004a8a:	689a      	ldr	r2, [r3, #8]
 8004a8c:	4b7f      	ldr	r3, [pc, #508]	; (8004c8c <HAL_RCC_ClockConfig+0x278>)
 8004a8e:	430a      	orrs	r2, r1
 8004a90:	60da      	str	r2, [r3, #12]
  }

  /*------------------------- SYSCLK Configuration ---------------------------*/
  if(((RCC_ClkInitStruct->ClockType) & RCC_CLOCKTYPE_SYSCLK) == RCC_CLOCKTYPE_SYSCLK)
 8004a92:	687b      	ldr	r3, [r7, #4]
 8004a94:	681b      	ldr	r3, [r3, #0]
 8004a96:	2201      	movs	r2, #1
 8004a98:	4013      	ands	r3, r2
 8004a9a:	d100      	bne.n	8004a9e <HAL_RCC_ClockConfig+0x8a>
 8004a9c:	e089      	b.n	8004bb2 <HAL_RCC_ClockConfig+0x19e>
  {
    assert_param(IS_RCC_SYSCLKSOURCE(RCC_ClkInitStruct->SYSCLKSource));

    /* HSE is selected as System Clock Source */
    if(RCC_ClkInitStruct->SYSCLKSource == RCC_SYSCLKSOURCE_HSE)
 8004a9e:	687b      	ldr	r3, [r7, #4]
 8004aa0:	685b      	ldr	r3, [r3, #4]
 8004aa2:	2b02      	cmp	r3, #2
 8004aa4:	d107      	bne.n	8004ab6 <HAL_RCC_ClockConfig+0xa2>
    {
      /* Check the HSE ready flag */
      if(__HAL_RCC_GET_FLAG(RCC_FLAG_HSERDY) == 0U)
 8004aa6:	4b79      	ldr	r3, [pc, #484]	; (8004c8c <HAL_RCC_ClockConfig+0x278>)
 8004aa8:	681a      	ldr	r2, [r3, #0]
 8004aaa:	2380      	movs	r3, #128	; 0x80
 8004aac:	029b      	lsls	r3, r3, #10
 8004aae:	4013      	ands	r3, r2
 8004ab0:	d120      	bne.n	8004af4 <HAL_RCC_ClockConfig+0xe0>
      {
        return HAL_ERROR;
 8004ab2:	2301      	movs	r3, #1
 8004ab4:	e0e1      	b.n	8004c7a <HAL_RCC_ClockConfig+0x266>
      }
    }
    /* PLL is selected as System Clock Source */
    else if(RCC_ClkInitStruct->SYSCLKSource == RCC_SYSCLKSOURCE_PLLCLK)
 8004ab6:	687b      	ldr	r3, [r7, #4]
 8004ab8:	685b      	ldr	r3, [r3, #4]
 8004aba:	2b03      	cmp	r3, #3
 8004abc:	d107      	bne.n	8004ace <HAL_RCC_ClockConfig+0xba>
    {
      /* Check the PLL ready flag */
      if(__HAL_RCC_GET_FLAG(RCC_FLAG_PLLRDY) == 0U)
 8004abe:	4b73      	ldr	r3, [pc, #460]	; (8004c8c <HAL_RCC_ClockConfig+0x278>)
 8004ac0:	681a      	ldr	r2, [r3, #0]
 8004ac2:	2380      	movs	r3, #128	; 0x80
 8004ac4:	049b      	lsls	r3, r3, #18
 8004ac6:	4013      	ands	r3, r2
 8004ac8:	d114      	bne.n	8004af4 <HAL_RCC_ClockConfig+0xe0>
      {
        return HAL_ERROR;
 8004aca:	2301      	movs	r3, #1
 8004acc:	e0d5      	b.n	8004c7a <HAL_RCC_ClockConfig+0x266>
      }
    }
    /* HSI is selected as System Clock Source */
    else if(RCC_ClkInitStruct->SYSCLKSource == RCC_SYSCLKSOURCE_HSI)
 8004ace:	687b      	ldr	r3, [r7, #4]
 8004ad0:	685b      	ldr	r3, [r3, #4]
 8004ad2:	2b01      	cmp	r3, #1
 8004ad4:	d106      	bne.n	8004ae4 <HAL_RCC_ClockConfig+0xd0>
    {
      /* Check the HSI ready flag */
      if(__HAL_RCC_GET_FLAG(RCC_FLAG_HSIRDY) == 0U)
 8004ad6:	4b6d      	ldr	r3, [pc, #436]	; (8004c8c <HAL_RCC_ClockConfig+0x278>)
 8004ad8:	681b      	ldr	r3, [r3, #0]
 8004ada:	2204      	movs	r2, #4
 8004adc:	4013      	ands	r3, r2
 8004ade:	d109      	bne.n	8004af4 <HAL_RCC_ClockConfig+0xe0>
      {
        return HAL_ERROR;
 8004ae0:	2301      	movs	r3, #1
 8004ae2:	e0ca      	b.n	8004c7a <HAL_RCC_ClockConfig+0x266>
    }
    /* MSI is selected as System Clock Source */
    else
    {
      /* Check the MSI ready flag */
      if(__HAL_RCC_GET_FLAG(RCC_FLAG_MSIRDY) == 0U)
 8004ae4:	4b69      	ldr	r3, [pc, #420]	; (8004c8c <HAL_RCC_ClockConfig+0x278>)
 8004ae6:	681a      	ldr	r2, [r3, #0]
 8004ae8:	2380      	movs	r3, #128	; 0x80
 8004aea:	009b      	lsls	r3, r3, #2
 8004aec:	4013      	ands	r3, r2
 8004aee:	d101      	bne.n	8004af4 <HAL_RCC_ClockConfig+0xe0>
      {
        return HAL_ERROR;
 8004af0:	2301      	movs	r3, #1
 8004af2:	e0c2      	b.n	8004c7a <HAL_RCC_ClockConfig+0x266>
      }
    }
    __HAL_RCC_SYSCLK_CONFIG(RCC_ClkInitStruct->SYSCLKSource);
 8004af4:	4b65      	ldr	r3, [pc, #404]	; (8004c8c <HAL_RCC_ClockConfig+0x278>)
 8004af6:	68db      	ldr	r3, [r3, #12]
 8004af8:	2203      	movs	r2, #3
 8004afa:	4393      	bics	r3, r2
 8004afc:	0019      	movs	r1, r3
 8004afe:	687b      	ldr	r3, [r7, #4]
 8004b00:	685a      	ldr	r2, [r3, #4]
 8004b02:	4b62      	ldr	r3, [pc, #392]	; (8004c8c <HAL_RCC_ClockConfig+0x278>)
 8004b04:	430a      	orrs	r2, r1
 8004b06:	60da      	str	r2, [r3, #12]

    /* Get Start Tick */
    tickstart = HAL_GetTick();
 8004b08:	f7fe fd9a 	bl	8003640 <HAL_GetTick>
 8004b0c:	0003      	movs	r3, r0
 8004b0e:	60fb      	str	r3, [r7, #12]

    if(RCC_ClkInitStruct->SYSCLKSource == RCC_SYSCLKSOURCE_HSE)
 8004b10:	687b      	ldr	r3, [r7, #4]
 8004b12:	685b      	ldr	r3, [r3, #4]
 8004b14:	2b02      	cmp	r3, #2
 8004b16:	d111      	bne.n	8004b3c <HAL_RCC_ClockConfig+0x128>
    {
      while (__HAL_RCC_GET_SYSCLK_SOURCE() != RCC_SYSCLKSOURCE_STATUS_HSE)
 8004b18:	e009      	b.n	8004b2e <HAL_RCC_ClockConfig+0x11a>
      {
        if((HAL_GetTick() - tickstart ) > CLOCKSWITCH_TIMEOUT_VALUE)
 8004b1a:	f7fe fd91 	bl	8003640 <HAL_GetTick>
 8004b1e:	0002      	movs	r2, r0
 8004b20:	68fb      	ldr	r3, [r7, #12]
 8004b22:	1ad3      	subs	r3, r2, r3
 8004b24:	4a58      	ldr	r2, [pc, #352]	; (8004c88 <HAL_RCC_ClockConfig+0x274>)
 8004b26:	4293      	cmp	r3, r2
 8004b28:	d901      	bls.n	8004b2e <HAL_RCC_ClockConfig+0x11a>
        {
          return HAL_TIMEOUT;
 8004b2a:	2303      	movs	r3, #3
 8004b2c:	e0a5      	b.n	8004c7a <HAL_RCC_ClockConfig+0x266>
      while (__HAL_RCC_GET_SYSCLK_SOURCE() != RCC_SYSCLKSOURCE_STATUS_HSE)
 8004b2e:	4b57      	ldr	r3, [pc, #348]	; (8004c8c <HAL_RCC_ClockConfig+0x278>)
 8004b30:	68db      	ldr	r3, [r3, #12]
 8004b32:	220c      	movs	r2, #12
 8004b34:	4013      	ands	r3, r2
 8004b36:	2b08      	cmp	r3, #8
 8004b38:	d1ef      	bne.n	8004b1a <HAL_RCC_ClockConfig+0x106>
 8004b3a:	e03a      	b.n	8004bb2 <HAL_RCC_ClockConfig+0x19e>
        }
      }
    }
    else if(RCC_ClkInitStruct->SYSCLKSource == RCC_SYSCLKSOURCE_PLLCLK)
 8004b3c:	687b      	ldr	r3, [r7, #4]
 8004b3e:	685b      	ldr	r3, [r3, #4]
 8004b40:	2b03      	cmp	r3, #3
 8004b42:	d111      	bne.n	8004b68 <HAL_RCC_ClockConfig+0x154>
    {
      while (__HAL_RCC_GET_SYSCLK_SOURCE() != RCC_SYSCLKSOURCE_STATUS_PLLCLK)
 8004b44:	e009      	b.n	8004b5a <HAL_RCC_ClockConfig+0x146>
      {
        if((HAL_GetTick() - tickstart ) > CLOCKSWITCH_TIMEOUT_VALUE)
 8004b46:	f7fe fd7b 	bl	8003640 <HAL_GetTick>
 8004b4a:	0002      	movs	r2, r0
 8004b4c:	68fb      	ldr	r3, [r7, #12]
 8004b4e:	1ad3      	subs	r3, r2, r3
 8004b50:	4a4d      	ldr	r2, [pc, #308]	; (8004c88 <HAL_RCC_ClockConfig+0x274>)
 8004b52:	4293      	cmp	r3, r2
 8004b54:	d901      	bls.n	8004b5a <HAL_RCC_ClockConfig+0x146>
        {
          return HAL_TIMEOUT;
 8004b56:	2303      	movs	r3, #3
 8004b58:	e08f      	b.n	8004c7a <HAL_RCC_ClockConfig+0x266>
      while (__HAL_RCC_GET_SYSCLK_SOURCE() != RCC_SYSCLKSOURCE_STATUS_PLLCLK)
 8004b5a:	4b4c      	ldr	r3, [pc, #304]	; (8004c8c <HAL_RCC_ClockConfig+0x278>)
 8004b5c:	68db      	ldr	r3, [r3, #12]
 8004b5e:	220c      	movs	r2, #12
 8004b60:	4013      	ands	r3, r2
 8004b62:	2b0c      	cmp	r3, #12
 8004b64:	d1ef      	bne.n	8004b46 <HAL_RCC_ClockConfig+0x132>
 8004b66:	e024      	b.n	8004bb2 <HAL_RCC_ClockConfig+0x19e>
        }
      }
    }
    else if(RCC_ClkInitStruct->SYSCLKSource == RCC_SYSCLKSOURCE_HSI)
 8004b68:	687b      	ldr	r3, [r7, #4]
 8004b6a:	685b      	ldr	r3, [r3, #4]
 8004b6c:	2b01      	cmp	r3, #1
 8004b6e:	d11b      	bne.n	8004ba8 <HAL_RCC_ClockConfig+0x194>
    {
      while (__HAL_RCC_GET_SYSCLK_SOURCE() != RCC_SYSCLKSOURCE_STATUS_HSI)
 8004b70:	e009      	b.n	8004b86 <HAL_RCC_ClockConfig+0x172>
      {
        if((HAL_GetTick() - tickstart ) > CLOCKSWITCH_TIMEOUT_VALUE)
 8004b72:	f7fe fd65 	bl	8003640 <HAL_GetTick>
 8004b76:	0002      	movs	r2, r0
 8004b78:	68fb      	ldr	r3, [r7, #12]
 8004b7a:	1ad3      	subs	r3, r2, r3
 8004b7c:	4a42      	ldr	r2, [pc, #264]	; (8004c88 <HAL_RCC_ClockConfig+0x274>)
 8004b7e:	4293      	cmp	r3, r2
 8004b80:	d901      	bls.n	8004b86 <HAL_RCC_ClockConfig+0x172>
        {
          return HAL_TIMEOUT;
 8004b82:	2303      	movs	r3, #3
 8004b84:	e079      	b.n	8004c7a <HAL_RCC_ClockConfig+0x266>
      while (__HAL_RCC_GET_SYSCLK_SOURCE() != RCC_SYSCLKSOURCE_STATUS_HSI)
 8004b86:	4b41      	ldr	r3, [pc, #260]	; (8004c8c <HAL_RCC_ClockConfig+0x278>)
 8004b88:	68db      	ldr	r3, [r3, #12]
 8004b8a:	220c      	movs	r2, #12
 8004b8c:	4013      	ands	r3, r2
 8004b8e:	2b04      	cmp	r3, #4
 8004b90:	d1ef      	bne.n	8004b72 <HAL_RCC_ClockConfig+0x15e>
 8004b92:	e00e      	b.n	8004bb2 <HAL_RCC_ClockConfig+0x19e>
    }
    else
    {
      while(__HAL_RCC_GET_SYSCLK_SOURCE() != RCC_SYSCLKSOURCE_STATUS_MSI)
      {
        if((HAL_GetTick() - tickstart ) > CLOCKSWITCH_TIMEOUT_VALUE)
 8004b94:	f7fe fd54 	bl	8003640 <HAL_GetTick>
 8004b98:	0002      	movs	r2, r0
 8004b9a:	68fb      	ldr	r3, [r7, #12]
 8004b9c:	1ad3      	subs	r3, r2, r3
 8004b9e:	4a3a      	ldr	r2, [pc, #232]	; (8004c88 <HAL_RCC_ClockConfig+0x274>)
 8004ba0:	4293      	cmp	r3, r2
 8004ba2:	d901      	bls.n	8004ba8 <HAL_RCC_ClockConfig+0x194>
        {
          return HAL_TIMEOUT;
 8004ba4:	2303      	movs	r3, #3
 8004ba6:	e068      	b.n	8004c7a <HAL_RCC_ClockConfig+0x266>
      while(__HAL_RCC_GET_SYSCLK_SOURCE() != RCC_SYSCLKSOURCE_STATUS_MSI)
 8004ba8:	4b38      	ldr	r3, [pc, #224]	; (8004c8c <HAL_RCC_ClockConfig+0x278>)
 8004baa:	68db      	ldr	r3, [r3, #12]
 8004bac:	220c      	movs	r2, #12
 8004bae:	4013      	ands	r3, r2
 8004bb0:	d1f0      	bne.n	8004b94 <HAL_RCC_ClockConfig+0x180>
        }
      }
    }
  }
  /* Decreasing the number of wait states because of lower CPU frequency */
  if(FLatency < __HAL_FLASH_GET_LATENCY())
 8004bb2:	4b34      	ldr	r3, [pc, #208]	; (8004c84 <HAL_RCC_ClockConfig+0x270>)
 8004bb4:	681b      	ldr	r3, [r3, #0]
 8004bb6:	2201      	movs	r2, #1
 8004bb8:	4013      	ands	r3, r2
 8004bba:	683a      	ldr	r2, [r7, #0]
 8004bbc:	429a      	cmp	r2, r3
 8004bbe:	d21e      	bcs.n	8004bfe <HAL_RCC_ClockConfig+0x1ea>
  {
    /* Program the new number of wait states to the LATENCY bits in the FLASH_ACR register */
    __HAL_FLASH_SET_LATENCY(FLatency);
 8004bc0:	4b30      	ldr	r3, [pc, #192]	; (8004c84 <HAL_RCC_ClockConfig+0x270>)
 8004bc2:	681b      	ldr	r3, [r3, #0]
 8004bc4:	2201      	movs	r2, #1
 8004bc6:	4393      	bics	r3, r2
 8004bc8:	0019      	movs	r1, r3
 8004bca:	4b2e      	ldr	r3, [pc, #184]	; (8004c84 <HAL_RCC_ClockConfig+0x270>)
 8004bcc:	683a      	ldr	r2, [r7, #0]
 8004bce:	430a      	orrs	r2, r1
 8004bd0:	601a      	str	r2, [r3, #0]

    /* Check that the new number of wait states is taken into account to access the Flash
    memory by polling the FLASH_ACR register */
    tickstart = HAL_GetTick();
 8004bd2:	f7fe fd35 	bl	8003640 <HAL_GetTick>
 8004bd6:	0003      	movs	r3, r0
 8004bd8:	60fb      	str	r3, [r7, #12]

    while (__HAL_FLASH_GET_LATENCY() != FLatency)
 8004bda:	e009      	b.n	8004bf0 <HAL_RCC_ClockConfig+0x1dc>
    {
      if ((HAL_GetTick() - tickstart) > CLOCKSWITCH_TIMEOUT_VALUE)
 8004bdc:	f7fe fd30 	bl	8003640 <HAL_GetTick>
 8004be0:	0002      	movs	r2, r0
 8004be2:	68fb      	ldr	r3, [r7, #12]
 8004be4:	1ad3      	subs	r3, r2, r3
 8004be6:	4a28      	ldr	r2, [pc, #160]	; (8004c88 <HAL_RCC_ClockConfig+0x274>)
 8004be8:	4293      	cmp	r3, r2
 8004bea:	d901      	bls.n	8004bf0 <HAL_RCC_ClockConfig+0x1dc>
      {
        return HAL_TIMEOUT;
 8004bec:	2303      	movs	r3, #3
 8004bee:	e044      	b.n	8004c7a <HAL_RCC_ClockConfig+0x266>
    while (__HAL_FLASH_GET_LATENCY() != FLatency)
 8004bf0:	4b24      	ldr	r3, [pc, #144]	; (8004c84 <HAL_RCC_ClockConfig+0x270>)
 8004bf2:	681b      	ldr	r3, [r3, #0]
 8004bf4:	2201      	movs	r2, #1
 8004bf6:	4013      	ands	r3, r2
 8004bf8:	683a      	ldr	r2, [r7, #0]
 8004bfa:	429a      	cmp	r2, r3
 8004bfc:	d1ee      	bne.n	8004bdc <HAL_RCC_ClockConfig+0x1c8>
      }
    }
  }

  /*-------------------------- PCLK1 Configuration ---------------------------*/
  if(((RCC_ClkInitStruct->ClockType) & RCC_CLOCKTYPE_PCLK1) == RCC_CLOCKTYPE_PCLK1)
 8004bfe:	687b      	ldr	r3, [r7, #4]
 8004c00:	681b      	ldr	r3, [r3, #0]
 8004c02:	2204      	movs	r2, #4
 8004c04:	4013      	ands	r3, r2
 8004c06:	d009      	beq.n	8004c1c <HAL_RCC_ClockConfig+0x208>
  {
    assert_param(IS_RCC_PCLK(RCC_ClkInitStruct->APB1CLKDivider));
    MODIFY_REG(RCC->CFGR, RCC_CFGR_PPRE1, RCC_ClkInitStruct->APB1CLKDivider);
 8004c08:	4b20      	ldr	r3, [pc, #128]	; (8004c8c <HAL_RCC_ClockConfig+0x278>)
 8004c0a:	68db      	ldr	r3, [r3, #12]
 8004c0c:	4a20      	ldr	r2, [pc, #128]	; (8004c90 <HAL_RCC_ClockConfig+0x27c>)
 8004c0e:	4013      	ands	r3, r2
 8004c10:	0019      	movs	r1, r3
 8004c12:	687b      	ldr	r3, [r7, #4]
 8004c14:	68da      	ldr	r2, [r3, #12]
 8004c16:	4b1d      	ldr	r3, [pc, #116]	; (8004c8c <HAL_RCC_ClockConfig+0x278>)
 8004c18:	430a      	orrs	r2, r1
 8004c1a:	60da      	str	r2, [r3, #12]
  }

  /*-------------------------- PCLK2 Configuration ---------------------------*/
  if(((RCC_ClkInitStruct->ClockType) & RCC_CLOCKTYPE_PCLK2) == RCC_CLOCKTYPE_PCLK2)
 8004c1c:	687b      	ldr	r3, [r7, #4]
 8004c1e:	681b      	ldr	r3, [r3, #0]
 8004c20:	2208      	movs	r2, #8
 8004c22:	4013      	ands	r3, r2
 8004c24:	d00a      	beq.n	8004c3c <HAL_RCC_ClockConfig+0x228>
  {
    assert_param(IS_RCC_PCLK(RCC_ClkInitStruct->APB2CLKDivider));
    MODIFY_REG(RCC->CFGR, RCC_CFGR_PPRE2, ((RCC_ClkInitStruct->APB2CLKDivider) << 3));
 8004c26:	4b19      	ldr	r3, [pc, #100]	; (8004c8c <HAL_RCC_ClockConfig+0x278>)
 8004c28:	68db      	ldr	r3, [r3, #12]
 8004c2a:	4a1a      	ldr	r2, [pc, #104]	; (8004c94 <HAL_RCC_ClockConfig+0x280>)
 8004c2c:	4013      	ands	r3, r2
 8004c2e:	0019      	movs	r1, r3
 8004c30:	687b      	ldr	r3, [r7, #4]
 8004c32:	691b      	ldr	r3, [r3, #16]
 8004c34:	00da      	lsls	r2, r3, #3
 8004c36:	4b15      	ldr	r3, [pc, #84]	; (8004c8c <HAL_RCC_ClockConfig+0x278>)
 8004c38:	430a      	orrs	r2, r1
 8004c3a:	60da      	str	r2, [r3, #12]
  }

  /* Update the SystemCoreClock global variable */
  SystemCoreClock = HAL_RCC_GetSysClockFreq() >> AHBPrescTable[(RCC->CFGR & RCC_CFGR_HPRE)>> RCC_CFGR_HPRE_Pos];
 8004c3c:	f000 f832 	bl	8004ca4 <HAL_RCC_GetSysClockFreq>
 8004c40:	0001      	movs	r1, r0
 8004c42:	4b12      	ldr	r3, [pc, #72]	; (8004c8c <HAL_RCC_ClockConfig+0x278>)
 8004c44:	68db      	ldr	r3, [r3, #12]
 8004c46:	091b      	lsrs	r3, r3, #4
 8004c48:	220f      	movs	r2, #15
 8004c4a:	4013      	ands	r3, r2
 8004c4c:	4a12      	ldr	r2, [pc, #72]	; (8004c98 <HAL_RCC_ClockConfig+0x284>)
 8004c4e:	5cd3      	ldrb	r3, [r2, r3]
 8004c50:	000a      	movs	r2, r1
 8004c52:	40da      	lsrs	r2, r3
 8004c54:	4b11      	ldr	r3, [pc, #68]	; (8004c9c <HAL_RCC_ClockConfig+0x288>)
 8004c56:	601a      	str	r2, [r3, #0]

  /* Configure the source of time base considering new system clocks settings*/
  status = HAL_InitTick(uwTickPrio);
 8004c58:	4b11      	ldr	r3, [pc, #68]	; (8004ca0 <HAL_RCC_ClockConfig+0x28c>)
 8004c5a:	681b      	ldr	r3, [r3, #0]
 8004c5c:	250b      	movs	r5, #11
 8004c5e:	197c      	adds	r4, r7, r5
 8004c60:	0018      	movs	r0, r3
 8004c62:	f7fe fca7 	bl	80035b4 <HAL_InitTick>
 8004c66:	0003      	movs	r3, r0
 8004c68:	7023      	strb	r3, [r4, #0]
  if(status != HAL_OK)
 8004c6a:	197b      	adds	r3, r7, r5
 8004c6c:	781b      	ldrb	r3, [r3, #0]
 8004c6e:	2b00      	cmp	r3, #0
 8004c70:	d002      	beq.n	8004c78 <HAL_RCC_ClockConfig+0x264>
  {
    return status;
 8004c72:	197b      	adds	r3, r7, r5
 8004c74:	781b      	ldrb	r3, [r3, #0]
 8004c76:	e000      	b.n	8004c7a <HAL_RCC_ClockConfig+0x266>
  }

  return HAL_OK;
 8004c78:	2300      	movs	r3, #0
}
 8004c7a:	0018      	movs	r0, r3
 8004c7c:	46bd      	mov	sp, r7
 8004c7e:	b004      	add	sp, #16
 8004c80:	bdb0      	pop	{r4, r5, r7, pc}
 8004c82:	46c0      	nop			; (mov r8, r8)
 8004c84:	40022000 	.word	0x40022000
 8004c88:	00001388 	.word	0x00001388
 8004c8c:	40021000 	.word	0x40021000
 8004c90:	fffff8ff 	.word	0xfffff8ff
 8004c94:	ffffc7ff 	.word	0xffffc7ff
 8004c98:	08006c94 	.word	0x08006c94
 8004c9c:	20000000 	.word	0x20000000
 8004ca0:	20000004 	.word	0x20000004

08004ca4 <HAL_RCC_GetSysClockFreq>:
  *         right SYSCLK value. Otherwise, any configuration based on this function will be incorrect.
  *
  * @retval SYSCLK frequency
  */
uint32_t HAL_RCC_GetSysClockFreq(void)
{
 8004ca4:	b5b0      	push	{r4, r5, r7, lr}
 8004ca6:	b08e      	sub	sp, #56	; 0x38
 8004ca8:	af00      	add	r7, sp, #0
  uint32_t tmpreg, pllm, plld, pllvco, msiclkrange;    /* no init needed */
  uint32_t sysclockfreq;

  tmpreg = RCC->CFGR;
 8004caa:	4b4c      	ldr	r3, [pc, #304]	; (8004ddc <HAL_RCC_GetSysClockFreq+0x138>)
 8004cac:	68db      	ldr	r3, [r3, #12]
 8004cae:	62fb      	str	r3, [r7, #44]	; 0x2c

  /* Get SYSCLK source -------------------------------------------------------*/
  switch (tmpreg & RCC_CFGR_SWS)
 8004cb0:	6afa      	ldr	r2, [r7, #44]	; 0x2c
 8004cb2:	230c      	movs	r3, #12
 8004cb4:	4013      	ands	r3, r2
 8004cb6:	2b0c      	cmp	r3, #12
 8004cb8:	d014      	beq.n	8004ce4 <HAL_RCC_GetSysClockFreq+0x40>
 8004cba:	d900      	bls.n	8004cbe <HAL_RCC_GetSysClockFreq+0x1a>
 8004cbc:	e07b      	b.n	8004db6 <HAL_RCC_GetSysClockFreq+0x112>
 8004cbe:	2b04      	cmp	r3, #4
 8004cc0:	d002      	beq.n	8004cc8 <HAL_RCC_GetSysClockFreq+0x24>
 8004cc2:	2b08      	cmp	r3, #8
 8004cc4:	d00b      	beq.n	8004cde <HAL_RCC_GetSysClockFreq+0x3a>
 8004cc6:	e076      	b.n	8004db6 <HAL_RCC_GetSysClockFreq+0x112>
  {
    case RCC_SYSCLKSOURCE_STATUS_HSI:  /* HSI used as system clock source */
    {
      if ((RCC->CR & RCC_CR_HSIDIVF) != 0U)
 8004cc8:	4b44      	ldr	r3, [pc, #272]	; (8004ddc <HAL_RCC_GetSysClockFreq+0x138>)
 8004cca:	681b      	ldr	r3, [r3, #0]
 8004ccc:	2210      	movs	r2, #16
 8004cce:	4013      	ands	r3, r2
 8004cd0:	d002      	beq.n	8004cd8 <HAL_RCC_GetSysClockFreq+0x34>
      {
        sysclockfreq =  (HSI_VALUE >> 2);
 8004cd2:	4b43      	ldr	r3, [pc, #268]	; (8004de0 <HAL_RCC_GetSysClockFreq+0x13c>)
 8004cd4:	633b      	str	r3, [r7, #48]	; 0x30
      }
      else
      {
        sysclockfreq =  HSI_VALUE;
      }
      break;
 8004cd6:	e07c      	b.n	8004dd2 <HAL_RCC_GetSysClockFreq+0x12e>
        sysclockfreq =  HSI_VALUE;
 8004cd8:	4b42      	ldr	r3, [pc, #264]	; (8004de4 <HAL_RCC_GetSysClockFreq+0x140>)
 8004cda:	633b      	str	r3, [r7, #48]	; 0x30
      break;
 8004cdc:	e079      	b.n	8004dd2 <HAL_RCC_GetSysClockFreq+0x12e>
    }
    case RCC_SYSCLKSOURCE_STATUS_HSE:  /* HSE used as system clock */
    {
      sysclockfreq = HSE_VALUE;
 8004cde:	4b42      	ldr	r3, [pc, #264]	; (8004de8 <HAL_RCC_GetSysClockFreq+0x144>)
 8004ce0:	633b      	str	r3, [r7, #48]	; 0x30
      break;
 8004ce2:	e076      	b.n	8004dd2 <HAL_RCC_GetSysClockFreq+0x12e>
    }
    case RCC_SYSCLKSOURCE_STATUS_PLLCLK:  /* PLL used as system clock */
    {
      pllm = PLLMulTable[(uint32_t)(tmpreg & RCC_CFGR_PLLMUL) >> RCC_CFGR_PLLMUL_Pos];
 8004ce4:	6afb      	ldr	r3, [r7, #44]	; 0x2c
 8004ce6:	0c9a      	lsrs	r2, r3, #18
 8004ce8:	230f      	movs	r3, #15
 8004cea:	401a      	ands	r2, r3
 8004cec:	4b3f      	ldr	r3, [pc, #252]	; (8004dec <HAL_RCC_GetSysClockFreq+0x148>)
 8004cee:	5c9b      	ldrb	r3, [r3, r2]
 8004cf0:	62bb      	str	r3, [r7, #40]	; 0x28
      plld = ((uint32_t)(tmpreg & RCC_CFGR_PLLDIV) >> RCC_CFGR_PLLDIV_Pos) + 1U;
 8004cf2:	6afb      	ldr	r3, [r7, #44]	; 0x2c
 8004cf4:	0d9a      	lsrs	r2, r3, #22
 8004cf6:	2303      	movs	r3, #3
 8004cf8:	4013      	ands	r3, r2
 8004cfa:	3301      	adds	r3, #1
 8004cfc:	627b      	str	r3, [r7, #36]	; 0x24
      if (__HAL_RCC_GET_PLL_OSCSOURCE() != RCC_PLLSOURCE_HSI)
 8004cfe:	4b37      	ldr	r3, [pc, #220]	; (8004ddc <HAL_RCC_GetSysClockFreq+0x138>)
 8004d00:	68da      	ldr	r2, [r3, #12]
 8004d02:	2380      	movs	r3, #128	; 0x80
 8004d04:	025b      	lsls	r3, r3, #9
 8004d06:	4013      	ands	r3, r2
 8004d08:	d01a      	beq.n	8004d40 <HAL_RCC_GetSysClockFreq+0x9c>
      {
        /* HSE used as PLL clock source */
        pllvco = (uint32_t)(((uint64_t)HSE_VALUE * (uint64_t)pllm) / (uint64_t)plld);
 8004d0a:	6abb      	ldr	r3, [r7, #40]	; 0x28
 8004d0c:	61bb      	str	r3, [r7, #24]
 8004d0e:	2300      	movs	r3, #0
 8004d10:	61fb      	str	r3, [r7, #28]
 8004d12:	4a35      	ldr	r2, [pc, #212]	; (8004de8 <HAL_RCC_GetSysClockFreq+0x144>)
 8004d14:	2300      	movs	r3, #0
 8004d16:	69b8      	ldr	r0, [r7, #24]
 8004d18:	69f9      	ldr	r1, [r7, #28]
 8004d1a:	f7fb fb95 	bl	8000448 <__aeabi_lmul>
 8004d1e:	0002      	movs	r2, r0
 8004d20:	000b      	movs	r3, r1
 8004d22:	0010      	movs	r0, r2
 8004d24:	0019      	movs	r1, r3
 8004d26:	6a7b      	ldr	r3, [r7, #36]	; 0x24
 8004d28:	613b      	str	r3, [r7, #16]
 8004d2a:	2300      	movs	r3, #0
 8004d2c:	617b      	str	r3, [r7, #20]
 8004d2e:	693a      	ldr	r2, [r7, #16]
 8004d30:	697b      	ldr	r3, [r7, #20]
 8004d32:	f7fb fb69 	bl	8000408 <__aeabi_uldivmod>
 8004d36:	0002      	movs	r2, r0
 8004d38:	000b      	movs	r3, r1
 8004d3a:	0013      	movs	r3, r2
 8004d3c:	637b      	str	r3, [r7, #52]	; 0x34
 8004d3e:	e037      	b.n	8004db0 <HAL_RCC_GetSysClockFreq+0x10c>
      }
      else
      {
        if ((RCC->CR & RCC_CR_HSIDIVF) != 0U)
 8004d40:	4b26      	ldr	r3, [pc, #152]	; (8004ddc <HAL_RCC_GetSysClockFreq+0x138>)
 8004d42:	681b      	ldr	r3, [r3, #0]
 8004d44:	2210      	movs	r2, #16
 8004d46:	4013      	ands	r3, r2
 8004d48:	d01a      	beq.n	8004d80 <HAL_RCC_GetSysClockFreq+0xdc>
        {
          pllvco = (uint32_t)((((uint64_t)(HSI_VALUE >> 2)) * (uint64_t)pllm) / (uint64_t)plld);
 8004d4a:	6abb      	ldr	r3, [r7, #40]	; 0x28
 8004d4c:	60bb      	str	r3, [r7, #8]
 8004d4e:	2300      	movs	r3, #0
 8004d50:	60fb      	str	r3, [r7, #12]
 8004d52:	4a23      	ldr	r2, [pc, #140]	; (8004de0 <HAL_RCC_GetSysClockFreq+0x13c>)
 8004d54:	2300      	movs	r3, #0
 8004d56:	68b8      	ldr	r0, [r7, #8]
 8004d58:	68f9      	ldr	r1, [r7, #12]
 8004d5a:	f7fb fb75 	bl	8000448 <__aeabi_lmul>
 8004d5e:	0002      	movs	r2, r0
 8004d60:	000b      	movs	r3, r1
 8004d62:	0010      	movs	r0, r2
 8004d64:	0019      	movs	r1, r3
 8004d66:	6a7b      	ldr	r3, [r7, #36]	; 0x24
 8004d68:	603b      	str	r3, [r7, #0]
 8004d6a:	2300      	movs	r3, #0
 8004d6c:	607b      	str	r3, [r7, #4]
 8004d6e:	683a      	ldr	r2, [r7, #0]
 8004d70:	687b      	ldr	r3, [r7, #4]
 8004d72:	f7fb fb49 	bl	8000408 <__aeabi_uldivmod>
 8004d76:	0002      	movs	r2, r0
 8004d78:	000b      	movs	r3, r1
 8004d7a:	0013      	movs	r3, r2
 8004d7c:	637b      	str	r3, [r7, #52]	; 0x34
 8004d7e:	e017      	b.n	8004db0 <HAL_RCC_GetSysClockFreq+0x10c>
        }
        else
        {
         pllvco = (uint32_t)(((uint64_t)HSI_VALUE * (uint64_t)pllm) / (uint64_t)plld);
 8004d80:	6abb      	ldr	r3, [r7, #40]	; 0x28
 8004d82:	0018      	movs	r0, r3
 8004d84:	2300      	movs	r3, #0
 8004d86:	0019      	movs	r1, r3
 8004d88:	4a16      	ldr	r2, [pc, #88]	; (8004de4 <HAL_RCC_GetSysClockFreq+0x140>)
 8004d8a:	2300      	movs	r3, #0
 8004d8c:	f7fb fb5c 	bl	8000448 <__aeabi_lmul>
 8004d90:	0002      	movs	r2, r0
 8004d92:	000b      	movs	r3, r1
 8004d94:	0010      	movs	r0, r2
 8004d96:	0019      	movs	r1, r3
 8004d98:	6a7b      	ldr	r3, [r7, #36]	; 0x24
 8004d9a:	001c      	movs	r4, r3
 8004d9c:	2300      	movs	r3, #0
 8004d9e:	001d      	movs	r5, r3
 8004da0:	0022      	movs	r2, r4
 8004da2:	002b      	movs	r3, r5
 8004da4:	f7fb fb30 	bl	8000408 <__aeabi_uldivmod>
 8004da8:	0002      	movs	r2, r0
 8004daa:	000b      	movs	r3, r1
 8004dac:	0013      	movs	r3, r2
 8004dae:	637b      	str	r3, [r7, #52]	; 0x34
        }
      }
      sysclockfreq = pllvco;
 8004db0:	6b7b      	ldr	r3, [r7, #52]	; 0x34
 8004db2:	633b      	str	r3, [r7, #48]	; 0x30
      break;
 8004db4:	e00d      	b.n	8004dd2 <HAL_RCC_GetSysClockFreq+0x12e>
    }
    case RCC_SYSCLKSOURCE_STATUS_MSI:  /* MSI used as system clock source */
    default: /* MSI used as system clock */
    {
      msiclkrange = (RCC->ICSCR & RCC_ICSCR_MSIRANGE ) >> RCC_ICSCR_MSIRANGE_Pos;
 8004db6:	4b09      	ldr	r3, [pc, #36]	; (8004ddc <HAL_RCC_GetSysClockFreq+0x138>)
 8004db8:	685b      	ldr	r3, [r3, #4]
 8004dba:	0b5b      	lsrs	r3, r3, #13
 8004dbc:	2207      	movs	r2, #7
 8004dbe:	4013      	ands	r3, r2
 8004dc0:	623b      	str	r3, [r7, #32]
      sysclockfreq = (32768U * (1UL << (msiclkrange + 1U)));
 8004dc2:	6a3b      	ldr	r3, [r7, #32]
 8004dc4:	3301      	adds	r3, #1
 8004dc6:	2280      	movs	r2, #128	; 0x80
 8004dc8:	0212      	lsls	r2, r2, #8
 8004dca:	409a      	lsls	r2, r3
 8004dcc:	0013      	movs	r3, r2
 8004dce:	633b      	str	r3, [r7, #48]	; 0x30
      break;
 8004dd0:	46c0      	nop			; (mov r8, r8)
    }
  }
  return sysclockfreq;
 8004dd2:	6b3b      	ldr	r3, [r7, #48]	; 0x30
}
 8004dd4:	0018      	movs	r0, r3
 8004dd6:	46bd      	mov	sp, r7
 8004dd8:	b00e      	add	sp, #56	; 0x38
 8004dda:	bdb0      	pop	{r4, r5, r7, pc}
 8004ddc:	40021000 	.word	0x40021000
 8004de0:	003d0900 	.word	0x003d0900
 8004de4:	00f42400 	.word	0x00f42400
 8004de8:	007a1200 	.word	0x007a1200
 8004dec:	08006cac 	.word	0x08006cac

08004df0 <HAL_RCC_GetHCLKFreq>:
  * @note   The SystemCoreClock CMSIS variable is used to store System Clock Frequency
  *         and updated within this function
  * @retval HCLK frequency
  */
uint32_t HAL_RCC_GetHCLKFreq(void)
{
 8004df0:	b580      	push	{r7, lr}
 8004df2:	af00      	add	r7, sp, #0
  return SystemCoreClock;
 8004df4:	4b02      	ldr	r3, [pc, #8]	; (8004e00 <HAL_RCC_GetHCLKFreq+0x10>)
 8004df6:	681b      	ldr	r3, [r3, #0]
}
 8004df8:	0018      	movs	r0, r3
 8004dfa:	46bd      	mov	sp, r7
 8004dfc:	bd80      	pop	{r7, pc}
 8004dfe:	46c0      	nop			; (mov r8, r8)
 8004e00:	20000000 	.word	0x20000000

08004e04 <HAL_RCC_GetPCLK1Freq>:
  * @note   Each time PCLK1 changes, this function must be called to update the
  *         right PCLK1 value. Otherwise, any configuration based on this function will be incorrect.
  * @retval PCLK1 frequency
  */
uint32_t HAL_RCC_GetPCLK1Freq(void)
{
 8004e04:	b580      	push	{r7, lr}
 8004e06:	af00      	add	r7, sp, #0
  /* Get HCLK source and Compute PCLK1 frequency ---------------------------*/
  return (HAL_RCC_GetHCLKFreq() >> APBPrescTable[(RCC->CFGR & RCC_CFGR_PPRE1) >> RCC_CFGR_PPRE1_Pos]);
 8004e08:	f7ff fff2 	bl	8004df0 <HAL_RCC_GetHCLKFreq>
 8004e0c:	0001      	movs	r1, r0
 8004e0e:	4b06      	ldr	r3, [pc, #24]	; (8004e28 <HAL_RCC_GetPCLK1Freq+0x24>)
 8004e10:	68db      	ldr	r3, [r3, #12]
 8004e12:	0a1b      	lsrs	r3, r3, #8
 8004e14:	2207      	movs	r2, #7
 8004e16:	4013      	ands	r3, r2
 8004e18:	4a04      	ldr	r2, [pc, #16]	; (8004e2c <HAL_RCC_GetPCLK1Freq+0x28>)
 8004e1a:	5cd3      	ldrb	r3, [r2, r3]
 8004e1c:	40d9      	lsrs	r1, r3
 8004e1e:	000b      	movs	r3, r1
}
 8004e20:	0018      	movs	r0, r3
 8004e22:	46bd      	mov	sp, r7
 8004e24:	bd80      	pop	{r7, pc}
 8004e26:	46c0      	nop			; (mov r8, r8)
 8004e28:	40021000 	.word	0x40021000
 8004e2c:	08006ca4 	.word	0x08006ca4

08004e30 <HAL_RCC_GetPCLK2Freq>:
  * @note   Each time PCLK2 changes, this function must be called to update the
  *         right PCLK2 value. Otherwise, any configuration based on this function will be incorrect.
  * @retval PCLK2 frequency
  */
uint32_t HAL_RCC_GetPCLK2Freq(void)
{
 8004e30:	b580      	push	{r7, lr}
 8004e32:	af00      	add	r7, sp, #0
  /* Get HCLK source and Compute PCLK2 frequency ---------------------------*/
  return (HAL_RCC_GetHCLKFreq()>> APBPrescTable[(RCC->CFGR & RCC_CFGR_PPRE2) >> RCC_CFGR_PPRE2_Pos]);
 8004e34:	f7ff ffdc 	bl	8004df0 <HAL_RCC_GetHCLKFreq>
 8004e38:	0001      	movs	r1, r0
 8004e3a:	4b06      	ldr	r3, [pc, #24]	; (8004e54 <HAL_RCC_GetPCLK2Freq+0x24>)
 8004e3c:	68db      	ldr	r3, [r3, #12]
 8004e3e:	0adb      	lsrs	r3, r3, #11
 8004e40:	2207      	movs	r2, #7
 8004e42:	4013      	ands	r3, r2
 8004e44:	4a04      	ldr	r2, [pc, #16]	; (8004e58 <HAL_RCC_GetPCLK2Freq+0x28>)
 8004e46:	5cd3      	ldrb	r3, [r2, r3]
 8004e48:	40d9      	lsrs	r1, r3
 8004e4a:	000b      	movs	r3, r1
}
 8004e4c:	0018      	movs	r0, r3
 8004e4e:	46bd      	mov	sp, r7
 8004e50:	bd80      	pop	{r7, pc}
 8004e52:	46c0      	nop			; (mov r8, r8)
 8004e54:	40021000 	.word	0x40021000
 8004e58:	08006ca4 	.word	0x08006ca4

08004e5c <HAL_RCCEx_PeriphCLKConfig>:
  * @retval HAL status
  * @note   If HAL_ERROR returned, first switch-OFF HSE clock oscillator with @ref HAL_RCC_OscConfig()
  *         to possibly update HSE divider.
  */
HAL_StatusTypeDef HAL_RCCEx_PeriphCLKConfig(RCC_PeriphCLKInitTypeDef  *PeriphClkInit)
{
 8004e5c:	b580      	push	{r7, lr}
 8004e5e:	b086      	sub	sp, #24
 8004e60:	af00      	add	r7, sp, #0
 8004e62:	6078      	str	r0, [r7, #4]
  uint32_t tickstart;
  uint32_t temp_reg;
  FlagStatus       pwrclkchanged = RESET;
 8004e64:	2317      	movs	r3, #23
 8004e66:	18fb      	adds	r3, r7, r3
 8004e68:	2200      	movs	r2, #0
 8004e6a:	701a      	strb	r2, [r3, #0]

  /* Check the parameters */
  assert_param(IS_RCC_PERIPHCLOCK(PeriphClkInit->PeriphClockSelection));

  /*------------------------------- RTC/LCD Configuration ------------------------*/
  if ((((PeriphClkInit->PeriphClockSelection) & RCC_PERIPHCLK_RTC) == RCC_PERIPHCLK_RTC)
 8004e6c:	687b      	ldr	r3, [r7, #4]
 8004e6e:	681b      	ldr	r3, [r3, #0]
 8004e70:	2220      	movs	r2, #32
 8004e72:	4013      	ands	r3, r2
 8004e74:	d106      	bne.n	8004e84 <HAL_RCCEx_PeriphCLKConfig+0x28>
#if defined(LCD)
   || (((PeriphClkInit->PeriphClockSelection) & RCC_PERIPHCLK_LCD) == RCC_PERIPHCLK_LCD)
 8004e76:	687b      	ldr	r3, [r7, #4]
 8004e78:	681a      	ldr	r2, [r3, #0]
 8004e7a:	2380      	movs	r3, #128	; 0x80
 8004e7c:	011b      	lsls	r3, r3, #4
 8004e7e:	4013      	ands	r3, r2
 8004e80:	d100      	bne.n	8004e84 <HAL_RCCEx_PeriphCLKConfig+0x28>
 8004e82:	e0d9      	b.n	8005038 <HAL_RCCEx_PeriphCLKConfig+0x1dc>
#endif /* LCD */

    /* As soon as function is called to change RTC clock source, activation of the
       power domain is done. */
    /* Requires to enable write access to Backup Domain of necessary */
    if(__HAL_RCC_PWR_IS_CLK_DISABLED())
 8004e84:	4ba4      	ldr	r3, [pc, #656]	; (8005118 <HAL_RCCEx_PeriphCLKConfig+0x2bc>)
 8004e86:	6b9a      	ldr	r2, [r3, #56]	; 0x38
 8004e88:	2380      	movs	r3, #128	; 0x80
 8004e8a:	055b      	lsls	r3, r3, #21
 8004e8c:	4013      	ands	r3, r2
 8004e8e:	d10a      	bne.n	8004ea6 <HAL_RCCEx_PeriphCLKConfig+0x4a>
    {
      __HAL_RCC_PWR_CLK_ENABLE();
 8004e90:	4ba1      	ldr	r3, [pc, #644]	; (8005118 <HAL_RCCEx_PeriphCLKConfig+0x2bc>)
 8004e92:	6b9a      	ldr	r2, [r3, #56]	; 0x38
 8004e94:	4ba0      	ldr	r3, [pc, #640]	; (8005118 <HAL_RCCEx_PeriphCLKConfig+0x2bc>)
 8004e96:	2180      	movs	r1, #128	; 0x80
 8004e98:	0549      	lsls	r1, r1, #21
 8004e9a:	430a      	orrs	r2, r1
 8004e9c:	639a      	str	r2, [r3, #56]	; 0x38
      pwrclkchanged = SET;
 8004e9e:	2317      	movs	r3, #23
 8004ea0:	18fb      	adds	r3, r7, r3
 8004ea2:	2201      	movs	r2, #1
 8004ea4:	701a      	strb	r2, [r3, #0]
    }

    if(HAL_IS_BIT_CLR(PWR->CR, PWR_CR_DBP))
 8004ea6:	4b9d      	ldr	r3, [pc, #628]	; (800511c <HAL_RCCEx_PeriphCLKConfig+0x2c0>)
 8004ea8:	681a      	ldr	r2, [r3, #0]
 8004eaa:	2380      	movs	r3, #128	; 0x80
 8004eac:	005b      	lsls	r3, r3, #1
 8004eae:	4013      	ands	r3, r2
 8004eb0:	d11a      	bne.n	8004ee8 <HAL_RCCEx_PeriphCLKConfig+0x8c>
    {
      /* Enable write access to Backup domain */
      SET_BIT(PWR->CR, PWR_CR_DBP);
 8004eb2:	4b9a      	ldr	r3, [pc, #616]	; (800511c <HAL_RCCEx_PeriphCLKConfig+0x2c0>)
 8004eb4:	681a      	ldr	r2, [r3, #0]
 8004eb6:	4b99      	ldr	r3, [pc, #612]	; (800511c <HAL_RCCEx_PeriphCLKConfig+0x2c0>)
 8004eb8:	2180      	movs	r1, #128	; 0x80
 8004eba:	0049      	lsls	r1, r1, #1
 8004ebc:	430a      	orrs	r2, r1
 8004ebe:	601a      	str	r2, [r3, #0]

      /* Wait for Backup domain Write protection disable */
      tickstart = HAL_GetTick();
 8004ec0:	f7fe fbbe 	bl	8003640 <HAL_GetTick>
 8004ec4:	0003      	movs	r3, r0
 8004ec6:	613b      	str	r3, [r7, #16]

      while(HAL_IS_BIT_CLR(PWR->CR, PWR_CR_DBP))
 8004ec8:	e008      	b.n	8004edc <HAL_RCCEx_PeriphCLKConfig+0x80>
      {
        if((HAL_GetTick() - tickstart) > RCC_DBP_TIMEOUT_VALUE)
 8004eca:	f7fe fbb9 	bl	8003640 <HAL_GetTick>
 8004ece:	0002      	movs	r2, r0
 8004ed0:	693b      	ldr	r3, [r7, #16]
 8004ed2:	1ad3      	subs	r3, r2, r3
 8004ed4:	2b64      	cmp	r3, #100	; 0x64
 8004ed6:	d901      	bls.n	8004edc <HAL_RCCEx_PeriphCLKConfig+0x80>
        {
          return HAL_TIMEOUT;
 8004ed8:	2303      	movs	r3, #3
 8004eda:	e118      	b.n	800510e <HAL_RCCEx_PeriphCLKConfig+0x2b2>
      while(HAL_IS_BIT_CLR(PWR->CR, PWR_CR_DBP))
 8004edc:	4b8f      	ldr	r3, [pc, #572]	; (800511c <HAL_RCCEx_PeriphCLKConfig+0x2c0>)
 8004ede:	681a      	ldr	r2, [r3, #0]
 8004ee0:	2380      	movs	r3, #128	; 0x80
 8004ee2:	005b      	lsls	r3, r3, #1
 8004ee4:	4013      	ands	r3, r2
 8004ee6:	d0f0      	beq.n	8004eca <HAL_RCCEx_PeriphCLKConfig+0x6e>
        }
      }
    }

    /* Check if user wants to change HSE RTC prescaler whereas HSE is enabled */
    temp_reg = (RCC->CR & RCC_CR_RTCPRE);
 8004ee8:	4b8b      	ldr	r3, [pc, #556]	; (8005118 <HAL_RCCEx_PeriphCLKConfig+0x2bc>)
 8004eea:	681a      	ldr	r2, [r3, #0]
 8004eec:	23c0      	movs	r3, #192	; 0xc0
 8004eee:	039b      	lsls	r3, r3, #14
 8004ef0:	4013      	ands	r3, r2
 8004ef2:	60fb      	str	r3, [r7, #12]
    if ((temp_reg != (PeriphClkInit->RTCClockSelection & RCC_CR_RTCPRE))
 8004ef4:	687b      	ldr	r3, [r7, #4]
 8004ef6:	685a      	ldr	r2, [r3, #4]
 8004ef8:	23c0      	movs	r3, #192	; 0xc0
 8004efa:	039b      	lsls	r3, r3, #14
 8004efc:	4013      	ands	r3, r2
 8004efe:	68fa      	ldr	r2, [r7, #12]
 8004f00:	429a      	cmp	r2, r3
 8004f02:	d107      	bne.n	8004f14 <HAL_RCCEx_PeriphCLKConfig+0xb8>
#if defined (LCD)
     || (temp_reg != (PeriphClkInit->LCDClockSelection & RCC_CR_RTCPRE))
 8004f04:	687b      	ldr	r3, [r7, #4]
 8004f06:	689a      	ldr	r2, [r3, #8]
 8004f08:	23c0      	movs	r3, #192	; 0xc0
 8004f0a:	039b      	lsls	r3, r3, #14
 8004f0c:	4013      	ands	r3, r2
 8004f0e:	68fa      	ldr	r2, [r7, #12]
 8004f10:	429a      	cmp	r2, r3
 8004f12:	d013      	beq.n	8004f3c <HAL_RCCEx_PeriphCLKConfig+0xe0>
#endif /* LCD */
       )
    { /* Check HSE State */
      if ((PeriphClkInit->RTCClockSelection & RCC_CSR_RTCSEL) == RCC_CSR_RTCSEL_HSE)
 8004f14:	687b      	ldr	r3, [r7, #4]
 8004f16:	685a      	ldr	r2, [r3, #4]
 8004f18:	23c0      	movs	r3, #192	; 0xc0
 8004f1a:	029b      	lsls	r3, r3, #10
 8004f1c:	401a      	ands	r2, r3
 8004f1e:	23c0      	movs	r3, #192	; 0xc0
 8004f20:	029b      	lsls	r3, r3, #10
 8004f22:	429a      	cmp	r2, r3
 8004f24:	d10a      	bne.n	8004f3c <HAL_RCCEx_PeriphCLKConfig+0xe0>
      {
        if (HAL_IS_BIT_SET(RCC->CR, RCC_CR_HSERDY))
 8004f26:	4b7c      	ldr	r3, [pc, #496]	; (8005118 <HAL_RCCEx_PeriphCLKConfig+0x2bc>)
 8004f28:	681a      	ldr	r2, [r3, #0]
 8004f2a:	2380      	movs	r3, #128	; 0x80
 8004f2c:	029b      	lsls	r3, r3, #10
 8004f2e:	401a      	ands	r2, r3
 8004f30:	2380      	movs	r3, #128	; 0x80
 8004f32:	029b      	lsls	r3, r3, #10
 8004f34:	429a      	cmp	r2, r3
 8004f36:	d101      	bne.n	8004f3c <HAL_RCCEx_PeriphCLKConfig+0xe0>
        {
          /* To update HSE divider, first switch-OFF HSE clock oscillator*/
          return HAL_ERROR;
 8004f38:	2301      	movs	r3, #1
 8004f3a:	e0e8      	b.n	800510e <HAL_RCCEx_PeriphCLKConfig+0x2b2>
        }
      }
    }

    /* Reset the Backup domain only if the RTC Clock source selection is modified from reset value */
    temp_reg = (RCC->CSR & RCC_CSR_RTCSEL);
 8004f3c:	4b76      	ldr	r3, [pc, #472]	; (8005118 <HAL_RCCEx_PeriphCLKConfig+0x2bc>)
 8004f3e:	6d1a      	ldr	r2, [r3, #80]	; 0x50
 8004f40:	23c0      	movs	r3, #192	; 0xc0
 8004f42:	029b      	lsls	r3, r3, #10
 8004f44:	4013      	ands	r3, r2
 8004f46:	60fb      	str	r3, [r7, #12]

    if((temp_reg != 0x00000000U) && (((temp_reg != (PeriphClkInit->RTCClockSelection & RCC_CSR_RTCSEL)) \
 8004f48:	68fb      	ldr	r3, [r7, #12]
 8004f4a:	2b00      	cmp	r3, #0
 8004f4c:	d049      	beq.n	8004fe2 <HAL_RCCEx_PeriphCLKConfig+0x186>
 8004f4e:	687b      	ldr	r3, [r7, #4]
 8004f50:	685a      	ldr	r2, [r3, #4]
 8004f52:	23c0      	movs	r3, #192	; 0xc0
 8004f54:	029b      	lsls	r3, r3, #10
 8004f56:	4013      	ands	r3, r2
 8004f58:	68fa      	ldr	r2, [r7, #12]
 8004f5a:	429a      	cmp	r2, r3
 8004f5c:	d004      	beq.n	8004f68 <HAL_RCCEx_PeriphCLKConfig+0x10c>
      && (((PeriphClkInit->PeriphClockSelection) & RCC_PERIPHCLK_RTC) == RCC_PERIPHCLK_RTC))
 8004f5e:	687b      	ldr	r3, [r7, #4]
 8004f60:	681b      	ldr	r3, [r3, #0]
 8004f62:	2220      	movs	r2, #32
 8004f64:	4013      	ands	r3, r2
 8004f66:	d10d      	bne.n	8004f84 <HAL_RCCEx_PeriphCLKConfig+0x128>
#if defined(LCD)
      || ((temp_reg != (PeriphClkInit->LCDClockSelection & RCC_CSR_RTCSEL)) \
 8004f68:	687b      	ldr	r3, [r7, #4]
 8004f6a:	689a      	ldr	r2, [r3, #8]
 8004f6c:	23c0      	movs	r3, #192	; 0xc0
 8004f6e:	029b      	lsls	r3, r3, #10
 8004f70:	4013      	ands	r3, r2
 8004f72:	68fa      	ldr	r2, [r7, #12]
 8004f74:	429a      	cmp	r2, r3
 8004f76:	d034      	beq.n	8004fe2 <HAL_RCCEx_PeriphCLKConfig+0x186>
       && (((PeriphClkInit->PeriphClockSelection) & RCC_PERIPHCLK_LCD) == RCC_PERIPHCLK_LCD))
 8004f78:	687b      	ldr	r3, [r7, #4]
 8004f7a:	681a      	ldr	r2, [r3, #0]
 8004f7c:	2380      	movs	r3, #128	; 0x80
 8004f7e:	011b      	lsls	r3, r3, #4
 8004f80:	4013      	ands	r3, r2
 8004f82:	d02e      	beq.n	8004fe2 <HAL_RCCEx_PeriphCLKConfig+0x186>
#endif /* LCD */
     ))
    {
      /* Store the content of CSR register before the reset of Backup Domain */
      temp_reg = (RCC->CSR & ~(RCC_CSR_RTCSEL));
 8004f84:	4b64      	ldr	r3, [pc, #400]	; (8005118 <HAL_RCCEx_PeriphCLKConfig+0x2bc>)
 8004f86:	6d1b      	ldr	r3, [r3, #80]	; 0x50
 8004f88:	4a65      	ldr	r2, [pc, #404]	; (8005120 <HAL_RCCEx_PeriphCLKConfig+0x2c4>)
 8004f8a:	4013      	ands	r3, r2
 8004f8c:	60fb      	str	r3, [r7, #12]

      /* RTC Clock selection can be changed only if the Backup Domain is reset */
      __HAL_RCC_BACKUPRESET_FORCE();
 8004f8e:	4b62      	ldr	r3, [pc, #392]	; (8005118 <HAL_RCCEx_PeriphCLKConfig+0x2bc>)
 8004f90:	6d1a      	ldr	r2, [r3, #80]	; 0x50
 8004f92:	4b61      	ldr	r3, [pc, #388]	; (8005118 <HAL_RCCEx_PeriphCLKConfig+0x2bc>)
 8004f94:	2180      	movs	r1, #128	; 0x80
 8004f96:	0309      	lsls	r1, r1, #12
 8004f98:	430a      	orrs	r2, r1
 8004f9a:	651a      	str	r2, [r3, #80]	; 0x50
      __HAL_RCC_BACKUPRESET_RELEASE();
 8004f9c:	4b5e      	ldr	r3, [pc, #376]	; (8005118 <HAL_RCCEx_PeriphCLKConfig+0x2bc>)
 8004f9e:	6d1a      	ldr	r2, [r3, #80]	; 0x50
 8004fa0:	4b5d      	ldr	r3, [pc, #372]	; (8005118 <HAL_RCCEx_PeriphCLKConfig+0x2bc>)
 8004fa2:	4960      	ldr	r1, [pc, #384]	; (8005124 <HAL_RCCEx_PeriphCLKConfig+0x2c8>)
 8004fa4:	400a      	ands	r2, r1
 8004fa6:	651a      	str	r2, [r3, #80]	; 0x50

      /* Restore the Content of CSR register */
      RCC->CSR = temp_reg;
 8004fa8:	4b5b      	ldr	r3, [pc, #364]	; (8005118 <HAL_RCCEx_PeriphCLKConfig+0x2bc>)
 8004faa:	68fa      	ldr	r2, [r7, #12]
 8004fac:	651a      	str	r2, [r3, #80]	; 0x50

       /* Wait for LSERDY if LSE was enabled */
      if (HAL_IS_BIT_SET(temp_reg, RCC_CSR_LSEON))
 8004fae:	68fa      	ldr	r2, [r7, #12]
 8004fb0:	2380      	movs	r3, #128	; 0x80
 8004fb2:	005b      	lsls	r3, r3, #1
 8004fb4:	4013      	ands	r3, r2
 8004fb6:	d014      	beq.n	8004fe2 <HAL_RCCEx_PeriphCLKConfig+0x186>
      {
        /* Get Start Tick */
        tickstart = HAL_GetTick();
 8004fb8:	f7fe fb42 	bl	8003640 <HAL_GetTick>
 8004fbc:	0003      	movs	r3, r0
 8004fbe:	613b      	str	r3, [r7, #16]

        /* Wait till LSE is ready */
        while(__HAL_RCC_GET_FLAG(RCC_FLAG_LSERDY) == 0U)
 8004fc0:	e009      	b.n	8004fd6 <HAL_RCCEx_PeriphCLKConfig+0x17a>
        {
          if((HAL_GetTick() - tickstart ) > RCC_LSE_TIMEOUT_VALUE)
 8004fc2:	f7fe fb3d 	bl	8003640 <HAL_GetTick>
 8004fc6:	0002      	movs	r2, r0
 8004fc8:	693b      	ldr	r3, [r7, #16]
 8004fca:	1ad3      	subs	r3, r2, r3
 8004fcc:	4a56      	ldr	r2, [pc, #344]	; (8005128 <HAL_RCCEx_PeriphCLKConfig+0x2cc>)
 8004fce:	4293      	cmp	r3, r2
 8004fd0:	d901      	bls.n	8004fd6 <HAL_RCCEx_PeriphCLKConfig+0x17a>
          {
            return HAL_TIMEOUT;
 8004fd2:	2303      	movs	r3, #3
 8004fd4:	e09b      	b.n	800510e <HAL_RCCEx_PeriphCLKConfig+0x2b2>
        while(__HAL_RCC_GET_FLAG(RCC_FLAG_LSERDY) == 0U)
 8004fd6:	4b50      	ldr	r3, [pc, #320]	; (8005118 <HAL_RCCEx_PeriphCLKConfig+0x2bc>)
 8004fd8:	6d1a      	ldr	r2, [r3, #80]	; 0x50
 8004fda:	2380      	movs	r3, #128	; 0x80
 8004fdc:	009b      	lsls	r3, r3, #2
 8004fde:	4013      	ands	r3, r2
 8004fe0:	d0ef      	beq.n	8004fc2 <HAL_RCCEx_PeriphCLKConfig+0x166>
          }
        }
      }
    }
    __HAL_RCC_RTC_CONFIG(PeriphClkInit->RTCClockSelection);
 8004fe2:	687b      	ldr	r3, [r7, #4]
 8004fe4:	685a      	ldr	r2, [r3, #4]
 8004fe6:	23c0      	movs	r3, #192	; 0xc0
 8004fe8:	029b      	lsls	r3, r3, #10
 8004fea:	401a      	ands	r2, r3
 8004fec:	23c0      	movs	r3, #192	; 0xc0
 8004fee:	029b      	lsls	r3, r3, #10
 8004ff0:	429a      	cmp	r2, r3
 8004ff2:	d10c      	bne.n	800500e <HAL_RCCEx_PeriphCLKConfig+0x1b2>
 8004ff4:	4b48      	ldr	r3, [pc, #288]	; (8005118 <HAL_RCCEx_PeriphCLKConfig+0x2bc>)
 8004ff6:	681b      	ldr	r3, [r3, #0]
 8004ff8:	4a4c      	ldr	r2, [pc, #304]	; (800512c <HAL_RCCEx_PeriphCLKConfig+0x2d0>)
 8004ffa:	4013      	ands	r3, r2
 8004ffc:	0019      	movs	r1, r3
 8004ffe:	687b      	ldr	r3, [r7, #4]
 8005000:	685a      	ldr	r2, [r3, #4]
 8005002:	23c0      	movs	r3, #192	; 0xc0
 8005004:	039b      	lsls	r3, r3, #14
 8005006:	401a      	ands	r2, r3
 8005008:	4b43      	ldr	r3, [pc, #268]	; (8005118 <HAL_RCCEx_PeriphCLKConfig+0x2bc>)
 800500a:	430a      	orrs	r2, r1
 800500c:	601a      	str	r2, [r3, #0]
 800500e:	4b42      	ldr	r3, [pc, #264]	; (8005118 <HAL_RCCEx_PeriphCLKConfig+0x2bc>)
 8005010:	6d19      	ldr	r1, [r3, #80]	; 0x50
 8005012:	687b      	ldr	r3, [r7, #4]
 8005014:	685a      	ldr	r2, [r3, #4]
 8005016:	23c0      	movs	r3, #192	; 0xc0
 8005018:	029b      	lsls	r3, r3, #10
 800501a:	401a      	ands	r2, r3
 800501c:	4b3e      	ldr	r3, [pc, #248]	; (8005118 <HAL_RCCEx_PeriphCLKConfig+0x2bc>)
 800501e:	430a      	orrs	r2, r1
 8005020:	651a      	str	r2, [r3, #80]	; 0x50

    /* Require to disable power clock if necessary */
    if(pwrclkchanged == SET)
 8005022:	2317      	movs	r3, #23
 8005024:	18fb      	adds	r3, r7, r3
 8005026:	781b      	ldrb	r3, [r3, #0]
 8005028:	2b01      	cmp	r3, #1
 800502a:	d105      	bne.n	8005038 <HAL_RCCEx_PeriphCLKConfig+0x1dc>
    {
      __HAL_RCC_PWR_CLK_DISABLE();
 800502c:	4b3a      	ldr	r3, [pc, #232]	; (8005118 <HAL_RCCEx_PeriphCLKConfig+0x2bc>)
 800502e:	6b9a      	ldr	r2, [r3, #56]	; 0x38
 8005030:	4b39      	ldr	r3, [pc, #228]	; (8005118 <HAL_RCCEx_PeriphCLKConfig+0x2bc>)
 8005032:	493f      	ldr	r1, [pc, #252]	; (8005130 <HAL_RCCEx_PeriphCLKConfig+0x2d4>)
 8005034:	400a      	ands	r2, r1
 8005036:	639a      	str	r2, [r3, #56]	; 0x38
    }
  }

#if defined (RCC_CCIPR_USART1SEL)
  /*------------------------------- USART1 Configuration ------------------------*/
  if(((PeriphClkInit->PeriphClockSelection) & RCC_PERIPHCLK_USART1) == RCC_PERIPHCLK_USART1)
 8005038:	687b      	ldr	r3, [r7, #4]
 800503a:	681b      	ldr	r3, [r3, #0]
 800503c:	2201      	movs	r2, #1
 800503e:	4013      	ands	r3, r2
 8005040:	d009      	beq.n	8005056 <HAL_RCCEx_PeriphCLKConfig+0x1fa>
  {
    /* Check the parameters */
    assert_param(IS_RCC_USART1CLKSOURCE(PeriphClkInit->Usart1ClockSelection));

    /* Configure the USART1 clock source */
    __HAL_RCC_USART1_CONFIG(PeriphClkInit->Usart1ClockSelection);
 8005042:	4b35      	ldr	r3, [pc, #212]	; (8005118 <HAL_RCCEx_PeriphCLKConfig+0x2bc>)
 8005044:	6cdb      	ldr	r3, [r3, #76]	; 0x4c
 8005046:	2203      	movs	r2, #3
 8005048:	4393      	bics	r3, r2
 800504a:	0019      	movs	r1, r3
 800504c:	687b      	ldr	r3, [r7, #4]
 800504e:	68da      	ldr	r2, [r3, #12]
 8005050:	4b31      	ldr	r3, [pc, #196]	; (8005118 <HAL_RCCEx_PeriphCLKConfig+0x2bc>)
 8005052:	430a      	orrs	r2, r1
 8005054:	64da      	str	r2, [r3, #76]	; 0x4c
  }
#endif /* RCC_CCIPR_USART1SEL */

  /*----------------------------- USART2 Configuration --------------------------*/
  if(((PeriphClkInit->PeriphClockSelection) & RCC_PERIPHCLK_USART2) == RCC_PERIPHCLK_USART2)
 8005056:	687b      	ldr	r3, [r7, #4]
 8005058:	681b      	ldr	r3, [r3, #0]
 800505a:	2202      	movs	r2, #2
 800505c:	4013      	ands	r3, r2
 800505e:	d009      	beq.n	8005074 <HAL_RCCEx_PeriphCLKConfig+0x218>
  {
    /* Check the parameters */
    assert_param(IS_RCC_USART2CLKSOURCE(PeriphClkInit->Usart2ClockSelection));

    /* Configure the USART2 clock source */
    __HAL_RCC_USART2_CONFIG(PeriphClkInit->Usart2ClockSelection);
 8005060:	4b2d      	ldr	r3, [pc, #180]	; (8005118 <HAL_RCCEx_PeriphCLKConfig+0x2bc>)
 8005062:	6cdb      	ldr	r3, [r3, #76]	; 0x4c
 8005064:	220c      	movs	r2, #12
 8005066:	4393      	bics	r3, r2
 8005068:	0019      	movs	r1, r3
 800506a:	687b      	ldr	r3, [r7, #4]
 800506c:	691a      	ldr	r2, [r3, #16]
 800506e:	4b2a      	ldr	r3, [pc, #168]	; (8005118 <HAL_RCCEx_PeriphCLKConfig+0x2bc>)
 8005070:	430a      	orrs	r2, r1
 8005072:	64da      	str	r2, [r3, #76]	; 0x4c
  }

  /*------------------------------ LPUART1 Configuration ------------------------*/
  if(((PeriphClkInit->PeriphClockSelection) & RCC_PERIPHCLK_LPUART1) == RCC_PERIPHCLK_LPUART1)
 8005074:	687b      	ldr	r3, [r7, #4]
 8005076:	681b      	ldr	r3, [r3, #0]
 8005078:	2204      	movs	r2, #4
 800507a:	4013      	ands	r3, r2
 800507c:	d009      	beq.n	8005092 <HAL_RCCEx_PeriphCLKConfig+0x236>
  {
    /* Check the parameters */
    assert_param(IS_RCC_LPUART1CLKSOURCE(PeriphClkInit->Lpuart1ClockSelection));

    /* Configure the LPUAR1 clock source */
    __HAL_RCC_LPUART1_CONFIG(PeriphClkInit->Lpuart1ClockSelection);
 800507e:	4b26      	ldr	r3, [pc, #152]	; (8005118 <HAL_RCCEx_PeriphCLKConfig+0x2bc>)
 8005080:	6cdb      	ldr	r3, [r3, #76]	; 0x4c
 8005082:	4a2c      	ldr	r2, [pc, #176]	; (8005134 <HAL_RCCEx_PeriphCLKConfig+0x2d8>)
 8005084:	4013      	ands	r3, r2
 8005086:	0019      	movs	r1, r3
 8005088:	687b      	ldr	r3, [r7, #4]
 800508a:	695a      	ldr	r2, [r3, #20]
 800508c:	4b22      	ldr	r3, [pc, #136]	; (8005118 <HAL_RCCEx_PeriphCLKConfig+0x2bc>)
 800508e:	430a      	orrs	r2, r1
 8005090:	64da      	str	r2, [r3, #76]	; 0x4c
  }

  /*------------------------------ I2C1 Configuration ------------------------*/
  if(((PeriphClkInit->PeriphClockSelection) & RCC_PERIPHCLK_I2C1) == RCC_PERIPHCLK_I2C1)
 8005092:	687b      	ldr	r3, [r7, #4]
 8005094:	681b      	ldr	r3, [r3, #0]
 8005096:	2208      	movs	r2, #8
 8005098:	4013      	ands	r3, r2
 800509a:	d009      	beq.n	80050b0 <HAL_RCCEx_PeriphCLKConfig+0x254>
  {
    /* Check the parameters */
    assert_param(IS_RCC_I2C1CLKSOURCE(PeriphClkInit->I2c1ClockSelection));

    /* Configure the I2C1 clock source */
    __HAL_RCC_I2C1_CONFIG(PeriphClkInit->I2c1ClockSelection);
 800509c:	4b1e      	ldr	r3, [pc, #120]	; (8005118 <HAL_RCCEx_PeriphCLKConfig+0x2bc>)
 800509e:	6cdb      	ldr	r3, [r3, #76]	; 0x4c
 80050a0:	4a25      	ldr	r2, [pc, #148]	; (8005138 <HAL_RCCEx_PeriphCLKConfig+0x2dc>)
 80050a2:	4013      	ands	r3, r2
 80050a4:	0019      	movs	r1, r3
 80050a6:	687b      	ldr	r3, [r7, #4]
 80050a8:	699a      	ldr	r2, [r3, #24]
 80050aa:	4b1b      	ldr	r3, [pc, #108]	; (8005118 <HAL_RCCEx_PeriphCLKConfig+0x2bc>)
 80050ac:	430a      	orrs	r2, r1
 80050ae:	64da      	str	r2, [r3, #76]	; 0x4c
  }

#if defined (RCC_CCIPR_I2C3SEL)
    /*------------------------------ I2C3 Configuration ------------------------*/
  if(((PeriphClkInit->PeriphClockSelection) & RCC_PERIPHCLK_I2C3) == RCC_PERIPHCLK_I2C3)
 80050b0:	687b      	ldr	r3, [r7, #4]
 80050b2:	681a      	ldr	r2, [r3, #0]
 80050b4:	2380      	movs	r3, #128	; 0x80
 80050b6:	005b      	lsls	r3, r3, #1
 80050b8:	4013      	ands	r3, r2
 80050ba:	d009      	beq.n	80050d0 <HAL_RCCEx_PeriphCLKConfig+0x274>
  {
    /* Check the parameters */
    assert_param(IS_RCC_I2C3CLKSOURCE(PeriphClkInit->I2c3ClockSelection));

    /* Configure the I2C3 clock source */
    __HAL_RCC_I2C3_CONFIG(PeriphClkInit->I2c3ClockSelection);
 80050bc:	4b16      	ldr	r3, [pc, #88]	; (8005118 <HAL_RCCEx_PeriphCLKConfig+0x2bc>)
 80050be:	6cdb      	ldr	r3, [r3, #76]	; 0x4c
 80050c0:	4a17      	ldr	r2, [pc, #92]	; (8005120 <HAL_RCCEx_PeriphCLKConfig+0x2c4>)
 80050c2:	4013      	ands	r3, r2
 80050c4:	0019      	movs	r1, r3
 80050c6:	687b      	ldr	r3, [r7, #4]
 80050c8:	69da      	ldr	r2, [r3, #28]
 80050ca:	4b13      	ldr	r3, [pc, #76]	; (8005118 <HAL_RCCEx_PeriphCLKConfig+0x2bc>)
 80050cc:	430a      	orrs	r2, r1
 80050ce:	64da      	str	r2, [r3, #76]	; 0x4c
  }
#endif /* RCC_CCIPR_I2C3SEL */

#if defined(USB)
 /*---------------------------- USB and RNG configuration --------------------*/
  if(((PeriphClkInit->PeriphClockSelection) & RCC_PERIPHCLK_USB) == (RCC_PERIPHCLK_USB))
 80050d0:	687b      	ldr	r3, [r7, #4]
 80050d2:	681b      	ldr	r3, [r3, #0]
 80050d4:	2240      	movs	r2, #64	; 0x40
 80050d6:	4013      	ands	r3, r2
 80050d8:	d009      	beq.n	80050ee <HAL_RCCEx_PeriphCLKConfig+0x292>
  {
    assert_param(IS_RCC_USBCLKSOURCE(PeriphClkInit->UsbClockSelection));
    __HAL_RCC_USB_CONFIG(PeriphClkInit->UsbClockSelection);
 80050da:	4b0f      	ldr	r3, [pc, #60]	; (8005118 <HAL_RCCEx_PeriphCLKConfig+0x2bc>)
 80050dc:	6cdb      	ldr	r3, [r3, #76]	; 0x4c
 80050de:	4a17      	ldr	r2, [pc, #92]	; (800513c <HAL_RCCEx_PeriphCLKConfig+0x2e0>)
 80050e0:	4013      	ands	r3, r2
 80050e2:	0019      	movs	r1, r3
 80050e4:	687b      	ldr	r3, [r7, #4]
 80050e6:	6a5a      	ldr	r2, [r3, #36]	; 0x24
 80050e8:	4b0b      	ldr	r3, [pc, #44]	; (8005118 <HAL_RCCEx_PeriphCLKConfig+0x2bc>)
 80050ea:	430a      	orrs	r2, r1
 80050ec:	64da      	str	r2, [r3, #76]	; 0x4c
  }
#endif /* USB */

  /*---------------------------- LPTIM1 configuration ------------------------*/
  if(((PeriphClkInit->PeriphClockSelection) & RCC_PERIPHCLK_LPTIM1) == (RCC_PERIPHCLK_LPTIM1))
 80050ee:	687b      	ldr	r3, [r7, #4]
 80050f0:	681b      	ldr	r3, [r3, #0]
 80050f2:	2280      	movs	r2, #128	; 0x80
 80050f4:	4013      	ands	r3, r2
 80050f6:	d009      	beq.n	800510c <HAL_RCCEx_PeriphCLKConfig+0x2b0>
  {
    assert_param(IS_RCC_LPTIMCLK(PeriphClkInit->LptimClockSelection));
    __HAL_RCC_LPTIM1_CONFIG(PeriphClkInit->LptimClockSelection);
 80050f8:	4b07      	ldr	r3, [pc, #28]	; (8005118 <HAL_RCCEx_PeriphCLKConfig+0x2bc>)
 80050fa:	6cdb      	ldr	r3, [r3, #76]	; 0x4c
 80050fc:	4a10      	ldr	r2, [pc, #64]	; (8005140 <HAL_RCCEx_PeriphCLKConfig+0x2e4>)
 80050fe:	4013      	ands	r3, r2
 8005100:	0019      	movs	r1, r3
 8005102:	687b      	ldr	r3, [r7, #4]
 8005104:	6a1a      	ldr	r2, [r3, #32]
 8005106:	4b04      	ldr	r3, [pc, #16]	; (8005118 <HAL_RCCEx_PeriphCLKConfig+0x2bc>)
 8005108:	430a      	orrs	r2, r1
 800510a:	64da      	str	r2, [r3, #76]	; 0x4c
  }

  return HAL_OK;
 800510c:	2300      	movs	r3, #0
}
 800510e:	0018      	movs	r0, r3
 8005110:	46bd      	mov	sp, r7
 8005112:	b006      	add	sp, #24
 8005114:	bd80      	pop	{r7, pc}
 8005116:	46c0      	nop			; (mov r8, r8)
 8005118:	40021000 	.word	0x40021000
 800511c:	40007000 	.word	0x40007000
 8005120:	fffcffff 	.word	0xfffcffff
 8005124:	fff7ffff 	.word	0xfff7ffff
 8005128:	00001388 	.word	0x00001388
 800512c:	ffcfffff 	.word	0xffcfffff
 8005130:	efffffff 	.word	0xefffffff
 8005134:	fffff3ff 	.word	0xfffff3ff
 8005138:	ffffcfff 	.word	0xffffcfff
 800513c:	fbffffff 	.word	0xfbffffff
 8005140:	fff3ffff 	.word	0xfff3ffff

08005144 <HAL_SPI_Init>:
  * @param  hspi pointer to a SPI_HandleTypeDef structure that contains
  *               the configuration information for SPI module.
  * @retval HAL status
  */
HAL_StatusTypeDef HAL_SPI_Init(SPI_HandleTypeDef *hspi)
{
 8005144:	b580      	push	{r7, lr}
 8005146:	b082      	sub	sp, #8
 8005148:	af00      	add	r7, sp, #0
 800514a:	6078      	str	r0, [r7, #4]
  /* Check the SPI handle allocation */
  if (hspi == NULL)
 800514c:	687b      	ldr	r3, [r7, #4]
 800514e:	2b00      	cmp	r3, #0
 8005150:	d101      	bne.n	8005156 <HAL_SPI_Init+0x12>
  {
    return HAL_ERROR;
 8005152:	2301      	movs	r3, #1
 8005154:	e083      	b.n	800525e <HAL_SPI_Init+0x11a>
  assert_param(IS_SPI_DATASIZE(hspi->Init.DataSize));
  assert_param(IS_SPI_NSS(hspi->Init.NSS));
  assert_param(IS_SPI_BAUDRATE_PRESCALER(hspi->Init.BaudRatePrescaler));
  assert_param(IS_SPI_FIRST_BIT(hspi->Init.FirstBit));
  assert_param(IS_SPI_TIMODE(hspi->Init.TIMode));
  if (hspi->Init.TIMode == SPI_TIMODE_DISABLE)
 8005156:	687b      	ldr	r3, [r7, #4]
 8005158:	6a5b      	ldr	r3, [r3, #36]	; 0x24
 800515a:	2b00      	cmp	r3, #0
 800515c:	d109      	bne.n	8005172 <HAL_SPI_Init+0x2e>
  {
    assert_param(IS_SPI_CPOL(hspi->Init.CLKPolarity));
    assert_param(IS_SPI_CPHA(hspi->Init.CLKPhase));

    if (hspi->Init.Mode == SPI_MODE_MASTER)
 800515e:	687b      	ldr	r3, [r7, #4]
 8005160:	685a      	ldr	r2, [r3, #4]
 8005162:	2382      	movs	r3, #130	; 0x82
 8005164:	005b      	lsls	r3, r3, #1
 8005166:	429a      	cmp	r2, r3
 8005168:	d009      	beq.n	800517e <HAL_SPI_Init+0x3a>
      assert_param(IS_SPI_BAUDRATE_PRESCALER(hspi->Init.BaudRatePrescaler));
    }
    else
    {
      /* Baudrate prescaler not use in Motoraola Slave mode. force to default value */
      hspi->Init.BaudRatePrescaler = SPI_BAUDRATEPRESCALER_2;
 800516a:	687b      	ldr	r3, [r7, #4]
 800516c:	2200      	movs	r2, #0
 800516e:	61da      	str	r2, [r3, #28]
 8005170:	e005      	b.n	800517e <HAL_SPI_Init+0x3a>
  else
  {
    assert_param(IS_SPI_BAUDRATE_PRESCALER(hspi->Init.BaudRatePrescaler));

    /* Force polarity and phase to TI protocaol requirements */
    hspi->Init.CLKPolarity = SPI_POLARITY_LOW;
 8005172:	687b      	ldr	r3, [r7, #4]
 8005174:	2200      	movs	r2, #0
 8005176:	611a      	str	r2, [r3, #16]
    hspi->Init.CLKPhase    = SPI_PHASE_1EDGE;
 8005178:	687b      	ldr	r3, [r7, #4]
 800517a:	2200      	movs	r2, #0
 800517c:	615a      	str	r2, [r3, #20]
  if (hspi->Init.CRCCalculation == SPI_CRCCALCULATION_ENABLE)
  {
    assert_param(IS_SPI_CRC_POLYNOMIAL(hspi->Init.CRCPolynomial));
  }
#else
  hspi->Init.CRCCalculation = SPI_CRCCALCULATION_DISABLE;
 800517e:	687b      	ldr	r3, [r7, #4]
 8005180:	2200      	movs	r2, #0
 8005182:	629a      	str	r2, [r3, #40]	; 0x28
#endif /* USE_SPI_CRC */

  if (hspi->State == HAL_SPI_STATE_RESET)
 8005184:	687b      	ldr	r3, [r7, #4]
 8005186:	2251      	movs	r2, #81	; 0x51
 8005188:	5c9b      	ldrb	r3, [r3, r2]
 800518a:	b2db      	uxtb	r3, r3
 800518c:	2b00      	cmp	r3, #0
 800518e:	d107      	bne.n	80051a0 <HAL_SPI_Init+0x5c>
  {
    /* Allocate lock resource and initialize it */
    hspi->Lock = HAL_UNLOCKED;
 8005190:	687b      	ldr	r3, [r7, #4]
 8005192:	2250      	movs	r2, #80	; 0x50
 8005194:	2100      	movs	r1, #0
 8005196:	5499      	strb	r1, [r3, r2]

    /* Init the low level hardware : GPIO, CLOCK, NVIC... */
    hspi->MspInitCallback(hspi);
#else
    /* Init the low level hardware : GPIO, CLOCK, NVIC... */
    HAL_SPI_MspInit(hspi);
 8005198:	687b      	ldr	r3, [r7, #4]
 800519a:	0018      	movs	r0, r3
 800519c:	f7fe f8e4 	bl	8003368 <HAL_SPI_MspInit>
#endif /* USE_HAL_SPI_REGISTER_CALLBACKS */
  }

  hspi->State = HAL_SPI_STATE_BUSY;
 80051a0:	687b      	ldr	r3, [r7, #4]
 80051a2:	2251      	movs	r2, #81	; 0x51
 80051a4:	2102      	movs	r1, #2
 80051a6:	5499      	strb	r1, [r3, r2]

  /* Disable the selected SPI peripheral */
  __HAL_SPI_DISABLE(hspi);
 80051a8:	687b      	ldr	r3, [r7, #4]
 80051aa:	681b      	ldr	r3, [r3, #0]
 80051ac:	681a      	ldr	r2, [r3, #0]
 80051ae:	687b      	ldr	r3, [r7, #4]
 80051b0:	681b      	ldr	r3, [r3, #0]
 80051b2:	2140      	movs	r1, #64	; 0x40
 80051b4:	438a      	bics	r2, r1
 80051b6:	601a      	str	r2, [r3, #0]

  /*----------------------- SPIx CR1 & CR2 Configuration ---------------------*/
  /* Configure : SPI Mode, Communication Mode, Data size, Clock polarity and phase, NSS management,
  Communication speed, First bit and CRC calculation state */
  WRITE_REG(hspi->Instance->CR1, ((hspi->Init.Mode & (SPI_CR1_MSTR | SPI_CR1_SSI)) |
 80051b8:	687b      	ldr	r3, [r7, #4]
 80051ba:	685a      	ldr	r2, [r3, #4]
 80051bc:	2382      	movs	r3, #130	; 0x82
 80051be:	005b      	lsls	r3, r3, #1
 80051c0:	401a      	ands	r2, r3
 80051c2:	687b      	ldr	r3, [r7, #4]
 80051c4:	6899      	ldr	r1, [r3, #8]
 80051c6:	2384      	movs	r3, #132	; 0x84
 80051c8:	021b      	lsls	r3, r3, #8
 80051ca:	400b      	ands	r3, r1
 80051cc:	431a      	orrs	r2, r3
 80051ce:	687b      	ldr	r3, [r7, #4]
 80051d0:	68d9      	ldr	r1, [r3, #12]
 80051d2:	2380      	movs	r3, #128	; 0x80
 80051d4:	011b      	lsls	r3, r3, #4
 80051d6:	400b      	ands	r3, r1
 80051d8:	431a      	orrs	r2, r3
 80051da:	687b      	ldr	r3, [r7, #4]
 80051dc:	691b      	ldr	r3, [r3, #16]
 80051de:	2102      	movs	r1, #2
 80051e0:	400b      	ands	r3, r1
 80051e2:	431a      	orrs	r2, r3
 80051e4:	687b      	ldr	r3, [r7, #4]
 80051e6:	695b      	ldr	r3, [r3, #20]
 80051e8:	2101      	movs	r1, #1
 80051ea:	400b      	ands	r3, r1
 80051ec:	431a      	orrs	r2, r3
 80051ee:	687b      	ldr	r3, [r7, #4]
 80051f0:	6999      	ldr	r1, [r3, #24]
 80051f2:	2380      	movs	r3, #128	; 0x80
 80051f4:	009b      	lsls	r3, r3, #2
 80051f6:	400b      	ands	r3, r1
 80051f8:	431a      	orrs	r2, r3
 80051fa:	687b      	ldr	r3, [r7, #4]
 80051fc:	69db      	ldr	r3, [r3, #28]
 80051fe:	2138      	movs	r1, #56	; 0x38
 8005200:	400b      	ands	r3, r1
 8005202:	431a      	orrs	r2, r3
 8005204:	687b      	ldr	r3, [r7, #4]
 8005206:	6a1b      	ldr	r3, [r3, #32]
 8005208:	2180      	movs	r1, #128	; 0x80
 800520a:	400b      	ands	r3, r1
 800520c:	431a      	orrs	r2, r3
 800520e:	0011      	movs	r1, r2
 8005210:	687b      	ldr	r3, [r7, #4]
 8005212:	6a9a      	ldr	r2, [r3, #40]	; 0x28
 8005214:	2380      	movs	r3, #128	; 0x80
 8005216:	019b      	lsls	r3, r3, #6
 8005218:	401a      	ands	r2, r3
 800521a:	687b      	ldr	r3, [r7, #4]
 800521c:	681b      	ldr	r3, [r3, #0]
 800521e:	430a      	orrs	r2, r1
 8005220:	601a      	str	r2, [r3, #0]
                                  (hspi->Init.BaudRatePrescaler & SPI_CR1_BR_Msk) |
                                  (hspi->Init.FirstBit  & SPI_CR1_LSBFIRST) |
                                  (hspi->Init.CRCCalculation & SPI_CR1_CRCEN)));

  /* Configure : NSS management, TI Mode */
  WRITE_REG(hspi->Instance->CR2, (((hspi->Init.NSS >> 16U) & SPI_CR2_SSOE) | (hspi->Init.TIMode & SPI_CR2_FRF)));
 8005222:	687b      	ldr	r3, [r7, #4]
 8005224:	699b      	ldr	r3, [r3, #24]
 8005226:	0c1b      	lsrs	r3, r3, #16
 8005228:	2204      	movs	r2, #4
 800522a:	4013      	ands	r3, r2
 800522c:	0019      	movs	r1, r3
 800522e:	687b      	ldr	r3, [r7, #4]
 8005230:	6a5b      	ldr	r3, [r3, #36]	; 0x24
 8005232:	2210      	movs	r2, #16
 8005234:	401a      	ands	r2, r3
 8005236:	687b      	ldr	r3, [r7, #4]
 8005238:	681b      	ldr	r3, [r3, #0]
 800523a:	430a      	orrs	r2, r1
 800523c:	605a      	str	r2, [r3, #4]
  }
#endif /* USE_SPI_CRC */

#if defined(SPI_I2SCFGR_I2SMOD)
  /* Activate the SPI mode (Make sure that I2SMOD bit in I2SCFGR register is reset) */
  CLEAR_BIT(hspi->Instance->I2SCFGR, SPI_I2SCFGR_I2SMOD);
 800523e:	687b      	ldr	r3, [r7, #4]
 8005240:	681b      	ldr	r3, [r3, #0]
 8005242:	69da      	ldr	r2, [r3, #28]
 8005244:	687b      	ldr	r3, [r7, #4]
 8005246:	681b      	ldr	r3, [r3, #0]
 8005248:	4907      	ldr	r1, [pc, #28]	; (8005268 <HAL_SPI_Init+0x124>)
 800524a:	400a      	ands	r2, r1
 800524c:	61da      	str	r2, [r3, #28]
#endif /* SPI_I2SCFGR_I2SMOD */

  hspi->ErrorCode = HAL_SPI_ERROR_NONE;
 800524e:	687b      	ldr	r3, [r7, #4]
 8005250:	2200      	movs	r2, #0
 8005252:	655a      	str	r2, [r3, #84]	; 0x54
  hspi->State     = HAL_SPI_STATE_READY;
 8005254:	687b      	ldr	r3, [r7, #4]
 8005256:	2251      	movs	r2, #81	; 0x51
 8005258:	2101      	movs	r1, #1
 800525a:	5499      	strb	r1, [r3, r2]

  return HAL_OK;
 800525c:	2300      	movs	r3, #0
}
 800525e:	0018      	movs	r0, r3
 8005260:	46bd      	mov	sp, r7
 8005262:	b002      	add	sp, #8
 8005264:	bd80      	pop	{r7, pc}
 8005266:	46c0      	nop			; (mov r8, r8)
 8005268:	fffff7ff 	.word	0xfffff7ff

0800526c <HAL_SPI_Transmit>:
  * @param  Size amount of data to be sent
  * @param  Timeout Timeout duration
  * @retval HAL status
  */
HAL_StatusTypeDef HAL_SPI_Transmit(SPI_HandleTypeDef *hspi, uint8_t *pData, uint16_t Size, uint32_t Timeout)
{
 800526c:	b580      	push	{r7, lr}
 800526e:	b088      	sub	sp, #32
 8005270:	af00      	add	r7, sp, #0
 8005272:	60f8      	str	r0, [r7, #12]
 8005274:	60b9      	str	r1, [r7, #8]
 8005276:	603b      	str	r3, [r7, #0]
 8005278:	1dbb      	adds	r3, r7, #6
 800527a:	801a      	strh	r2, [r3, #0]
  uint32_t tickstart;
  HAL_StatusTypeDef errorcode = HAL_OK;
 800527c:	231f      	movs	r3, #31
 800527e:	18fb      	adds	r3, r7, r3
 8005280:	2200      	movs	r2, #0
 8005282:	701a      	strb	r2, [r3, #0]

  /* Check Direction parameter */
  assert_param(IS_SPI_DIRECTION_2LINES_OR_1LINE(hspi->Init.Direction));

  /* Process Locked */
  __HAL_LOCK(hspi);
 8005284:	68fb      	ldr	r3, [r7, #12]
 8005286:	2250      	movs	r2, #80	; 0x50
 8005288:	5c9b      	ldrb	r3, [r3, r2]
 800528a:	2b01      	cmp	r3, #1
 800528c:	d101      	bne.n	8005292 <HAL_SPI_Transmit+0x26>
 800528e:	2302      	movs	r3, #2
 8005290:	e13e      	b.n	8005510 <HAL_SPI_Transmit+0x2a4>
 8005292:	68fb      	ldr	r3, [r7, #12]
 8005294:	2250      	movs	r2, #80	; 0x50
 8005296:	2101      	movs	r1, #1
 8005298:	5499      	strb	r1, [r3, r2]

  /* Init tickstart for timeout management*/
  tickstart = HAL_GetTick();
 800529a:	f7fe f9d1 	bl	8003640 <HAL_GetTick>
 800529e:	0003      	movs	r3, r0
 80052a0:	61bb      	str	r3, [r7, #24]
  initial_TxXferCount = Size;
 80052a2:	2316      	movs	r3, #22
 80052a4:	18fb      	adds	r3, r7, r3
 80052a6:	1dba      	adds	r2, r7, #6
 80052a8:	8812      	ldrh	r2, [r2, #0]
 80052aa:	801a      	strh	r2, [r3, #0]

  if (hspi->State != HAL_SPI_STATE_READY)
 80052ac:	68fb      	ldr	r3, [r7, #12]
 80052ae:	2251      	movs	r2, #81	; 0x51
 80052b0:	5c9b      	ldrb	r3, [r3, r2]
 80052b2:	b2db      	uxtb	r3, r3
 80052b4:	2b01      	cmp	r3, #1
 80052b6:	d004      	beq.n	80052c2 <HAL_SPI_Transmit+0x56>
  {
    errorcode = HAL_BUSY;
 80052b8:	231f      	movs	r3, #31
 80052ba:	18fb      	adds	r3, r7, r3
 80052bc:	2202      	movs	r2, #2
 80052be:	701a      	strb	r2, [r3, #0]
    goto error;
 80052c0:	e11b      	b.n	80054fa <HAL_SPI_Transmit+0x28e>
  }

  if ((pData == NULL) || (Size == 0U))
 80052c2:	68bb      	ldr	r3, [r7, #8]
 80052c4:	2b00      	cmp	r3, #0
 80052c6:	d003      	beq.n	80052d0 <HAL_SPI_Transmit+0x64>
 80052c8:	1dbb      	adds	r3, r7, #6
 80052ca:	881b      	ldrh	r3, [r3, #0]
 80052cc:	2b00      	cmp	r3, #0
 80052ce:	d104      	bne.n	80052da <HAL_SPI_Transmit+0x6e>
  {
    errorcode = HAL_ERROR;
 80052d0:	231f      	movs	r3, #31
 80052d2:	18fb      	adds	r3, r7, r3
 80052d4:	2201      	movs	r2, #1
 80052d6:	701a      	strb	r2, [r3, #0]
    goto error;
 80052d8:	e10f      	b.n	80054fa <HAL_SPI_Transmit+0x28e>
  }

  /* Set the transaction information */
  hspi->State       = HAL_SPI_STATE_BUSY_TX;
 80052da:	68fb      	ldr	r3, [r7, #12]
 80052dc:	2251      	movs	r2, #81	; 0x51
 80052de:	2103      	movs	r1, #3
 80052e0:	5499      	strb	r1, [r3, r2]
  hspi->ErrorCode   = HAL_SPI_ERROR_NONE;
 80052e2:	68fb      	ldr	r3, [r7, #12]
 80052e4:	2200      	movs	r2, #0
 80052e6:	655a      	str	r2, [r3, #84]	; 0x54
  hspi->pTxBuffPtr  = (uint8_t *)pData;
 80052e8:	68fb      	ldr	r3, [r7, #12]
 80052ea:	68ba      	ldr	r2, [r7, #8]
 80052ec:	631a      	str	r2, [r3, #48]	; 0x30
  hspi->TxXferSize  = Size;
 80052ee:	68fb      	ldr	r3, [r7, #12]
 80052f0:	1dba      	adds	r2, r7, #6
 80052f2:	8812      	ldrh	r2, [r2, #0]
 80052f4:	869a      	strh	r2, [r3, #52]	; 0x34
  hspi->TxXferCount = Size;
 80052f6:	68fb      	ldr	r3, [r7, #12]
 80052f8:	1dba      	adds	r2, r7, #6
 80052fa:	8812      	ldrh	r2, [r2, #0]
 80052fc:	86da      	strh	r2, [r3, #54]	; 0x36

  /*Init field not used in handle to zero */
  hspi->pRxBuffPtr  = (uint8_t *)NULL;
 80052fe:	68fb      	ldr	r3, [r7, #12]
 8005300:	2200      	movs	r2, #0
 8005302:	639a      	str	r2, [r3, #56]	; 0x38
  hspi->RxXferSize  = 0U;
 8005304:	68fb      	ldr	r3, [r7, #12]
 8005306:	2200      	movs	r2, #0
 8005308:	879a      	strh	r2, [r3, #60]	; 0x3c
  hspi->RxXferCount = 0U;
 800530a:	68fb      	ldr	r3, [r7, #12]
 800530c:	2200      	movs	r2, #0
 800530e:	87da      	strh	r2, [r3, #62]	; 0x3e
  hspi->TxISR       = NULL;
 8005310:	68fb      	ldr	r3, [r7, #12]
 8005312:	2200      	movs	r2, #0
 8005314:	645a      	str	r2, [r3, #68]	; 0x44
  hspi->RxISR       = NULL;
 8005316:	68fb      	ldr	r3, [r7, #12]
 8005318:	2200      	movs	r2, #0
 800531a:	641a      	str	r2, [r3, #64]	; 0x40

  /* Configure communication direction : 1Line */
  if (hspi->Init.Direction == SPI_DIRECTION_1LINE)
 800531c:	68fb      	ldr	r3, [r7, #12]
 800531e:	689a      	ldr	r2, [r3, #8]
 8005320:	2380      	movs	r3, #128	; 0x80
 8005322:	021b      	lsls	r3, r3, #8
 8005324:	429a      	cmp	r2, r3
 8005326:	d110      	bne.n	800534a <HAL_SPI_Transmit+0xde>
  {
    /* Disable SPI Peripheral before set 1Line direction (BIDIOE bit) */
    __HAL_SPI_DISABLE(hspi);
 8005328:	68fb      	ldr	r3, [r7, #12]
 800532a:	681b      	ldr	r3, [r3, #0]
 800532c:	681a      	ldr	r2, [r3, #0]
 800532e:	68fb      	ldr	r3, [r7, #12]
 8005330:	681b      	ldr	r3, [r3, #0]
 8005332:	2140      	movs	r1, #64	; 0x40
 8005334:	438a      	bics	r2, r1
 8005336:	601a      	str	r2, [r3, #0]
    SPI_1LINE_TX(hspi);
 8005338:	68fb      	ldr	r3, [r7, #12]
 800533a:	681b      	ldr	r3, [r3, #0]
 800533c:	681a      	ldr	r2, [r3, #0]
 800533e:	68fb      	ldr	r3, [r7, #12]
 8005340:	681b      	ldr	r3, [r3, #0]
 8005342:	2180      	movs	r1, #128	; 0x80
 8005344:	01c9      	lsls	r1, r1, #7
 8005346:	430a      	orrs	r2, r1
 8005348:	601a      	str	r2, [r3, #0]
    SPI_RESET_CRC(hspi);
  }
#endif /* USE_SPI_CRC */

  /* Check if the SPI is already enabled */
  if ((hspi->Instance->CR1 & SPI_CR1_SPE) != SPI_CR1_SPE)
 800534a:	68fb      	ldr	r3, [r7, #12]
 800534c:	681b      	ldr	r3, [r3, #0]
 800534e:	681b      	ldr	r3, [r3, #0]
 8005350:	2240      	movs	r2, #64	; 0x40
 8005352:	4013      	ands	r3, r2
 8005354:	2b40      	cmp	r3, #64	; 0x40
 8005356:	d007      	beq.n	8005368 <HAL_SPI_Transmit+0xfc>
  {
    /* Enable SPI peripheral */
    __HAL_SPI_ENABLE(hspi);
 8005358:	68fb      	ldr	r3, [r7, #12]
 800535a:	681b      	ldr	r3, [r3, #0]
 800535c:	681a      	ldr	r2, [r3, #0]
 800535e:	68fb      	ldr	r3, [r7, #12]
 8005360:	681b      	ldr	r3, [r3, #0]
 8005362:	2140      	movs	r1, #64	; 0x40
 8005364:	430a      	orrs	r2, r1
 8005366:	601a      	str	r2, [r3, #0]
  }

  /* Transmit data in 16 Bit mode */
  if (hspi->Init.DataSize == SPI_DATASIZE_16BIT)
 8005368:	68fb      	ldr	r3, [r7, #12]
 800536a:	68da      	ldr	r2, [r3, #12]
 800536c:	2380      	movs	r3, #128	; 0x80
 800536e:	011b      	lsls	r3, r3, #4
 8005370:	429a      	cmp	r2, r3
 8005372:	d14e      	bne.n	8005412 <HAL_SPI_Transmit+0x1a6>
  {
    if ((hspi->Init.Mode == SPI_MODE_SLAVE) || (initial_TxXferCount == 0x01U))
 8005374:	68fb      	ldr	r3, [r7, #12]
 8005376:	685b      	ldr	r3, [r3, #4]
 8005378:	2b00      	cmp	r3, #0
 800537a:	d004      	beq.n	8005386 <HAL_SPI_Transmit+0x11a>
 800537c:	2316      	movs	r3, #22
 800537e:	18fb      	adds	r3, r7, r3
 8005380:	881b      	ldrh	r3, [r3, #0]
 8005382:	2b01      	cmp	r3, #1
 8005384:	d13f      	bne.n	8005406 <HAL_SPI_Transmit+0x19a>
    {
      hspi->Instance->DR = *((uint16_t *)hspi->pTxBuffPtr);
 8005386:	68fb      	ldr	r3, [r7, #12]
 8005388:	6b1b      	ldr	r3, [r3, #48]	; 0x30
 800538a:	881a      	ldrh	r2, [r3, #0]
 800538c:	68fb      	ldr	r3, [r7, #12]
 800538e:	681b      	ldr	r3, [r3, #0]
 8005390:	60da      	str	r2, [r3, #12]
      hspi->pTxBuffPtr += sizeof(uint16_t);
 8005392:	68fb      	ldr	r3, [r7, #12]
 8005394:	6b1b      	ldr	r3, [r3, #48]	; 0x30
 8005396:	1c9a      	adds	r2, r3, #2
 8005398:	68fb      	ldr	r3, [r7, #12]
 800539a:	631a      	str	r2, [r3, #48]	; 0x30
      hspi->TxXferCount--;
 800539c:	68fb      	ldr	r3, [r7, #12]
 800539e:	8edb      	ldrh	r3, [r3, #54]	; 0x36
 80053a0:	b29b      	uxth	r3, r3
 80053a2:	3b01      	subs	r3, #1
 80053a4:	b29a      	uxth	r2, r3
 80053a6:	68fb      	ldr	r3, [r7, #12]
 80053a8:	86da      	strh	r2, [r3, #54]	; 0x36
    }
    /* Transmit data in 16 Bit mode */
    while (hspi->TxXferCount > 0U)
 80053aa:	e02c      	b.n	8005406 <HAL_SPI_Transmit+0x19a>
    {
      /* Wait until TXE flag is set to send data */
      if (__HAL_SPI_GET_FLAG(hspi, SPI_FLAG_TXE))
 80053ac:	68fb      	ldr	r3, [r7, #12]
 80053ae:	681b      	ldr	r3, [r3, #0]
 80053b0:	689b      	ldr	r3, [r3, #8]
 80053b2:	2202      	movs	r2, #2
 80053b4:	4013      	ands	r3, r2
 80053b6:	2b02      	cmp	r3, #2
 80053b8:	d112      	bne.n	80053e0 <HAL_SPI_Transmit+0x174>
      {
        hspi->Instance->DR = *((uint16_t *)hspi->pTxBuffPtr);
 80053ba:	68fb      	ldr	r3, [r7, #12]
 80053bc:	6b1b      	ldr	r3, [r3, #48]	; 0x30
 80053be:	881a      	ldrh	r2, [r3, #0]
 80053c0:	68fb      	ldr	r3, [r7, #12]
 80053c2:	681b      	ldr	r3, [r3, #0]
 80053c4:	60da      	str	r2, [r3, #12]
        hspi->pTxBuffPtr += sizeof(uint16_t);
 80053c6:	68fb      	ldr	r3, [r7, #12]
 80053c8:	6b1b      	ldr	r3, [r3, #48]	; 0x30
 80053ca:	1c9a      	adds	r2, r3, #2
 80053cc:	68fb      	ldr	r3, [r7, #12]
 80053ce:	631a      	str	r2, [r3, #48]	; 0x30
        hspi->TxXferCount--;
 80053d0:	68fb      	ldr	r3, [r7, #12]
 80053d2:	8edb      	ldrh	r3, [r3, #54]	; 0x36
 80053d4:	b29b      	uxth	r3, r3
 80053d6:	3b01      	subs	r3, #1
 80053d8:	b29a      	uxth	r2, r3
 80053da:	68fb      	ldr	r3, [r7, #12]
 80053dc:	86da      	strh	r2, [r3, #54]	; 0x36
 80053de:	e012      	b.n	8005406 <HAL_SPI_Transmit+0x19a>
      }
      else
      {
        /* Timeout management */
        if ((((HAL_GetTick() - tickstart) >=  Timeout) && (Timeout != HAL_MAX_DELAY)) || (Timeout == 0U))
 80053e0:	f7fe f92e 	bl	8003640 <HAL_GetTick>
 80053e4:	0002      	movs	r2, r0
 80053e6:	69bb      	ldr	r3, [r7, #24]
 80053e8:	1ad3      	subs	r3, r2, r3
 80053ea:	683a      	ldr	r2, [r7, #0]
 80053ec:	429a      	cmp	r2, r3
 80053ee:	d802      	bhi.n	80053f6 <HAL_SPI_Transmit+0x18a>
 80053f0:	683b      	ldr	r3, [r7, #0]
 80053f2:	3301      	adds	r3, #1
 80053f4:	d102      	bne.n	80053fc <HAL_SPI_Transmit+0x190>
 80053f6:	683b      	ldr	r3, [r7, #0]
 80053f8:	2b00      	cmp	r3, #0
 80053fa:	d104      	bne.n	8005406 <HAL_SPI_Transmit+0x19a>
        {
          errorcode = HAL_TIMEOUT;
 80053fc:	231f      	movs	r3, #31
 80053fe:	18fb      	adds	r3, r7, r3
 8005400:	2203      	movs	r2, #3
 8005402:	701a      	strb	r2, [r3, #0]
          goto error;
 8005404:	e079      	b.n	80054fa <HAL_SPI_Transmit+0x28e>
    while (hspi->TxXferCount > 0U)
 8005406:	68fb      	ldr	r3, [r7, #12]
 8005408:	8edb      	ldrh	r3, [r3, #54]	; 0x36
 800540a:	b29b      	uxth	r3, r3
 800540c:	2b00      	cmp	r3, #0
 800540e:	d1cd      	bne.n	80053ac <HAL_SPI_Transmit+0x140>
 8005410:	e04f      	b.n	80054b2 <HAL_SPI_Transmit+0x246>
    }
  }
  /* Transmit data in 8 Bit mode */
  else
  {
    if ((hspi->Init.Mode == SPI_MODE_SLAVE) || (initial_TxXferCount == 0x01U))
 8005412:	68fb      	ldr	r3, [r7, #12]
 8005414:	685b      	ldr	r3, [r3, #4]
 8005416:	2b00      	cmp	r3, #0
 8005418:	d004      	beq.n	8005424 <HAL_SPI_Transmit+0x1b8>
 800541a:	2316      	movs	r3, #22
 800541c:	18fb      	adds	r3, r7, r3
 800541e:	881b      	ldrh	r3, [r3, #0]
 8005420:	2b01      	cmp	r3, #1
 8005422:	d141      	bne.n	80054a8 <HAL_SPI_Transmit+0x23c>
    {
      *((__IO uint8_t *)&hspi->Instance->DR) = (*hspi->pTxBuffPtr);
 8005424:	68fb      	ldr	r3, [r7, #12]
 8005426:	6b1a      	ldr	r2, [r3, #48]	; 0x30
 8005428:	68fb      	ldr	r3, [r7, #12]
 800542a:	681b      	ldr	r3, [r3, #0]
 800542c:	330c      	adds	r3, #12
 800542e:	7812      	ldrb	r2, [r2, #0]
 8005430:	701a      	strb	r2, [r3, #0]
      hspi->pTxBuffPtr += sizeof(uint8_t);
 8005432:	68fb      	ldr	r3, [r7, #12]
 8005434:	6b1b      	ldr	r3, [r3, #48]	; 0x30
 8005436:	1c5a      	adds	r2, r3, #1
 8005438:	68fb      	ldr	r3, [r7, #12]
 800543a:	631a      	str	r2, [r3, #48]	; 0x30
      hspi->TxXferCount--;
 800543c:	68fb      	ldr	r3, [r7, #12]
 800543e:	8edb      	ldrh	r3, [r3, #54]	; 0x36
 8005440:	b29b      	uxth	r3, r3
 8005442:	3b01      	subs	r3, #1
 8005444:	b29a      	uxth	r2, r3
 8005446:	68fb      	ldr	r3, [r7, #12]
 8005448:	86da      	strh	r2, [r3, #54]	; 0x36
    }
    while (hspi->TxXferCount > 0U)
 800544a:	e02d      	b.n	80054a8 <HAL_SPI_Transmit+0x23c>
    {
      /* Wait until TXE flag is set to send data */
      if (__HAL_SPI_GET_FLAG(hspi, SPI_FLAG_TXE))
 800544c:	68fb      	ldr	r3, [r7, #12]
 800544e:	681b      	ldr	r3, [r3, #0]
 8005450:	689b      	ldr	r3, [r3, #8]
 8005452:	2202      	movs	r2, #2
 8005454:	4013      	ands	r3, r2
 8005456:	2b02      	cmp	r3, #2
 8005458:	d113      	bne.n	8005482 <HAL_SPI_Transmit+0x216>
      {
        *((__IO uint8_t *)&hspi->Instance->DR) = (*hspi->pTxBuffPtr);
 800545a:	68fb      	ldr	r3, [r7, #12]
 800545c:	6b1a      	ldr	r2, [r3, #48]	; 0x30
 800545e:	68fb      	ldr	r3, [r7, #12]
 8005460:	681b      	ldr	r3, [r3, #0]
 8005462:	330c      	adds	r3, #12
 8005464:	7812      	ldrb	r2, [r2, #0]
 8005466:	701a      	strb	r2, [r3, #0]
        hspi->pTxBuffPtr += sizeof(uint8_t);
 8005468:	68fb      	ldr	r3, [r7, #12]
 800546a:	6b1b      	ldr	r3, [r3, #48]	; 0x30
 800546c:	1c5a      	adds	r2, r3, #1
 800546e:	68fb      	ldr	r3, [r7, #12]
 8005470:	631a      	str	r2, [r3, #48]	; 0x30
        hspi->TxXferCount--;
 8005472:	68fb      	ldr	r3, [r7, #12]
 8005474:	8edb      	ldrh	r3, [r3, #54]	; 0x36
 8005476:	b29b      	uxth	r3, r3
 8005478:	3b01      	subs	r3, #1
 800547a:	b29a      	uxth	r2, r3
 800547c:	68fb      	ldr	r3, [r7, #12]
 800547e:	86da      	strh	r2, [r3, #54]	; 0x36
 8005480:	e012      	b.n	80054a8 <HAL_SPI_Transmit+0x23c>
      }
      else
      {
        /* Timeout management */
        if ((((HAL_GetTick() - tickstart) >=  Timeout) && (Timeout != HAL_MAX_DELAY)) || (Timeout == 0U))
 8005482:	f7fe f8dd 	bl	8003640 <HAL_GetTick>
 8005486:	0002      	movs	r2, r0
 8005488:	69bb      	ldr	r3, [r7, #24]
 800548a:	1ad3      	subs	r3, r2, r3
 800548c:	683a      	ldr	r2, [r7, #0]
 800548e:	429a      	cmp	r2, r3
 8005490:	d802      	bhi.n	8005498 <HAL_SPI_Transmit+0x22c>
 8005492:	683b      	ldr	r3, [r7, #0]
 8005494:	3301      	adds	r3, #1
 8005496:	d102      	bne.n	800549e <HAL_SPI_Transmit+0x232>
 8005498:	683b      	ldr	r3, [r7, #0]
 800549a:	2b00      	cmp	r3, #0
 800549c:	d104      	bne.n	80054a8 <HAL_SPI_Transmit+0x23c>
        {
          errorcode = HAL_TIMEOUT;
 800549e:	231f      	movs	r3, #31
 80054a0:	18fb      	adds	r3, r7, r3
 80054a2:	2203      	movs	r2, #3
 80054a4:	701a      	strb	r2, [r3, #0]
          goto error;
 80054a6:	e028      	b.n	80054fa <HAL_SPI_Transmit+0x28e>
    while (hspi->TxXferCount > 0U)
 80054a8:	68fb      	ldr	r3, [r7, #12]
 80054aa:	8edb      	ldrh	r3, [r3, #54]	; 0x36
 80054ac:	b29b      	uxth	r3, r3
 80054ae:	2b00      	cmp	r3, #0
 80054b0:	d1cc      	bne.n	800544c <HAL_SPI_Transmit+0x1e0>
    SET_BIT(hspi->Instance->CR1, SPI_CR1_CRCNEXT);
  }
#endif /* USE_SPI_CRC */

  /* Check the end of the transaction */
  if (SPI_EndRxTxTransaction(hspi, Timeout, tickstart) != HAL_OK)
 80054b2:	69ba      	ldr	r2, [r7, #24]
 80054b4:	6839      	ldr	r1, [r7, #0]
 80054b6:	68fb      	ldr	r3, [r7, #12]
 80054b8:	0018      	movs	r0, r3
 80054ba:	f000 f8bb 	bl	8005634 <SPI_EndRxTxTransaction>
 80054be:	1e03      	subs	r3, r0, #0
 80054c0:	d002      	beq.n	80054c8 <HAL_SPI_Transmit+0x25c>
  {
    hspi->ErrorCode = HAL_SPI_ERROR_FLAG;
 80054c2:	68fb      	ldr	r3, [r7, #12]
 80054c4:	2220      	movs	r2, #32
 80054c6:	655a      	str	r2, [r3, #84]	; 0x54
  }

  /* Clear overrun flag in 2 Lines communication mode because received is not read */
  if (hspi->Init.Direction == SPI_DIRECTION_2LINES)
 80054c8:	68fb      	ldr	r3, [r7, #12]
 80054ca:	689b      	ldr	r3, [r3, #8]
 80054cc:	2b00      	cmp	r3, #0
 80054ce:	d10a      	bne.n	80054e6 <HAL_SPI_Transmit+0x27a>
  {
    __HAL_SPI_CLEAR_OVRFLAG(hspi);
 80054d0:	2300      	movs	r3, #0
 80054d2:	613b      	str	r3, [r7, #16]
 80054d4:	68fb      	ldr	r3, [r7, #12]
 80054d6:	681b      	ldr	r3, [r3, #0]
 80054d8:	68db      	ldr	r3, [r3, #12]
 80054da:	613b      	str	r3, [r7, #16]
 80054dc:	68fb      	ldr	r3, [r7, #12]
 80054de:	681b      	ldr	r3, [r3, #0]
 80054e0:	689b      	ldr	r3, [r3, #8]
 80054e2:	613b      	str	r3, [r7, #16]
 80054e4:	693b      	ldr	r3, [r7, #16]
  }

  if (hspi->ErrorCode != HAL_SPI_ERROR_NONE)
 80054e6:	68fb      	ldr	r3, [r7, #12]
 80054e8:	6d5b      	ldr	r3, [r3, #84]	; 0x54
 80054ea:	2b00      	cmp	r3, #0
 80054ec:	d004      	beq.n	80054f8 <HAL_SPI_Transmit+0x28c>
  {
    errorcode = HAL_ERROR;
 80054ee:	231f      	movs	r3, #31
 80054f0:	18fb      	adds	r3, r7, r3
 80054f2:	2201      	movs	r2, #1
 80054f4:	701a      	strb	r2, [r3, #0]
 80054f6:	e000      	b.n	80054fa <HAL_SPI_Transmit+0x28e>
  }

error:
 80054f8:	46c0      	nop			; (mov r8, r8)
  hspi->State = HAL_SPI_STATE_READY;
 80054fa:	68fb      	ldr	r3, [r7, #12]
 80054fc:	2251      	movs	r2, #81	; 0x51
 80054fe:	2101      	movs	r1, #1
 8005500:	5499      	strb	r1, [r3, r2]
  /* Process Unlocked */
  __HAL_UNLOCK(hspi);
 8005502:	68fb      	ldr	r3, [r7, #12]
 8005504:	2250      	movs	r2, #80	; 0x50
 8005506:	2100      	movs	r1, #0
 8005508:	5499      	strb	r1, [r3, r2]
  return errorcode;
 800550a:	231f      	movs	r3, #31
 800550c:	18fb      	adds	r3, r7, r3
 800550e:	781b      	ldrb	r3, [r3, #0]
}
 8005510:	0018      	movs	r0, r3
 8005512:	46bd      	mov	sp, r7
 8005514:	b008      	add	sp, #32
 8005516:	bd80      	pop	{r7, pc}

08005518 <SPI_WaitFlagStateUntilTimeout>:
  * @param  Tickstart tick start value
  * @retval HAL status
  */
static HAL_StatusTypeDef SPI_WaitFlagStateUntilTimeout(SPI_HandleTypeDef *hspi, uint32_t Flag, FlagStatus State,
                                                       uint32_t Timeout, uint32_t Tickstart)
{
 8005518:	b580      	push	{r7, lr}
 800551a:	b088      	sub	sp, #32
 800551c:	af00      	add	r7, sp, #0
 800551e:	60f8      	str	r0, [r7, #12]
 8005520:	60b9      	str	r1, [r7, #8]
 8005522:	603b      	str	r3, [r7, #0]
 8005524:	1dfb      	adds	r3, r7, #7
 8005526:	701a      	strb	r2, [r3, #0]
  __IO uint32_t count;
  uint32_t tmp_timeout;
  uint32_t tmp_tickstart;

  /* Adjust Timeout value  in case of end of transfer */
  tmp_timeout   = Timeout - (HAL_GetTick() - Tickstart);
 8005528:	f7fe f88a 	bl	8003640 <HAL_GetTick>
 800552c:	0002      	movs	r2, r0
 800552e:	6abb      	ldr	r3, [r7, #40]	; 0x28
 8005530:	1a9b      	subs	r3, r3, r2
 8005532:	683a      	ldr	r2, [r7, #0]
 8005534:	18d3      	adds	r3, r2, r3
 8005536:	61fb      	str	r3, [r7, #28]
  tmp_tickstart = HAL_GetTick();
 8005538:	f7fe f882 	bl	8003640 <HAL_GetTick>
 800553c:	0003      	movs	r3, r0
 800553e:	61bb      	str	r3, [r7, #24]

  /* Calculate Timeout based on a software loop to avoid blocking issue if Systick is disabled */
  count = tmp_timeout * ((SystemCoreClock * 32U) >> 20U);
 8005540:	4b3a      	ldr	r3, [pc, #232]	; (800562c <SPI_WaitFlagStateUntilTimeout+0x114>)
 8005542:	681b      	ldr	r3, [r3, #0]
 8005544:	015b      	lsls	r3, r3, #5
 8005546:	0d1b      	lsrs	r3, r3, #20
 8005548:	69fa      	ldr	r2, [r7, #28]
 800554a:	4353      	muls	r3, r2
 800554c:	617b      	str	r3, [r7, #20]

  while ((__HAL_SPI_GET_FLAG(hspi, Flag) ? SET : RESET) != State)
 800554e:	e058      	b.n	8005602 <SPI_WaitFlagStateUntilTimeout+0xea>
  {
    if (Timeout != HAL_MAX_DELAY)
 8005550:	683b      	ldr	r3, [r7, #0]
 8005552:	3301      	adds	r3, #1
 8005554:	d055      	beq.n	8005602 <SPI_WaitFlagStateUntilTimeout+0xea>
    {
      if (((HAL_GetTick() - tmp_tickstart) >= tmp_timeout) || (tmp_timeout == 0U))
 8005556:	f7fe f873 	bl	8003640 <HAL_GetTick>
 800555a:	0002      	movs	r2, r0
 800555c:	69bb      	ldr	r3, [r7, #24]
 800555e:	1ad3      	subs	r3, r2, r3
 8005560:	69fa      	ldr	r2, [r7, #28]
 8005562:	429a      	cmp	r2, r3
 8005564:	d902      	bls.n	800556c <SPI_WaitFlagStateUntilTimeout+0x54>
 8005566:	69fb      	ldr	r3, [r7, #28]
 8005568:	2b00      	cmp	r3, #0
 800556a:	d142      	bne.n	80055f2 <SPI_WaitFlagStateUntilTimeout+0xda>
        /* Disable the SPI and reset the CRC: the CRC value should be cleared
           on both master and slave sides in order to resynchronize the master
           and slave for their respective CRC calculation */

        /* Disable TXE, RXNE and ERR interrupts for the interrupt process */
        __HAL_SPI_DISABLE_IT(hspi, (SPI_IT_TXE | SPI_IT_RXNE | SPI_IT_ERR));
 800556c:	68fb      	ldr	r3, [r7, #12]
 800556e:	681b      	ldr	r3, [r3, #0]
 8005570:	685a      	ldr	r2, [r3, #4]
 8005572:	68fb      	ldr	r3, [r7, #12]
 8005574:	681b      	ldr	r3, [r3, #0]
 8005576:	21e0      	movs	r1, #224	; 0xe0
 8005578:	438a      	bics	r2, r1
 800557a:	605a      	str	r2, [r3, #4]

        if ((hspi->Init.Mode == SPI_MODE_MASTER) && ((hspi->Init.Direction == SPI_DIRECTION_1LINE)
 800557c:	68fb      	ldr	r3, [r7, #12]
 800557e:	685a      	ldr	r2, [r3, #4]
 8005580:	2382      	movs	r3, #130	; 0x82
 8005582:	005b      	lsls	r3, r3, #1
 8005584:	429a      	cmp	r2, r3
 8005586:	d113      	bne.n	80055b0 <SPI_WaitFlagStateUntilTimeout+0x98>
 8005588:	68fb      	ldr	r3, [r7, #12]
 800558a:	689a      	ldr	r2, [r3, #8]
 800558c:	2380      	movs	r3, #128	; 0x80
 800558e:	021b      	lsls	r3, r3, #8
 8005590:	429a      	cmp	r2, r3
 8005592:	d005      	beq.n	80055a0 <SPI_WaitFlagStateUntilTimeout+0x88>
                                                     || (hspi->Init.Direction == SPI_DIRECTION_2LINES_RXONLY)))
 8005594:	68fb      	ldr	r3, [r7, #12]
 8005596:	689a      	ldr	r2, [r3, #8]
 8005598:	2380      	movs	r3, #128	; 0x80
 800559a:	00db      	lsls	r3, r3, #3
 800559c:	429a      	cmp	r2, r3
 800559e:	d107      	bne.n	80055b0 <SPI_WaitFlagStateUntilTimeout+0x98>
        {
          /* Disable SPI peripheral */
          __HAL_SPI_DISABLE(hspi);
 80055a0:	68fb      	ldr	r3, [r7, #12]
 80055a2:	681b      	ldr	r3, [r3, #0]
 80055a4:	681a      	ldr	r2, [r3, #0]
 80055a6:	68fb      	ldr	r3, [r7, #12]
 80055a8:	681b      	ldr	r3, [r3, #0]
 80055aa:	2140      	movs	r1, #64	; 0x40
 80055ac:	438a      	bics	r2, r1
 80055ae:	601a      	str	r2, [r3, #0]
        }

        /* Reset CRC Calculation */
        if (hspi->Init.CRCCalculation == SPI_CRCCALCULATION_ENABLE)
 80055b0:	68fb      	ldr	r3, [r7, #12]
 80055b2:	6a9a      	ldr	r2, [r3, #40]	; 0x28
 80055b4:	2380      	movs	r3, #128	; 0x80
 80055b6:	019b      	lsls	r3, r3, #6
 80055b8:	429a      	cmp	r2, r3
 80055ba:	d110      	bne.n	80055de <SPI_WaitFlagStateUntilTimeout+0xc6>
        {
          SPI_RESET_CRC(hspi);
 80055bc:	68fb      	ldr	r3, [r7, #12]
 80055be:	681b      	ldr	r3, [r3, #0]
 80055c0:	681a      	ldr	r2, [r3, #0]
 80055c2:	68fb      	ldr	r3, [r7, #12]
 80055c4:	681b      	ldr	r3, [r3, #0]
 80055c6:	491a      	ldr	r1, [pc, #104]	; (8005630 <SPI_WaitFlagStateUntilTimeout+0x118>)
 80055c8:	400a      	ands	r2, r1
 80055ca:	601a      	str	r2, [r3, #0]
 80055cc:	68fb      	ldr	r3, [r7, #12]
 80055ce:	681b      	ldr	r3, [r3, #0]
 80055d0:	681a      	ldr	r2, [r3, #0]
 80055d2:	68fb      	ldr	r3, [r7, #12]
 80055d4:	681b      	ldr	r3, [r3, #0]
 80055d6:	2180      	movs	r1, #128	; 0x80
 80055d8:	0189      	lsls	r1, r1, #6
 80055da:	430a      	orrs	r2, r1
 80055dc:	601a      	str	r2, [r3, #0]
        }

        hspi->State = HAL_SPI_STATE_READY;
 80055de:	68fb      	ldr	r3, [r7, #12]
 80055e0:	2251      	movs	r2, #81	; 0x51
 80055e2:	2101      	movs	r1, #1
 80055e4:	5499      	strb	r1, [r3, r2]

        /* Process Unlocked */
        __HAL_UNLOCK(hspi);
 80055e6:	68fb      	ldr	r3, [r7, #12]
 80055e8:	2250      	movs	r2, #80	; 0x50
 80055ea:	2100      	movs	r1, #0
 80055ec:	5499      	strb	r1, [r3, r2]

        return HAL_TIMEOUT;
 80055ee:	2303      	movs	r3, #3
 80055f0:	e017      	b.n	8005622 <SPI_WaitFlagStateUntilTimeout+0x10a>
      }
      /* If Systick is disabled or not incremented, deactivate timeout to go in disable loop procedure */
      if(count == 0U)
 80055f2:	697b      	ldr	r3, [r7, #20]
 80055f4:	2b00      	cmp	r3, #0
 80055f6:	d101      	bne.n	80055fc <SPI_WaitFlagStateUntilTimeout+0xe4>
      {
        tmp_timeout = 0U;
 80055f8:	2300      	movs	r3, #0
 80055fa:	61fb      	str	r3, [r7, #28]
      }
      count--;
 80055fc:	697b      	ldr	r3, [r7, #20]
 80055fe:	3b01      	subs	r3, #1
 8005600:	617b      	str	r3, [r7, #20]
  while ((__HAL_SPI_GET_FLAG(hspi, Flag) ? SET : RESET) != State)
 8005602:	68fb      	ldr	r3, [r7, #12]
 8005604:	681b      	ldr	r3, [r3, #0]
 8005606:	689b      	ldr	r3, [r3, #8]
 8005608:	68ba      	ldr	r2, [r7, #8]
 800560a:	4013      	ands	r3, r2
 800560c:	68ba      	ldr	r2, [r7, #8]
 800560e:	1ad3      	subs	r3, r2, r3
 8005610:	425a      	negs	r2, r3
 8005612:	4153      	adcs	r3, r2
 8005614:	b2db      	uxtb	r3, r3
 8005616:	001a      	movs	r2, r3
 8005618:	1dfb      	adds	r3, r7, #7
 800561a:	781b      	ldrb	r3, [r3, #0]
 800561c:	429a      	cmp	r2, r3
 800561e:	d197      	bne.n	8005550 <SPI_WaitFlagStateUntilTimeout+0x38>
    }
  }

  return HAL_OK;
 8005620:	2300      	movs	r3, #0
}
 8005622:	0018      	movs	r0, r3
 8005624:	46bd      	mov	sp, r7
 8005626:	b008      	add	sp, #32
 8005628:	bd80      	pop	{r7, pc}
 800562a:	46c0      	nop			; (mov r8, r8)
 800562c:	20000000 	.word	0x20000000
 8005630:	ffffdfff 	.word	0xffffdfff

08005634 <SPI_EndRxTxTransaction>:
  * @param  Timeout Timeout duration
  * @param  Tickstart tick start value
  * @retval HAL status
  */
static HAL_StatusTypeDef SPI_EndRxTxTransaction(SPI_HandleTypeDef *hspi, uint32_t Timeout, uint32_t Tickstart)
{
 8005634:	b580      	push	{r7, lr}
 8005636:	b088      	sub	sp, #32
 8005638:	af02      	add	r7, sp, #8
 800563a:	60f8      	str	r0, [r7, #12]
 800563c:	60b9      	str	r1, [r7, #8]
 800563e:	607a      	str	r2, [r7, #4]
  /* Timeout in s */
  __IO uint32_t count = SPI_BSY_FLAG_WORKAROUND_TIMEOUT * (SystemCoreClock / 24U / 1000000U);
 8005640:	4b1d      	ldr	r3, [pc, #116]	; (80056b8 <SPI_EndRxTxTransaction+0x84>)
 8005642:	681b      	ldr	r3, [r3, #0]
 8005644:	491d      	ldr	r1, [pc, #116]	; (80056bc <SPI_EndRxTxTransaction+0x88>)
 8005646:	0018      	movs	r0, r3
 8005648:	f7fa fd68 	bl	800011c <__udivsi3>
 800564c:	0003      	movs	r3, r0
 800564e:	001a      	movs	r2, r3
 8005650:	0013      	movs	r3, r2
 8005652:	015b      	lsls	r3, r3, #5
 8005654:	1a9b      	subs	r3, r3, r2
 8005656:	009b      	lsls	r3, r3, #2
 8005658:	189b      	adds	r3, r3, r2
 800565a:	00db      	lsls	r3, r3, #3
 800565c:	617b      	str	r3, [r7, #20]
  /* Erratasheet: BSY bit may stay high at the end of a data transfer in Slave mode */
  if (hspi->Init.Mode == SPI_MODE_MASTER)
 800565e:	68fb      	ldr	r3, [r7, #12]
 8005660:	685a      	ldr	r2, [r3, #4]
 8005662:	2382      	movs	r3, #130	; 0x82
 8005664:	005b      	lsls	r3, r3, #1
 8005666:	429a      	cmp	r2, r3
 8005668:	d112      	bne.n	8005690 <SPI_EndRxTxTransaction+0x5c>
  {
    /* Control the BSY flag */
    if (SPI_WaitFlagStateUntilTimeout(hspi, SPI_FLAG_BSY, RESET, Timeout, Tickstart) != HAL_OK)
 800566a:	68ba      	ldr	r2, [r7, #8]
 800566c:	68f8      	ldr	r0, [r7, #12]
 800566e:	687b      	ldr	r3, [r7, #4]
 8005670:	9300      	str	r3, [sp, #0]
 8005672:	0013      	movs	r3, r2
 8005674:	2200      	movs	r2, #0
 8005676:	2180      	movs	r1, #128	; 0x80
 8005678:	f7ff ff4e 	bl	8005518 <SPI_WaitFlagStateUntilTimeout>
 800567c:	1e03      	subs	r3, r0, #0
 800567e:	d016      	beq.n	80056ae <SPI_EndRxTxTransaction+0x7a>
    {
      SET_BIT(hspi->ErrorCode, HAL_SPI_ERROR_FLAG);
 8005680:	68fb      	ldr	r3, [r7, #12]
 8005682:	6d5b      	ldr	r3, [r3, #84]	; 0x54
 8005684:	2220      	movs	r2, #32
 8005686:	431a      	orrs	r2, r3
 8005688:	68fb      	ldr	r3, [r7, #12]
 800568a:	655a      	str	r2, [r3, #84]	; 0x54
      return HAL_TIMEOUT;
 800568c:	2303      	movs	r3, #3
 800568e:	e00f      	b.n	80056b0 <SPI_EndRxTxTransaction+0x7c>
    * User have to calculate the timeout value to fit with the time of 1 byte transfer.
    * This time is directly link with the SPI clock from Master device.
    */
    do
    {
      if (count == 0U)
 8005690:	697b      	ldr	r3, [r7, #20]
 8005692:	2b00      	cmp	r3, #0
 8005694:	d00a      	beq.n	80056ac <SPI_EndRxTxTransaction+0x78>
      {
        break;
      }
      count--;
 8005696:	697b      	ldr	r3, [r7, #20]
 8005698:	3b01      	subs	r3, #1
 800569a:	617b      	str	r3, [r7, #20]
    } while (__HAL_SPI_GET_FLAG(hspi, SPI_FLAG_BSY) != RESET);
 800569c:	68fb      	ldr	r3, [r7, #12]
 800569e:	681b      	ldr	r3, [r3, #0]
 80056a0:	689b      	ldr	r3, [r3, #8]
 80056a2:	2280      	movs	r2, #128	; 0x80
 80056a4:	4013      	ands	r3, r2
 80056a6:	2b80      	cmp	r3, #128	; 0x80
 80056a8:	d0f2      	beq.n	8005690 <SPI_EndRxTxTransaction+0x5c>
 80056aa:	e000      	b.n	80056ae <SPI_EndRxTxTransaction+0x7a>
        break;
 80056ac:	46c0      	nop			; (mov r8, r8)
  }

  return HAL_OK;
 80056ae:	2300      	movs	r3, #0
}
 80056b0:	0018      	movs	r0, r3
 80056b2:	46bd      	mov	sp, r7
 80056b4:	b006      	add	sp, #24
 80056b6:	bd80      	pop	{r7, pc}
 80056b8:	20000000 	.word	0x20000000
 80056bc:	016e3600 	.word	0x016e3600

080056c0 <HAL_UART_Init>:
  *        parameters in the UART_InitTypeDef and initialize the associated handle.
  * @param huart UART handle.
  * @retval HAL status
  */
HAL_StatusTypeDef HAL_UART_Init(UART_HandleTypeDef *huart)
{
 80056c0:	b580      	push	{r7, lr}
 80056c2:	b082      	sub	sp, #8
 80056c4:	af00      	add	r7, sp, #0
 80056c6:	6078      	str	r0, [r7, #4]
  /* Check the UART handle allocation */
  if (huart == NULL)
 80056c8:	687b      	ldr	r3, [r7, #4]
 80056ca:	2b00      	cmp	r3, #0
 80056cc:	d101      	bne.n	80056d2 <HAL_UART_Init+0x12>
  {
    return HAL_ERROR;
 80056ce:	2301      	movs	r3, #1
 80056d0:	e044      	b.n	800575c <HAL_UART_Init+0x9c>
  {
    /* Check the parameters */
    assert_param((IS_UART_INSTANCE(huart->Instance)) || (IS_LPUART_INSTANCE(huart->Instance)));
  }

  if (huart->gState == HAL_UART_STATE_RESET)
 80056d2:	687b      	ldr	r3, [r7, #4]
 80056d4:	6f9b      	ldr	r3, [r3, #120]	; 0x78
 80056d6:	2b00      	cmp	r3, #0
 80056d8:	d107      	bne.n	80056ea <HAL_UART_Init+0x2a>
  {
    /* Allocate lock resource and initialize it */
    huart->Lock = HAL_UNLOCKED;
 80056da:	687b      	ldr	r3, [r7, #4]
 80056dc:	2274      	movs	r2, #116	; 0x74
 80056de:	2100      	movs	r1, #0
 80056e0:	5499      	strb	r1, [r3, r2]

    /* Init the low level hardware */
    huart->MspInitCallback(huart);
#else
    /* Init the low level hardware : GPIO, CLOCK */
    HAL_UART_MspInit(huart);
 80056e2:	687b      	ldr	r3, [r7, #4]
 80056e4:	0018      	movs	r0, r3
 80056e6:	f7fd fe83 	bl	80033f0 <HAL_UART_MspInit>
#endif /* (USE_HAL_UART_REGISTER_CALLBACKS) */
  }

  huart->gState = HAL_UART_STATE_BUSY;
 80056ea:	687b      	ldr	r3, [r7, #4]
 80056ec:	2224      	movs	r2, #36	; 0x24
 80056ee:	679a      	str	r2, [r3, #120]	; 0x78

  __HAL_UART_DISABLE(huart);
 80056f0:	687b      	ldr	r3, [r7, #4]
 80056f2:	681b      	ldr	r3, [r3, #0]
 80056f4:	681a      	ldr	r2, [r3, #0]
 80056f6:	687b      	ldr	r3, [r7, #4]
 80056f8:	681b      	ldr	r3, [r3, #0]
 80056fa:	2101      	movs	r1, #1
 80056fc:	438a      	bics	r2, r1
 80056fe:	601a      	str	r2, [r3, #0]

  /* Set the UART Communication parameters */
  if (UART_SetConfig(huart) == HAL_ERROR)
 8005700:	687b      	ldr	r3, [r7, #4]
 8005702:	0018      	movs	r0, r3
 8005704:	f000 f8d8 	bl	80058b8 <UART_SetConfig>
 8005708:	0003      	movs	r3, r0
 800570a:	2b01      	cmp	r3, #1
 800570c:	d101      	bne.n	8005712 <HAL_UART_Init+0x52>
  {
    return HAL_ERROR;
 800570e:	2301      	movs	r3, #1
 8005710:	e024      	b.n	800575c <HAL_UART_Init+0x9c>
  }

  if (huart->AdvancedInit.AdvFeatureInit != UART_ADVFEATURE_NO_INIT)
 8005712:	687b      	ldr	r3, [r7, #4]
 8005714:	6a5b      	ldr	r3, [r3, #36]	; 0x24
 8005716:	2b00      	cmp	r3, #0
 8005718:	d003      	beq.n	8005722 <HAL_UART_Init+0x62>
  {
    UART_AdvFeatureConfig(huart);
 800571a:	687b      	ldr	r3, [r7, #4]
 800571c:	0018      	movs	r0, r3
 800571e:	f000 fb6b 	bl	8005df8 <UART_AdvFeatureConfig>
  }

  /* In asynchronous mode, the following bits must be kept cleared:
  - LINEN and CLKEN bits in the USART_CR2 register,
  - SCEN, HDSEL and IREN  bits in the USART_CR3 register.*/
  CLEAR_BIT(huart->Instance->CR2, (USART_CR2_LINEN | USART_CR2_CLKEN));
 8005722:	687b      	ldr	r3, [r7, #4]
 8005724:	681b      	ldr	r3, [r3, #0]
 8005726:	685a      	ldr	r2, [r3, #4]
 8005728:	687b      	ldr	r3, [r7, #4]
 800572a:	681b      	ldr	r3, [r3, #0]
 800572c:	490d      	ldr	r1, [pc, #52]	; (8005764 <HAL_UART_Init+0xa4>)
 800572e:	400a      	ands	r2, r1
 8005730:	605a      	str	r2, [r3, #4]
  CLEAR_BIT(huart->Instance->CR3, (USART_CR3_SCEN | USART_CR3_HDSEL | USART_CR3_IREN));
 8005732:	687b      	ldr	r3, [r7, #4]
 8005734:	681b      	ldr	r3, [r3, #0]
 8005736:	689a      	ldr	r2, [r3, #8]
 8005738:	687b      	ldr	r3, [r7, #4]
 800573a:	681b      	ldr	r3, [r3, #0]
 800573c:	212a      	movs	r1, #42	; 0x2a
 800573e:	438a      	bics	r2, r1
 8005740:	609a      	str	r2, [r3, #8]

  __HAL_UART_ENABLE(huart);
 8005742:	687b      	ldr	r3, [r7, #4]
 8005744:	681b      	ldr	r3, [r3, #0]
 8005746:	681a      	ldr	r2, [r3, #0]
 8005748:	687b      	ldr	r3, [r7, #4]
 800574a:	681b      	ldr	r3, [r3, #0]
 800574c:	2101      	movs	r1, #1
 800574e:	430a      	orrs	r2, r1
 8005750:	601a      	str	r2, [r3, #0]

  /* TEACK and/or REACK to check before moving huart->gState and huart->RxState to Ready */
  return (UART_CheckIdleState(huart));
 8005752:	687b      	ldr	r3, [r7, #4]
 8005754:	0018      	movs	r0, r3
 8005756:	f000 fc03 	bl	8005f60 <UART_CheckIdleState>
 800575a:	0003      	movs	r3, r0
}
 800575c:	0018      	movs	r0, r3
 800575e:	46bd      	mov	sp, r7
 8005760:	b002      	add	sp, #8
 8005762:	bd80      	pop	{r7, pc}
 8005764:	ffffb7ff 	.word	0xffffb7ff

08005768 <HAL_UART_Transmit>:
  * @param Size    Amount of data elements (u8 or u16) to be sent.
  * @param Timeout Timeout duration.
  * @retval HAL status
  */
HAL_StatusTypeDef HAL_UART_Transmit(UART_HandleTypeDef *huart, uint8_t *pData, uint16_t Size, uint32_t Timeout)
{
 8005768:	b580      	push	{r7, lr}
 800576a:	b08a      	sub	sp, #40	; 0x28
 800576c:	af02      	add	r7, sp, #8
 800576e:	60f8      	str	r0, [r7, #12]
 8005770:	60b9      	str	r1, [r7, #8]
 8005772:	603b      	str	r3, [r7, #0]
 8005774:	1dbb      	adds	r3, r7, #6
 8005776:	801a      	strh	r2, [r3, #0]
  uint8_t  *pdata8bits;
  uint16_t *pdata16bits;
  uint32_t tickstart;

  /* Check that a Tx process is not already ongoing */
  if (huart->gState == HAL_UART_STATE_READY)
 8005778:	68fb      	ldr	r3, [r7, #12]
 800577a:	6f9b      	ldr	r3, [r3, #120]	; 0x78
 800577c:	2b20      	cmp	r3, #32
 800577e:	d000      	beq.n	8005782 <HAL_UART_Transmit+0x1a>
 8005780:	e095      	b.n	80058ae <HAL_UART_Transmit+0x146>
  {
    if ((pData == NULL) || (Size == 0U))
 8005782:	68bb      	ldr	r3, [r7, #8]
 8005784:	2b00      	cmp	r3, #0
 8005786:	d003      	beq.n	8005790 <HAL_UART_Transmit+0x28>
 8005788:	1dbb      	adds	r3, r7, #6
 800578a:	881b      	ldrh	r3, [r3, #0]
 800578c:	2b00      	cmp	r3, #0
 800578e:	d101      	bne.n	8005794 <HAL_UART_Transmit+0x2c>
    {
      return  HAL_ERROR;
 8005790:	2301      	movs	r3, #1
 8005792:	e08d      	b.n	80058b0 <HAL_UART_Transmit+0x148>
    }

    /* In case of 9bits/No Parity transfer, pData buffer provided as input parameter
       should be aligned on a u16 frontier, as data to be filled into TDR will be
       handled through a u16 cast. */
    if ((huart->Init.WordLength == UART_WORDLENGTH_9B) && (huart->Init.Parity == UART_PARITY_NONE))
 8005794:	68fb      	ldr	r3, [r7, #12]
 8005796:	689a      	ldr	r2, [r3, #8]
 8005798:	2380      	movs	r3, #128	; 0x80
 800579a:	015b      	lsls	r3, r3, #5
 800579c:	429a      	cmp	r2, r3
 800579e:	d109      	bne.n	80057b4 <HAL_UART_Transmit+0x4c>
 80057a0:	68fb      	ldr	r3, [r7, #12]
 80057a2:	691b      	ldr	r3, [r3, #16]
 80057a4:	2b00      	cmp	r3, #0
 80057a6:	d105      	bne.n	80057b4 <HAL_UART_Transmit+0x4c>
    {
      if ((((uint32_t)pData) & 1U) != 0U)
 80057a8:	68bb      	ldr	r3, [r7, #8]
 80057aa:	2201      	movs	r2, #1
 80057ac:	4013      	ands	r3, r2
 80057ae:	d001      	beq.n	80057b4 <HAL_UART_Transmit+0x4c>
      {
        return  HAL_ERROR;
 80057b0:	2301      	movs	r3, #1
 80057b2:	e07d      	b.n	80058b0 <HAL_UART_Transmit+0x148>
      }
    }

    __HAL_LOCK(huart);
 80057b4:	68fb      	ldr	r3, [r7, #12]
 80057b6:	2274      	movs	r2, #116	; 0x74
 80057b8:	5c9b      	ldrb	r3, [r3, r2]
 80057ba:	2b01      	cmp	r3, #1
 80057bc:	d101      	bne.n	80057c2 <HAL_UART_Transmit+0x5a>
 80057be:	2302      	movs	r3, #2
 80057c0:	e076      	b.n	80058b0 <HAL_UART_Transmit+0x148>
 80057c2:	68fb      	ldr	r3, [r7, #12]
 80057c4:	2274      	movs	r2, #116	; 0x74
 80057c6:	2101      	movs	r1, #1
 80057c8:	5499      	strb	r1, [r3, r2]

    huart->ErrorCode = HAL_UART_ERROR_NONE;
 80057ca:	68fb      	ldr	r3, [r7, #12]
 80057cc:	2280      	movs	r2, #128	; 0x80
 80057ce:	2100      	movs	r1, #0
 80057d0:	5099      	str	r1, [r3, r2]
    huart->gState = HAL_UART_STATE_BUSY_TX;
 80057d2:	68fb      	ldr	r3, [r7, #12]
 80057d4:	2221      	movs	r2, #33	; 0x21
 80057d6:	679a      	str	r2, [r3, #120]	; 0x78

    /* Init tickstart for timeout management */
    tickstart = HAL_GetTick();
 80057d8:	f7fd ff32 	bl	8003640 <HAL_GetTick>
 80057dc:	0003      	movs	r3, r0
 80057de:	617b      	str	r3, [r7, #20]

    huart->TxXferSize  = Size;
 80057e0:	68fb      	ldr	r3, [r7, #12]
 80057e2:	1dba      	adds	r2, r7, #6
 80057e4:	2150      	movs	r1, #80	; 0x50
 80057e6:	8812      	ldrh	r2, [r2, #0]
 80057e8:	525a      	strh	r2, [r3, r1]
    huart->TxXferCount = Size;
 80057ea:	68fb      	ldr	r3, [r7, #12]
 80057ec:	1dba      	adds	r2, r7, #6
 80057ee:	2152      	movs	r1, #82	; 0x52
 80057f0:	8812      	ldrh	r2, [r2, #0]
 80057f2:	525a      	strh	r2, [r3, r1]

    /* In case of 9bits/No Parity transfer, pData needs to be handled as a uint16_t pointer */
    if ((huart->Init.WordLength == UART_WORDLENGTH_9B) && (huart->Init.Parity == UART_PARITY_NONE))
 80057f4:	68fb      	ldr	r3, [r7, #12]
 80057f6:	689a      	ldr	r2, [r3, #8]
 80057f8:	2380      	movs	r3, #128	; 0x80
 80057fa:	015b      	lsls	r3, r3, #5
 80057fc:	429a      	cmp	r2, r3
 80057fe:	d108      	bne.n	8005812 <HAL_UART_Transmit+0xaa>
 8005800:	68fb      	ldr	r3, [r7, #12]
 8005802:	691b      	ldr	r3, [r3, #16]
 8005804:	2b00      	cmp	r3, #0
 8005806:	d104      	bne.n	8005812 <HAL_UART_Transmit+0xaa>
    {
      pdata8bits  = NULL;
 8005808:	2300      	movs	r3, #0
 800580a:	61fb      	str	r3, [r7, #28]
      pdata16bits = (uint16_t *) pData;
 800580c:	68bb      	ldr	r3, [r7, #8]
 800580e:	61bb      	str	r3, [r7, #24]
 8005810:	e003      	b.n	800581a <HAL_UART_Transmit+0xb2>
    }
    else
    {
      pdata8bits  = pData;
 8005812:	68bb      	ldr	r3, [r7, #8]
 8005814:	61fb      	str	r3, [r7, #28]
      pdata16bits = NULL;
 8005816:	2300      	movs	r3, #0
 8005818:	61bb      	str	r3, [r7, #24]
    }

    __HAL_UNLOCK(huart);
 800581a:	68fb      	ldr	r3, [r7, #12]
 800581c:	2274      	movs	r2, #116	; 0x74
 800581e:	2100      	movs	r1, #0
 8005820:	5499      	strb	r1, [r3, r2]

    while (huart->TxXferCount > 0U)
 8005822:	e02c      	b.n	800587e <HAL_UART_Transmit+0x116>
    {
      if (UART_WaitOnFlagUntilTimeout(huart, UART_FLAG_TXE, RESET, tickstart, Timeout) != HAL_OK)
 8005824:	697a      	ldr	r2, [r7, #20]
 8005826:	68f8      	ldr	r0, [r7, #12]
 8005828:	683b      	ldr	r3, [r7, #0]
 800582a:	9300      	str	r3, [sp, #0]
 800582c:	0013      	movs	r3, r2
 800582e:	2200      	movs	r2, #0
 8005830:	2180      	movs	r1, #128	; 0x80
 8005832:	f000 fbdd 	bl	8005ff0 <UART_WaitOnFlagUntilTimeout>
 8005836:	1e03      	subs	r3, r0, #0
 8005838:	d001      	beq.n	800583e <HAL_UART_Transmit+0xd6>
      {
        return HAL_TIMEOUT;
 800583a:	2303      	movs	r3, #3
 800583c:	e038      	b.n	80058b0 <HAL_UART_Transmit+0x148>
      }
      if (pdata8bits == NULL)
 800583e:	69fb      	ldr	r3, [r7, #28]
 8005840:	2b00      	cmp	r3, #0
 8005842:	d10b      	bne.n	800585c <HAL_UART_Transmit+0xf4>
      {
        huart->Instance->TDR = (uint16_t)(*pdata16bits & 0x01FFU);
 8005844:	69bb      	ldr	r3, [r7, #24]
 8005846:	881b      	ldrh	r3, [r3, #0]
 8005848:	001a      	movs	r2, r3
 800584a:	68fb      	ldr	r3, [r7, #12]
 800584c:	681b      	ldr	r3, [r3, #0]
 800584e:	05d2      	lsls	r2, r2, #23
 8005850:	0dd2      	lsrs	r2, r2, #23
 8005852:	629a      	str	r2, [r3, #40]	; 0x28
        pdata16bits++;
 8005854:	69bb      	ldr	r3, [r7, #24]
 8005856:	3302      	adds	r3, #2
 8005858:	61bb      	str	r3, [r7, #24]
 800585a:	e007      	b.n	800586c <HAL_UART_Transmit+0x104>
      }
      else
      {
        huart->Instance->TDR = (uint8_t)(*pdata8bits & 0xFFU);
 800585c:	69fb      	ldr	r3, [r7, #28]
 800585e:	781a      	ldrb	r2, [r3, #0]
 8005860:	68fb      	ldr	r3, [r7, #12]
 8005862:	681b      	ldr	r3, [r3, #0]
 8005864:	629a      	str	r2, [r3, #40]	; 0x28
        pdata8bits++;
 8005866:	69fb      	ldr	r3, [r7, #28]
 8005868:	3301      	adds	r3, #1
 800586a:	61fb      	str	r3, [r7, #28]
      }
      huart->TxXferCount--;
 800586c:	68fb      	ldr	r3, [r7, #12]
 800586e:	2252      	movs	r2, #82	; 0x52
 8005870:	5a9b      	ldrh	r3, [r3, r2]
 8005872:	b29b      	uxth	r3, r3
 8005874:	3b01      	subs	r3, #1
 8005876:	b299      	uxth	r1, r3
 8005878:	68fb      	ldr	r3, [r7, #12]
 800587a:	2252      	movs	r2, #82	; 0x52
 800587c:	5299      	strh	r1, [r3, r2]
    while (huart->TxXferCount > 0U)
 800587e:	68fb      	ldr	r3, [r7, #12]
 8005880:	2252      	movs	r2, #82	; 0x52
 8005882:	5a9b      	ldrh	r3, [r3, r2]
 8005884:	b29b      	uxth	r3, r3
 8005886:	2b00      	cmp	r3, #0
 8005888:	d1cc      	bne.n	8005824 <HAL_UART_Transmit+0xbc>
    }

    if (UART_WaitOnFlagUntilTimeout(huart, UART_FLAG_TC, RESET, tickstart, Timeout) != HAL_OK)
 800588a:	697a      	ldr	r2, [r7, #20]
 800588c:	68f8      	ldr	r0, [r7, #12]
 800588e:	683b      	ldr	r3, [r7, #0]
 8005890:	9300      	str	r3, [sp, #0]
 8005892:	0013      	movs	r3, r2
 8005894:	2200      	movs	r2, #0
 8005896:	2140      	movs	r1, #64	; 0x40
 8005898:	f000 fbaa 	bl	8005ff0 <UART_WaitOnFlagUntilTimeout>
 800589c:	1e03      	subs	r3, r0, #0
 800589e:	d001      	beq.n	80058a4 <HAL_UART_Transmit+0x13c>
    {
      return HAL_TIMEOUT;
 80058a0:	2303      	movs	r3, #3
 80058a2:	e005      	b.n	80058b0 <HAL_UART_Transmit+0x148>
    }

    /* At end of Tx process, restore huart->gState to Ready */
    huart->gState = HAL_UART_STATE_READY;
 80058a4:	68fb      	ldr	r3, [r7, #12]
 80058a6:	2220      	movs	r2, #32
 80058a8:	679a      	str	r2, [r3, #120]	; 0x78

    return HAL_OK;
 80058aa:	2300      	movs	r3, #0
 80058ac:	e000      	b.n	80058b0 <HAL_UART_Transmit+0x148>
  }
  else
  {
    return HAL_BUSY;
 80058ae:	2302      	movs	r3, #2
  }
}
 80058b0:	0018      	movs	r0, r3
 80058b2:	46bd      	mov	sp, r7
 80058b4:	b008      	add	sp, #32
 80058b6:	bd80      	pop	{r7, pc}

080058b8 <UART_SetConfig>:
  * @brief Configure the UART peripheral.
  * @param huart UART handle.
  * @retval HAL status
  */
HAL_StatusTypeDef UART_SetConfig(UART_HandleTypeDef *huart)
{
 80058b8:	b5b0      	push	{r4, r5, r7, lr}
 80058ba:	b08e      	sub	sp, #56	; 0x38
 80058bc:	af00      	add	r7, sp, #0
 80058be:	61f8      	str	r0, [r7, #28]
  uint32_t tmpreg;
  uint16_t brrtemp;
  UART_ClockSourceTypeDef clocksource;
  uint32_t usartdiv;
  HAL_StatusTypeDef ret               = HAL_OK;
 80058c0:	231a      	movs	r3, #26
 80058c2:	2218      	movs	r2, #24
 80058c4:	189b      	adds	r3, r3, r2
 80058c6:	19db      	adds	r3, r3, r7
 80058c8:	2200      	movs	r2, #0
 80058ca:	701a      	strb	r2, [r3, #0]
  *  the UART Word Length, Parity, Mode and oversampling:
  *  set the M bits according to huart->Init.WordLength value
  *  set PCE and PS bits according to huart->Init.Parity value
  *  set TE and RE bits according to huart->Init.Mode value
  *  set OVER8 bit according to huart->Init.OverSampling value */
  tmpreg = (uint32_t)huart->Init.WordLength | huart->Init.Parity | huart->Init.Mode | huart->Init.OverSampling ;
 80058cc:	69fb      	ldr	r3, [r7, #28]
 80058ce:	689a      	ldr	r2, [r3, #8]
 80058d0:	69fb      	ldr	r3, [r7, #28]
 80058d2:	691b      	ldr	r3, [r3, #16]
 80058d4:	431a      	orrs	r2, r3
 80058d6:	69fb      	ldr	r3, [r7, #28]
 80058d8:	695b      	ldr	r3, [r3, #20]
 80058da:	431a      	orrs	r2, r3
 80058dc:	69fb      	ldr	r3, [r7, #28]
 80058de:	69db      	ldr	r3, [r3, #28]
 80058e0:	4313      	orrs	r3, r2
 80058e2:	637b      	str	r3, [r7, #52]	; 0x34
  MODIFY_REG(huart->Instance->CR1, USART_CR1_FIELDS, tmpreg);
 80058e4:	69fb      	ldr	r3, [r7, #28]
 80058e6:	681b      	ldr	r3, [r3, #0]
 80058e8:	681b      	ldr	r3, [r3, #0]
 80058ea:	4ac3      	ldr	r2, [pc, #780]	; (8005bf8 <UART_SetConfig+0x340>)
 80058ec:	4013      	ands	r3, r2
 80058ee:	0019      	movs	r1, r3
 80058f0:	69fb      	ldr	r3, [r7, #28]
 80058f2:	681b      	ldr	r3, [r3, #0]
 80058f4:	6b7a      	ldr	r2, [r7, #52]	; 0x34
 80058f6:	430a      	orrs	r2, r1
 80058f8:	601a      	str	r2, [r3, #0]

  /*-------------------------- USART CR2 Configuration -----------------------*/
  /* Configure the UART Stop Bits: Set STOP[13:12] bits according
  * to huart->Init.StopBits value */
  MODIFY_REG(huart->Instance->CR2, USART_CR2_STOP, huart->Init.StopBits);
 80058fa:	69fb      	ldr	r3, [r7, #28]
 80058fc:	681b      	ldr	r3, [r3, #0]
 80058fe:	685b      	ldr	r3, [r3, #4]
 8005900:	4abe      	ldr	r2, [pc, #760]	; (8005bfc <UART_SetConfig+0x344>)
 8005902:	4013      	ands	r3, r2
 8005904:	0019      	movs	r1, r3
 8005906:	69fb      	ldr	r3, [r7, #28]
 8005908:	68da      	ldr	r2, [r3, #12]
 800590a:	69fb      	ldr	r3, [r7, #28]
 800590c:	681b      	ldr	r3, [r3, #0]
 800590e:	430a      	orrs	r2, r1
 8005910:	605a      	str	r2, [r3, #4]
  /* Configure
  * - UART HardWare Flow Control: set CTSE and RTSE bits according
  *   to huart->Init.HwFlowCtl value
  * - one-bit sampling method versus three samples' majority rule according
  *   to huart->Init.OneBitSampling (not applicable to LPUART) */
  tmpreg = (uint32_t)huart->Init.HwFlowCtl;
 8005912:	69fb      	ldr	r3, [r7, #28]
 8005914:	699b      	ldr	r3, [r3, #24]
 8005916:	637b      	str	r3, [r7, #52]	; 0x34

  if (!(UART_INSTANCE_LOWPOWER(huart)))
 8005918:	69fb      	ldr	r3, [r7, #28]
 800591a:	681b      	ldr	r3, [r3, #0]
 800591c:	4ab8      	ldr	r2, [pc, #736]	; (8005c00 <UART_SetConfig+0x348>)
 800591e:	4293      	cmp	r3, r2
 8005920:	d004      	beq.n	800592c <UART_SetConfig+0x74>
  {
    tmpreg |= huart->Init.OneBitSampling;
 8005922:	69fb      	ldr	r3, [r7, #28]
 8005924:	6a1b      	ldr	r3, [r3, #32]
 8005926:	6b7a      	ldr	r2, [r7, #52]	; 0x34
 8005928:	4313      	orrs	r3, r2
 800592a:	637b      	str	r3, [r7, #52]	; 0x34
  }
  MODIFY_REG(huart->Instance->CR3, USART_CR3_FIELDS, tmpreg);
 800592c:	69fb      	ldr	r3, [r7, #28]
 800592e:	681b      	ldr	r3, [r3, #0]
 8005930:	689b      	ldr	r3, [r3, #8]
 8005932:	4ab4      	ldr	r2, [pc, #720]	; (8005c04 <UART_SetConfig+0x34c>)
 8005934:	4013      	ands	r3, r2
 8005936:	0019      	movs	r1, r3
 8005938:	69fb      	ldr	r3, [r7, #28]
 800593a:	681b      	ldr	r3, [r3, #0]
 800593c:	6b7a      	ldr	r2, [r7, #52]	; 0x34
 800593e:	430a      	orrs	r2, r1
 8005940:	609a      	str	r2, [r3, #8]


  /*-------------------------- USART BRR Configuration -----------------------*/
  UART_GETCLOCKSOURCE(huart, clocksource);
 8005942:	69fb      	ldr	r3, [r7, #28]
 8005944:	681b      	ldr	r3, [r3, #0]
 8005946:	4ab0      	ldr	r2, [pc, #704]	; (8005c08 <UART_SetConfig+0x350>)
 8005948:	4293      	cmp	r3, r2
 800594a:	d131      	bne.n	80059b0 <UART_SetConfig+0xf8>
 800594c:	4baf      	ldr	r3, [pc, #700]	; (8005c0c <UART_SetConfig+0x354>)
 800594e:	6cdb      	ldr	r3, [r3, #76]	; 0x4c
 8005950:	2203      	movs	r2, #3
 8005952:	4013      	ands	r3, r2
 8005954:	2b03      	cmp	r3, #3
 8005956:	d01d      	beq.n	8005994 <UART_SetConfig+0xdc>
 8005958:	d823      	bhi.n	80059a2 <UART_SetConfig+0xea>
 800595a:	2b02      	cmp	r3, #2
 800595c:	d00c      	beq.n	8005978 <UART_SetConfig+0xc0>
 800595e:	d820      	bhi.n	80059a2 <UART_SetConfig+0xea>
 8005960:	2b00      	cmp	r3, #0
 8005962:	d002      	beq.n	800596a <UART_SetConfig+0xb2>
 8005964:	2b01      	cmp	r3, #1
 8005966:	d00e      	beq.n	8005986 <UART_SetConfig+0xce>
 8005968:	e01b      	b.n	80059a2 <UART_SetConfig+0xea>
 800596a:	231b      	movs	r3, #27
 800596c:	2218      	movs	r2, #24
 800596e:	189b      	adds	r3, r3, r2
 8005970:	19db      	adds	r3, r3, r7
 8005972:	2201      	movs	r2, #1
 8005974:	701a      	strb	r2, [r3, #0]
 8005976:	e0b4      	b.n	8005ae2 <UART_SetConfig+0x22a>
 8005978:	231b      	movs	r3, #27
 800597a:	2218      	movs	r2, #24
 800597c:	189b      	adds	r3, r3, r2
 800597e:	19db      	adds	r3, r3, r7
 8005980:	2202      	movs	r2, #2
 8005982:	701a      	strb	r2, [r3, #0]
 8005984:	e0ad      	b.n	8005ae2 <UART_SetConfig+0x22a>
 8005986:	231b      	movs	r3, #27
 8005988:	2218      	movs	r2, #24
 800598a:	189b      	adds	r3, r3, r2
 800598c:	19db      	adds	r3, r3, r7
 800598e:	2204      	movs	r2, #4
 8005990:	701a      	strb	r2, [r3, #0]
 8005992:	e0a6      	b.n	8005ae2 <UART_SetConfig+0x22a>
 8005994:	231b      	movs	r3, #27
 8005996:	2218      	movs	r2, #24
 8005998:	189b      	adds	r3, r3, r2
 800599a:	19db      	adds	r3, r3, r7
 800599c:	2208      	movs	r2, #8
 800599e:	701a      	strb	r2, [r3, #0]
 80059a0:	e09f      	b.n	8005ae2 <UART_SetConfig+0x22a>
 80059a2:	231b      	movs	r3, #27
 80059a4:	2218      	movs	r2, #24
 80059a6:	189b      	adds	r3, r3, r2
 80059a8:	19db      	adds	r3, r3, r7
 80059aa:	2210      	movs	r2, #16
 80059ac:	701a      	strb	r2, [r3, #0]
 80059ae:	e098      	b.n	8005ae2 <UART_SetConfig+0x22a>
 80059b0:	69fb      	ldr	r3, [r7, #28]
 80059b2:	681b      	ldr	r3, [r3, #0]
 80059b4:	4a96      	ldr	r2, [pc, #600]	; (8005c10 <UART_SetConfig+0x358>)
 80059b6:	4293      	cmp	r3, r2
 80059b8:	d131      	bne.n	8005a1e <UART_SetConfig+0x166>
 80059ba:	4b94      	ldr	r3, [pc, #592]	; (8005c0c <UART_SetConfig+0x354>)
 80059bc:	6cdb      	ldr	r3, [r3, #76]	; 0x4c
 80059be:	220c      	movs	r2, #12
 80059c0:	4013      	ands	r3, r2
 80059c2:	2b0c      	cmp	r3, #12
 80059c4:	d01d      	beq.n	8005a02 <UART_SetConfig+0x14a>
 80059c6:	d823      	bhi.n	8005a10 <UART_SetConfig+0x158>
 80059c8:	2b08      	cmp	r3, #8
 80059ca:	d00c      	beq.n	80059e6 <UART_SetConfig+0x12e>
 80059cc:	d820      	bhi.n	8005a10 <UART_SetConfig+0x158>
 80059ce:	2b00      	cmp	r3, #0
 80059d0:	d002      	beq.n	80059d8 <UART_SetConfig+0x120>
 80059d2:	2b04      	cmp	r3, #4
 80059d4:	d00e      	beq.n	80059f4 <UART_SetConfig+0x13c>
 80059d6:	e01b      	b.n	8005a10 <UART_SetConfig+0x158>
 80059d8:	231b      	movs	r3, #27
 80059da:	2218      	movs	r2, #24
 80059dc:	189b      	adds	r3, r3, r2
 80059de:	19db      	adds	r3, r3, r7
 80059e0:	2200      	movs	r2, #0
 80059e2:	701a      	strb	r2, [r3, #0]
 80059e4:	e07d      	b.n	8005ae2 <UART_SetConfig+0x22a>
 80059e6:	231b      	movs	r3, #27
 80059e8:	2218      	movs	r2, #24
 80059ea:	189b      	adds	r3, r3, r2
 80059ec:	19db      	adds	r3, r3, r7
 80059ee:	2202      	movs	r2, #2
 80059f0:	701a      	strb	r2, [r3, #0]
 80059f2:	e076      	b.n	8005ae2 <UART_SetConfig+0x22a>
 80059f4:	231b      	movs	r3, #27
 80059f6:	2218      	movs	r2, #24
 80059f8:	189b      	adds	r3, r3, r2
 80059fa:	19db      	adds	r3, r3, r7
 80059fc:	2204      	movs	r2, #4
 80059fe:	701a      	strb	r2, [r3, #0]
 8005a00:	e06f      	b.n	8005ae2 <UART_SetConfig+0x22a>
 8005a02:	231b      	movs	r3, #27
 8005a04:	2218      	movs	r2, #24
 8005a06:	189b      	adds	r3, r3, r2
 8005a08:	19db      	adds	r3, r3, r7
 8005a0a:	2208      	movs	r2, #8
 8005a0c:	701a      	strb	r2, [r3, #0]
 8005a0e:	e068      	b.n	8005ae2 <UART_SetConfig+0x22a>
 8005a10:	231b      	movs	r3, #27
 8005a12:	2218      	movs	r2, #24
 8005a14:	189b      	adds	r3, r3, r2
 8005a16:	19db      	adds	r3, r3, r7
 8005a18:	2210      	movs	r2, #16
 8005a1a:	701a      	strb	r2, [r3, #0]
 8005a1c:	e061      	b.n	8005ae2 <UART_SetConfig+0x22a>
 8005a1e:	69fb      	ldr	r3, [r7, #28]
 8005a20:	681b      	ldr	r3, [r3, #0]
 8005a22:	4a7c      	ldr	r2, [pc, #496]	; (8005c14 <UART_SetConfig+0x35c>)
 8005a24:	4293      	cmp	r3, r2
 8005a26:	d106      	bne.n	8005a36 <UART_SetConfig+0x17e>
 8005a28:	231b      	movs	r3, #27
 8005a2a:	2218      	movs	r2, #24
 8005a2c:	189b      	adds	r3, r3, r2
 8005a2e:	19db      	adds	r3, r3, r7
 8005a30:	2200      	movs	r2, #0
 8005a32:	701a      	strb	r2, [r3, #0]
 8005a34:	e055      	b.n	8005ae2 <UART_SetConfig+0x22a>
 8005a36:	69fb      	ldr	r3, [r7, #28]
 8005a38:	681b      	ldr	r3, [r3, #0]
 8005a3a:	4a77      	ldr	r2, [pc, #476]	; (8005c18 <UART_SetConfig+0x360>)
 8005a3c:	4293      	cmp	r3, r2
 8005a3e:	d106      	bne.n	8005a4e <UART_SetConfig+0x196>
 8005a40:	231b      	movs	r3, #27
 8005a42:	2218      	movs	r2, #24
 8005a44:	189b      	adds	r3, r3, r2
 8005a46:	19db      	adds	r3, r3, r7
 8005a48:	2200      	movs	r2, #0
 8005a4a:	701a      	strb	r2, [r3, #0]
 8005a4c:	e049      	b.n	8005ae2 <UART_SetConfig+0x22a>
 8005a4e:	69fb      	ldr	r3, [r7, #28]
 8005a50:	681b      	ldr	r3, [r3, #0]
 8005a52:	4a6b      	ldr	r2, [pc, #428]	; (8005c00 <UART_SetConfig+0x348>)
 8005a54:	4293      	cmp	r3, r2
 8005a56:	d13e      	bne.n	8005ad6 <UART_SetConfig+0x21e>
 8005a58:	4b6c      	ldr	r3, [pc, #432]	; (8005c0c <UART_SetConfig+0x354>)
 8005a5a:	6cda      	ldr	r2, [r3, #76]	; 0x4c
 8005a5c:	23c0      	movs	r3, #192	; 0xc0
 8005a5e:	011b      	lsls	r3, r3, #4
 8005a60:	4013      	ands	r3, r2
 8005a62:	22c0      	movs	r2, #192	; 0xc0
 8005a64:	0112      	lsls	r2, r2, #4
 8005a66:	4293      	cmp	r3, r2
 8005a68:	d027      	beq.n	8005aba <UART_SetConfig+0x202>
 8005a6a:	22c0      	movs	r2, #192	; 0xc0
 8005a6c:	0112      	lsls	r2, r2, #4
 8005a6e:	4293      	cmp	r3, r2
 8005a70:	d82a      	bhi.n	8005ac8 <UART_SetConfig+0x210>
 8005a72:	2280      	movs	r2, #128	; 0x80
 8005a74:	0112      	lsls	r2, r2, #4
 8005a76:	4293      	cmp	r3, r2
 8005a78:	d011      	beq.n	8005a9e <UART_SetConfig+0x1e6>
 8005a7a:	2280      	movs	r2, #128	; 0x80
 8005a7c:	0112      	lsls	r2, r2, #4
 8005a7e:	4293      	cmp	r3, r2
 8005a80:	d822      	bhi.n	8005ac8 <UART_SetConfig+0x210>
 8005a82:	2b00      	cmp	r3, #0
 8005a84:	d004      	beq.n	8005a90 <UART_SetConfig+0x1d8>
 8005a86:	2280      	movs	r2, #128	; 0x80
 8005a88:	00d2      	lsls	r2, r2, #3
 8005a8a:	4293      	cmp	r3, r2
 8005a8c:	d00e      	beq.n	8005aac <UART_SetConfig+0x1f4>
 8005a8e:	e01b      	b.n	8005ac8 <UART_SetConfig+0x210>
 8005a90:	231b      	movs	r3, #27
 8005a92:	2218      	movs	r2, #24
 8005a94:	189b      	adds	r3, r3, r2
 8005a96:	19db      	adds	r3, r3, r7
 8005a98:	2200      	movs	r2, #0
 8005a9a:	701a      	strb	r2, [r3, #0]
 8005a9c:	e021      	b.n	8005ae2 <UART_SetConfig+0x22a>
 8005a9e:	231b      	movs	r3, #27
 8005aa0:	2218      	movs	r2, #24
 8005aa2:	189b      	adds	r3, r3, r2
 8005aa4:	19db      	adds	r3, r3, r7
 8005aa6:	2202      	movs	r2, #2
 8005aa8:	701a      	strb	r2, [r3, #0]
 8005aaa:	e01a      	b.n	8005ae2 <UART_SetConfig+0x22a>
 8005aac:	231b      	movs	r3, #27
 8005aae:	2218      	movs	r2, #24
 8005ab0:	189b      	adds	r3, r3, r2
 8005ab2:	19db      	adds	r3, r3, r7
 8005ab4:	2204      	movs	r2, #4
 8005ab6:	701a      	strb	r2, [r3, #0]
 8005ab8:	e013      	b.n	8005ae2 <UART_SetConfig+0x22a>
 8005aba:	231b      	movs	r3, #27
 8005abc:	2218      	movs	r2, #24
 8005abe:	189b      	adds	r3, r3, r2
 8005ac0:	19db      	adds	r3, r3, r7
 8005ac2:	2208      	movs	r2, #8
 8005ac4:	701a      	strb	r2, [r3, #0]
 8005ac6:	e00c      	b.n	8005ae2 <UART_SetConfig+0x22a>
 8005ac8:	231b      	movs	r3, #27
 8005aca:	2218      	movs	r2, #24
 8005acc:	189b      	adds	r3, r3, r2
 8005ace:	19db      	adds	r3, r3, r7
 8005ad0:	2210      	movs	r2, #16
 8005ad2:	701a      	strb	r2, [r3, #0]
 8005ad4:	e005      	b.n	8005ae2 <UART_SetConfig+0x22a>
 8005ad6:	231b      	movs	r3, #27
 8005ad8:	2218      	movs	r2, #24
 8005ada:	189b      	adds	r3, r3, r2
 8005adc:	19db      	adds	r3, r3, r7
 8005ade:	2210      	movs	r2, #16
 8005ae0:	701a      	strb	r2, [r3, #0]

  /* Check LPUART instance */
  if (UART_INSTANCE_LOWPOWER(huart))
 8005ae2:	69fb      	ldr	r3, [r7, #28]
 8005ae4:	681b      	ldr	r3, [r3, #0]
 8005ae6:	4a46      	ldr	r2, [pc, #280]	; (8005c00 <UART_SetConfig+0x348>)
 8005ae8:	4293      	cmp	r3, r2
 8005aea:	d000      	beq.n	8005aee <UART_SetConfig+0x236>
 8005aec:	e09a      	b.n	8005c24 <UART_SetConfig+0x36c>
  {
    /* Retrieve frequency clock */
    switch (clocksource)
 8005aee:	231b      	movs	r3, #27
 8005af0:	2218      	movs	r2, #24
 8005af2:	189b      	adds	r3, r3, r2
 8005af4:	19db      	adds	r3, r3, r7
 8005af6:	781b      	ldrb	r3, [r3, #0]
 8005af8:	2b08      	cmp	r3, #8
 8005afa:	d01d      	beq.n	8005b38 <UART_SetConfig+0x280>
 8005afc:	dc20      	bgt.n	8005b40 <UART_SetConfig+0x288>
 8005afe:	2b04      	cmp	r3, #4
 8005b00:	d015      	beq.n	8005b2e <UART_SetConfig+0x276>
 8005b02:	dc1d      	bgt.n	8005b40 <UART_SetConfig+0x288>
 8005b04:	2b00      	cmp	r3, #0
 8005b06:	d002      	beq.n	8005b0e <UART_SetConfig+0x256>
 8005b08:	2b02      	cmp	r3, #2
 8005b0a:	d005      	beq.n	8005b18 <UART_SetConfig+0x260>
 8005b0c:	e018      	b.n	8005b40 <UART_SetConfig+0x288>
    {
      case UART_CLOCKSOURCE_PCLK1:
        pclk = HAL_RCC_GetPCLK1Freq();
 8005b0e:	f7ff f979 	bl	8004e04 <HAL_RCC_GetPCLK1Freq>
 8005b12:	0003      	movs	r3, r0
 8005b14:	62fb      	str	r3, [r7, #44]	; 0x2c
        break;
 8005b16:	e01c      	b.n	8005b52 <UART_SetConfig+0x29a>
      case UART_CLOCKSOURCE_HSI:
        if (__HAL_RCC_GET_FLAG(RCC_FLAG_HSIDIV) != 0U)
 8005b18:	4b3c      	ldr	r3, [pc, #240]	; (8005c0c <UART_SetConfig+0x354>)
 8005b1a:	681b      	ldr	r3, [r3, #0]
 8005b1c:	2210      	movs	r2, #16
 8005b1e:	4013      	ands	r3, r2
 8005b20:	d002      	beq.n	8005b28 <UART_SetConfig+0x270>
        {
          pclk = (uint32_t)(HSI_VALUE >> 2U);
 8005b22:	4b3e      	ldr	r3, [pc, #248]	; (8005c1c <UART_SetConfig+0x364>)
 8005b24:	62fb      	str	r3, [r7, #44]	; 0x2c
        }
        else
        {
          pclk = (uint32_t) HSI_VALUE;
        }
        break;
 8005b26:	e014      	b.n	8005b52 <UART_SetConfig+0x29a>
          pclk = (uint32_t) HSI_VALUE;
 8005b28:	4b3d      	ldr	r3, [pc, #244]	; (8005c20 <UART_SetConfig+0x368>)
 8005b2a:	62fb      	str	r3, [r7, #44]	; 0x2c
        break;
 8005b2c:	e011      	b.n	8005b52 <UART_SetConfig+0x29a>
      case UART_CLOCKSOURCE_SYSCLK:
        pclk = HAL_RCC_GetSysClockFreq();
 8005b2e:	f7ff f8b9 	bl	8004ca4 <HAL_RCC_GetSysClockFreq>
 8005b32:	0003      	movs	r3, r0
 8005b34:	62fb      	str	r3, [r7, #44]	; 0x2c
        break;
 8005b36:	e00c      	b.n	8005b52 <UART_SetConfig+0x29a>
      case UART_CLOCKSOURCE_LSE:
        pclk = (uint32_t) LSE_VALUE;
 8005b38:	2380      	movs	r3, #128	; 0x80
 8005b3a:	021b      	lsls	r3, r3, #8
 8005b3c:	62fb      	str	r3, [r7, #44]	; 0x2c
        break;
 8005b3e:	e008      	b.n	8005b52 <UART_SetConfig+0x29a>
      default:
        pclk = 0U;
 8005b40:	2300      	movs	r3, #0
 8005b42:	62fb      	str	r3, [r7, #44]	; 0x2c
        ret = HAL_ERROR;
 8005b44:	231a      	movs	r3, #26
 8005b46:	2218      	movs	r2, #24
 8005b48:	189b      	adds	r3, r3, r2
 8005b4a:	19db      	adds	r3, r3, r7
 8005b4c:	2201      	movs	r2, #1
 8005b4e:	701a      	strb	r2, [r3, #0]
        break;
 8005b50:	46c0      	nop			; (mov r8, r8)
    }

    /* If proper clock source reported */
    if (pclk != 0U)
 8005b52:	6afb      	ldr	r3, [r7, #44]	; 0x2c
 8005b54:	2b00      	cmp	r3, #0
 8005b56:	d100      	bne.n	8005b5a <UART_SetConfig+0x2a2>
 8005b58:	e134      	b.n	8005dc4 <UART_SetConfig+0x50c>
    {
      /* No Prescaler applicable */
      /* Ensure that Frequency clock is in the range [3 * baudrate, 4096 * baudrate] */
      if ((pclk < (3U * huart->Init.BaudRate)) ||
 8005b5a:	69fb      	ldr	r3, [r7, #28]
 8005b5c:	685a      	ldr	r2, [r3, #4]
 8005b5e:	0013      	movs	r3, r2
 8005b60:	005b      	lsls	r3, r3, #1
 8005b62:	189b      	adds	r3, r3, r2
 8005b64:	6afa      	ldr	r2, [r7, #44]	; 0x2c
 8005b66:	429a      	cmp	r2, r3
 8005b68:	d305      	bcc.n	8005b76 <UART_SetConfig+0x2be>
          (pclk > (4096U * huart->Init.BaudRate)))
 8005b6a:	69fb      	ldr	r3, [r7, #28]
 8005b6c:	685b      	ldr	r3, [r3, #4]
 8005b6e:	031b      	lsls	r3, r3, #12
      if ((pclk < (3U * huart->Init.BaudRate)) ||
 8005b70:	6afa      	ldr	r2, [r7, #44]	; 0x2c
 8005b72:	429a      	cmp	r2, r3
 8005b74:	d906      	bls.n	8005b84 <UART_SetConfig+0x2cc>
      {
        ret = HAL_ERROR;
 8005b76:	231a      	movs	r3, #26
 8005b78:	2218      	movs	r2, #24
 8005b7a:	189b      	adds	r3, r3, r2
 8005b7c:	19db      	adds	r3, r3, r7
 8005b7e:	2201      	movs	r2, #1
 8005b80:	701a      	strb	r2, [r3, #0]
 8005b82:	e11f      	b.n	8005dc4 <UART_SetConfig+0x50c>
      }
      else
      {
        usartdiv = (uint32_t)(UART_DIV_LPUART(pclk, huart->Init.BaudRate));
 8005b84:	6afb      	ldr	r3, [r7, #44]	; 0x2c
 8005b86:	613b      	str	r3, [r7, #16]
 8005b88:	2300      	movs	r3, #0
 8005b8a:	617b      	str	r3, [r7, #20]
 8005b8c:	6939      	ldr	r1, [r7, #16]
 8005b8e:	697a      	ldr	r2, [r7, #20]
 8005b90:	000b      	movs	r3, r1
 8005b92:	0e1b      	lsrs	r3, r3, #24
 8005b94:	0010      	movs	r0, r2
 8005b96:	0205      	lsls	r5, r0, #8
 8005b98:	431d      	orrs	r5, r3
 8005b9a:	000b      	movs	r3, r1
 8005b9c:	021c      	lsls	r4, r3, #8
 8005b9e:	69fb      	ldr	r3, [r7, #28]
 8005ba0:	685b      	ldr	r3, [r3, #4]
 8005ba2:	085b      	lsrs	r3, r3, #1
 8005ba4:	60bb      	str	r3, [r7, #8]
 8005ba6:	2300      	movs	r3, #0
 8005ba8:	60fb      	str	r3, [r7, #12]
 8005baa:	68b8      	ldr	r0, [r7, #8]
 8005bac:	68f9      	ldr	r1, [r7, #12]
 8005bae:	1900      	adds	r0, r0, r4
 8005bb0:	4169      	adcs	r1, r5
 8005bb2:	69fb      	ldr	r3, [r7, #28]
 8005bb4:	685b      	ldr	r3, [r3, #4]
 8005bb6:	603b      	str	r3, [r7, #0]
 8005bb8:	2300      	movs	r3, #0
 8005bba:	607b      	str	r3, [r7, #4]
 8005bbc:	683a      	ldr	r2, [r7, #0]
 8005bbe:	687b      	ldr	r3, [r7, #4]
 8005bc0:	f7fa fc22 	bl	8000408 <__aeabi_uldivmod>
 8005bc4:	0002      	movs	r2, r0
 8005bc6:	000b      	movs	r3, r1
 8005bc8:	0013      	movs	r3, r2
 8005bca:	62bb      	str	r3, [r7, #40]	; 0x28
        if ((usartdiv >= LPUART_BRR_MIN) && (usartdiv <= LPUART_BRR_MAX))
 8005bcc:	6aba      	ldr	r2, [r7, #40]	; 0x28
 8005bce:	23c0      	movs	r3, #192	; 0xc0
 8005bd0:	009b      	lsls	r3, r3, #2
 8005bd2:	429a      	cmp	r2, r3
 8005bd4:	d309      	bcc.n	8005bea <UART_SetConfig+0x332>
 8005bd6:	6aba      	ldr	r2, [r7, #40]	; 0x28
 8005bd8:	2380      	movs	r3, #128	; 0x80
 8005bda:	035b      	lsls	r3, r3, #13
 8005bdc:	429a      	cmp	r2, r3
 8005bde:	d204      	bcs.n	8005bea <UART_SetConfig+0x332>
        {
          huart->Instance->BRR = usartdiv;
 8005be0:	69fb      	ldr	r3, [r7, #28]
 8005be2:	681b      	ldr	r3, [r3, #0]
 8005be4:	6aba      	ldr	r2, [r7, #40]	; 0x28
 8005be6:	60da      	str	r2, [r3, #12]
 8005be8:	e0ec      	b.n	8005dc4 <UART_SetConfig+0x50c>
        }
        else
        {
          ret = HAL_ERROR;
 8005bea:	231a      	movs	r3, #26
 8005bec:	2218      	movs	r2, #24
 8005bee:	189b      	adds	r3, r3, r2
 8005bf0:	19db      	adds	r3, r3, r7
 8005bf2:	2201      	movs	r2, #1
 8005bf4:	701a      	strb	r2, [r3, #0]
 8005bf6:	e0e5      	b.n	8005dc4 <UART_SetConfig+0x50c>
 8005bf8:	efff69f3 	.word	0xefff69f3
 8005bfc:	ffffcfff 	.word	0xffffcfff
 8005c00:	40004800 	.word	0x40004800
 8005c04:	fffff4ff 	.word	0xfffff4ff
 8005c08:	40013800 	.word	0x40013800
 8005c0c:	40021000 	.word	0x40021000
 8005c10:	40004400 	.word	0x40004400
 8005c14:	40004c00 	.word	0x40004c00
 8005c18:	40005000 	.word	0x40005000
 8005c1c:	003d0900 	.word	0x003d0900
 8005c20:	00f42400 	.word	0x00f42400
        }
      } /* if ( (pclk < (3 * huart->Init.BaudRate) ) || (pclk > (4096 * huart->Init.BaudRate) )) */
    } /* if (pclk != 0) */
  }
  /* Check UART Over Sampling to set Baud Rate Register */
  else if (huart->Init.OverSampling == UART_OVERSAMPLING_8)
 8005c24:	69fb      	ldr	r3, [r7, #28]
 8005c26:	69da      	ldr	r2, [r3, #28]
 8005c28:	2380      	movs	r3, #128	; 0x80
 8005c2a:	021b      	lsls	r3, r3, #8
 8005c2c:	429a      	cmp	r2, r3
 8005c2e:	d000      	beq.n	8005c32 <UART_SetConfig+0x37a>
 8005c30:	e071      	b.n	8005d16 <UART_SetConfig+0x45e>
  {
    switch (clocksource)
 8005c32:	231b      	movs	r3, #27
 8005c34:	2218      	movs	r2, #24
 8005c36:	189b      	adds	r3, r3, r2
 8005c38:	19db      	adds	r3, r3, r7
 8005c3a:	781b      	ldrb	r3, [r3, #0]
 8005c3c:	2b08      	cmp	r3, #8
 8005c3e:	d822      	bhi.n	8005c86 <UART_SetConfig+0x3ce>
 8005c40:	009a      	lsls	r2, r3, #2
 8005c42:	4b68      	ldr	r3, [pc, #416]	; (8005de4 <UART_SetConfig+0x52c>)
 8005c44:	18d3      	adds	r3, r2, r3
 8005c46:	681b      	ldr	r3, [r3, #0]
 8005c48:	469f      	mov	pc, r3
    {
      case UART_CLOCKSOURCE_PCLK1:
        pclk = HAL_RCC_GetPCLK1Freq();
 8005c4a:	f7ff f8db 	bl	8004e04 <HAL_RCC_GetPCLK1Freq>
 8005c4e:	0003      	movs	r3, r0
 8005c50:	62fb      	str	r3, [r7, #44]	; 0x2c
        break;
 8005c52:	e021      	b.n	8005c98 <UART_SetConfig+0x3e0>
      case UART_CLOCKSOURCE_PCLK2:
        pclk = HAL_RCC_GetPCLK2Freq();
 8005c54:	f7ff f8ec 	bl	8004e30 <HAL_RCC_GetPCLK2Freq>
 8005c58:	0003      	movs	r3, r0
 8005c5a:	62fb      	str	r3, [r7, #44]	; 0x2c
        break;
 8005c5c:	e01c      	b.n	8005c98 <UART_SetConfig+0x3e0>
      case UART_CLOCKSOURCE_HSI:
        if (__HAL_RCC_GET_FLAG(RCC_FLAG_HSIDIV) != 0U)
 8005c5e:	4b62      	ldr	r3, [pc, #392]	; (8005de8 <UART_SetConfig+0x530>)
 8005c60:	681b      	ldr	r3, [r3, #0]
 8005c62:	2210      	movs	r2, #16
 8005c64:	4013      	ands	r3, r2
 8005c66:	d002      	beq.n	8005c6e <UART_SetConfig+0x3b6>
        {
          pclk = (uint32_t)(HSI_VALUE >> 2U);
 8005c68:	4b60      	ldr	r3, [pc, #384]	; (8005dec <UART_SetConfig+0x534>)
 8005c6a:	62fb      	str	r3, [r7, #44]	; 0x2c
        }
        else
        {
          pclk = (uint32_t) HSI_VALUE;
        }
        break;
 8005c6c:	e014      	b.n	8005c98 <UART_SetConfig+0x3e0>
          pclk = (uint32_t) HSI_VALUE;
 8005c6e:	4b60      	ldr	r3, [pc, #384]	; (8005df0 <UART_SetConfig+0x538>)
 8005c70:	62fb      	str	r3, [r7, #44]	; 0x2c
        break;
 8005c72:	e011      	b.n	8005c98 <UART_SetConfig+0x3e0>
      case UART_CLOCKSOURCE_SYSCLK:
        pclk = HAL_RCC_GetSysClockFreq();
 8005c74:	f7ff f816 	bl	8004ca4 <HAL_RCC_GetSysClockFreq>
 8005c78:	0003      	movs	r3, r0
 8005c7a:	62fb      	str	r3, [r7, #44]	; 0x2c
        break;
 8005c7c:	e00c      	b.n	8005c98 <UART_SetConfig+0x3e0>
      case UART_CLOCKSOURCE_LSE:
        pclk = (uint32_t) LSE_VALUE;
 8005c7e:	2380      	movs	r3, #128	; 0x80
 8005c80:	021b      	lsls	r3, r3, #8
 8005c82:	62fb      	str	r3, [r7, #44]	; 0x2c
        break;
 8005c84:	e008      	b.n	8005c98 <UART_SetConfig+0x3e0>
      default:
        pclk = 0U;
 8005c86:	2300      	movs	r3, #0
 8005c88:	62fb      	str	r3, [r7, #44]	; 0x2c
        ret = HAL_ERROR;
 8005c8a:	231a      	movs	r3, #26
 8005c8c:	2218      	movs	r2, #24
 8005c8e:	189b      	adds	r3, r3, r2
 8005c90:	19db      	adds	r3, r3, r7
 8005c92:	2201      	movs	r2, #1
 8005c94:	701a      	strb	r2, [r3, #0]
        break;
 8005c96:	46c0      	nop			; (mov r8, r8)
    }

    /* USARTDIV must be greater than or equal to 0d16 */
    if (pclk != 0U)
 8005c98:	6afb      	ldr	r3, [r7, #44]	; 0x2c
 8005c9a:	2b00      	cmp	r3, #0
 8005c9c:	d100      	bne.n	8005ca0 <UART_SetConfig+0x3e8>
 8005c9e:	e091      	b.n	8005dc4 <UART_SetConfig+0x50c>
    {
      usartdiv = (uint16_t)(UART_DIV_SAMPLING8(pclk, huart->Init.BaudRate));
 8005ca0:	6afb      	ldr	r3, [r7, #44]	; 0x2c
 8005ca2:	005a      	lsls	r2, r3, #1
 8005ca4:	69fb      	ldr	r3, [r7, #28]
 8005ca6:	685b      	ldr	r3, [r3, #4]
 8005ca8:	085b      	lsrs	r3, r3, #1
 8005caa:	18d2      	adds	r2, r2, r3
 8005cac:	69fb      	ldr	r3, [r7, #28]
 8005cae:	685b      	ldr	r3, [r3, #4]
 8005cb0:	0019      	movs	r1, r3
 8005cb2:	0010      	movs	r0, r2
 8005cb4:	f7fa fa32 	bl	800011c <__udivsi3>
 8005cb8:	0003      	movs	r3, r0
 8005cba:	b29b      	uxth	r3, r3
 8005cbc:	62bb      	str	r3, [r7, #40]	; 0x28
      if ((usartdiv >= UART_BRR_MIN) && (usartdiv <= UART_BRR_MAX))
 8005cbe:	6abb      	ldr	r3, [r7, #40]	; 0x28
 8005cc0:	2b0f      	cmp	r3, #15
 8005cc2:	d921      	bls.n	8005d08 <UART_SetConfig+0x450>
 8005cc4:	6aba      	ldr	r2, [r7, #40]	; 0x28
 8005cc6:	2380      	movs	r3, #128	; 0x80
 8005cc8:	025b      	lsls	r3, r3, #9
 8005cca:	429a      	cmp	r2, r3
 8005ccc:	d21c      	bcs.n	8005d08 <UART_SetConfig+0x450>
      {
        brrtemp = (uint16_t)(usartdiv & 0xFFF0U);
 8005cce:	6abb      	ldr	r3, [r7, #40]	; 0x28
 8005cd0:	b29a      	uxth	r2, r3
 8005cd2:	200e      	movs	r0, #14
 8005cd4:	2418      	movs	r4, #24
 8005cd6:	1903      	adds	r3, r0, r4
 8005cd8:	19db      	adds	r3, r3, r7
 8005cda:	210f      	movs	r1, #15
 8005cdc:	438a      	bics	r2, r1
 8005cde:	801a      	strh	r2, [r3, #0]
        brrtemp |= (uint16_t)((usartdiv & (uint16_t)0x000FU) >> 1U);
 8005ce0:	6abb      	ldr	r3, [r7, #40]	; 0x28
 8005ce2:	085b      	lsrs	r3, r3, #1
 8005ce4:	b29b      	uxth	r3, r3
 8005ce6:	2207      	movs	r2, #7
 8005ce8:	4013      	ands	r3, r2
 8005cea:	b299      	uxth	r1, r3
 8005cec:	1903      	adds	r3, r0, r4
 8005cee:	19db      	adds	r3, r3, r7
 8005cf0:	1902      	adds	r2, r0, r4
 8005cf2:	19d2      	adds	r2, r2, r7
 8005cf4:	8812      	ldrh	r2, [r2, #0]
 8005cf6:	430a      	orrs	r2, r1
 8005cf8:	801a      	strh	r2, [r3, #0]
        huart->Instance->BRR = brrtemp;
 8005cfa:	69fb      	ldr	r3, [r7, #28]
 8005cfc:	681b      	ldr	r3, [r3, #0]
 8005cfe:	1902      	adds	r2, r0, r4
 8005d00:	19d2      	adds	r2, r2, r7
 8005d02:	8812      	ldrh	r2, [r2, #0]
 8005d04:	60da      	str	r2, [r3, #12]
 8005d06:	e05d      	b.n	8005dc4 <UART_SetConfig+0x50c>
      }
      else
      {
        ret = HAL_ERROR;
 8005d08:	231a      	movs	r3, #26
 8005d0a:	2218      	movs	r2, #24
 8005d0c:	189b      	adds	r3, r3, r2
 8005d0e:	19db      	adds	r3, r3, r7
 8005d10:	2201      	movs	r2, #1
 8005d12:	701a      	strb	r2, [r3, #0]
 8005d14:	e056      	b.n	8005dc4 <UART_SetConfig+0x50c>
      }
    }
  }
  else
  {
    switch (clocksource)
 8005d16:	231b      	movs	r3, #27
 8005d18:	2218      	movs	r2, #24
 8005d1a:	189b      	adds	r3, r3, r2
 8005d1c:	19db      	adds	r3, r3, r7
 8005d1e:	781b      	ldrb	r3, [r3, #0]
 8005d20:	2b08      	cmp	r3, #8
 8005d22:	d822      	bhi.n	8005d6a <UART_SetConfig+0x4b2>
 8005d24:	009a      	lsls	r2, r3, #2
 8005d26:	4b33      	ldr	r3, [pc, #204]	; (8005df4 <UART_SetConfig+0x53c>)
 8005d28:	18d3      	adds	r3, r2, r3
 8005d2a:	681b      	ldr	r3, [r3, #0]
 8005d2c:	469f      	mov	pc, r3
    {
      case UART_CLOCKSOURCE_PCLK1:
        pclk = HAL_RCC_GetPCLK1Freq();
 8005d2e:	f7ff f869 	bl	8004e04 <HAL_RCC_GetPCLK1Freq>
 8005d32:	0003      	movs	r3, r0
 8005d34:	62fb      	str	r3, [r7, #44]	; 0x2c
        break;
 8005d36:	e021      	b.n	8005d7c <UART_SetConfig+0x4c4>
      case UART_CLOCKSOURCE_PCLK2:
        pclk = HAL_RCC_GetPCLK2Freq();
 8005d38:	f7ff f87a 	bl	8004e30 <HAL_RCC_GetPCLK2Freq>
 8005d3c:	0003      	movs	r3, r0
 8005d3e:	62fb      	str	r3, [r7, #44]	; 0x2c
        break;
 8005d40:	e01c      	b.n	8005d7c <UART_SetConfig+0x4c4>
      case UART_CLOCKSOURCE_HSI:
        if (__HAL_RCC_GET_FLAG(RCC_FLAG_HSIDIV) != 0U)
 8005d42:	4b29      	ldr	r3, [pc, #164]	; (8005de8 <UART_SetConfig+0x530>)
 8005d44:	681b      	ldr	r3, [r3, #0]
 8005d46:	2210      	movs	r2, #16
 8005d48:	4013      	ands	r3, r2
 8005d4a:	d002      	beq.n	8005d52 <UART_SetConfig+0x49a>
        {
          pclk = (uint32_t)(HSI_VALUE >> 2U);
 8005d4c:	4b27      	ldr	r3, [pc, #156]	; (8005dec <UART_SetConfig+0x534>)
 8005d4e:	62fb      	str	r3, [r7, #44]	; 0x2c
        }
        else
        {
          pclk = (uint32_t) HSI_VALUE;
        }
        break;
 8005d50:	e014      	b.n	8005d7c <UART_SetConfig+0x4c4>
          pclk = (uint32_t) HSI_VALUE;
 8005d52:	4b27      	ldr	r3, [pc, #156]	; (8005df0 <UART_SetConfig+0x538>)
 8005d54:	62fb      	str	r3, [r7, #44]	; 0x2c
        break;
 8005d56:	e011      	b.n	8005d7c <UART_SetConfig+0x4c4>
      case UART_CLOCKSOURCE_SYSCLK:
        pclk = HAL_RCC_GetSysClockFreq();
 8005d58:	f7fe ffa4 	bl	8004ca4 <HAL_RCC_GetSysClockFreq>
 8005d5c:	0003      	movs	r3, r0
 8005d5e:	62fb      	str	r3, [r7, #44]	; 0x2c
        break;
 8005d60:	e00c      	b.n	8005d7c <UART_SetConfig+0x4c4>
      case UART_CLOCKSOURCE_LSE:
        pclk = (uint32_t) LSE_VALUE;
 8005d62:	2380      	movs	r3, #128	; 0x80
 8005d64:	021b      	lsls	r3, r3, #8
 8005d66:	62fb      	str	r3, [r7, #44]	; 0x2c
        break;
 8005d68:	e008      	b.n	8005d7c <UART_SetConfig+0x4c4>
      default:
        pclk = 0U;
 8005d6a:	2300      	movs	r3, #0
 8005d6c:	62fb      	str	r3, [r7, #44]	; 0x2c
        ret = HAL_ERROR;
 8005d6e:	231a      	movs	r3, #26
 8005d70:	2218      	movs	r2, #24
 8005d72:	189b      	adds	r3, r3, r2
 8005d74:	19db      	adds	r3, r3, r7
 8005d76:	2201      	movs	r2, #1
 8005d78:	701a      	strb	r2, [r3, #0]
        break;
 8005d7a:	46c0      	nop			; (mov r8, r8)
    }

    if (pclk != 0U)
 8005d7c:	6afb      	ldr	r3, [r7, #44]	; 0x2c
 8005d7e:	2b00      	cmp	r3, #0
 8005d80:	d020      	beq.n	8005dc4 <UART_SetConfig+0x50c>
    {
      /* USARTDIV must be greater than or equal to 0d16 */
      usartdiv = (uint16_t)(UART_DIV_SAMPLING16(pclk, huart->Init.BaudRate));
 8005d82:	69fb      	ldr	r3, [r7, #28]
 8005d84:	685b      	ldr	r3, [r3, #4]
 8005d86:	085a      	lsrs	r2, r3, #1
 8005d88:	6afb      	ldr	r3, [r7, #44]	; 0x2c
 8005d8a:	18d2      	adds	r2, r2, r3
 8005d8c:	69fb      	ldr	r3, [r7, #28]
 8005d8e:	685b      	ldr	r3, [r3, #4]
 8005d90:	0019      	movs	r1, r3
 8005d92:	0010      	movs	r0, r2
 8005d94:	f7fa f9c2 	bl	800011c <__udivsi3>
 8005d98:	0003      	movs	r3, r0
 8005d9a:	b29b      	uxth	r3, r3
 8005d9c:	62bb      	str	r3, [r7, #40]	; 0x28
      if ((usartdiv >= UART_BRR_MIN) && (usartdiv <= UART_BRR_MAX))
 8005d9e:	6abb      	ldr	r3, [r7, #40]	; 0x28
 8005da0:	2b0f      	cmp	r3, #15
 8005da2:	d909      	bls.n	8005db8 <UART_SetConfig+0x500>
 8005da4:	6aba      	ldr	r2, [r7, #40]	; 0x28
 8005da6:	2380      	movs	r3, #128	; 0x80
 8005da8:	025b      	lsls	r3, r3, #9
 8005daa:	429a      	cmp	r2, r3
 8005dac:	d204      	bcs.n	8005db8 <UART_SetConfig+0x500>
      {
        huart->Instance->BRR = usartdiv;
 8005dae:	69fb      	ldr	r3, [r7, #28]
 8005db0:	681b      	ldr	r3, [r3, #0]
 8005db2:	6aba      	ldr	r2, [r7, #40]	; 0x28
 8005db4:	60da      	str	r2, [r3, #12]
 8005db6:	e005      	b.n	8005dc4 <UART_SetConfig+0x50c>
      }
      else
      {
        ret = HAL_ERROR;
 8005db8:	231a      	movs	r3, #26
 8005dba:	2218      	movs	r2, #24
 8005dbc:	189b      	adds	r3, r3, r2
 8005dbe:	19db      	adds	r3, r3, r7
 8005dc0:	2201      	movs	r2, #1
 8005dc2:	701a      	strb	r2, [r3, #0]
    }
  }


  /* Clear ISR function pointers */
  huart->RxISR = NULL;
 8005dc4:	69fb      	ldr	r3, [r7, #28]
 8005dc6:	2200      	movs	r2, #0
 8005dc8:	665a      	str	r2, [r3, #100]	; 0x64
  huart->TxISR = NULL;
 8005dca:	69fb      	ldr	r3, [r7, #28]
 8005dcc:	2200      	movs	r2, #0
 8005dce:	669a      	str	r2, [r3, #104]	; 0x68

  return ret;
 8005dd0:	231a      	movs	r3, #26
 8005dd2:	2218      	movs	r2, #24
 8005dd4:	189b      	adds	r3, r3, r2
 8005dd6:	19db      	adds	r3, r3, r7
 8005dd8:	781b      	ldrb	r3, [r3, #0]
}
 8005dda:	0018      	movs	r0, r3
 8005ddc:	46bd      	mov	sp, r7
 8005dde:	b00e      	add	sp, #56	; 0x38
 8005de0:	bdb0      	pop	{r4, r5, r7, pc}
 8005de2:	46c0      	nop			; (mov r8, r8)
 8005de4:	08006cb8 	.word	0x08006cb8
 8005de8:	40021000 	.word	0x40021000
 8005dec:	003d0900 	.word	0x003d0900
 8005df0:	00f42400 	.word	0x00f42400
 8005df4:	08006cdc 	.word	0x08006cdc

08005df8 <UART_AdvFeatureConfig>:
  * @brief Configure the UART peripheral advanced features.
  * @param huart UART handle.
  * @retval None
  */
void UART_AdvFeatureConfig(UART_HandleTypeDef *huart)
{
 8005df8:	b580      	push	{r7, lr}
 8005dfa:	b082      	sub	sp, #8
 8005dfc:	af00      	add	r7, sp, #0
 8005dfe:	6078      	str	r0, [r7, #4]
  /* Check whether the set of advanced features to configure is properly set */
  assert_param(IS_UART_ADVFEATURE_INIT(huart->AdvancedInit.AdvFeatureInit));

  /* if required, configure TX pin active level inversion */
  if (HAL_IS_BIT_SET(huart->AdvancedInit.AdvFeatureInit, UART_ADVFEATURE_TXINVERT_INIT))
 8005e00:	687b      	ldr	r3, [r7, #4]
 8005e02:	6a5b      	ldr	r3, [r3, #36]	; 0x24
 8005e04:	2201      	movs	r2, #1
 8005e06:	4013      	ands	r3, r2
 8005e08:	d00b      	beq.n	8005e22 <UART_AdvFeatureConfig+0x2a>
  {
    assert_param(IS_UART_ADVFEATURE_TXINV(huart->AdvancedInit.TxPinLevelInvert));
    MODIFY_REG(huart->Instance->CR2, USART_CR2_TXINV, huart->AdvancedInit.TxPinLevelInvert);
 8005e0a:	687b      	ldr	r3, [r7, #4]
 8005e0c:	681b      	ldr	r3, [r3, #0]
 8005e0e:	685b      	ldr	r3, [r3, #4]
 8005e10:	4a4a      	ldr	r2, [pc, #296]	; (8005f3c <UART_AdvFeatureConfig+0x144>)
 8005e12:	4013      	ands	r3, r2
 8005e14:	0019      	movs	r1, r3
 8005e16:	687b      	ldr	r3, [r7, #4]
 8005e18:	6a9a      	ldr	r2, [r3, #40]	; 0x28
 8005e1a:	687b      	ldr	r3, [r7, #4]
 8005e1c:	681b      	ldr	r3, [r3, #0]
 8005e1e:	430a      	orrs	r2, r1
 8005e20:	605a      	str	r2, [r3, #4]
  }

  /* if required, configure RX pin active level inversion */
  if (HAL_IS_BIT_SET(huart->AdvancedInit.AdvFeatureInit, UART_ADVFEATURE_RXINVERT_INIT))
 8005e22:	687b      	ldr	r3, [r7, #4]
 8005e24:	6a5b      	ldr	r3, [r3, #36]	; 0x24
 8005e26:	2202      	movs	r2, #2
 8005e28:	4013      	ands	r3, r2
 8005e2a:	d00b      	beq.n	8005e44 <UART_AdvFeatureConfig+0x4c>
  {
    assert_param(IS_UART_ADVFEATURE_RXINV(huart->AdvancedInit.RxPinLevelInvert));
    MODIFY_REG(huart->Instance->CR2, USART_CR2_RXINV, huart->AdvancedInit.RxPinLevelInvert);
 8005e2c:	687b      	ldr	r3, [r7, #4]
 8005e2e:	681b      	ldr	r3, [r3, #0]
 8005e30:	685b      	ldr	r3, [r3, #4]
 8005e32:	4a43      	ldr	r2, [pc, #268]	; (8005f40 <UART_AdvFeatureConfig+0x148>)
 8005e34:	4013      	ands	r3, r2
 8005e36:	0019      	movs	r1, r3
 8005e38:	687b      	ldr	r3, [r7, #4]
 8005e3a:	6ada      	ldr	r2, [r3, #44]	; 0x2c
 8005e3c:	687b      	ldr	r3, [r7, #4]
 8005e3e:	681b      	ldr	r3, [r3, #0]
 8005e40:	430a      	orrs	r2, r1
 8005e42:	605a      	str	r2, [r3, #4]
  }

  /* if required, configure data inversion */
  if (HAL_IS_BIT_SET(huart->AdvancedInit.AdvFeatureInit, UART_ADVFEATURE_DATAINVERT_INIT))
 8005e44:	687b      	ldr	r3, [r7, #4]
 8005e46:	6a5b      	ldr	r3, [r3, #36]	; 0x24
 8005e48:	2204      	movs	r2, #4
 8005e4a:	4013      	ands	r3, r2
 8005e4c:	d00b      	beq.n	8005e66 <UART_AdvFeatureConfig+0x6e>
  {
    assert_param(IS_UART_ADVFEATURE_DATAINV(huart->AdvancedInit.DataInvert));
    MODIFY_REG(huart->Instance->CR2, USART_CR2_DATAINV, huart->AdvancedInit.DataInvert);
 8005e4e:	687b      	ldr	r3, [r7, #4]
 8005e50:	681b      	ldr	r3, [r3, #0]
 8005e52:	685b      	ldr	r3, [r3, #4]
 8005e54:	4a3b      	ldr	r2, [pc, #236]	; (8005f44 <UART_AdvFeatureConfig+0x14c>)
 8005e56:	4013      	ands	r3, r2
 8005e58:	0019      	movs	r1, r3
 8005e5a:	687b      	ldr	r3, [r7, #4]
 8005e5c:	6b1a      	ldr	r2, [r3, #48]	; 0x30
 8005e5e:	687b      	ldr	r3, [r7, #4]
 8005e60:	681b      	ldr	r3, [r3, #0]
 8005e62:	430a      	orrs	r2, r1
 8005e64:	605a      	str	r2, [r3, #4]
  }

  /* if required, configure RX/TX pins swap */
  if (HAL_IS_BIT_SET(huart->AdvancedInit.AdvFeatureInit, UART_ADVFEATURE_SWAP_INIT))
 8005e66:	687b      	ldr	r3, [r7, #4]
 8005e68:	6a5b      	ldr	r3, [r3, #36]	; 0x24
 8005e6a:	2208      	movs	r2, #8
 8005e6c:	4013      	ands	r3, r2
 8005e6e:	d00b      	beq.n	8005e88 <UART_AdvFeatureConfig+0x90>
  {
    assert_param(IS_UART_ADVFEATURE_SWAP(huart->AdvancedInit.Swap));
    MODIFY_REG(huart->Instance->CR2, USART_CR2_SWAP, huart->AdvancedInit.Swap);
 8005e70:	687b      	ldr	r3, [r7, #4]
 8005e72:	681b      	ldr	r3, [r3, #0]
 8005e74:	685b      	ldr	r3, [r3, #4]
 8005e76:	4a34      	ldr	r2, [pc, #208]	; (8005f48 <UART_AdvFeatureConfig+0x150>)
 8005e78:	4013      	ands	r3, r2
 8005e7a:	0019      	movs	r1, r3
 8005e7c:	687b      	ldr	r3, [r7, #4]
 8005e7e:	6b5a      	ldr	r2, [r3, #52]	; 0x34
 8005e80:	687b      	ldr	r3, [r7, #4]
 8005e82:	681b      	ldr	r3, [r3, #0]
 8005e84:	430a      	orrs	r2, r1
 8005e86:	605a      	str	r2, [r3, #4]
  }

  /* if required, configure RX overrun detection disabling */
  if (HAL_IS_BIT_SET(huart->AdvancedInit.AdvFeatureInit, UART_ADVFEATURE_RXOVERRUNDISABLE_INIT))
 8005e88:	687b      	ldr	r3, [r7, #4]
 8005e8a:	6a5b      	ldr	r3, [r3, #36]	; 0x24
 8005e8c:	2210      	movs	r2, #16
 8005e8e:	4013      	ands	r3, r2
 8005e90:	d00b      	beq.n	8005eaa <UART_AdvFeatureConfig+0xb2>
  {
    assert_param(IS_UART_OVERRUN(huart->AdvancedInit.OverrunDisable));
    MODIFY_REG(huart->Instance->CR3, USART_CR3_OVRDIS, huart->AdvancedInit.OverrunDisable);
 8005e92:	687b      	ldr	r3, [r7, #4]
 8005e94:	681b      	ldr	r3, [r3, #0]
 8005e96:	689b      	ldr	r3, [r3, #8]
 8005e98:	4a2c      	ldr	r2, [pc, #176]	; (8005f4c <UART_AdvFeatureConfig+0x154>)
 8005e9a:	4013      	ands	r3, r2
 8005e9c:	0019      	movs	r1, r3
 8005e9e:	687b      	ldr	r3, [r7, #4]
 8005ea0:	6b9a      	ldr	r2, [r3, #56]	; 0x38
 8005ea2:	687b      	ldr	r3, [r7, #4]
 8005ea4:	681b      	ldr	r3, [r3, #0]
 8005ea6:	430a      	orrs	r2, r1
 8005ea8:	609a      	str	r2, [r3, #8]
  }

  /* if required, configure DMA disabling on reception error */
  if (HAL_IS_BIT_SET(huart->AdvancedInit.AdvFeatureInit, UART_ADVFEATURE_DMADISABLEONERROR_INIT))
 8005eaa:	687b      	ldr	r3, [r7, #4]
 8005eac:	6a5b      	ldr	r3, [r3, #36]	; 0x24
 8005eae:	2220      	movs	r2, #32
 8005eb0:	4013      	ands	r3, r2
 8005eb2:	d00b      	beq.n	8005ecc <UART_AdvFeatureConfig+0xd4>
  {
    assert_param(IS_UART_ADVFEATURE_DMAONRXERROR(huart->AdvancedInit.DMADisableonRxError));
    MODIFY_REG(huart->Instance->CR3, USART_CR3_DDRE, huart->AdvancedInit.DMADisableonRxError);
 8005eb4:	687b      	ldr	r3, [r7, #4]
 8005eb6:	681b      	ldr	r3, [r3, #0]
 8005eb8:	689b      	ldr	r3, [r3, #8]
 8005eba:	4a25      	ldr	r2, [pc, #148]	; (8005f50 <UART_AdvFeatureConfig+0x158>)
 8005ebc:	4013      	ands	r3, r2
 8005ebe:	0019      	movs	r1, r3
 8005ec0:	687b      	ldr	r3, [r7, #4]
 8005ec2:	6bda      	ldr	r2, [r3, #60]	; 0x3c
 8005ec4:	687b      	ldr	r3, [r7, #4]
 8005ec6:	681b      	ldr	r3, [r3, #0]
 8005ec8:	430a      	orrs	r2, r1
 8005eca:	609a      	str	r2, [r3, #8]
  }

  /* if required, configure auto Baud rate detection scheme */
  if (HAL_IS_BIT_SET(huart->AdvancedInit.AdvFeatureInit, UART_ADVFEATURE_AUTOBAUDRATE_INIT))
 8005ecc:	687b      	ldr	r3, [r7, #4]
 8005ece:	6a5b      	ldr	r3, [r3, #36]	; 0x24
 8005ed0:	2240      	movs	r2, #64	; 0x40
 8005ed2:	4013      	ands	r3, r2
 8005ed4:	d01d      	beq.n	8005f12 <UART_AdvFeatureConfig+0x11a>
  {
    assert_param(IS_USART_AUTOBAUDRATE_DETECTION_INSTANCE(huart->Instance));
    assert_param(IS_UART_ADVFEATURE_AUTOBAUDRATE(huart->AdvancedInit.AutoBaudRateEnable));
    MODIFY_REG(huart->Instance->CR2, USART_CR2_ABREN, huart->AdvancedInit.AutoBaudRateEnable);
 8005ed6:	687b      	ldr	r3, [r7, #4]
 8005ed8:	681b      	ldr	r3, [r3, #0]
 8005eda:	685b      	ldr	r3, [r3, #4]
 8005edc:	4a1d      	ldr	r2, [pc, #116]	; (8005f54 <UART_AdvFeatureConfig+0x15c>)
 8005ede:	4013      	ands	r3, r2
 8005ee0:	0019      	movs	r1, r3
 8005ee2:	687b      	ldr	r3, [r7, #4]
 8005ee4:	6c1a      	ldr	r2, [r3, #64]	; 0x40
 8005ee6:	687b      	ldr	r3, [r7, #4]
 8005ee8:	681b      	ldr	r3, [r3, #0]
 8005eea:	430a      	orrs	r2, r1
 8005eec:	605a      	str	r2, [r3, #4]
    /* set auto Baudrate detection parameters if detection is enabled */
    if (huart->AdvancedInit.AutoBaudRateEnable == UART_ADVFEATURE_AUTOBAUDRATE_ENABLE)
 8005eee:	687b      	ldr	r3, [r7, #4]
 8005ef0:	6c1a      	ldr	r2, [r3, #64]	; 0x40
 8005ef2:	2380      	movs	r3, #128	; 0x80
 8005ef4:	035b      	lsls	r3, r3, #13
 8005ef6:	429a      	cmp	r2, r3
 8005ef8:	d10b      	bne.n	8005f12 <UART_AdvFeatureConfig+0x11a>
    {
      assert_param(IS_UART_ADVFEATURE_AUTOBAUDRATEMODE(huart->AdvancedInit.AutoBaudRateMode));
      MODIFY_REG(huart->Instance->CR2, USART_CR2_ABRMODE, huart->AdvancedInit.AutoBaudRateMode);
 8005efa:	687b      	ldr	r3, [r7, #4]
 8005efc:	681b      	ldr	r3, [r3, #0]
 8005efe:	685b      	ldr	r3, [r3, #4]
 8005f00:	4a15      	ldr	r2, [pc, #84]	; (8005f58 <UART_AdvFeatureConfig+0x160>)
 8005f02:	4013      	ands	r3, r2
 8005f04:	0019      	movs	r1, r3
 8005f06:	687b      	ldr	r3, [r7, #4]
 8005f08:	6c5a      	ldr	r2, [r3, #68]	; 0x44
 8005f0a:	687b      	ldr	r3, [r7, #4]
 8005f0c:	681b      	ldr	r3, [r3, #0]
 8005f0e:	430a      	orrs	r2, r1
 8005f10:	605a      	str	r2, [r3, #4]
    }
  }

  /* if required, configure MSB first on communication line */
  if (HAL_IS_BIT_SET(huart->AdvancedInit.AdvFeatureInit, UART_ADVFEATURE_MSBFIRST_INIT))
 8005f12:	687b      	ldr	r3, [r7, #4]
 8005f14:	6a5b      	ldr	r3, [r3, #36]	; 0x24
 8005f16:	2280      	movs	r2, #128	; 0x80
 8005f18:	4013      	ands	r3, r2
 8005f1a:	d00b      	beq.n	8005f34 <UART_AdvFeatureConfig+0x13c>
  {
    assert_param(IS_UART_ADVFEATURE_MSBFIRST(huart->AdvancedInit.MSBFirst));
    MODIFY_REG(huart->Instance->CR2, USART_CR2_MSBFIRST, huart->AdvancedInit.MSBFirst);
 8005f1c:	687b      	ldr	r3, [r7, #4]
 8005f1e:	681b      	ldr	r3, [r3, #0]
 8005f20:	685b      	ldr	r3, [r3, #4]
 8005f22:	4a0e      	ldr	r2, [pc, #56]	; (8005f5c <UART_AdvFeatureConfig+0x164>)
 8005f24:	4013      	ands	r3, r2
 8005f26:	0019      	movs	r1, r3
 8005f28:	687b      	ldr	r3, [r7, #4]
 8005f2a:	6c9a      	ldr	r2, [r3, #72]	; 0x48
 8005f2c:	687b      	ldr	r3, [r7, #4]
 8005f2e:	681b      	ldr	r3, [r3, #0]
 8005f30:	430a      	orrs	r2, r1
 8005f32:	605a      	str	r2, [r3, #4]
  }
}
 8005f34:	46c0      	nop			; (mov r8, r8)
 8005f36:	46bd      	mov	sp, r7
 8005f38:	b002      	add	sp, #8
 8005f3a:	bd80      	pop	{r7, pc}
 8005f3c:	fffdffff 	.word	0xfffdffff
 8005f40:	fffeffff 	.word	0xfffeffff
 8005f44:	fffbffff 	.word	0xfffbffff
 8005f48:	ffff7fff 	.word	0xffff7fff
 8005f4c:	ffffefff 	.word	0xffffefff
 8005f50:	ffffdfff 	.word	0xffffdfff
 8005f54:	ffefffff 	.word	0xffefffff
 8005f58:	ff9fffff 	.word	0xff9fffff
 8005f5c:	fff7ffff 	.word	0xfff7ffff

08005f60 <UART_CheckIdleState>:
  * @brief Check the UART Idle State.
  * @param huart UART handle.
  * @retval HAL status
  */
HAL_StatusTypeDef UART_CheckIdleState(UART_HandleTypeDef *huart)
{
 8005f60:	b580      	push	{r7, lr}
 8005f62:	b086      	sub	sp, #24
 8005f64:	af02      	add	r7, sp, #8
 8005f66:	6078      	str	r0, [r7, #4]
  uint32_t tickstart;

  /* Initialize the UART ErrorCode */
  huart->ErrorCode = HAL_UART_ERROR_NONE;
 8005f68:	687b      	ldr	r3, [r7, #4]
 8005f6a:	2280      	movs	r2, #128	; 0x80
 8005f6c:	2100      	movs	r1, #0
 8005f6e:	5099      	str	r1, [r3, r2]

  /* Init tickstart for timeout management */
  tickstart = HAL_GetTick();
 8005f70:	f7fd fb66 	bl	8003640 <HAL_GetTick>
 8005f74:	0003      	movs	r3, r0
 8005f76:	60fb      	str	r3, [r7, #12]

  /* Check if the Transmitter is enabled */
  if ((huart->Instance->CR1 & USART_CR1_TE) == USART_CR1_TE)
 8005f78:	687b      	ldr	r3, [r7, #4]
 8005f7a:	681b      	ldr	r3, [r3, #0]
 8005f7c:	681b      	ldr	r3, [r3, #0]
 8005f7e:	2208      	movs	r2, #8
 8005f80:	4013      	ands	r3, r2
 8005f82:	2b08      	cmp	r3, #8
 8005f84:	d10c      	bne.n	8005fa0 <UART_CheckIdleState+0x40>
  {
    /* Wait until TEACK flag is set */
    if (UART_WaitOnFlagUntilTimeout(huart, USART_ISR_TEACK, RESET, tickstart, HAL_UART_TIMEOUT_VALUE) != HAL_OK)
 8005f86:	68fb      	ldr	r3, [r7, #12]
 8005f88:	2280      	movs	r2, #128	; 0x80
 8005f8a:	0391      	lsls	r1, r2, #14
 8005f8c:	6878      	ldr	r0, [r7, #4]
 8005f8e:	4a17      	ldr	r2, [pc, #92]	; (8005fec <UART_CheckIdleState+0x8c>)
 8005f90:	9200      	str	r2, [sp, #0]
 8005f92:	2200      	movs	r2, #0
 8005f94:	f000 f82c 	bl	8005ff0 <UART_WaitOnFlagUntilTimeout>
 8005f98:	1e03      	subs	r3, r0, #0
 8005f9a:	d001      	beq.n	8005fa0 <UART_CheckIdleState+0x40>
    {
      /* Timeout occurred */
      return HAL_TIMEOUT;
 8005f9c:	2303      	movs	r3, #3
 8005f9e:	e021      	b.n	8005fe4 <UART_CheckIdleState+0x84>
    }
  }

  /* Check if the Receiver is enabled */
  if ((huart->Instance->CR1 & USART_CR1_RE) == USART_CR1_RE)
 8005fa0:	687b      	ldr	r3, [r7, #4]
 8005fa2:	681b      	ldr	r3, [r3, #0]
 8005fa4:	681b      	ldr	r3, [r3, #0]
 8005fa6:	2204      	movs	r2, #4
 8005fa8:	4013      	ands	r3, r2
 8005faa:	2b04      	cmp	r3, #4
 8005fac:	d10c      	bne.n	8005fc8 <UART_CheckIdleState+0x68>
  {
    /* Wait until REACK flag is set */
    if (UART_WaitOnFlagUntilTimeout(huart, USART_ISR_REACK, RESET, tickstart, HAL_UART_TIMEOUT_VALUE) != HAL_OK)
 8005fae:	68fb      	ldr	r3, [r7, #12]
 8005fb0:	2280      	movs	r2, #128	; 0x80
 8005fb2:	03d1      	lsls	r1, r2, #15
 8005fb4:	6878      	ldr	r0, [r7, #4]
 8005fb6:	4a0d      	ldr	r2, [pc, #52]	; (8005fec <UART_CheckIdleState+0x8c>)
 8005fb8:	9200      	str	r2, [sp, #0]
 8005fba:	2200      	movs	r2, #0
 8005fbc:	f000 f818 	bl	8005ff0 <UART_WaitOnFlagUntilTimeout>
 8005fc0:	1e03      	subs	r3, r0, #0
 8005fc2:	d001      	beq.n	8005fc8 <UART_CheckIdleState+0x68>
    {
      /* Timeout occurred */
      return HAL_TIMEOUT;
 8005fc4:	2303      	movs	r3, #3
 8005fc6:	e00d      	b.n	8005fe4 <UART_CheckIdleState+0x84>
    }
  }

  /* Initialize the UART State */
  huart->gState = HAL_UART_STATE_READY;
 8005fc8:	687b      	ldr	r3, [r7, #4]
 8005fca:	2220      	movs	r2, #32
 8005fcc:	679a      	str	r2, [r3, #120]	; 0x78
  huart->RxState = HAL_UART_STATE_READY;
 8005fce:	687b      	ldr	r3, [r7, #4]
 8005fd0:	2220      	movs	r2, #32
 8005fd2:	67da      	str	r2, [r3, #124]	; 0x7c
  huart->ReceptionType = HAL_UART_RECEPTION_STANDARD;
 8005fd4:	687b      	ldr	r3, [r7, #4]
 8005fd6:	2200      	movs	r2, #0
 8005fd8:	661a      	str	r2, [r3, #96]	; 0x60

  __HAL_UNLOCK(huart);
 8005fda:	687b      	ldr	r3, [r7, #4]
 8005fdc:	2274      	movs	r2, #116	; 0x74
 8005fde:	2100      	movs	r1, #0
 8005fe0:	5499      	strb	r1, [r3, r2]

  return HAL_OK;
 8005fe2:	2300      	movs	r3, #0
}
 8005fe4:	0018      	movs	r0, r3
 8005fe6:	46bd      	mov	sp, r7
 8005fe8:	b004      	add	sp, #16
 8005fea:	bd80      	pop	{r7, pc}
 8005fec:	01ffffff 	.word	0x01ffffff

08005ff0 <UART_WaitOnFlagUntilTimeout>:
  * @param Timeout   Timeout duration
  * @retval HAL status
  */
HAL_StatusTypeDef UART_WaitOnFlagUntilTimeout(UART_HandleTypeDef *huart, uint32_t Flag, FlagStatus Status,
                                              uint32_t Tickstart, uint32_t Timeout)
{
 8005ff0:	b580      	push	{r7, lr}
 8005ff2:	b094      	sub	sp, #80	; 0x50
 8005ff4:	af00      	add	r7, sp, #0
 8005ff6:	60f8      	str	r0, [r7, #12]
 8005ff8:	60b9      	str	r1, [r7, #8]
 8005ffa:	603b      	str	r3, [r7, #0]
 8005ffc:	1dfb      	adds	r3, r7, #7
 8005ffe:	701a      	strb	r2, [r3, #0]
  /* Wait until flag is set */
  while ((__HAL_UART_GET_FLAG(huart, Flag) ? SET : RESET) == Status)
 8006000:	e0a3      	b.n	800614a <UART_WaitOnFlagUntilTimeout+0x15a>
  {
    /* Check for the Timeout */
    if (Timeout != HAL_MAX_DELAY)
 8006002:	6dbb      	ldr	r3, [r7, #88]	; 0x58
 8006004:	3301      	adds	r3, #1
 8006006:	d100      	bne.n	800600a <UART_WaitOnFlagUntilTimeout+0x1a>
 8006008:	e09f      	b.n	800614a <UART_WaitOnFlagUntilTimeout+0x15a>
    {
      if (((HAL_GetTick() - Tickstart) > Timeout) || (Timeout == 0U))
 800600a:	f7fd fb19 	bl	8003640 <HAL_GetTick>
 800600e:	0002      	movs	r2, r0
 8006010:	683b      	ldr	r3, [r7, #0]
 8006012:	1ad3      	subs	r3, r2, r3
 8006014:	6dba      	ldr	r2, [r7, #88]	; 0x58
 8006016:	429a      	cmp	r2, r3
 8006018:	d302      	bcc.n	8006020 <UART_WaitOnFlagUntilTimeout+0x30>
 800601a:	6dbb      	ldr	r3, [r7, #88]	; 0x58
 800601c:	2b00      	cmp	r3, #0
 800601e:	d13d      	bne.n	800609c <UART_WaitOnFlagUntilTimeout+0xac>
 */
__STATIC_FORCEINLINE uint32_t __get_PRIMASK(void)
{
  uint32_t result;

  __ASM volatile ("MRS %0, primask" : "=r" (result) :: "memory");
 8006020:	f3ef 8310 	mrs	r3, PRIMASK
 8006024:	62bb      	str	r3, [r7, #40]	; 0x28
  return(result);
 8006026:	6abb      	ldr	r3, [r7, #40]	; 0x28
      {
        /* Disable TXE, RXNE, PE and ERR (Frame error, noise error, overrun error)
           interrupts for the interrupt process */
        ATOMIC_CLEAR_BIT(huart->Instance->CR1, (USART_CR1_RXNEIE | USART_CR1_PEIE | USART_CR1_TXEIE));
 8006028:	647b      	str	r3, [r7, #68]	; 0x44
 800602a:	2301      	movs	r3, #1
 800602c:	62fb      	str	r3, [r7, #44]	; 0x2c
  \details Assigns the given value to the Priority Mask Register.
  \param [in]    priMask  Priority Mask
 */
__STATIC_FORCEINLINE void __set_PRIMASK(uint32_t priMask)
{
  __ASM volatile ("MSR primask, %0" : : "r" (priMask) : "memory");
 800602e:	6afb      	ldr	r3, [r7, #44]	; 0x2c
 8006030:	f383 8810 	msr	PRIMASK, r3
}
 8006034:	46c0      	nop			; (mov r8, r8)
 8006036:	68fb      	ldr	r3, [r7, #12]
 8006038:	681b      	ldr	r3, [r3, #0]
 800603a:	681a      	ldr	r2, [r3, #0]
 800603c:	68fb      	ldr	r3, [r7, #12]
 800603e:	681b      	ldr	r3, [r3, #0]
 8006040:	494c      	ldr	r1, [pc, #304]	; (8006174 <UART_WaitOnFlagUntilTimeout+0x184>)
 8006042:	400a      	ands	r2, r1
 8006044:	601a      	str	r2, [r3, #0]
 8006046:	6c7b      	ldr	r3, [r7, #68]	; 0x44
 8006048:	633b      	str	r3, [r7, #48]	; 0x30
  __ASM volatile ("MSR primask, %0" : : "r" (priMask) : "memory");
 800604a:	6b3b      	ldr	r3, [r7, #48]	; 0x30
 800604c:	f383 8810 	msr	PRIMASK, r3
}
 8006050:	46c0      	nop			; (mov r8, r8)
  __ASM volatile ("MRS %0, primask" : "=r" (result) :: "memory");
 8006052:	f3ef 8310 	mrs	r3, PRIMASK
 8006056:	637b      	str	r3, [r7, #52]	; 0x34
  return(result);
 8006058:	6b7b      	ldr	r3, [r7, #52]	; 0x34
        ATOMIC_CLEAR_BIT(huart->Instance->CR3, USART_CR3_EIE);
 800605a:	643b      	str	r3, [r7, #64]	; 0x40
 800605c:	2301      	movs	r3, #1
 800605e:	63bb      	str	r3, [r7, #56]	; 0x38
  __ASM volatile ("MSR primask, %0" : : "r" (priMask) : "memory");
 8006060:	6bbb      	ldr	r3, [r7, #56]	; 0x38
 8006062:	f383 8810 	msr	PRIMASK, r3
}
 8006066:	46c0      	nop			; (mov r8, r8)
 8006068:	68fb      	ldr	r3, [r7, #12]
 800606a:	681b      	ldr	r3, [r3, #0]
 800606c:	689a      	ldr	r2, [r3, #8]
 800606e:	68fb      	ldr	r3, [r7, #12]
 8006070:	681b      	ldr	r3, [r3, #0]
 8006072:	2101      	movs	r1, #1
 8006074:	438a      	bics	r2, r1
 8006076:	609a      	str	r2, [r3, #8]
 8006078:	6c3b      	ldr	r3, [r7, #64]	; 0x40
 800607a:	63fb      	str	r3, [r7, #60]	; 0x3c
  __ASM volatile ("MSR primask, %0" : : "r" (priMask) : "memory");
 800607c:	6bfb      	ldr	r3, [r7, #60]	; 0x3c
 800607e:	f383 8810 	msr	PRIMASK, r3
}
 8006082:	46c0      	nop			; (mov r8, r8)

        huart->gState = HAL_UART_STATE_READY;
 8006084:	68fb      	ldr	r3, [r7, #12]
 8006086:	2220      	movs	r2, #32
 8006088:	679a      	str	r2, [r3, #120]	; 0x78
        huart->RxState = HAL_UART_STATE_READY;
 800608a:	68fb      	ldr	r3, [r7, #12]
 800608c:	2220      	movs	r2, #32
 800608e:	67da      	str	r2, [r3, #124]	; 0x7c

        __HAL_UNLOCK(huart);
 8006090:	68fb      	ldr	r3, [r7, #12]
 8006092:	2274      	movs	r2, #116	; 0x74
 8006094:	2100      	movs	r1, #0
 8006096:	5499      	strb	r1, [r3, r2]

        return HAL_TIMEOUT;
 8006098:	2303      	movs	r3, #3
 800609a:	e067      	b.n	800616c <UART_WaitOnFlagUntilTimeout+0x17c>
      }

      if (READ_BIT(huart->Instance->CR1, USART_CR1_RE) != 0U)
 800609c:	68fb      	ldr	r3, [r7, #12]
 800609e:	681b      	ldr	r3, [r3, #0]
 80060a0:	681b      	ldr	r3, [r3, #0]
 80060a2:	2204      	movs	r2, #4
 80060a4:	4013      	ands	r3, r2
 80060a6:	d050      	beq.n	800614a <UART_WaitOnFlagUntilTimeout+0x15a>
      {
        if (__HAL_UART_GET_FLAG(huart, UART_FLAG_RTOF) == SET)
 80060a8:	68fb      	ldr	r3, [r7, #12]
 80060aa:	681b      	ldr	r3, [r3, #0]
 80060ac:	69da      	ldr	r2, [r3, #28]
 80060ae:	2380      	movs	r3, #128	; 0x80
 80060b0:	011b      	lsls	r3, r3, #4
 80060b2:	401a      	ands	r2, r3
 80060b4:	2380      	movs	r3, #128	; 0x80
 80060b6:	011b      	lsls	r3, r3, #4
 80060b8:	429a      	cmp	r2, r3
 80060ba:	d146      	bne.n	800614a <UART_WaitOnFlagUntilTimeout+0x15a>
        {
          /* Clear Receiver Timeout flag*/
          __HAL_UART_CLEAR_FLAG(huart, UART_CLEAR_RTOF);
 80060bc:	68fb      	ldr	r3, [r7, #12]
 80060be:	681b      	ldr	r3, [r3, #0]
 80060c0:	2280      	movs	r2, #128	; 0x80
 80060c2:	0112      	lsls	r2, r2, #4
 80060c4:	621a      	str	r2, [r3, #32]
  __ASM volatile ("MRS %0, primask" : "=r" (result) :: "memory");
 80060c6:	f3ef 8310 	mrs	r3, PRIMASK
 80060ca:	613b      	str	r3, [r7, #16]
  return(result);
 80060cc:	693b      	ldr	r3, [r7, #16]

          /* Disable TXE, RXNE, PE and ERR (Frame error, noise error, overrun error)
             interrupts for the interrupt process */
          ATOMIC_CLEAR_BIT(huart->Instance->CR1, (USART_CR1_RXNEIE | USART_CR1_PEIE | USART_CR1_TXEIE));
 80060ce:	64fb      	str	r3, [r7, #76]	; 0x4c
 80060d0:	2301      	movs	r3, #1
 80060d2:	617b      	str	r3, [r7, #20]
  __ASM volatile ("MSR primask, %0" : : "r" (priMask) : "memory");
 80060d4:	697b      	ldr	r3, [r7, #20]
 80060d6:	f383 8810 	msr	PRIMASK, r3
}
 80060da:	46c0      	nop			; (mov r8, r8)
 80060dc:	68fb      	ldr	r3, [r7, #12]
 80060de:	681b      	ldr	r3, [r3, #0]
 80060e0:	681a      	ldr	r2, [r3, #0]
 80060e2:	68fb      	ldr	r3, [r7, #12]
 80060e4:	681b      	ldr	r3, [r3, #0]
 80060e6:	4923      	ldr	r1, [pc, #140]	; (8006174 <UART_WaitOnFlagUntilTimeout+0x184>)
 80060e8:	400a      	ands	r2, r1
 80060ea:	601a      	str	r2, [r3, #0]
 80060ec:	6cfb      	ldr	r3, [r7, #76]	; 0x4c
 80060ee:	61bb      	str	r3, [r7, #24]
  __ASM volatile ("MSR primask, %0" : : "r" (priMask) : "memory");
 80060f0:	69bb      	ldr	r3, [r7, #24]
 80060f2:	f383 8810 	msr	PRIMASK, r3
}
 80060f6:	46c0      	nop			; (mov r8, r8)
  __ASM volatile ("MRS %0, primask" : "=r" (result) :: "memory");
 80060f8:	f3ef 8310 	mrs	r3, PRIMASK
 80060fc:	61fb      	str	r3, [r7, #28]
  return(result);
 80060fe:	69fb      	ldr	r3, [r7, #28]
          ATOMIC_CLEAR_BIT(huart->Instance->CR3, USART_CR3_EIE);
 8006100:	64bb      	str	r3, [r7, #72]	; 0x48
 8006102:	2301      	movs	r3, #1
 8006104:	623b      	str	r3, [r7, #32]
  __ASM volatile ("MSR primask, %0" : : "r" (priMask) : "memory");
 8006106:	6a3b      	ldr	r3, [r7, #32]
 8006108:	f383 8810 	msr	PRIMASK, r3
}
 800610c:	46c0      	nop			; (mov r8, r8)
 800610e:	68fb      	ldr	r3, [r7, #12]
 8006110:	681b      	ldr	r3, [r3, #0]
 8006112:	689a      	ldr	r2, [r3, #8]
 8006114:	68fb      	ldr	r3, [r7, #12]
 8006116:	681b      	ldr	r3, [r3, #0]
 8006118:	2101      	movs	r1, #1
 800611a:	438a      	bics	r2, r1
 800611c:	609a      	str	r2, [r3, #8]
 800611e:	6cbb      	ldr	r3, [r7, #72]	; 0x48
 8006120:	627b      	str	r3, [r7, #36]	; 0x24
  __ASM volatile ("MSR primask, %0" : : "r" (priMask) : "memory");
 8006122:	6a7b      	ldr	r3, [r7, #36]	; 0x24
 8006124:	f383 8810 	msr	PRIMASK, r3
}
 8006128:	46c0      	nop			; (mov r8, r8)

          huart->gState = HAL_UART_STATE_READY;
 800612a:	68fb      	ldr	r3, [r7, #12]
 800612c:	2220      	movs	r2, #32
 800612e:	679a      	str	r2, [r3, #120]	; 0x78
          huart->RxState = HAL_UART_STATE_READY;
 8006130:	68fb      	ldr	r3, [r7, #12]
 8006132:	2220      	movs	r2, #32
 8006134:	67da      	str	r2, [r3, #124]	; 0x7c
          huart->ErrorCode = HAL_UART_ERROR_RTO;
 8006136:	68fb      	ldr	r3, [r7, #12]
 8006138:	2280      	movs	r2, #128	; 0x80
 800613a:	2120      	movs	r1, #32
 800613c:	5099      	str	r1, [r3, r2]

          /* Process Unlocked */
          __HAL_UNLOCK(huart);
 800613e:	68fb      	ldr	r3, [r7, #12]
 8006140:	2274      	movs	r2, #116	; 0x74
 8006142:	2100      	movs	r1, #0
 8006144:	5499      	strb	r1, [r3, r2]

          return HAL_TIMEOUT;
 8006146:	2303      	movs	r3, #3
 8006148:	e010      	b.n	800616c <UART_WaitOnFlagUntilTimeout+0x17c>
  while ((__HAL_UART_GET_FLAG(huart, Flag) ? SET : RESET) == Status)
 800614a:	68fb      	ldr	r3, [r7, #12]
 800614c:	681b      	ldr	r3, [r3, #0]
 800614e:	69db      	ldr	r3, [r3, #28]
 8006150:	68ba      	ldr	r2, [r7, #8]
 8006152:	4013      	ands	r3, r2
 8006154:	68ba      	ldr	r2, [r7, #8]
 8006156:	1ad3      	subs	r3, r2, r3
 8006158:	425a      	negs	r2, r3
 800615a:	4153      	adcs	r3, r2
 800615c:	b2db      	uxtb	r3, r3
 800615e:	001a      	movs	r2, r3
 8006160:	1dfb      	adds	r3, r7, #7
 8006162:	781b      	ldrb	r3, [r3, #0]
 8006164:	429a      	cmp	r2, r3
 8006166:	d100      	bne.n	800616a <UART_WaitOnFlagUntilTimeout+0x17a>
 8006168:	e74b      	b.n	8006002 <UART_WaitOnFlagUntilTimeout+0x12>
        }
      }
    }
  }
  return HAL_OK;
 800616a:	2300      	movs	r3, #0
}
 800616c:	0018      	movs	r0, r3
 800616e:	46bd      	mov	sp, r7
 8006170:	b014      	add	sp, #80	; 0x50
 8006172:	bd80      	pop	{r7, pc}
 8006174:	fffffe5f 	.word	0xfffffe5f

08006178 <__errno>:
 8006178:	4b01      	ldr	r3, [pc, #4]	; (8006180 <__errno+0x8>)
 800617a:	6818      	ldr	r0, [r3, #0]
 800617c:	4770      	bx	lr
 800617e:	46c0      	nop			; (mov r8, r8)
 8006180:	2000000c 	.word	0x2000000c

08006184 <__libc_init_array>:
 8006184:	b570      	push	{r4, r5, r6, lr}
 8006186:	2600      	movs	r6, #0
 8006188:	4d0c      	ldr	r5, [pc, #48]	; (80061bc <__libc_init_array+0x38>)
 800618a:	4c0d      	ldr	r4, [pc, #52]	; (80061c0 <__libc_init_array+0x3c>)
 800618c:	1b64      	subs	r4, r4, r5
 800618e:	10a4      	asrs	r4, r4, #2
 8006190:	42a6      	cmp	r6, r4
 8006192:	d109      	bne.n	80061a8 <__libc_init_array+0x24>
 8006194:	2600      	movs	r6, #0
 8006196:	f000 fce1 	bl	8006b5c <_init>
 800619a:	4d0a      	ldr	r5, [pc, #40]	; (80061c4 <__libc_init_array+0x40>)
 800619c:	4c0a      	ldr	r4, [pc, #40]	; (80061c8 <__libc_init_array+0x44>)
 800619e:	1b64      	subs	r4, r4, r5
 80061a0:	10a4      	asrs	r4, r4, #2
 80061a2:	42a6      	cmp	r6, r4
 80061a4:	d105      	bne.n	80061b2 <__libc_init_array+0x2e>
 80061a6:	bd70      	pop	{r4, r5, r6, pc}
 80061a8:	00b3      	lsls	r3, r6, #2
 80061aa:	58eb      	ldr	r3, [r5, r3]
 80061ac:	4798      	blx	r3
 80061ae:	3601      	adds	r6, #1
 80061b0:	e7ee      	b.n	8006190 <__libc_init_array+0xc>
 80061b2:	00b3      	lsls	r3, r6, #2
 80061b4:	58eb      	ldr	r3, [r5, r3]
 80061b6:	4798      	blx	r3
 80061b8:	3601      	adds	r6, #1
 80061ba:	e7f2      	b.n	80061a2 <__libc_init_array+0x1e>
 80061bc:	08006d3c 	.word	0x08006d3c
 80061c0:	08006d3c 	.word	0x08006d3c
 80061c4:	08006d3c 	.word	0x08006d3c
 80061c8:	08006d40 	.word	0x08006d40

080061cc <malloc>:
 80061cc:	b510      	push	{r4, lr}
 80061ce:	4b03      	ldr	r3, [pc, #12]	; (80061dc <malloc+0x10>)
 80061d0:	0001      	movs	r1, r0
 80061d2:	6818      	ldr	r0, [r3, #0]
 80061d4:	f000 f882 	bl	80062dc <_malloc_r>
 80061d8:	bd10      	pop	{r4, pc}
 80061da:	46c0      	nop			; (mov r8, r8)
 80061dc:	2000000c 	.word	0x2000000c

080061e0 <memcpy>:
 80061e0:	2300      	movs	r3, #0
 80061e2:	b510      	push	{r4, lr}
 80061e4:	429a      	cmp	r2, r3
 80061e6:	d100      	bne.n	80061ea <memcpy+0xa>
 80061e8:	bd10      	pop	{r4, pc}
 80061ea:	5ccc      	ldrb	r4, [r1, r3]
 80061ec:	54c4      	strb	r4, [r0, r3]
 80061ee:	3301      	adds	r3, #1
 80061f0:	e7f8      	b.n	80061e4 <memcpy+0x4>

080061f2 <memset>:
 80061f2:	0003      	movs	r3, r0
 80061f4:	1882      	adds	r2, r0, r2
 80061f6:	4293      	cmp	r3, r2
 80061f8:	d100      	bne.n	80061fc <memset+0xa>
 80061fa:	4770      	bx	lr
 80061fc:	7019      	strb	r1, [r3, #0]
 80061fe:	3301      	adds	r3, #1
 8006200:	e7f9      	b.n	80061f6 <memset+0x4>
	...

08006204 <_free_r>:
 8006204:	b570      	push	{r4, r5, r6, lr}
 8006206:	0005      	movs	r5, r0
 8006208:	2900      	cmp	r1, #0
 800620a:	d010      	beq.n	800622e <_free_r+0x2a>
 800620c:	1f0c      	subs	r4, r1, #4
 800620e:	6823      	ldr	r3, [r4, #0]
 8006210:	2b00      	cmp	r3, #0
 8006212:	da00      	bge.n	8006216 <_free_r+0x12>
 8006214:	18e4      	adds	r4, r4, r3
 8006216:	0028      	movs	r0, r5
 8006218:	f000 f954 	bl	80064c4 <__malloc_lock>
 800621c:	4a1d      	ldr	r2, [pc, #116]	; (8006294 <_free_r+0x90>)
 800621e:	6813      	ldr	r3, [r2, #0]
 8006220:	2b00      	cmp	r3, #0
 8006222:	d105      	bne.n	8006230 <_free_r+0x2c>
 8006224:	6063      	str	r3, [r4, #4]
 8006226:	6014      	str	r4, [r2, #0]
 8006228:	0028      	movs	r0, r5
 800622a:	f000 f953 	bl	80064d4 <__malloc_unlock>
 800622e:	bd70      	pop	{r4, r5, r6, pc}
 8006230:	42a3      	cmp	r3, r4
 8006232:	d908      	bls.n	8006246 <_free_r+0x42>
 8006234:	6821      	ldr	r1, [r4, #0]
 8006236:	1860      	adds	r0, r4, r1
 8006238:	4283      	cmp	r3, r0
 800623a:	d1f3      	bne.n	8006224 <_free_r+0x20>
 800623c:	6818      	ldr	r0, [r3, #0]
 800623e:	685b      	ldr	r3, [r3, #4]
 8006240:	1841      	adds	r1, r0, r1
 8006242:	6021      	str	r1, [r4, #0]
 8006244:	e7ee      	b.n	8006224 <_free_r+0x20>
 8006246:	001a      	movs	r2, r3
 8006248:	685b      	ldr	r3, [r3, #4]
 800624a:	2b00      	cmp	r3, #0
 800624c:	d001      	beq.n	8006252 <_free_r+0x4e>
 800624e:	42a3      	cmp	r3, r4
 8006250:	d9f9      	bls.n	8006246 <_free_r+0x42>
 8006252:	6811      	ldr	r1, [r2, #0]
 8006254:	1850      	adds	r0, r2, r1
 8006256:	42a0      	cmp	r0, r4
 8006258:	d10b      	bne.n	8006272 <_free_r+0x6e>
 800625a:	6820      	ldr	r0, [r4, #0]
 800625c:	1809      	adds	r1, r1, r0
 800625e:	1850      	adds	r0, r2, r1
 8006260:	6011      	str	r1, [r2, #0]
 8006262:	4283      	cmp	r3, r0
 8006264:	d1e0      	bne.n	8006228 <_free_r+0x24>
 8006266:	6818      	ldr	r0, [r3, #0]
 8006268:	685b      	ldr	r3, [r3, #4]
 800626a:	1841      	adds	r1, r0, r1
 800626c:	6011      	str	r1, [r2, #0]
 800626e:	6053      	str	r3, [r2, #4]
 8006270:	e7da      	b.n	8006228 <_free_r+0x24>
 8006272:	42a0      	cmp	r0, r4
 8006274:	d902      	bls.n	800627c <_free_r+0x78>
 8006276:	230c      	movs	r3, #12
 8006278:	602b      	str	r3, [r5, #0]
 800627a:	e7d5      	b.n	8006228 <_free_r+0x24>
 800627c:	6821      	ldr	r1, [r4, #0]
 800627e:	1860      	adds	r0, r4, r1
 8006280:	4283      	cmp	r3, r0
 8006282:	d103      	bne.n	800628c <_free_r+0x88>
 8006284:	6818      	ldr	r0, [r3, #0]
 8006286:	685b      	ldr	r3, [r3, #4]
 8006288:	1841      	adds	r1, r0, r1
 800628a:	6021      	str	r1, [r4, #0]
 800628c:	6063      	str	r3, [r4, #4]
 800628e:	6054      	str	r4, [r2, #4]
 8006290:	e7ca      	b.n	8006228 <_free_r+0x24>
 8006292:	46c0      	nop			; (mov r8, r8)
 8006294:	200001cc 	.word	0x200001cc

08006298 <sbrk_aligned>:
 8006298:	b570      	push	{r4, r5, r6, lr}
 800629a:	4e0f      	ldr	r6, [pc, #60]	; (80062d8 <sbrk_aligned+0x40>)
 800629c:	000d      	movs	r5, r1
 800629e:	6831      	ldr	r1, [r6, #0]
 80062a0:	0004      	movs	r4, r0
 80062a2:	2900      	cmp	r1, #0
 80062a4:	d102      	bne.n	80062ac <sbrk_aligned+0x14>
 80062a6:	f000 f88f 	bl	80063c8 <_sbrk_r>
 80062aa:	6030      	str	r0, [r6, #0]
 80062ac:	0029      	movs	r1, r5
 80062ae:	0020      	movs	r0, r4
 80062b0:	f000 f88a 	bl	80063c8 <_sbrk_r>
 80062b4:	1c43      	adds	r3, r0, #1
 80062b6:	d00a      	beq.n	80062ce <sbrk_aligned+0x36>
 80062b8:	2303      	movs	r3, #3
 80062ba:	1cc5      	adds	r5, r0, #3
 80062bc:	439d      	bics	r5, r3
 80062be:	42a8      	cmp	r0, r5
 80062c0:	d007      	beq.n	80062d2 <sbrk_aligned+0x3a>
 80062c2:	1a29      	subs	r1, r5, r0
 80062c4:	0020      	movs	r0, r4
 80062c6:	f000 f87f 	bl	80063c8 <_sbrk_r>
 80062ca:	1c43      	adds	r3, r0, #1
 80062cc:	d101      	bne.n	80062d2 <sbrk_aligned+0x3a>
 80062ce:	2501      	movs	r5, #1
 80062d0:	426d      	negs	r5, r5
 80062d2:	0028      	movs	r0, r5
 80062d4:	bd70      	pop	{r4, r5, r6, pc}
 80062d6:	46c0      	nop			; (mov r8, r8)
 80062d8:	200001d0 	.word	0x200001d0

080062dc <_malloc_r>:
 80062dc:	b5f7      	push	{r0, r1, r2, r4, r5, r6, r7, lr}
 80062de:	2203      	movs	r2, #3
 80062e0:	1ccb      	adds	r3, r1, #3
 80062e2:	4393      	bics	r3, r2
 80062e4:	3308      	adds	r3, #8
 80062e6:	0006      	movs	r6, r0
 80062e8:	001f      	movs	r7, r3
 80062ea:	2b0c      	cmp	r3, #12
 80062ec:	d232      	bcs.n	8006354 <_malloc_r+0x78>
 80062ee:	270c      	movs	r7, #12
 80062f0:	42b9      	cmp	r1, r7
 80062f2:	d831      	bhi.n	8006358 <_malloc_r+0x7c>
 80062f4:	0030      	movs	r0, r6
 80062f6:	f000 f8e5 	bl	80064c4 <__malloc_lock>
 80062fa:	4d32      	ldr	r5, [pc, #200]	; (80063c4 <_malloc_r+0xe8>)
 80062fc:	682b      	ldr	r3, [r5, #0]
 80062fe:	001c      	movs	r4, r3
 8006300:	2c00      	cmp	r4, #0
 8006302:	d12e      	bne.n	8006362 <_malloc_r+0x86>
 8006304:	0039      	movs	r1, r7
 8006306:	0030      	movs	r0, r6
 8006308:	f7ff ffc6 	bl	8006298 <sbrk_aligned>
 800630c:	0004      	movs	r4, r0
 800630e:	1c43      	adds	r3, r0, #1
 8006310:	d11e      	bne.n	8006350 <_malloc_r+0x74>
 8006312:	682c      	ldr	r4, [r5, #0]
 8006314:	0025      	movs	r5, r4
 8006316:	2d00      	cmp	r5, #0
 8006318:	d14a      	bne.n	80063b0 <_malloc_r+0xd4>
 800631a:	6823      	ldr	r3, [r4, #0]
 800631c:	0029      	movs	r1, r5
 800631e:	18e3      	adds	r3, r4, r3
 8006320:	0030      	movs	r0, r6
 8006322:	9301      	str	r3, [sp, #4]
 8006324:	f000 f850 	bl	80063c8 <_sbrk_r>
 8006328:	9b01      	ldr	r3, [sp, #4]
 800632a:	4283      	cmp	r3, r0
 800632c:	d143      	bne.n	80063b6 <_malloc_r+0xda>
 800632e:	6823      	ldr	r3, [r4, #0]
 8006330:	3703      	adds	r7, #3
 8006332:	1aff      	subs	r7, r7, r3
 8006334:	2303      	movs	r3, #3
 8006336:	439f      	bics	r7, r3
 8006338:	3708      	adds	r7, #8
 800633a:	2f0c      	cmp	r7, #12
 800633c:	d200      	bcs.n	8006340 <_malloc_r+0x64>
 800633e:	270c      	movs	r7, #12
 8006340:	0039      	movs	r1, r7
 8006342:	0030      	movs	r0, r6
 8006344:	f7ff ffa8 	bl	8006298 <sbrk_aligned>
 8006348:	1c43      	adds	r3, r0, #1
 800634a:	d034      	beq.n	80063b6 <_malloc_r+0xda>
 800634c:	6823      	ldr	r3, [r4, #0]
 800634e:	19df      	adds	r7, r3, r7
 8006350:	6027      	str	r7, [r4, #0]
 8006352:	e013      	b.n	800637c <_malloc_r+0xa0>
 8006354:	2b00      	cmp	r3, #0
 8006356:	dacb      	bge.n	80062f0 <_malloc_r+0x14>
 8006358:	230c      	movs	r3, #12
 800635a:	2500      	movs	r5, #0
 800635c:	6033      	str	r3, [r6, #0]
 800635e:	0028      	movs	r0, r5
 8006360:	bdfe      	pop	{r1, r2, r3, r4, r5, r6, r7, pc}
 8006362:	6822      	ldr	r2, [r4, #0]
 8006364:	1bd1      	subs	r1, r2, r7
 8006366:	d420      	bmi.n	80063aa <_malloc_r+0xce>
 8006368:	290b      	cmp	r1, #11
 800636a:	d917      	bls.n	800639c <_malloc_r+0xc0>
 800636c:	19e2      	adds	r2, r4, r7
 800636e:	6027      	str	r7, [r4, #0]
 8006370:	42a3      	cmp	r3, r4
 8006372:	d111      	bne.n	8006398 <_malloc_r+0xbc>
 8006374:	602a      	str	r2, [r5, #0]
 8006376:	6863      	ldr	r3, [r4, #4]
 8006378:	6011      	str	r1, [r2, #0]
 800637a:	6053      	str	r3, [r2, #4]
 800637c:	0030      	movs	r0, r6
 800637e:	0025      	movs	r5, r4
 8006380:	f000 f8a8 	bl	80064d4 <__malloc_unlock>
 8006384:	2207      	movs	r2, #7
 8006386:	350b      	adds	r5, #11
 8006388:	1d23      	adds	r3, r4, #4
 800638a:	4395      	bics	r5, r2
 800638c:	1aea      	subs	r2, r5, r3
 800638e:	429d      	cmp	r5, r3
 8006390:	d0e5      	beq.n	800635e <_malloc_r+0x82>
 8006392:	1b5b      	subs	r3, r3, r5
 8006394:	50a3      	str	r3, [r4, r2]
 8006396:	e7e2      	b.n	800635e <_malloc_r+0x82>
 8006398:	605a      	str	r2, [r3, #4]
 800639a:	e7ec      	b.n	8006376 <_malloc_r+0x9a>
 800639c:	6862      	ldr	r2, [r4, #4]
 800639e:	42a3      	cmp	r3, r4
 80063a0:	d101      	bne.n	80063a6 <_malloc_r+0xca>
 80063a2:	602a      	str	r2, [r5, #0]
 80063a4:	e7ea      	b.n	800637c <_malloc_r+0xa0>
 80063a6:	605a      	str	r2, [r3, #4]
 80063a8:	e7e8      	b.n	800637c <_malloc_r+0xa0>
 80063aa:	0023      	movs	r3, r4
 80063ac:	6864      	ldr	r4, [r4, #4]
 80063ae:	e7a7      	b.n	8006300 <_malloc_r+0x24>
 80063b0:	002c      	movs	r4, r5
 80063b2:	686d      	ldr	r5, [r5, #4]
 80063b4:	e7af      	b.n	8006316 <_malloc_r+0x3a>
 80063b6:	230c      	movs	r3, #12
 80063b8:	0030      	movs	r0, r6
 80063ba:	6033      	str	r3, [r6, #0]
 80063bc:	f000 f88a 	bl	80064d4 <__malloc_unlock>
 80063c0:	e7cd      	b.n	800635e <_malloc_r+0x82>
 80063c2:	46c0      	nop			; (mov r8, r8)
 80063c4:	200001cc 	.word	0x200001cc

080063c8 <_sbrk_r>:
 80063c8:	2300      	movs	r3, #0
 80063ca:	b570      	push	{r4, r5, r6, lr}
 80063cc:	4d06      	ldr	r5, [pc, #24]	; (80063e8 <_sbrk_r+0x20>)
 80063ce:	0004      	movs	r4, r0
 80063d0:	0008      	movs	r0, r1
 80063d2:	602b      	str	r3, [r5, #0]
 80063d4:	f7fd f868 	bl	80034a8 <_sbrk>
 80063d8:	1c43      	adds	r3, r0, #1
 80063da:	d103      	bne.n	80063e4 <_sbrk_r+0x1c>
 80063dc:	682b      	ldr	r3, [r5, #0]
 80063de:	2b00      	cmp	r3, #0
 80063e0:	d000      	beq.n	80063e4 <_sbrk_r+0x1c>
 80063e2:	6023      	str	r3, [r4, #0]
 80063e4:	bd70      	pop	{r4, r5, r6, pc}
 80063e6:	46c0      	nop			; (mov r8, r8)
 80063e8:	200001d4 	.word	0x200001d4

080063ec <sniprintf>:
 80063ec:	b40c      	push	{r2, r3}
 80063ee:	b530      	push	{r4, r5, lr}
 80063f0:	4b17      	ldr	r3, [pc, #92]	; (8006450 <sniprintf+0x64>)
 80063f2:	000c      	movs	r4, r1
 80063f4:	681d      	ldr	r5, [r3, #0]
 80063f6:	b09d      	sub	sp, #116	; 0x74
 80063f8:	2900      	cmp	r1, #0
 80063fa:	da08      	bge.n	800640e <sniprintf+0x22>
 80063fc:	238b      	movs	r3, #139	; 0x8b
 80063fe:	2001      	movs	r0, #1
 8006400:	602b      	str	r3, [r5, #0]
 8006402:	4240      	negs	r0, r0
 8006404:	b01d      	add	sp, #116	; 0x74
 8006406:	bc30      	pop	{r4, r5}
 8006408:	bc08      	pop	{r3}
 800640a:	b002      	add	sp, #8
 800640c:	4718      	bx	r3
 800640e:	2382      	movs	r3, #130	; 0x82
 8006410:	466a      	mov	r2, sp
 8006412:	009b      	lsls	r3, r3, #2
 8006414:	8293      	strh	r3, [r2, #20]
 8006416:	2300      	movs	r3, #0
 8006418:	9002      	str	r0, [sp, #8]
 800641a:	9006      	str	r0, [sp, #24]
 800641c:	4299      	cmp	r1, r3
 800641e:	d000      	beq.n	8006422 <sniprintf+0x36>
 8006420:	1e4b      	subs	r3, r1, #1
 8006422:	9304      	str	r3, [sp, #16]
 8006424:	9307      	str	r3, [sp, #28]
 8006426:	2301      	movs	r3, #1
 8006428:	466a      	mov	r2, sp
 800642a:	425b      	negs	r3, r3
 800642c:	82d3      	strh	r3, [r2, #22]
 800642e:	0028      	movs	r0, r5
 8006430:	ab21      	add	r3, sp, #132	; 0x84
 8006432:	9a20      	ldr	r2, [sp, #128]	; 0x80
 8006434:	a902      	add	r1, sp, #8
 8006436:	9301      	str	r3, [sp, #4]
 8006438:	f000 f8b6 	bl	80065a8 <_svfiprintf_r>
 800643c:	1c43      	adds	r3, r0, #1
 800643e:	da01      	bge.n	8006444 <sniprintf+0x58>
 8006440:	238b      	movs	r3, #139	; 0x8b
 8006442:	602b      	str	r3, [r5, #0]
 8006444:	2c00      	cmp	r4, #0
 8006446:	d0dd      	beq.n	8006404 <sniprintf+0x18>
 8006448:	2300      	movs	r3, #0
 800644a:	9a02      	ldr	r2, [sp, #8]
 800644c:	7013      	strb	r3, [r2, #0]
 800644e:	e7d9      	b.n	8006404 <sniprintf+0x18>
 8006450:	2000000c 	.word	0x2000000c

08006454 <_vsniprintf_r>:
 8006454:	b530      	push	{r4, r5, lr}
 8006456:	0014      	movs	r4, r2
 8006458:	0005      	movs	r5, r0
 800645a:	001a      	movs	r2, r3
 800645c:	b09b      	sub	sp, #108	; 0x6c
 800645e:	2c00      	cmp	r4, #0
 8006460:	da05      	bge.n	800646e <_vsniprintf_r+0x1a>
 8006462:	238b      	movs	r3, #139	; 0x8b
 8006464:	6003      	str	r3, [r0, #0]
 8006466:	2001      	movs	r0, #1
 8006468:	4240      	negs	r0, r0
 800646a:	b01b      	add	sp, #108	; 0x6c
 800646c:	bd30      	pop	{r4, r5, pc}
 800646e:	2382      	movs	r3, #130	; 0x82
 8006470:	4668      	mov	r0, sp
 8006472:	009b      	lsls	r3, r3, #2
 8006474:	8183      	strh	r3, [r0, #12]
 8006476:	2300      	movs	r3, #0
 8006478:	9100      	str	r1, [sp, #0]
 800647a:	9104      	str	r1, [sp, #16]
 800647c:	429c      	cmp	r4, r3
 800647e:	d000      	beq.n	8006482 <_vsniprintf_r+0x2e>
 8006480:	1e63      	subs	r3, r4, #1
 8006482:	9302      	str	r3, [sp, #8]
 8006484:	9305      	str	r3, [sp, #20]
 8006486:	2301      	movs	r3, #1
 8006488:	4669      	mov	r1, sp
 800648a:	425b      	negs	r3, r3
 800648c:	81cb      	strh	r3, [r1, #14]
 800648e:	0028      	movs	r0, r5
 8006490:	9b1e      	ldr	r3, [sp, #120]	; 0x78
 8006492:	f000 f889 	bl	80065a8 <_svfiprintf_r>
 8006496:	1c43      	adds	r3, r0, #1
 8006498:	da01      	bge.n	800649e <_vsniprintf_r+0x4a>
 800649a:	238b      	movs	r3, #139	; 0x8b
 800649c:	602b      	str	r3, [r5, #0]
 800649e:	2c00      	cmp	r4, #0
 80064a0:	d0e3      	beq.n	800646a <_vsniprintf_r+0x16>
 80064a2:	2300      	movs	r3, #0
 80064a4:	9a00      	ldr	r2, [sp, #0]
 80064a6:	7013      	strb	r3, [r2, #0]
 80064a8:	e7df      	b.n	800646a <_vsniprintf_r+0x16>
	...

080064ac <vsniprintf>:
 80064ac:	b507      	push	{r0, r1, r2, lr}
 80064ae:	9300      	str	r3, [sp, #0]
 80064b0:	0013      	movs	r3, r2
 80064b2:	000a      	movs	r2, r1
 80064b4:	0001      	movs	r1, r0
 80064b6:	4802      	ldr	r0, [pc, #8]	; (80064c0 <vsniprintf+0x14>)
 80064b8:	6800      	ldr	r0, [r0, #0]
 80064ba:	f7ff ffcb 	bl	8006454 <_vsniprintf_r>
 80064be:	bd0e      	pop	{r1, r2, r3, pc}
 80064c0:	2000000c 	.word	0x2000000c

080064c4 <__malloc_lock>:
 80064c4:	b510      	push	{r4, lr}
 80064c6:	4802      	ldr	r0, [pc, #8]	; (80064d0 <__malloc_lock+0xc>)
 80064c8:	f000 faf0 	bl	8006aac <__retarget_lock_acquire_recursive>
 80064cc:	bd10      	pop	{r4, pc}
 80064ce:	46c0      	nop			; (mov r8, r8)
 80064d0:	200001d8 	.word	0x200001d8

080064d4 <__malloc_unlock>:
 80064d4:	b510      	push	{r4, lr}
 80064d6:	4802      	ldr	r0, [pc, #8]	; (80064e0 <__malloc_unlock+0xc>)
 80064d8:	f000 fae9 	bl	8006aae <__retarget_lock_release_recursive>
 80064dc:	bd10      	pop	{r4, pc}
 80064de:	46c0      	nop			; (mov r8, r8)
 80064e0:	200001d8 	.word	0x200001d8

080064e4 <__ssputs_r>:
 80064e4:	b5f0      	push	{r4, r5, r6, r7, lr}
 80064e6:	688e      	ldr	r6, [r1, #8]
 80064e8:	b085      	sub	sp, #20
 80064ea:	0007      	movs	r7, r0
 80064ec:	000c      	movs	r4, r1
 80064ee:	9203      	str	r2, [sp, #12]
 80064f0:	9301      	str	r3, [sp, #4]
 80064f2:	429e      	cmp	r6, r3
 80064f4:	d83c      	bhi.n	8006570 <__ssputs_r+0x8c>
 80064f6:	2390      	movs	r3, #144	; 0x90
 80064f8:	898a      	ldrh	r2, [r1, #12]
 80064fa:	00db      	lsls	r3, r3, #3
 80064fc:	421a      	tst	r2, r3
 80064fe:	d034      	beq.n	800656a <__ssputs_r+0x86>
 8006500:	6909      	ldr	r1, [r1, #16]
 8006502:	6823      	ldr	r3, [r4, #0]
 8006504:	6960      	ldr	r0, [r4, #20]
 8006506:	1a5b      	subs	r3, r3, r1
 8006508:	9302      	str	r3, [sp, #8]
 800650a:	2303      	movs	r3, #3
 800650c:	4343      	muls	r3, r0
 800650e:	0fdd      	lsrs	r5, r3, #31
 8006510:	18ed      	adds	r5, r5, r3
 8006512:	9b01      	ldr	r3, [sp, #4]
 8006514:	9802      	ldr	r0, [sp, #8]
 8006516:	3301      	adds	r3, #1
 8006518:	181b      	adds	r3, r3, r0
 800651a:	106d      	asrs	r5, r5, #1
 800651c:	42ab      	cmp	r3, r5
 800651e:	d900      	bls.n	8006522 <__ssputs_r+0x3e>
 8006520:	001d      	movs	r5, r3
 8006522:	0553      	lsls	r3, r2, #21
 8006524:	d532      	bpl.n	800658c <__ssputs_r+0xa8>
 8006526:	0029      	movs	r1, r5
 8006528:	0038      	movs	r0, r7
 800652a:	f7ff fed7 	bl	80062dc <_malloc_r>
 800652e:	1e06      	subs	r6, r0, #0
 8006530:	d109      	bne.n	8006546 <__ssputs_r+0x62>
 8006532:	230c      	movs	r3, #12
 8006534:	603b      	str	r3, [r7, #0]
 8006536:	2340      	movs	r3, #64	; 0x40
 8006538:	2001      	movs	r0, #1
 800653a:	89a2      	ldrh	r2, [r4, #12]
 800653c:	4240      	negs	r0, r0
 800653e:	4313      	orrs	r3, r2
 8006540:	81a3      	strh	r3, [r4, #12]
 8006542:	b005      	add	sp, #20
 8006544:	bdf0      	pop	{r4, r5, r6, r7, pc}
 8006546:	9a02      	ldr	r2, [sp, #8]
 8006548:	6921      	ldr	r1, [r4, #16]
 800654a:	f7ff fe49 	bl	80061e0 <memcpy>
 800654e:	89a3      	ldrh	r3, [r4, #12]
 8006550:	4a14      	ldr	r2, [pc, #80]	; (80065a4 <__ssputs_r+0xc0>)
 8006552:	401a      	ands	r2, r3
 8006554:	2380      	movs	r3, #128	; 0x80
 8006556:	4313      	orrs	r3, r2
 8006558:	81a3      	strh	r3, [r4, #12]
 800655a:	9b02      	ldr	r3, [sp, #8]
 800655c:	6126      	str	r6, [r4, #16]
 800655e:	18f6      	adds	r6, r6, r3
 8006560:	6026      	str	r6, [r4, #0]
 8006562:	6165      	str	r5, [r4, #20]
 8006564:	9e01      	ldr	r6, [sp, #4]
 8006566:	1aed      	subs	r5, r5, r3
 8006568:	60a5      	str	r5, [r4, #8]
 800656a:	9b01      	ldr	r3, [sp, #4]
 800656c:	429e      	cmp	r6, r3
 800656e:	d900      	bls.n	8006572 <__ssputs_r+0x8e>
 8006570:	9e01      	ldr	r6, [sp, #4]
 8006572:	0032      	movs	r2, r6
 8006574:	9903      	ldr	r1, [sp, #12]
 8006576:	6820      	ldr	r0, [r4, #0]
 8006578:	f000 faa5 	bl	8006ac6 <memmove>
 800657c:	68a3      	ldr	r3, [r4, #8]
 800657e:	2000      	movs	r0, #0
 8006580:	1b9b      	subs	r3, r3, r6
 8006582:	60a3      	str	r3, [r4, #8]
 8006584:	6823      	ldr	r3, [r4, #0]
 8006586:	199e      	adds	r6, r3, r6
 8006588:	6026      	str	r6, [r4, #0]
 800658a:	e7da      	b.n	8006542 <__ssputs_r+0x5e>
 800658c:	002a      	movs	r2, r5
 800658e:	0038      	movs	r0, r7
 8006590:	f000 faac 	bl	8006aec <_realloc_r>
 8006594:	1e06      	subs	r6, r0, #0
 8006596:	d1e0      	bne.n	800655a <__ssputs_r+0x76>
 8006598:	0038      	movs	r0, r7
 800659a:	6921      	ldr	r1, [r4, #16]
 800659c:	f7ff fe32 	bl	8006204 <_free_r>
 80065a0:	e7c7      	b.n	8006532 <__ssputs_r+0x4e>
 80065a2:	46c0      	nop			; (mov r8, r8)
 80065a4:	fffffb7f 	.word	0xfffffb7f

080065a8 <_svfiprintf_r>:
 80065a8:	b5f0      	push	{r4, r5, r6, r7, lr}
 80065aa:	b0a1      	sub	sp, #132	; 0x84
 80065ac:	9003      	str	r0, [sp, #12]
 80065ae:	001d      	movs	r5, r3
 80065b0:	898b      	ldrh	r3, [r1, #12]
 80065b2:	000f      	movs	r7, r1
 80065b4:	0016      	movs	r6, r2
 80065b6:	061b      	lsls	r3, r3, #24
 80065b8:	d511      	bpl.n	80065de <_svfiprintf_r+0x36>
 80065ba:	690b      	ldr	r3, [r1, #16]
 80065bc:	2b00      	cmp	r3, #0
 80065be:	d10e      	bne.n	80065de <_svfiprintf_r+0x36>
 80065c0:	2140      	movs	r1, #64	; 0x40
 80065c2:	f7ff fe8b 	bl	80062dc <_malloc_r>
 80065c6:	6038      	str	r0, [r7, #0]
 80065c8:	6138      	str	r0, [r7, #16]
 80065ca:	2800      	cmp	r0, #0
 80065cc:	d105      	bne.n	80065da <_svfiprintf_r+0x32>
 80065ce:	230c      	movs	r3, #12
 80065d0:	9a03      	ldr	r2, [sp, #12]
 80065d2:	3801      	subs	r0, #1
 80065d4:	6013      	str	r3, [r2, #0]
 80065d6:	b021      	add	sp, #132	; 0x84
 80065d8:	bdf0      	pop	{r4, r5, r6, r7, pc}
 80065da:	2340      	movs	r3, #64	; 0x40
 80065dc:	617b      	str	r3, [r7, #20]
 80065de:	2300      	movs	r3, #0
 80065e0:	ac08      	add	r4, sp, #32
 80065e2:	6163      	str	r3, [r4, #20]
 80065e4:	3320      	adds	r3, #32
 80065e6:	7663      	strb	r3, [r4, #25]
 80065e8:	3310      	adds	r3, #16
 80065ea:	76a3      	strb	r3, [r4, #26]
 80065ec:	9507      	str	r5, [sp, #28]
 80065ee:	0035      	movs	r5, r6
 80065f0:	782b      	ldrb	r3, [r5, #0]
 80065f2:	2b00      	cmp	r3, #0
 80065f4:	d001      	beq.n	80065fa <_svfiprintf_r+0x52>
 80065f6:	2b25      	cmp	r3, #37	; 0x25
 80065f8:	d147      	bne.n	800668a <_svfiprintf_r+0xe2>
 80065fa:	1bab      	subs	r3, r5, r6
 80065fc:	9305      	str	r3, [sp, #20]
 80065fe:	42b5      	cmp	r5, r6
 8006600:	d00c      	beq.n	800661c <_svfiprintf_r+0x74>
 8006602:	0032      	movs	r2, r6
 8006604:	0039      	movs	r1, r7
 8006606:	9803      	ldr	r0, [sp, #12]
 8006608:	f7ff ff6c 	bl	80064e4 <__ssputs_r>
 800660c:	1c43      	adds	r3, r0, #1
 800660e:	d100      	bne.n	8006612 <_svfiprintf_r+0x6a>
 8006610:	e0ae      	b.n	8006770 <_svfiprintf_r+0x1c8>
 8006612:	6962      	ldr	r2, [r4, #20]
 8006614:	9b05      	ldr	r3, [sp, #20]
 8006616:	4694      	mov	ip, r2
 8006618:	4463      	add	r3, ip
 800661a:	6163      	str	r3, [r4, #20]
 800661c:	782b      	ldrb	r3, [r5, #0]
 800661e:	2b00      	cmp	r3, #0
 8006620:	d100      	bne.n	8006624 <_svfiprintf_r+0x7c>
 8006622:	e0a5      	b.n	8006770 <_svfiprintf_r+0x1c8>
 8006624:	2201      	movs	r2, #1
 8006626:	2300      	movs	r3, #0
 8006628:	4252      	negs	r2, r2
 800662a:	6062      	str	r2, [r4, #4]
 800662c:	a904      	add	r1, sp, #16
 800662e:	3254      	adds	r2, #84	; 0x54
 8006630:	1852      	adds	r2, r2, r1
 8006632:	1c6e      	adds	r6, r5, #1
 8006634:	6023      	str	r3, [r4, #0]
 8006636:	60e3      	str	r3, [r4, #12]
 8006638:	60a3      	str	r3, [r4, #8]
 800663a:	7013      	strb	r3, [r2, #0]
 800663c:	65a3      	str	r3, [r4, #88]	; 0x58
 800663e:	2205      	movs	r2, #5
 8006640:	7831      	ldrb	r1, [r6, #0]
 8006642:	4854      	ldr	r0, [pc, #336]	; (8006794 <_svfiprintf_r+0x1ec>)
 8006644:	f000 fa34 	bl	8006ab0 <memchr>
 8006648:	1c75      	adds	r5, r6, #1
 800664a:	2800      	cmp	r0, #0
 800664c:	d11f      	bne.n	800668e <_svfiprintf_r+0xe6>
 800664e:	6822      	ldr	r2, [r4, #0]
 8006650:	06d3      	lsls	r3, r2, #27
 8006652:	d504      	bpl.n	800665e <_svfiprintf_r+0xb6>
 8006654:	2353      	movs	r3, #83	; 0x53
 8006656:	a904      	add	r1, sp, #16
 8006658:	185b      	adds	r3, r3, r1
 800665a:	2120      	movs	r1, #32
 800665c:	7019      	strb	r1, [r3, #0]
 800665e:	0713      	lsls	r3, r2, #28
 8006660:	d504      	bpl.n	800666c <_svfiprintf_r+0xc4>
 8006662:	2353      	movs	r3, #83	; 0x53
 8006664:	a904      	add	r1, sp, #16
 8006666:	185b      	adds	r3, r3, r1
 8006668:	212b      	movs	r1, #43	; 0x2b
 800666a:	7019      	strb	r1, [r3, #0]
 800666c:	7833      	ldrb	r3, [r6, #0]
 800666e:	2b2a      	cmp	r3, #42	; 0x2a
 8006670:	d016      	beq.n	80066a0 <_svfiprintf_r+0xf8>
 8006672:	0035      	movs	r5, r6
 8006674:	2100      	movs	r1, #0
 8006676:	200a      	movs	r0, #10
 8006678:	68e3      	ldr	r3, [r4, #12]
 800667a:	782a      	ldrb	r2, [r5, #0]
 800667c:	1c6e      	adds	r6, r5, #1
 800667e:	3a30      	subs	r2, #48	; 0x30
 8006680:	2a09      	cmp	r2, #9
 8006682:	d94e      	bls.n	8006722 <_svfiprintf_r+0x17a>
 8006684:	2900      	cmp	r1, #0
 8006686:	d111      	bne.n	80066ac <_svfiprintf_r+0x104>
 8006688:	e017      	b.n	80066ba <_svfiprintf_r+0x112>
 800668a:	3501      	adds	r5, #1
 800668c:	e7b0      	b.n	80065f0 <_svfiprintf_r+0x48>
 800668e:	4b41      	ldr	r3, [pc, #260]	; (8006794 <_svfiprintf_r+0x1ec>)
 8006690:	6822      	ldr	r2, [r4, #0]
 8006692:	1ac0      	subs	r0, r0, r3
 8006694:	2301      	movs	r3, #1
 8006696:	4083      	lsls	r3, r0
 8006698:	4313      	orrs	r3, r2
 800669a:	002e      	movs	r6, r5
 800669c:	6023      	str	r3, [r4, #0]
 800669e:	e7ce      	b.n	800663e <_svfiprintf_r+0x96>
 80066a0:	9b07      	ldr	r3, [sp, #28]
 80066a2:	1d19      	adds	r1, r3, #4
 80066a4:	681b      	ldr	r3, [r3, #0]
 80066a6:	9107      	str	r1, [sp, #28]
 80066a8:	2b00      	cmp	r3, #0
 80066aa:	db01      	blt.n	80066b0 <_svfiprintf_r+0x108>
 80066ac:	930b      	str	r3, [sp, #44]	; 0x2c
 80066ae:	e004      	b.n	80066ba <_svfiprintf_r+0x112>
 80066b0:	425b      	negs	r3, r3
 80066b2:	60e3      	str	r3, [r4, #12]
 80066b4:	2302      	movs	r3, #2
 80066b6:	4313      	orrs	r3, r2
 80066b8:	6023      	str	r3, [r4, #0]
 80066ba:	782b      	ldrb	r3, [r5, #0]
 80066bc:	2b2e      	cmp	r3, #46	; 0x2e
 80066be:	d10a      	bne.n	80066d6 <_svfiprintf_r+0x12e>
 80066c0:	786b      	ldrb	r3, [r5, #1]
 80066c2:	2b2a      	cmp	r3, #42	; 0x2a
 80066c4:	d135      	bne.n	8006732 <_svfiprintf_r+0x18a>
 80066c6:	9b07      	ldr	r3, [sp, #28]
 80066c8:	3502      	adds	r5, #2
 80066ca:	1d1a      	adds	r2, r3, #4
 80066cc:	681b      	ldr	r3, [r3, #0]
 80066ce:	9207      	str	r2, [sp, #28]
 80066d0:	2b00      	cmp	r3, #0
 80066d2:	db2b      	blt.n	800672c <_svfiprintf_r+0x184>
 80066d4:	9309      	str	r3, [sp, #36]	; 0x24
 80066d6:	4e30      	ldr	r6, [pc, #192]	; (8006798 <_svfiprintf_r+0x1f0>)
 80066d8:	2203      	movs	r2, #3
 80066da:	0030      	movs	r0, r6
 80066dc:	7829      	ldrb	r1, [r5, #0]
 80066de:	f000 f9e7 	bl	8006ab0 <memchr>
 80066e2:	2800      	cmp	r0, #0
 80066e4:	d006      	beq.n	80066f4 <_svfiprintf_r+0x14c>
 80066e6:	2340      	movs	r3, #64	; 0x40
 80066e8:	1b80      	subs	r0, r0, r6
 80066ea:	4083      	lsls	r3, r0
 80066ec:	6822      	ldr	r2, [r4, #0]
 80066ee:	3501      	adds	r5, #1
 80066f0:	4313      	orrs	r3, r2
 80066f2:	6023      	str	r3, [r4, #0]
 80066f4:	7829      	ldrb	r1, [r5, #0]
 80066f6:	2206      	movs	r2, #6
 80066f8:	4828      	ldr	r0, [pc, #160]	; (800679c <_svfiprintf_r+0x1f4>)
 80066fa:	1c6e      	adds	r6, r5, #1
 80066fc:	7621      	strb	r1, [r4, #24]
 80066fe:	f000 f9d7 	bl	8006ab0 <memchr>
 8006702:	2800      	cmp	r0, #0
 8006704:	d03c      	beq.n	8006780 <_svfiprintf_r+0x1d8>
 8006706:	4b26      	ldr	r3, [pc, #152]	; (80067a0 <_svfiprintf_r+0x1f8>)
 8006708:	2b00      	cmp	r3, #0
 800670a:	d125      	bne.n	8006758 <_svfiprintf_r+0x1b0>
 800670c:	2207      	movs	r2, #7
 800670e:	9b07      	ldr	r3, [sp, #28]
 8006710:	3307      	adds	r3, #7
 8006712:	4393      	bics	r3, r2
 8006714:	3308      	adds	r3, #8
 8006716:	9307      	str	r3, [sp, #28]
 8006718:	6963      	ldr	r3, [r4, #20]
 800671a:	9a04      	ldr	r2, [sp, #16]
 800671c:	189b      	adds	r3, r3, r2
 800671e:	6163      	str	r3, [r4, #20]
 8006720:	e765      	b.n	80065ee <_svfiprintf_r+0x46>
 8006722:	4343      	muls	r3, r0
 8006724:	0035      	movs	r5, r6
 8006726:	2101      	movs	r1, #1
 8006728:	189b      	adds	r3, r3, r2
 800672a:	e7a6      	b.n	800667a <_svfiprintf_r+0xd2>
 800672c:	2301      	movs	r3, #1
 800672e:	425b      	negs	r3, r3
 8006730:	e7d0      	b.n	80066d4 <_svfiprintf_r+0x12c>
 8006732:	2300      	movs	r3, #0
 8006734:	200a      	movs	r0, #10
 8006736:	001a      	movs	r2, r3
 8006738:	3501      	adds	r5, #1
 800673a:	6063      	str	r3, [r4, #4]
 800673c:	7829      	ldrb	r1, [r5, #0]
 800673e:	1c6e      	adds	r6, r5, #1
 8006740:	3930      	subs	r1, #48	; 0x30
 8006742:	2909      	cmp	r1, #9
 8006744:	d903      	bls.n	800674e <_svfiprintf_r+0x1a6>
 8006746:	2b00      	cmp	r3, #0
 8006748:	d0c5      	beq.n	80066d6 <_svfiprintf_r+0x12e>
 800674a:	9209      	str	r2, [sp, #36]	; 0x24
 800674c:	e7c3      	b.n	80066d6 <_svfiprintf_r+0x12e>
 800674e:	4342      	muls	r2, r0
 8006750:	0035      	movs	r5, r6
 8006752:	2301      	movs	r3, #1
 8006754:	1852      	adds	r2, r2, r1
 8006756:	e7f1      	b.n	800673c <_svfiprintf_r+0x194>
 8006758:	ab07      	add	r3, sp, #28
 800675a:	9300      	str	r3, [sp, #0]
 800675c:	003a      	movs	r2, r7
 800675e:	0021      	movs	r1, r4
 8006760:	4b10      	ldr	r3, [pc, #64]	; (80067a4 <_svfiprintf_r+0x1fc>)
 8006762:	9803      	ldr	r0, [sp, #12]
 8006764:	e000      	b.n	8006768 <_svfiprintf_r+0x1c0>
 8006766:	bf00      	nop
 8006768:	9004      	str	r0, [sp, #16]
 800676a:	9b04      	ldr	r3, [sp, #16]
 800676c:	3301      	adds	r3, #1
 800676e:	d1d3      	bne.n	8006718 <_svfiprintf_r+0x170>
 8006770:	89bb      	ldrh	r3, [r7, #12]
 8006772:	980d      	ldr	r0, [sp, #52]	; 0x34
 8006774:	065b      	lsls	r3, r3, #25
 8006776:	d400      	bmi.n	800677a <_svfiprintf_r+0x1d2>
 8006778:	e72d      	b.n	80065d6 <_svfiprintf_r+0x2e>
 800677a:	2001      	movs	r0, #1
 800677c:	4240      	negs	r0, r0
 800677e:	e72a      	b.n	80065d6 <_svfiprintf_r+0x2e>
 8006780:	ab07      	add	r3, sp, #28
 8006782:	9300      	str	r3, [sp, #0]
 8006784:	003a      	movs	r2, r7
 8006786:	0021      	movs	r1, r4
 8006788:	4b06      	ldr	r3, [pc, #24]	; (80067a4 <_svfiprintf_r+0x1fc>)
 800678a:	9803      	ldr	r0, [sp, #12]
 800678c:	f000 f87c 	bl	8006888 <_printf_i>
 8006790:	e7ea      	b.n	8006768 <_svfiprintf_r+0x1c0>
 8006792:	46c0      	nop			; (mov r8, r8)
 8006794:	08006d00 	.word	0x08006d00
 8006798:	08006d06 	.word	0x08006d06
 800679c:	08006d0a 	.word	0x08006d0a
 80067a0:	00000000 	.word	0x00000000
 80067a4:	080064e5 	.word	0x080064e5

080067a8 <_printf_common>:
 80067a8:	b5f7      	push	{r0, r1, r2, r4, r5, r6, r7, lr}
 80067aa:	0015      	movs	r5, r2
 80067ac:	9301      	str	r3, [sp, #4]
 80067ae:	688a      	ldr	r2, [r1, #8]
 80067b0:	690b      	ldr	r3, [r1, #16]
 80067b2:	000c      	movs	r4, r1
 80067b4:	9000      	str	r0, [sp, #0]
 80067b6:	4293      	cmp	r3, r2
 80067b8:	da00      	bge.n	80067bc <_printf_common+0x14>
 80067ba:	0013      	movs	r3, r2
 80067bc:	0022      	movs	r2, r4
 80067be:	602b      	str	r3, [r5, #0]
 80067c0:	3243      	adds	r2, #67	; 0x43
 80067c2:	7812      	ldrb	r2, [r2, #0]
 80067c4:	2a00      	cmp	r2, #0
 80067c6:	d001      	beq.n	80067cc <_printf_common+0x24>
 80067c8:	3301      	adds	r3, #1
 80067ca:	602b      	str	r3, [r5, #0]
 80067cc:	6823      	ldr	r3, [r4, #0]
 80067ce:	069b      	lsls	r3, r3, #26
 80067d0:	d502      	bpl.n	80067d8 <_printf_common+0x30>
 80067d2:	682b      	ldr	r3, [r5, #0]
 80067d4:	3302      	adds	r3, #2
 80067d6:	602b      	str	r3, [r5, #0]
 80067d8:	6822      	ldr	r2, [r4, #0]
 80067da:	2306      	movs	r3, #6
 80067dc:	0017      	movs	r7, r2
 80067de:	401f      	ands	r7, r3
 80067e0:	421a      	tst	r2, r3
 80067e2:	d027      	beq.n	8006834 <_printf_common+0x8c>
 80067e4:	0023      	movs	r3, r4
 80067e6:	3343      	adds	r3, #67	; 0x43
 80067e8:	781b      	ldrb	r3, [r3, #0]
 80067ea:	1e5a      	subs	r2, r3, #1
 80067ec:	4193      	sbcs	r3, r2
 80067ee:	6822      	ldr	r2, [r4, #0]
 80067f0:	0692      	lsls	r2, r2, #26
 80067f2:	d430      	bmi.n	8006856 <_printf_common+0xae>
 80067f4:	0022      	movs	r2, r4
 80067f6:	9901      	ldr	r1, [sp, #4]
 80067f8:	9800      	ldr	r0, [sp, #0]
 80067fa:	9e08      	ldr	r6, [sp, #32]
 80067fc:	3243      	adds	r2, #67	; 0x43
 80067fe:	47b0      	blx	r6
 8006800:	1c43      	adds	r3, r0, #1
 8006802:	d025      	beq.n	8006850 <_printf_common+0xa8>
 8006804:	2306      	movs	r3, #6
 8006806:	6820      	ldr	r0, [r4, #0]
 8006808:	682a      	ldr	r2, [r5, #0]
 800680a:	68e1      	ldr	r1, [r4, #12]
 800680c:	2500      	movs	r5, #0
 800680e:	4003      	ands	r3, r0
 8006810:	2b04      	cmp	r3, #4
 8006812:	d103      	bne.n	800681c <_printf_common+0x74>
 8006814:	1a8d      	subs	r5, r1, r2
 8006816:	43eb      	mvns	r3, r5
 8006818:	17db      	asrs	r3, r3, #31
 800681a:	401d      	ands	r5, r3
 800681c:	68a3      	ldr	r3, [r4, #8]
 800681e:	6922      	ldr	r2, [r4, #16]
 8006820:	4293      	cmp	r3, r2
 8006822:	dd01      	ble.n	8006828 <_printf_common+0x80>
 8006824:	1a9b      	subs	r3, r3, r2
 8006826:	18ed      	adds	r5, r5, r3
 8006828:	2700      	movs	r7, #0
 800682a:	42bd      	cmp	r5, r7
 800682c:	d120      	bne.n	8006870 <_printf_common+0xc8>
 800682e:	2000      	movs	r0, #0
 8006830:	e010      	b.n	8006854 <_printf_common+0xac>
 8006832:	3701      	adds	r7, #1
 8006834:	68e3      	ldr	r3, [r4, #12]
 8006836:	682a      	ldr	r2, [r5, #0]
 8006838:	1a9b      	subs	r3, r3, r2
 800683a:	42bb      	cmp	r3, r7
 800683c:	ddd2      	ble.n	80067e4 <_printf_common+0x3c>
 800683e:	0022      	movs	r2, r4
 8006840:	2301      	movs	r3, #1
 8006842:	9901      	ldr	r1, [sp, #4]
 8006844:	9800      	ldr	r0, [sp, #0]
 8006846:	9e08      	ldr	r6, [sp, #32]
 8006848:	3219      	adds	r2, #25
 800684a:	47b0      	blx	r6
 800684c:	1c43      	adds	r3, r0, #1
 800684e:	d1f0      	bne.n	8006832 <_printf_common+0x8a>
 8006850:	2001      	movs	r0, #1
 8006852:	4240      	negs	r0, r0
 8006854:	bdfe      	pop	{r1, r2, r3, r4, r5, r6, r7, pc}
 8006856:	2030      	movs	r0, #48	; 0x30
 8006858:	18e1      	adds	r1, r4, r3
 800685a:	3143      	adds	r1, #67	; 0x43
 800685c:	7008      	strb	r0, [r1, #0]
 800685e:	0021      	movs	r1, r4
 8006860:	1c5a      	adds	r2, r3, #1
 8006862:	3145      	adds	r1, #69	; 0x45
 8006864:	7809      	ldrb	r1, [r1, #0]
 8006866:	18a2      	adds	r2, r4, r2
 8006868:	3243      	adds	r2, #67	; 0x43
 800686a:	3302      	adds	r3, #2
 800686c:	7011      	strb	r1, [r2, #0]
 800686e:	e7c1      	b.n	80067f4 <_printf_common+0x4c>
 8006870:	0022      	movs	r2, r4
 8006872:	2301      	movs	r3, #1
 8006874:	9901      	ldr	r1, [sp, #4]
 8006876:	9800      	ldr	r0, [sp, #0]
 8006878:	9e08      	ldr	r6, [sp, #32]
 800687a:	321a      	adds	r2, #26
 800687c:	47b0      	blx	r6
 800687e:	1c43      	adds	r3, r0, #1
 8006880:	d0e6      	beq.n	8006850 <_printf_common+0xa8>
 8006882:	3701      	adds	r7, #1
 8006884:	e7d1      	b.n	800682a <_printf_common+0x82>
	...

08006888 <_printf_i>:
 8006888:	b5f0      	push	{r4, r5, r6, r7, lr}
 800688a:	b08b      	sub	sp, #44	; 0x2c
 800688c:	9206      	str	r2, [sp, #24]
 800688e:	000a      	movs	r2, r1
 8006890:	3243      	adds	r2, #67	; 0x43
 8006892:	9307      	str	r3, [sp, #28]
 8006894:	9005      	str	r0, [sp, #20]
 8006896:	9204      	str	r2, [sp, #16]
 8006898:	7e0a      	ldrb	r2, [r1, #24]
 800689a:	000c      	movs	r4, r1
 800689c:	9b10      	ldr	r3, [sp, #64]	; 0x40
 800689e:	2a78      	cmp	r2, #120	; 0x78
 80068a0:	d807      	bhi.n	80068b2 <_printf_i+0x2a>
 80068a2:	2a62      	cmp	r2, #98	; 0x62
 80068a4:	d809      	bhi.n	80068ba <_printf_i+0x32>
 80068a6:	2a00      	cmp	r2, #0
 80068a8:	d100      	bne.n	80068ac <_printf_i+0x24>
 80068aa:	e0c1      	b.n	8006a30 <_printf_i+0x1a8>
 80068ac:	2a58      	cmp	r2, #88	; 0x58
 80068ae:	d100      	bne.n	80068b2 <_printf_i+0x2a>
 80068b0:	e08c      	b.n	80069cc <_printf_i+0x144>
 80068b2:	0026      	movs	r6, r4
 80068b4:	3642      	adds	r6, #66	; 0x42
 80068b6:	7032      	strb	r2, [r6, #0]
 80068b8:	e022      	b.n	8006900 <_printf_i+0x78>
 80068ba:	0010      	movs	r0, r2
 80068bc:	3863      	subs	r0, #99	; 0x63
 80068be:	2815      	cmp	r0, #21
 80068c0:	d8f7      	bhi.n	80068b2 <_printf_i+0x2a>
 80068c2:	f7f9 fc21 	bl	8000108 <__gnu_thumb1_case_shi>
 80068c6:	0016      	.short	0x0016
 80068c8:	fff6001f 	.word	0xfff6001f
 80068cc:	fff6fff6 	.word	0xfff6fff6
 80068d0:	001ffff6 	.word	0x001ffff6
 80068d4:	fff6fff6 	.word	0xfff6fff6
 80068d8:	fff6fff6 	.word	0xfff6fff6
 80068dc:	003600a8 	.word	0x003600a8
 80068e0:	fff6009a 	.word	0xfff6009a
 80068e4:	00b9fff6 	.word	0x00b9fff6
 80068e8:	0036fff6 	.word	0x0036fff6
 80068ec:	fff6fff6 	.word	0xfff6fff6
 80068f0:	009e      	.short	0x009e
 80068f2:	0026      	movs	r6, r4
 80068f4:	681a      	ldr	r2, [r3, #0]
 80068f6:	3642      	adds	r6, #66	; 0x42
 80068f8:	1d11      	adds	r1, r2, #4
 80068fa:	6019      	str	r1, [r3, #0]
 80068fc:	6813      	ldr	r3, [r2, #0]
 80068fe:	7033      	strb	r3, [r6, #0]
 8006900:	2301      	movs	r3, #1
 8006902:	e0a7      	b.n	8006a54 <_printf_i+0x1cc>
 8006904:	6808      	ldr	r0, [r1, #0]
 8006906:	6819      	ldr	r1, [r3, #0]
 8006908:	1d0a      	adds	r2, r1, #4
 800690a:	0605      	lsls	r5, r0, #24
 800690c:	d50b      	bpl.n	8006926 <_printf_i+0x9e>
 800690e:	680d      	ldr	r5, [r1, #0]
 8006910:	601a      	str	r2, [r3, #0]
 8006912:	2d00      	cmp	r5, #0
 8006914:	da03      	bge.n	800691e <_printf_i+0x96>
 8006916:	232d      	movs	r3, #45	; 0x2d
 8006918:	9a04      	ldr	r2, [sp, #16]
 800691a:	426d      	negs	r5, r5
 800691c:	7013      	strb	r3, [r2, #0]
 800691e:	4b61      	ldr	r3, [pc, #388]	; (8006aa4 <_printf_i+0x21c>)
 8006920:	270a      	movs	r7, #10
 8006922:	9303      	str	r3, [sp, #12]
 8006924:	e01b      	b.n	800695e <_printf_i+0xd6>
 8006926:	680d      	ldr	r5, [r1, #0]
 8006928:	601a      	str	r2, [r3, #0]
 800692a:	0641      	lsls	r1, r0, #25
 800692c:	d5f1      	bpl.n	8006912 <_printf_i+0x8a>
 800692e:	b22d      	sxth	r5, r5
 8006930:	e7ef      	b.n	8006912 <_printf_i+0x8a>
 8006932:	680d      	ldr	r5, [r1, #0]
 8006934:	6819      	ldr	r1, [r3, #0]
 8006936:	1d08      	adds	r0, r1, #4
 8006938:	6018      	str	r0, [r3, #0]
 800693a:	062e      	lsls	r6, r5, #24
 800693c:	d501      	bpl.n	8006942 <_printf_i+0xba>
 800693e:	680d      	ldr	r5, [r1, #0]
 8006940:	e003      	b.n	800694a <_printf_i+0xc2>
 8006942:	066d      	lsls	r5, r5, #25
 8006944:	d5fb      	bpl.n	800693e <_printf_i+0xb6>
 8006946:	680d      	ldr	r5, [r1, #0]
 8006948:	b2ad      	uxth	r5, r5
 800694a:	4b56      	ldr	r3, [pc, #344]	; (8006aa4 <_printf_i+0x21c>)
 800694c:	2708      	movs	r7, #8
 800694e:	9303      	str	r3, [sp, #12]
 8006950:	2a6f      	cmp	r2, #111	; 0x6f
 8006952:	d000      	beq.n	8006956 <_printf_i+0xce>
 8006954:	3702      	adds	r7, #2
 8006956:	0023      	movs	r3, r4
 8006958:	2200      	movs	r2, #0
 800695a:	3343      	adds	r3, #67	; 0x43
 800695c:	701a      	strb	r2, [r3, #0]
 800695e:	6863      	ldr	r3, [r4, #4]
 8006960:	60a3      	str	r3, [r4, #8]
 8006962:	2b00      	cmp	r3, #0
 8006964:	db03      	blt.n	800696e <_printf_i+0xe6>
 8006966:	2204      	movs	r2, #4
 8006968:	6821      	ldr	r1, [r4, #0]
 800696a:	4391      	bics	r1, r2
 800696c:	6021      	str	r1, [r4, #0]
 800696e:	2d00      	cmp	r5, #0
 8006970:	d102      	bne.n	8006978 <_printf_i+0xf0>
 8006972:	9e04      	ldr	r6, [sp, #16]
 8006974:	2b00      	cmp	r3, #0
 8006976:	d00c      	beq.n	8006992 <_printf_i+0x10a>
 8006978:	9e04      	ldr	r6, [sp, #16]
 800697a:	0028      	movs	r0, r5
 800697c:	0039      	movs	r1, r7
 800697e:	f7f9 fc53 	bl	8000228 <__aeabi_uidivmod>
 8006982:	9b03      	ldr	r3, [sp, #12]
 8006984:	3e01      	subs	r6, #1
 8006986:	5c5b      	ldrb	r3, [r3, r1]
 8006988:	7033      	strb	r3, [r6, #0]
 800698a:	002b      	movs	r3, r5
 800698c:	0005      	movs	r5, r0
 800698e:	429f      	cmp	r7, r3
 8006990:	d9f3      	bls.n	800697a <_printf_i+0xf2>
 8006992:	2f08      	cmp	r7, #8
 8006994:	d109      	bne.n	80069aa <_printf_i+0x122>
 8006996:	6823      	ldr	r3, [r4, #0]
 8006998:	07db      	lsls	r3, r3, #31
 800699a:	d506      	bpl.n	80069aa <_printf_i+0x122>
 800699c:	6863      	ldr	r3, [r4, #4]
 800699e:	6922      	ldr	r2, [r4, #16]
 80069a0:	4293      	cmp	r3, r2
 80069a2:	dc02      	bgt.n	80069aa <_printf_i+0x122>
 80069a4:	2330      	movs	r3, #48	; 0x30
 80069a6:	3e01      	subs	r6, #1
 80069a8:	7033      	strb	r3, [r6, #0]
 80069aa:	9b04      	ldr	r3, [sp, #16]
 80069ac:	1b9b      	subs	r3, r3, r6
 80069ae:	6123      	str	r3, [r4, #16]
 80069b0:	9b07      	ldr	r3, [sp, #28]
 80069b2:	0021      	movs	r1, r4
 80069b4:	9300      	str	r3, [sp, #0]
 80069b6:	9805      	ldr	r0, [sp, #20]
 80069b8:	9b06      	ldr	r3, [sp, #24]
 80069ba:	aa09      	add	r2, sp, #36	; 0x24
 80069bc:	f7ff fef4 	bl	80067a8 <_printf_common>
 80069c0:	1c43      	adds	r3, r0, #1
 80069c2:	d14c      	bne.n	8006a5e <_printf_i+0x1d6>
 80069c4:	2001      	movs	r0, #1
 80069c6:	4240      	negs	r0, r0
 80069c8:	b00b      	add	sp, #44	; 0x2c
 80069ca:	bdf0      	pop	{r4, r5, r6, r7, pc}
 80069cc:	3145      	adds	r1, #69	; 0x45
 80069ce:	700a      	strb	r2, [r1, #0]
 80069d0:	4a34      	ldr	r2, [pc, #208]	; (8006aa4 <_printf_i+0x21c>)
 80069d2:	9203      	str	r2, [sp, #12]
 80069d4:	681a      	ldr	r2, [r3, #0]
 80069d6:	6821      	ldr	r1, [r4, #0]
 80069d8:	ca20      	ldmia	r2!, {r5}
 80069da:	601a      	str	r2, [r3, #0]
 80069dc:	0608      	lsls	r0, r1, #24
 80069de:	d516      	bpl.n	8006a0e <_printf_i+0x186>
 80069e0:	07cb      	lsls	r3, r1, #31
 80069e2:	d502      	bpl.n	80069ea <_printf_i+0x162>
 80069e4:	2320      	movs	r3, #32
 80069e6:	4319      	orrs	r1, r3
 80069e8:	6021      	str	r1, [r4, #0]
 80069ea:	2710      	movs	r7, #16
 80069ec:	2d00      	cmp	r5, #0
 80069ee:	d1b2      	bne.n	8006956 <_printf_i+0xce>
 80069f0:	2320      	movs	r3, #32
 80069f2:	6822      	ldr	r2, [r4, #0]
 80069f4:	439a      	bics	r2, r3
 80069f6:	6022      	str	r2, [r4, #0]
 80069f8:	e7ad      	b.n	8006956 <_printf_i+0xce>
 80069fa:	2220      	movs	r2, #32
 80069fc:	6809      	ldr	r1, [r1, #0]
 80069fe:	430a      	orrs	r2, r1
 8006a00:	6022      	str	r2, [r4, #0]
 8006a02:	0022      	movs	r2, r4
 8006a04:	2178      	movs	r1, #120	; 0x78
 8006a06:	3245      	adds	r2, #69	; 0x45
 8006a08:	7011      	strb	r1, [r2, #0]
 8006a0a:	4a27      	ldr	r2, [pc, #156]	; (8006aa8 <_printf_i+0x220>)
 8006a0c:	e7e1      	b.n	80069d2 <_printf_i+0x14a>
 8006a0e:	0648      	lsls	r0, r1, #25
 8006a10:	d5e6      	bpl.n	80069e0 <_printf_i+0x158>
 8006a12:	b2ad      	uxth	r5, r5
 8006a14:	e7e4      	b.n	80069e0 <_printf_i+0x158>
 8006a16:	681a      	ldr	r2, [r3, #0]
 8006a18:	680d      	ldr	r5, [r1, #0]
 8006a1a:	1d10      	adds	r0, r2, #4
 8006a1c:	6949      	ldr	r1, [r1, #20]
 8006a1e:	6018      	str	r0, [r3, #0]
 8006a20:	6813      	ldr	r3, [r2, #0]
 8006a22:	062e      	lsls	r6, r5, #24
 8006a24:	d501      	bpl.n	8006a2a <_printf_i+0x1a2>
 8006a26:	6019      	str	r1, [r3, #0]
 8006a28:	e002      	b.n	8006a30 <_printf_i+0x1a8>
 8006a2a:	066d      	lsls	r5, r5, #25
 8006a2c:	d5fb      	bpl.n	8006a26 <_printf_i+0x19e>
 8006a2e:	8019      	strh	r1, [r3, #0]
 8006a30:	2300      	movs	r3, #0
 8006a32:	9e04      	ldr	r6, [sp, #16]
 8006a34:	6123      	str	r3, [r4, #16]
 8006a36:	e7bb      	b.n	80069b0 <_printf_i+0x128>
 8006a38:	681a      	ldr	r2, [r3, #0]
 8006a3a:	1d11      	adds	r1, r2, #4
 8006a3c:	6019      	str	r1, [r3, #0]
 8006a3e:	6816      	ldr	r6, [r2, #0]
 8006a40:	2100      	movs	r1, #0
 8006a42:	0030      	movs	r0, r6
 8006a44:	6862      	ldr	r2, [r4, #4]
 8006a46:	f000 f833 	bl	8006ab0 <memchr>
 8006a4a:	2800      	cmp	r0, #0
 8006a4c:	d001      	beq.n	8006a52 <_printf_i+0x1ca>
 8006a4e:	1b80      	subs	r0, r0, r6
 8006a50:	6060      	str	r0, [r4, #4]
 8006a52:	6863      	ldr	r3, [r4, #4]
 8006a54:	6123      	str	r3, [r4, #16]
 8006a56:	2300      	movs	r3, #0
 8006a58:	9a04      	ldr	r2, [sp, #16]
 8006a5a:	7013      	strb	r3, [r2, #0]
 8006a5c:	e7a8      	b.n	80069b0 <_printf_i+0x128>
 8006a5e:	6923      	ldr	r3, [r4, #16]
 8006a60:	0032      	movs	r2, r6
 8006a62:	9906      	ldr	r1, [sp, #24]
 8006a64:	9805      	ldr	r0, [sp, #20]
 8006a66:	9d07      	ldr	r5, [sp, #28]
 8006a68:	47a8      	blx	r5
 8006a6a:	1c43      	adds	r3, r0, #1
 8006a6c:	d0aa      	beq.n	80069c4 <_printf_i+0x13c>
 8006a6e:	6823      	ldr	r3, [r4, #0]
 8006a70:	079b      	lsls	r3, r3, #30
 8006a72:	d415      	bmi.n	8006aa0 <_printf_i+0x218>
 8006a74:	9b09      	ldr	r3, [sp, #36]	; 0x24
 8006a76:	68e0      	ldr	r0, [r4, #12]
 8006a78:	4298      	cmp	r0, r3
 8006a7a:	daa5      	bge.n	80069c8 <_printf_i+0x140>
 8006a7c:	0018      	movs	r0, r3
 8006a7e:	e7a3      	b.n	80069c8 <_printf_i+0x140>
 8006a80:	0022      	movs	r2, r4
 8006a82:	2301      	movs	r3, #1
 8006a84:	9906      	ldr	r1, [sp, #24]
 8006a86:	9805      	ldr	r0, [sp, #20]
 8006a88:	9e07      	ldr	r6, [sp, #28]
 8006a8a:	3219      	adds	r2, #25
 8006a8c:	47b0      	blx	r6
 8006a8e:	1c43      	adds	r3, r0, #1
 8006a90:	d098      	beq.n	80069c4 <_printf_i+0x13c>
 8006a92:	3501      	adds	r5, #1
 8006a94:	68e3      	ldr	r3, [r4, #12]
 8006a96:	9a09      	ldr	r2, [sp, #36]	; 0x24
 8006a98:	1a9b      	subs	r3, r3, r2
 8006a9a:	42ab      	cmp	r3, r5
 8006a9c:	dcf0      	bgt.n	8006a80 <_printf_i+0x1f8>
 8006a9e:	e7e9      	b.n	8006a74 <_printf_i+0x1ec>
 8006aa0:	2500      	movs	r5, #0
 8006aa2:	e7f7      	b.n	8006a94 <_printf_i+0x20c>
 8006aa4:	08006d11 	.word	0x08006d11
 8006aa8:	08006d22 	.word	0x08006d22

08006aac <__retarget_lock_acquire_recursive>:
 8006aac:	4770      	bx	lr

08006aae <__retarget_lock_release_recursive>:
 8006aae:	4770      	bx	lr

08006ab0 <memchr>:
 8006ab0:	b2c9      	uxtb	r1, r1
 8006ab2:	1882      	adds	r2, r0, r2
 8006ab4:	4290      	cmp	r0, r2
 8006ab6:	d101      	bne.n	8006abc <memchr+0xc>
 8006ab8:	2000      	movs	r0, #0
 8006aba:	4770      	bx	lr
 8006abc:	7803      	ldrb	r3, [r0, #0]
 8006abe:	428b      	cmp	r3, r1
 8006ac0:	d0fb      	beq.n	8006aba <memchr+0xa>
 8006ac2:	3001      	adds	r0, #1
 8006ac4:	e7f6      	b.n	8006ab4 <memchr+0x4>

08006ac6 <memmove>:
 8006ac6:	b510      	push	{r4, lr}
 8006ac8:	4288      	cmp	r0, r1
 8006aca:	d902      	bls.n	8006ad2 <memmove+0xc>
 8006acc:	188b      	adds	r3, r1, r2
 8006ace:	4298      	cmp	r0, r3
 8006ad0:	d303      	bcc.n	8006ada <memmove+0x14>
 8006ad2:	2300      	movs	r3, #0
 8006ad4:	e007      	b.n	8006ae6 <memmove+0x20>
 8006ad6:	5c8b      	ldrb	r3, [r1, r2]
 8006ad8:	5483      	strb	r3, [r0, r2]
 8006ada:	3a01      	subs	r2, #1
 8006adc:	d2fb      	bcs.n	8006ad6 <memmove+0x10>
 8006ade:	bd10      	pop	{r4, pc}
 8006ae0:	5ccc      	ldrb	r4, [r1, r3]
 8006ae2:	54c4      	strb	r4, [r0, r3]
 8006ae4:	3301      	adds	r3, #1
 8006ae6:	429a      	cmp	r2, r3
 8006ae8:	d1fa      	bne.n	8006ae0 <memmove+0x1a>
 8006aea:	e7f8      	b.n	8006ade <memmove+0x18>

08006aec <_realloc_r>:
 8006aec:	b5f7      	push	{r0, r1, r2, r4, r5, r6, r7, lr}
 8006aee:	0007      	movs	r7, r0
 8006af0:	000e      	movs	r6, r1
 8006af2:	0014      	movs	r4, r2
 8006af4:	2900      	cmp	r1, #0
 8006af6:	d105      	bne.n	8006b04 <_realloc_r+0x18>
 8006af8:	0011      	movs	r1, r2
 8006afa:	f7ff fbef 	bl	80062dc <_malloc_r>
 8006afe:	0005      	movs	r5, r0
 8006b00:	0028      	movs	r0, r5
 8006b02:	bdfe      	pop	{r1, r2, r3, r4, r5, r6, r7, pc}
 8006b04:	2a00      	cmp	r2, #0
 8006b06:	d103      	bne.n	8006b10 <_realloc_r+0x24>
 8006b08:	f7ff fb7c 	bl	8006204 <_free_r>
 8006b0c:	0025      	movs	r5, r4
 8006b0e:	e7f7      	b.n	8006b00 <_realloc_r+0x14>
 8006b10:	f000 f81b 	bl	8006b4a <_malloc_usable_size_r>
 8006b14:	9001      	str	r0, [sp, #4]
 8006b16:	4284      	cmp	r4, r0
 8006b18:	d803      	bhi.n	8006b22 <_realloc_r+0x36>
 8006b1a:	0035      	movs	r5, r6
 8006b1c:	0843      	lsrs	r3, r0, #1
 8006b1e:	42a3      	cmp	r3, r4
 8006b20:	d3ee      	bcc.n	8006b00 <_realloc_r+0x14>
 8006b22:	0021      	movs	r1, r4
 8006b24:	0038      	movs	r0, r7
 8006b26:	f7ff fbd9 	bl	80062dc <_malloc_r>
 8006b2a:	1e05      	subs	r5, r0, #0
 8006b2c:	d0e8      	beq.n	8006b00 <_realloc_r+0x14>
 8006b2e:	9b01      	ldr	r3, [sp, #4]
 8006b30:	0022      	movs	r2, r4
 8006b32:	429c      	cmp	r4, r3
 8006b34:	d900      	bls.n	8006b38 <_realloc_r+0x4c>
 8006b36:	001a      	movs	r2, r3
 8006b38:	0031      	movs	r1, r6
 8006b3a:	0028      	movs	r0, r5
 8006b3c:	f7ff fb50 	bl	80061e0 <memcpy>
 8006b40:	0031      	movs	r1, r6
 8006b42:	0038      	movs	r0, r7
 8006b44:	f7ff fb5e 	bl	8006204 <_free_r>
 8006b48:	e7da      	b.n	8006b00 <_realloc_r+0x14>

08006b4a <_malloc_usable_size_r>:
 8006b4a:	1f0b      	subs	r3, r1, #4
 8006b4c:	681b      	ldr	r3, [r3, #0]
 8006b4e:	1f18      	subs	r0, r3, #4
 8006b50:	2b00      	cmp	r3, #0
 8006b52:	da01      	bge.n	8006b58 <_malloc_usable_size_r+0xe>
 8006b54:	580b      	ldr	r3, [r1, r0]
 8006b56:	18c0      	adds	r0, r0, r3
 8006b58:	4770      	bx	lr
	...

08006b5c <_init>:
 8006b5c:	b5f8      	push	{r3, r4, r5, r6, r7, lr}
 8006b5e:	46c0      	nop			; (mov r8, r8)
 8006b60:	bcf8      	pop	{r3, r4, r5, r6, r7}
 8006b62:	bc08      	pop	{r3}
 8006b64:	469e      	mov	lr, r3
 8006b66:	4770      	bx	lr

08006b68 <_fini>:
 8006b68:	b5f8      	push	{r3, r4, r5, r6, r7, lr}
 8006b6a:	46c0      	nop			; (mov r8, r8)
 8006b6c:	bcf8      	pop	{r3, r4, r5, r6, r7}
 8006b6e:	bc08      	pop	{r3}
 8006b70:	469e      	mov	lr, r3
 8006b72:	4770      	bx	lr
