
qubesatV4.elf:     file format elf32-littlearm

Sections:
Idx Name          Size      VMA       LMA       File off  Algn
  0 .isr_vector   000000c0  08000000  08000000  00010000  2**0
                  CONTENTS, ALLOC, LOAD, READONLY, DATA
  1 .text         00005e40  080000c0  080000c0  000100c0  2**2
                  CONTENTS, ALLOC, LOAD, READONLY, CODE
  2 .rodata       0000013c  08005f00  08005f00  00015f00  2**2
                  CONTENTS, ALLOC, LOAD, READONLY, DATA
  3 .ARM.extab    00000000  0800603c  0800603c  00020070  2**0
                  CONTENTS
  4 .ARM          00000008  0800603c  0800603c  0001603c  2**2
                  CONTENTS, ALLOC, LOAD, READONLY, DATA
  5 .preinit_array 00000000  08006044  08006044  00020070  2**0
                  CONTENTS, ALLOC, LOAD, DATA
  6 .init_array   00000004  08006044  08006044  00016044  2**2
                  CONTENTS, ALLOC, LOAD, DATA
  7 .fini_array   00000004  08006048  08006048  00016048  2**2
                  CONTENTS, ALLOC, LOAD, DATA
  8 .data         00000070  20000000  0800604c  00020000  2**2
                  CONTENTS, ALLOC, LOAD, DATA
  9 .bss          0000016c  20000070  080060bc  00020070  2**2
                  ALLOC
 10 ._user_heap_stack 00000604  200001dc  080060bc  000201dc  2**0
                  ALLOC
 11 .ARM.attributes 00000028  00000000  00000000  00020070  2**0
                  CONTENTS, READONLY
 12 .debug_info   0000bb2f  00000000  00000000  00020098  2**0
                  CONTENTS, READONLY, DEBUGGING, OCTETS
 13 .debug_abbrev 00001a02  00000000  00000000  0002bbc7  2**0
                  CONTENTS, READONLY, DEBUGGING, OCTETS
 14 .debug_aranges 000009d8  00000000  00000000  0002d5d0  2**3
                  CONTENTS, READONLY, DEBUGGING, OCTETS
 15 .debug_ranges 00000930  00000000  00000000  0002dfa8  2**3
                  CONTENTS, READONLY, DEBUGGING, OCTETS
 16 .debug_macro  00015199  00000000  00000000  0002e8d8  2**0
                  CONTENTS, READONLY, DEBUGGING, OCTETS
 17 .debug_line   0000c45a  00000000  00000000  00043a71  2**0
                  CONTENTS, READONLY, DEBUGGING, OCTETS
 18 .debug_str    00083381  00000000  00000000  0004fecb  2**0
                  CONTENTS, READONLY, DEBUGGING, OCTETS
 19 .comment      00000050  00000000  00000000  000d324c  2**0
                  CONTENTS, READONLY
 20 .debug_frame  00002820  00000000  00000000  000d329c  2**2
                  CONTENTS, READONLY, DEBUGGING, OCTETS

Disassembly of section .text:

080000c0 <__do_global_dtors_aux>:
 80000c0:	b510      	push	{r4, lr}
 80000c2:	4c06      	ldr	r4, [pc, #24]	; (80000dc <__do_global_dtors_aux+0x1c>)
 80000c4:	7823      	ldrb	r3, [r4, #0]
 80000c6:	2b00      	cmp	r3, #0
 80000c8:	d107      	bne.n	80000da <__do_global_dtors_aux+0x1a>
 80000ca:	4b05      	ldr	r3, [pc, #20]	; (80000e0 <__do_global_dtors_aux+0x20>)
 80000cc:	2b00      	cmp	r3, #0
 80000ce:	d002      	beq.n	80000d6 <__do_global_dtors_aux+0x16>
 80000d0:	4804      	ldr	r0, [pc, #16]	; (80000e4 <__do_global_dtors_aux+0x24>)
 80000d2:	e000      	b.n	80000d6 <__do_global_dtors_aux+0x16>
 80000d4:	bf00      	nop
 80000d6:	2301      	movs	r3, #1
 80000d8:	7023      	strb	r3, [r4, #0]
 80000da:	bd10      	pop	{r4, pc}
 80000dc:	20000070 	.word	0x20000070
 80000e0:	00000000 	.word	0x00000000
 80000e4:	08005ee8 	.word	0x08005ee8

080000e8 <frame_dummy>:
 80000e8:	4b04      	ldr	r3, [pc, #16]	; (80000fc <frame_dummy+0x14>)
 80000ea:	b510      	push	{r4, lr}
 80000ec:	2b00      	cmp	r3, #0
 80000ee:	d003      	beq.n	80000f8 <frame_dummy+0x10>
 80000f0:	4903      	ldr	r1, [pc, #12]	; (8000100 <frame_dummy+0x18>)
 80000f2:	4804      	ldr	r0, [pc, #16]	; (8000104 <frame_dummy+0x1c>)
 80000f4:	e000      	b.n	80000f8 <frame_dummy+0x10>
 80000f6:	bf00      	nop
 80000f8:	bd10      	pop	{r4, pc}
 80000fa:	46c0      	nop			; (mov r8, r8)
 80000fc:	00000000 	.word	0x00000000
 8000100:	20000074 	.word	0x20000074
 8000104:	08005ee8 	.word	0x08005ee8

08000108 <__gnu_thumb1_case_shi>:
 8000108:	b403      	push	{r0, r1}
 800010a:	4671      	mov	r1, lr
 800010c:	0849      	lsrs	r1, r1, #1
 800010e:	0040      	lsls	r0, r0, #1
 8000110:	0049      	lsls	r1, r1, #1
 8000112:	5e09      	ldrsh	r1, [r1, r0]
 8000114:	0049      	lsls	r1, r1, #1
 8000116:	448e      	add	lr, r1
 8000118:	bc03      	pop	{r0, r1}
 800011a:	4770      	bx	lr

0800011c <__udivsi3>:
 800011c:	2200      	movs	r2, #0
 800011e:	0843      	lsrs	r3, r0, #1
 8000120:	428b      	cmp	r3, r1
 8000122:	d374      	bcc.n	800020e <__udivsi3+0xf2>
 8000124:	0903      	lsrs	r3, r0, #4
 8000126:	428b      	cmp	r3, r1
 8000128:	d35f      	bcc.n	80001ea <__udivsi3+0xce>
 800012a:	0a03      	lsrs	r3, r0, #8
 800012c:	428b      	cmp	r3, r1
 800012e:	d344      	bcc.n	80001ba <__udivsi3+0x9e>
 8000130:	0b03      	lsrs	r3, r0, #12
 8000132:	428b      	cmp	r3, r1
 8000134:	d328      	bcc.n	8000188 <__udivsi3+0x6c>
 8000136:	0c03      	lsrs	r3, r0, #16
 8000138:	428b      	cmp	r3, r1
 800013a:	d30d      	bcc.n	8000158 <__udivsi3+0x3c>
 800013c:	22ff      	movs	r2, #255	; 0xff
 800013e:	0209      	lsls	r1, r1, #8
 8000140:	ba12      	rev	r2, r2
 8000142:	0c03      	lsrs	r3, r0, #16
 8000144:	428b      	cmp	r3, r1
 8000146:	d302      	bcc.n	800014e <__udivsi3+0x32>
 8000148:	1212      	asrs	r2, r2, #8
 800014a:	0209      	lsls	r1, r1, #8
 800014c:	d065      	beq.n	800021a <__udivsi3+0xfe>
 800014e:	0b03      	lsrs	r3, r0, #12
 8000150:	428b      	cmp	r3, r1
 8000152:	d319      	bcc.n	8000188 <__udivsi3+0x6c>
 8000154:	e000      	b.n	8000158 <__udivsi3+0x3c>
 8000156:	0a09      	lsrs	r1, r1, #8
 8000158:	0bc3      	lsrs	r3, r0, #15
 800015a:	428b      	cmp	r3, r1
 800015c:	d301      	bcc.n	8000162 <__udivsi3+0x46>
 800015e:	03cb      	lsls	r3, r1, #15
 8000160:	1ac0      	subs	r0, r0, r3
 8000162:	4152      	adcs	r2, r2
 8000164:	0b83      	lsrs	r3, r0, #14
 8000166:	428b      	cmp	r3, r1
 8000168:	d301      	bcc.n	800016e <__udivsi3+0x52>
 800016a:	038b      	lsls	r3, r1, #14
 800016c:	1ac0      	subs	r0, r0, r3
 800016e:	4152      	adcs	r2, r2
 8000170:	0b43      	lsrs	r3, r0, #13
 8000172:	428b      	cmp	r3, r1
 8000174:	d301      	bcc.n	800017a <__udivsi3+0x5e>
 8000176:	034b      	lsls	r3, r1, #13
 8000178:	1ac0      	subs	r0, r0, r3
 800017a:	4152      	adcs	r2, r2
 800017c:	0b03      	lsrs	r3, r0, #12
 800017e:	428b      	cmp	r3, r1
 8000180:	d301      	bcc.n	8000186 <__udivsi3+0x6a>
 8000182:	030b      	lsls	r3, r1, #12
 8000184:	1ac0      	subs	r0, r0, r3
 8000186:	4152      	adcs	r2, r2
 8000188:	0ac3      	lsrs	r3, r0, #11
 800018a:	428b      	cmp	r3, r1
 800018c:	d301      	bcc.n	8000192 <__udivsi3+0x76>
 800018e:	02cb      	lsls	r3, r1, #11
 8000190:	1ac0      	subs	r0, r0, r3
 8000192:	4152      	adcs	r2, r2
 8000194:	0a83      	lsrs	r3, r0, #10
 8000196:	428b      	cmp	r3, r1
 8000198:	d301      	bcc.n	800019e <__udivsi3+0x82>
 800019a:	028b      	lsls	r3, r1, #10
 800019c:	1ac0      	subs	r0, r0, r3
 800019e:	4152      	adcs	r2, r2
 80001a0:	0a43      	lsrs	r3, r0, #9
 80001a2:	428b      	cmp	r3, r1
 80001a4:	d301      	bcc.n	80001aa <__udivsi3+0x8e>
 80001a6:	024b      	lsls	r3, r1, #9
 80001a8:	1ac0      	subs	r0, r0, r3
 80001aa:	4152      	adcs	r2, r2
 80001ac:	0a03      	lsrs	r3, r0, #8
 80001ae:	428b      	cmp	r3, r1
 80001b0:	d301      	bcc.n	80001b6 <__udivsi3+0x9a>
 80001b2:	020b      	lsls	r3, r1, #8
 80001b4:	1ac0      	subs	r0, r0, r3
 80001b6:	4152      	adcs	r2, r2
 80001b8:	d2cd      	bcs.n	8000156 <__udivsi3+0x3a>
 80001ba:	09c3      	lsrs	r3, r0, #7
 80001bc:	428b      	cmp	r3, r1
 80001be:	d301      	bcc.n	80001c4 <__udivsi3+0xa8>
 80001c0:	01cb      	lsls	r3, r1, #7
 80001c2:	1ac0      	subs	r0, r0, r3
 80001c4:	4152      	adcs	r2, r2
 80001c6:	0983      	lsrs	r3, r0, #6
 80001c8:	428b      	cmp	r3, r1
 80001ca:	d301      	bcc.n	80001d0 <__udivsi3+0xb4>
 80001cc:	018b      	lsls	r3, r1, #6
 80001ce:	1ac0      	subs	r0, r0, r3
 80001d0:	4152      	adcs	r2, r2
 80001d2:	0943      	lsrs	r3, r0, #5
 80001d4:	428b      	cmp	r3, r1
 80001d6:	d301      	bcc.n	80001dc <__udivsi3+0xc0>
 80001d8:	014b      	lsls	r3, r1, #5
 80001da:	1ac0      	subs	r0, r0, r3
 80001dc:	4152      	adcs	r2, r2
 80001de:	0903      	lsrs	r3, r0, #4
 80001e0:	428b      	cmp	r3, r1
 80001e2:	d301      	bcc.n	80001e8 <__udivsi3+0xcc>
 80001e4:	010b      	lsls	r3, r1, #4
 80001e6:	1ac0      	subs	r0, r0, r3
 80001e8:	4152      	adcs	r2, r2
 80001ea:	08c3      	lsrs	r3, r0, #3
 80001ec:	428b      	cmp	r3, r1
 80001ee:	d301      	bcc.n	80001f4 <__udivsi3+0xd8>
 80001f0:	00cb      	lsls	r3, r1, #3
 80001f2:	1ac0      	subs	r0, r0, r3
 80001f4:	4152      	adcs	r2, r2
 80001f6:	0883      	lsrs	r3, r0, #2
 80001f8:	428b      	cmp	r3, r1
 80001fa:	d301      	bcc.n	8000200 <__udivsi3+0xe4>
 80001fc:	008b      	lsls	r3, r1, #2
 80001fe:	1ac0      	subs	r0, r0, r3
 8000200:	4152      	adcs	r2, r2
 8000202:	0843      	lsrs	r3, r0, #1
 8000204:	428b      	cmp	r3, r1
 8000206:	d301      	bcc.n	800020c <__udivsi3+0xf0>
 8000208:	004b      	lsls	r3, r1, #1
 800020a:	1ac0      	subs	r0, r0, r3
 800020c:	4152      	adcs	r2, r2
 800020e:	1a41      	subs	r1, r0, r1
 8000210:	d200      	bcs.n	8000214 <__udivsi3+0xf8>
 8000212:	4601      	mov	r1, r0
 8000214:	4152      	adcs	r2, r2
 8000216:	4610      	mov	r0, r2
 8000218:	4770      	bx	lr
 800021a:	e7ff      	b.n	800021c <__udivsi3+0x100>
 800021c:	b501      	push	{r0, lr}
 800021e:	2000      	movs	r0, #0
 8000220:	f000 f8f0 	bl	8000404 <__aeabi_idiv0>
 8000224:	bd02      	pop	{r1, pc}
 8000226:	46c0      	nop			; (mov r8, r8)

08000228 <__aeabi_uidivmod>:
 8000228:	2900      	cmp	r1, #0
 800022a:	d0f7      	beq.n	800021c <__udivsi3+0x100>
 800022c:	e776      	b.n	800011c <__udivsi3>
 800022e:	4770      	bx	lr

08000230 <__divsi3>:
 8000230:	4603      	mov	r3, r0
 8000232:	430b      	orrs	r3, r1
 8000234:	d47f      	bmi.n	8000336 <__divsi3+0x106>
 8000236:	2200      	movs	r2, #0
 8000238:	0843      	lsrs	r3, r0, #1
 800023a:	428b      	cmp	r3, r1
 800023c:	d374      	bcc.n	8000328 <__divsi3+0xf8>
 800023e:	0903      	lsrs	r3, r0, #4
 8000240:	428b      	cmp	r3, r1
 8000242:	d35f      	bcc.n	8000304 <__divsi3+0xd4>
 8000244:	0a03      	lsrs	r3, r0, #8
 8000246:	428b      	cmp	r3, r1
 8000248:	d344      	bcc.n	80002d4 <__divsi3+0xa4>
 800024a:	0b03      	lsrs	r3, r0, #12
 800024c:	428b      	cmp	r3, r1
 800024e:	d328      	bcc.n	80002a2 <__divsi3+0x72>
 8000250:	0c03      	lsrs	r3, r0, #16
 8000252:	428b      	cmp	r3, r1
 8000254:	d30d      	bcc.n	8000272 <__divsi3+0x42>
 8000256:	22ff      	movs	r2, #255	; 0xff
 8000258:	0209      	lsls	r1, r1, #8
 800025a:	ba12      	rev	r2, r2
 800025c:	0c03      	lsrs	r3, r0, #16
 800025e:	428b      	cmp	r3, r1
 8000260:	d302      	bcc.n	8000268 <__divsi3+0x38>
 8000262:	1212      	asrs	r2, r2, #8
 8000264:	0209      	lsls	r1, r1, #8
 8000266:	d065      	beq.n	8000334 <__divsi3+0x104>
 8000268:	0b03      	lsrs	r3, r0, #12
 800026a:	428b      	cmp	r3, r1
 800026c:	d319      	bcc.n	80002a2 <__divsi3+0x72>
 800026e:	e000      	b.n	8000272 <__divsi3+0x42>
 8000270:	0a09      	lsrs	r1, r1, #8
 8000272:	0bc3      	lsrs	r3, r0, #15
 8000274:	428b      	cmp	r3, r1
 8000276:	d301      	bcc.n	800027c <__divsi3+0x4c>
 8000278:	03cb      	lsls	r3, r1, #15
 800027a:	1ac0      	subs	r0, r0, r3
 800027c:	4152      	adcs	r2, r2
 800027e:	0b83      	lsrs	r3, r0, #14
 8000280:	428b      	cmp	r3, r1
 8000282:	d301      	bcc.n	8000288 <__divsi3+0x58>
 8000284:	038b      	lsls	r3, r1, #14
 8000286:	1ac0      	subs	r0, r0, r3
 8000288:	4152      	adcs	r2, r2
 800028a:	0b43      	lsrs	r3, r0, #13
 800028c:	428b      	cmp	r3, r1
 800028e:	d301      	bcc.n	8000294 <__divsi3+0x64>
 8000290:	034b      	lsls	r3, r1, #13
 8000292:	1ac0      	subs	r0, r0, r3
 8000294:	4152      	adcs	r2, r2
 8000296:	0b03      	lsrs	r3, r0, #12
 8000298:	428b      	cmp	r3, r1
 800029a:	d301      	bcc.n	80002a0 <__divsi3+0x70>
 800029c:	030b      	lsls	r3, r1, #12
 800029e:	1ac0      	subs	r0, r0, r3
 80002a0:	4152      	adcs	r2, r2
 80002a2:	0ac3      	lsrs	r3, r0, #11
 80002a4:	428b      	cmp	r3, r1
 80002a6:	d301      	bcc.n	80002ac <__divsi3+0x7c>
 80002a8:	02cb      	lsls	r3, r1, #11
 80002aa:	1ac0      	subs	r0, r0, r3
 80002ac:	4152      	adcs	r2, r2
 80002ae:	0a83      	lsrs	r3, r0, #10
 80002b0:	428b      	cmp	r3, r1
 80002b2:	d301      	bcc.n	80002b8 <__divsi3+0x88>
 80002b4:	028b      	lsls	r3, r1, #10
 80002b6:	1ac0      	subs	r0, r0, r3
 80002b8:	4152      	adcs	r2, r2
 80002ba:	0a43      	lsrs	r3, r0, #9
 80002bc:	428b      	cmp	r3, r1
 80002be:	d301      	bcc.n	80002c4 <__divsi3+0x94>
 80002c0:	024b      	lsls	r3, r1, #9
 80002c2:	1ac0      	subs	r0, r0, r3
 80002c4:	4152      	adcs	r2, r2
 80002c6:	0a03      	lsrs	r3, r0, #8
 80002c8:	428b      	cmp	r3, r1
 80002ca:	d301      	bcc.n	80002d0 <__divsi3+0xa0>
 80002cc:	020b      	lsls	r3, r1, #8
 80002ce:	1ac0      	subs	r0, r0, r3
 80002d0:	4152      	adcs	r2, r2
 80002d2:	d2cd      	bcs.n	8000270 <__divsi3+0x40>
 80002d4:	09c3      	lsrs	r3, r0, #7
 80002d6:	428b      	cmp	r3, r1
 80002d8:	d301      	bcc.n	80002de <__divsi3+0xae>
 80002da:	01cb      	lsls	r3, r1, #7
 80002dc:	1ac0      	subs	r0, r0, r3
 80002de:	4152      	adcs	r2, r2
 80002e0:	0983      	lsrs	r3, r0, #6
 80002e2:	428b      	cmp	r3, r1
 80002e4:	d301      	bcc.n	80002ea <__divsi3+0xba>
 80002e6:	018b      	lsls	r3, r1, #6
 80002e8:	1ac0      	subs	r0, r0, r3
 80002ea:	4152      	adcs	r2, r2
 80002ec:	0943      	lsrs	r3, r0, #5
 80002ee:	428b      	cmp	r3, r1
 80002f0:	d301      	bcc.n	80002f6 <__divsi3+0xc6>
 80002f2:	014b      	lsls	r3, r1, #5
 80002f4:	1ac0      	subs	r0, r0, r3
 80002f6:	4152      	adcs	r2, r2
 80002f8:	0903      	lsrs	r3, r0, #4
 80002fa:	428b      	cmp	r3, r1
 80002fc:	d301      	bcc.n	8000302 <__divsi3+0xd2>
 80002fe:	010b      	lsls	r3, r1, #4
 8000300:	1ac0      	subs	r0, r0, r3
 8000302:	4152      	adcs	r2, r2
 8000304:	08c3      	lsrs	r3, r0, #3
 8000306:	428b      	cmp	r3, r1
 8000308:	d301      	bcc.n	800030e <__divsi3+0xde>
 800030a:	00cb      	lsls	r3, r1, #3
 800030c:	1ac0      	subs	r0, r0, r3
 800030e:	4152      	adcs	r2, r2
 8000310:	0883      	lsrs	r3, r0, #2
 8000312:	428b      	cmp	r3, r1
 8000314:	d301      	bcc.n	800031a <__divsi3+0xea>
 8000316:	008b      	lsls	r3, r1, #2
 8000318:	1ac0      	subs	r0, r0, r3
 800031a:	4152      	adcs	r2, r2
 800031c:	0843      	lsrs	r3, r0, #1
 800031e:	428b      	cmp	r3, r1
 8000320:	d301      	bcc.n	8000326 <__divsi3+0xf6>
 8000322:	004b      	lsls	r3, r1, #1
 8000324:	1ac0      	subs	r0, r0, r3
 8000326:	4152      	adcs	r2, r2
 8000328:	1a41      	subs	r1, r0, r1
 800032a:	d200      	bcs.n	800032e <__divsi3+0xfe>
 800032c:	4601      	mov	r1, r0
 800032e:	4152      	adcs	r2, r2
 8000330:	4610      	mov	r0, r2
 8000332:	4770      	bx	lr
 8000334:	e05d      	b.n	80003f2 <__divsi3+0x1c2>
 8000336:	0fca      	lsrs	r2, r1, #31
 8000338:	d000      	beq.n	800033c <__divsi3+0x10c>
 800033a:	4249      	negs	r1, r1
 800033c:	1003      	asrs	r3, r0, #32
 800033e:	d300      	bcc.n	8000342 <__divsi3+0x112>
 8000340:	4240      	negs	r0, r0
 8000342:	4053      	eors	r3, r2
 8000344:	2200      	movs	r2, #0
 8000346:	469c      	mov	ip, r3
 8000348:	0903      	lsrs	r3, r0, #4
 800034a:	428b      	cmp	r3, r1
 800034c:	d32d      	bcc.n	80003aa <__divsi3+0x17a>
 800034e:	0a03      	lsrs	r3, r0, #8
 8000350:	428b      	cmp	r3, r1
 8000352:	d312      	bcc.n	800037a <__divsi3+0x14a>
 8000354:	22fc      	movs	r2, #252	; 0xfc
 8000356:	0189      	lsls	r1, r1, #6
 8000358:	ba12      	rev	r2, r2
 800035a:	0a03      	lsrs	r3, r0, #8
 800035c:	428b      	cmp	r3, r1
 800035e:	d30c      	bcc.n	800037a <__divsi3+0x14a>
 8000360:	0189      	lsls	r1, r1, #6
 8000362:	1192      	asrs	r2, r2, #6
 8000364:	428b      	cmp	r3, r1
 8000366:	d308      	bcc.n	800037a <__divsi3+0x14a>
 8000368:	0189      	lsls	r1, r1, #6
 800036a:	1192      	asrs	r2, r2, #6
 800036c:	428b      	cmp	r3, r1
 800036e:	d304      	bcc.n	800037a <__divsi3+0x14a>
 8000370:	0189      	lsls	r1, r1, #6
 8000372:	d03a      	beq.n	80003ea <__divsi3+0x1ba>
 8000374:	1192      	asrs	r2, r2, #6
 8000376:	e000      	b.n	800037a <__divsi3+0x14a>
 8000378:	0989      	lsrs	r1, r1, #6
 800037a:	09c3      	lsrs	r3, r0, #7
 800037c:	428b      	cmp	r3, r1
 800037e:	d301      	bcc.n	8000384 <__divsi3+0x154>
 8000380:	01cb      	lsls	r3, r1, #7
 8000382:	1ac0      	subs	r0, r0, r3
 8000384:	4152      	adcs	r2, r2
 8000386:	0983      	lsrs	r3, r0, #6
 8000388:	428b      	cmp	r3, r1
 800038a:	d301      	bcc.n	8000390 <__divsi3+0x160>
 800038c:	018b      	lsls	r3, r1, #6
 800038e:	1ac0      	subs	r0, r0, r3
 8000390:	4152      	adcs	r2, r2
 8000392:	0943      	lsrs	r3, r0, #5
 8000394:	428b      	cmp	r3, r1
 8000396:	d301      	bcc.n	800039c <__divsi3+0x16c>
 8000398:	014b      	lsls	r3, r1, #5
 800039a:	1ac0      	subs	r0, r0, r3
 800039c:	4152      	adcs	r2, r2
 800039e:	0903      	lsrs	r3, r0, #4
 80003a0:	428b      	cmp	r3, r1
 80003a2:	d301      	bcc.n	80003a8 <__divsi3+0x178>
 80003a4:	010b      	lsls	r3, r1, #4
 80003a6:	1ac0      	subs	r0, r0, r3
 80003a8:	4152      	adcs	r2, r2
 80003aa:	08c3      	lsrs	r3, r0, #3
 80003ac:	428b      	cmp	r3, r1
 80003ae:	d301      	bcc.n	80003b4 <__divsi3+0x184>
 80003b0:	00cb      	lsls	r3, r1, #3
 80003b2:	1ac0      	subs	r0, r0, r3
 80003b4:	4152      	adcs	r2, r2
 80003b6:	0883      	lsrs	r3, r0, #2
 80003b8:	428b      	cmp	r3, r1
 80003ba:	d301      	bcc.n	80003c0 <__divsi3+0x190>
 80003bc:	008b      	lsls	r3, r1, #2
 80003be:	1ac0      	subs	r0, r0, r3
 80003c0:	4152      	adcs	r2, r2
 80003c2:	d2d9      	bcs.n	8000378 <__divsi3+0x148>
 80003c4:	0843      	lsrs	r3, r0, #1
 80003c6:	428b      	cmp	r3, r1
 80003c8:	d301      	bcc.n	80003ce <__divsi3+0x19e>
 80003ca:	004b      	lsls	r3, r1, #1
 80003cc:	1ac0      	subs	r0, r0, r3
 80003ce:	4152      	adcs	r2, r2
 80003d0:	1a41      	subs	r1, r0, r1
 80003d2:	d200      	bcs.n	80003d6 <__divsi3+0x1a6>
 80003d4:	4601      	mov	r1, r0
 80003d6:	4663      	mov	r3, ip
 80003d8:	4152      	adcs	r2, r2
 80003da:	105b      	asrs	r3, r3, #1
 80003dc:	4610      	mov	r0, r2
 80003de:	d301      	bcc.n	80003e4 <__divsi3+0x1b4>
 80003e0:	4240      	negs	r0, r0
 80003e2:	2b00      	cmp	r3, #0
 80003e4:	d500      	bpl.n	80003e8 <__divsi3+0x1b8>
 80003e6:	4249      	negs	r1, r1
 80003e8:	4770      	bx	lr
 80003ea:	4663      	mov	r3, ip
 80003ec:	105b      	asrs	r3, r3, #1
 80003ee:	d300      	bcc.n	80003f2 <__divsi3+0x1c2>
 80003f0:	4240      	negs	r0, r0
 80003f2:	b501      	push	{r0, lr}
 80003f4:	2000      	movs	r0, #0
 80003f6:	f000 f805 	bl	8000404 <__aeabi_idiv0>
 80003fa:	bd02      	pop	{r1, pc}

080003fc <__aeabi_idivmod>:
 80003fc:	2900      	cmp	r1, #0
 80003fe:	d0f8      	beq.n	80003f2 <__divsi3+0x1c2>
 8000400:	e716      	b.n	8000230 <__divsi3>
 8000402:	4770      	bx	lr

08000404 <__aeabi_idiv0>:
 8000404:	4770      	bx	lr
 8000406:	46c0      	nop			; (mov r8, r8)

08000408 <__aeabi_uldivmod>:
 8000408:	2b00      	cmp	r3, #0
 800040a:	d111      	bne.n	8000430 <__aeabi_uldivmod+0x28>
 800040c:	2a00      	cmp	r2, #0
 800040e:	d10f      	bne.n	8000430 <__aeabi_uldivmod+0x28>
 8000410:	2900      	cmp	r1, #0
 8000412:	d100      	bne.n	8000416 <__aeabi_uldivmod+0xe>
 8000414:	2800      	cmp	r0, #0
 8000416:	d002      	beq.n	800041e <__aeabi_uldivmod+0x16>
 8000418:	2100      	movs	r1, #0
 800041a:	43c9      	mvns	r1, r1
 800041c:	0008      	movs	r0, r1
 800041e:	b407      	push	{r0, r1, r2}
 8000420:	4802      	ldr	r0, [pc, #8]	; (800042c <__aeabi_uldivmod+0x24>)
 8000422:	a102      	add	r1, pc, #8	; (adr r1, 800042c <__aeabi_uldivmod+0x24>)
 8000424:	1840      	adds	r0, r0, r1
 8000426:	9002      	str	r0, [sp, #8]
 8000428:	bd03      	pop	{r0, r1, pc}
 800042a:	46c0      	nop			; (mov r8, r8)
 800042c:	ffffffd9 	.word	0xffffffd9
 8000430:	b403      	push	{r0, r1}
 8000432:	4668      	mov	r0, sp
 8000434:	b501      	push	{r0, lr}
 8000436:	9802      	ldr	r0, [sp, #8]
 8000438:	f000 f834 	bl	80004a4 <__udivmoddi4>
 800043c:	9b01      	ldr	r3, [sp, #4]
 800043e:	469e      	mov	lr, r3
 8000440:	b002      	add	sp, #8
 8000442:	bc0c      	pop	{r2, r3}
 8000444:	4770      	bx	lr
 8000446:	46c0      	nop			; (mov r8, r8)

08000448 <__aeabi_lmul>:
 8000448:	b5f0      	push	{r4, r5, r6, r7, lr}
 800044a:	46ce      	mov	lr, r9
 800044c:	4647      	mov	r7, r8
 800044e:	b580      	push	{r7, lr}
 8000450:	0007      	movs	r7, r0
 8000452:	4699      	mov	r9, r3
 8000454:	0c3b      	lsrs	r3, r7, #16
 8000456:	469c      	mov	ip, r3
 8000458:	0413      	lsls	r3, r2, #16
 800045a:	0c1b      	lsrs	r3, r3, #16
 800045c:	001d      	movs	r5, r3
 800045e:	000e      	movs	r6, r1
 8000460:	4661      	mov	r1, ip
 8000462:	0400      	lsls	r0, r0, #16
 8000464:	0c14      	lsrs	r4, r2, #16
 8000466:	0c00      	lsrs	r0, r0, #16
 8000468:	4345      	muls	r5, r0
 800046a:	434b      	muls	r3, r1
 800046c:	4360      	muls	r0, r4
 800046e:	4361      	muls	r1, r4
 8000470:	18c0      	adds	r0, r0, r3
 8000472:	0c2c      	lsrs	r4, r5, #16
 8000474:	1820      	adds	r0, r4, r0
 8000476:	468c      	mov	ip, r1
 8000478:	4283      	cmp	r3, r0
 800047a:	d903      	bls.n	8000484 <__aeabi_lmul+0x3c>
 800047c:	2380      	movs	r3, #128	; 0x80
 800047e:	025b      	lsls	r3, r3, #9
 8000480:	4698      	mov	r8, r3
 8000482:	44c4      	add	ip, r8
 8000484:	4649      	mov	r1, r9
 8000486:	4379      	muls	r1, r7
 8000488:	4372      	muls	r2, r6
 800048a:	0c03      	lsrs	r3, r0, #16
 800048c:	4463      	add	r3, ip
 800048e:	042d      	lsls	r5, r5, #16
 8000490:	0c2d      	lsrs	r5, r5, #16
 8000492:	18c9      	adds	r1, r1, r3
 8000494:	0400      	lsls	r0, r0, #16
 8000496:	1940      	adds	r0, r0, r5
 8000498:	1889      	adds	r1, r1, r2
 800049a:	bcc0      	pop	{r6, r7}
 800049c:	46b9      	mov	r9, r7
 800049e:	46b0      	mov	r8, r6
 80004a0:	bdf0      	pop	{r4, r5, r6, r7, pc}
 80004a2:	46c0      	nop			; (mov r8, r8)

080004a4 <__udivmoddi4>:
 80004a4:	b5f0      	push	{r4, r5, r6, r7, lr}
 80004a6:	4657      	mov	r7, sl
 80004a8:	464e      	mov	r6, r9
 80004aa:	4645      	mov	r5, r8
 80004ac:	46de      	mov	lr, fp
 80004ae:	b5e0      	push	{r5, r6, r7, lr}
 80004b0:	0004      	movs	r4, r0
 80004b2:	000d      	movs	r5, r1
 80004b4:	4692      	mov	sl, r2
 80004b6:	4699      	mov	r9, r3
 80004b8:	b083      	sub	sp, #12
 80004ba:	428b      	cmp	r3, r1
 80004bc:	d830      	bhi.n	8000520 <__udivmoddi4+0x7c>
 80004be:	d02d      	beq.n	800051c <__udivmoddi4+0x78>
 80004c0:	4649      	mov	r1, r9
 80004c2:	4650      	mov	r0, sl
 80004c4:	f001 fa32 	bl	800192c <__clzdi2>
 80004c8:	0029      	movs	r1, r5
 80004ca:	0006      	movs	r6, r0
 80004cc:	0020      	movs	r0, r4
 80004ce:	f001 fa2d 	bl	800192c <__clzdi2>
 80004d2:	1a33      	subs	r3, r6, r0
 80004d4:	4698      	mov	r8, r3
 80004d6:	3b20      	subs	r3, #32
 80004d8:	469b      	mov	fp, r3
 80004da:	d433      	bmi.n	8000544 <__udivmoddi4+0xa0>
 80004dc:	465a      	mov	r2, fp
 80004de:	4653      	mov	r3, sl
 80004e0:	4093      	lsls	r3, r2
 80004e2:	4642      	mov	r2, r8
 80004e4:	001f      	movs	r7, r3
 80004e6:	4653      	mov	r3, sl
 80004e8:	4093      	lsls	r3, r2
 80004ea:	001e      	movs	r6, r3
 80004ec:	42af      	cmp	r7, r5
 80004ee:	d83a      	bhi.n	8000566 <__udivmoddi4+0xc2>
 80004f0:	42af      	cmp	r7, r5
 80004f2:	d100      	bne.n	80004f6 <__udivmoddi4+0x52>
 80004f4:	e078      	b.n	80005e8 <__udivmoddi4+0x144>
 80004f6:	465b      	mov	r3, fp
 80004f8:	1ba4      	subs	r4, r4, r6
 80004fa:	41bd      	sbcs	r5, r7
 80004fc:	2b00      	cmp	r3, #0
 80004fe:	da00      	bge.n	8000502 <__udivmoddi4+0x5e>
 8000500:	e075      	b.n	80005ee <__udivmoddi4+0x14a>
 8000502:	2200      	movs	r2, #0
 8000504:	2300      	movs	r3, #0
 8000506:	9200      	str	r2, [sp, #0]
 8000508:	9301      	str	r3, [sp, #4]
 800050a:	2301      	movs	r3, #1
 800050c:	465a      	mov	r2, fp
 800050e:	4093      	lsls	r3, r2
 8000510:	9301      	str	r3, [sp, #4]
 8000512:	2301      	movs	r3, #1
 8000514:	4642      	mov	r2, r8
 8000516:	4093      	lsls	r3, r2
 8000518:	9300      	str	r3, [sp, #0]
 800051a:	e028      	b.n	800056e <__udivmoddi4+0xca>
 800051c:	4282      	cmp	r2, r0
 800051e:	d9cf      	bls.n	80004c0 <__udivmoddi4+0x1c>
 8000520:	2200      	movs	r2, #0
 8000522:	2300      	movs	r3, #0
 8000524:	9200      	str	r2, [sp, #0]
 8000526:	9301      	str	r3, [sp, #4]
 8000528:	9b0c      	ldr	r3, [sp, #48]	; 0x30
 800052a:	2b00      	cmp	r3, #0
 800052c:	d001      	beq.n	8000532 <__udivmoddi4+0x8e>
 800052e:	601c      	str	r4, [r3, #0]
 8000530:	605d      	str	r5, [r3, #4]
 8000532:	9800      	ldr	r0, [sp, #0]
 8000534:	9901      	ldr	r1, [sp, #4]
 8000536:	b003      	add	sp, #12
 8000538:	bcf0      	pop	{r4, r5, r6, r7}
 800053a:	46bb      	mov	fp, r7
 800053c:	46b2      	mov	sl, r6
 800053e:	46a9      	mov	r9, r5
 8000540:	46a0      	mov	r8, r4
 8000542:	bdf0      	pop	{r4, r5, r6, r7, pc}
 8000544:	4642      	mov	r2, r8
 8000546:	2320      	movs	r3, #32
 8000548:	1a9b      	subs	r3, r3, r2
 800054a:	4652      	mov	r2, sl
 800054c:	40da      	lsrs	r2, r3
 800054e:	4641      	mov	r1, r8
 8000550:	0013      	movs	r3, r2
 8000552:	464a      	mov	r2, r9
 8000554:	408a      	lsls	r2, r1
 8000556:	0017      	movs	r7, r2
 8000558:	4642      	mov	r2, r8
 800055a:	431f      	orrs	r7, r3
 800055c:	4653      	mov	r3, sl
 800055e:	4093      	lsls	r3, r2
 8000560:	001e      	movs	r6, r3
 8000562:	42af      	cmp	r7, r5
 8000564:	d9c4      	bls.n	80004f0 <__udivmoddi4+0x4c>
 8000566:	2200      	movs	r2, #0
 8000568:	2300      	movs	r3, #0
 800056a:	9200      	str	r2, [sp, #0]
 800056c:	9301      	str	r3, [sp, #4]
 800056e:	4643      	mov	r3, r8
 8000570:	2b00      	cmp	r3, #0
 8000572:	d0d9      	beq.n	8000528 <__udivmoddi4+0x84>
 8000574:	07fb      	lsls	r3, r7, #31
 8000576:	0872      	lsrs	r2, r6, #1
 8000578:	431a      	orrs	r2, r3
 800057a:	4646      	mov	r6, r8
 800057c:	087b      	lsrs	r3, r7, #1
 800057e:	e00e      	b.n	800059e <__udivmoddi4+0xfa>
 8000580:	42ab      	cmp	r3, r5
 8000582:	d101      	bne.n	8000588 <__udivmoddi4+0xe4>
 8000584:	42a2      	cmp	r2, r4
 8000586:	d80c      	bhi.n	80005a2 <__udivmoddi4+0xfe>
 8000588:	1aa4      	subs	r4, r4, r2
 800058a:	419d      	sbcs	r5, r3
 800058c:	2001      	movs	r0, #1
 800058e:	1924      	adds	r4, r4, r4
 8000590:	416d      	adcs	r5, r5
 8000592:	2100      	movs	r1, #0
 8000594:	3e01      	subs	r6, #1
 8000596:	1824      	adds	r4, r4, r0
 8000598:	414d      	adcs	r5, r1
 800059a:	2e00      	cmp	r6, #0
 800059c:	d006      	beq.n	80005ac <__udivmoddi4+0x108>
 800059e:	42ab      	cmp	r3, r5
 80005a0:	d9ee      	bls.n	8000580 <__udivmoddi4+0xdc>
 80005a2:	3e01      	subs	r6, #1
 80005a4:	1924      	adds	r4, r4, r4
 80005a6:	416d      	adcs	r5, r5
 80005a8:	2e00      	cmp	r6, #0
 80005aa:	d1f8      	bne.n	800059e <__udivmoddi4+0xfa>
 80005ac:	9800      	ldr	r0, [sp, #0]
 80005ae:	9901      	ldr	r1, [sp, #4]
 80005b0:	465b      	mov	r3, fp
 80005b2:	1900      	adds	r0, r0, r4
 80005b4:	4169      	adcs	r1, r5
 80005b6:	2b00      	cmp	r3, #0
 80005b8:	db24      	blt.n	8000604 <__udivmoddi4+0x160>
 80005ba:	002b      	movs	r3, r5
 80005bc:	465a      	mov	r2, fp
 80005be:	4644      	mov	r4, r8
 80005c0:	40d3      	lsrs	r3, r2
 80005c2:	002a      	movs	r2, r5
 80005c4:	40e2      	lsrs	r2, r4
 80005c6:	001c      	movs	r4, r3
 80005c8:	465b      	mov	r3, fp
 80005ca:	0015      	movs	r5, r2
 80005cc:	2b00      	cmp	r3, #0
 80005ce:	db2a      	blt.n	8000626 <__udivmoddi4+0x182>
 80005d0:	0026      	movs	r6, r4
 80005d2:	409e      	lsls	r6, r3
 80005d4:	0033      	movs	r3, r6
 80005d6:	0026      	movs	r6, r4
 80005d8:	4647      	mov	r7, r8
 80005da:	40be      	lsls	r6, r7
 80005dc:	0032      	movs	r2, r6
 80005de:	1a80      	subs	r0, r0, r2
 80005e0:	4199      	sbcs	r1, r3
 80005e2:	9000      	str	r0, [sp, #0]
 80005e4:	9101      	str	r1, [sp, #4]
 80005e6:	e79f      	b.n	8000528 <__udivmoddi4+0x84>
 80005e8:	42a3      	cmp	r3, r4
 80005ea:	d8bc      	bhi.n	8000566 <__udivmoddi4+0xc2>
 80005ec:	e783      	b.n	80004f6 <__udivmoddi4+0x52>
 80005ee:	4642      	mov	r2, r8
 80005f0:	2320      	movs	r3, #32
 80005f2:	2100      	movs	r1, #0
 80005f4:	1a9b      	subs	r3, r3, r2
 80005f6:	2200      	movs	r2, #0
 80005f8:	9100      	str	r1, [sp, #0]
 80005fa:	9201      	str	r2, [sp, #4]
 80005fc:	2201      	movs	r2, #1
 80005fe:	40da      	lsrs	r2, r3
 8000600:	9201      	str	r2, [sp, #4]
 8000602:	e786      	b.n	8000512 <__udivmoddi4+0x6e>
 8000604:	4642      	mov	r2, r8
 8000606:	2320      	movs	r3, #32
 8000608:	1a9b      	subs	r3, r3, r2
 800060a:	002a      	movs	r2, r5
 800060c:	4646      	mov	r6, r8
 800060e:	409a      	lsls	r2, r3
 8000610:	0023      	movs	r3, r4
 8000612:	40f3      	lsrs	r3, r6
 8000614:	4644      	mov	r4, r8
 8000616:	4313      	orrs	r3, r2
 8000618:	002a      	movs	r2, r5
 800061a:	40e2      	lsrs	r2, r4
 800061c:	001c      	movs	r4, r3
 800061e:	465b      	mov	r3, fp
 8000620:	0015      	movs	r5, r2
 8000622:	2b00      	cmp	r3, #0
 8000624:	dad4      	bge.n	80005d0 <__udivmoddi4+0x12c>
 8000626:	4642      	mov	r2, r8
 8000628:	002f      	movs	r7, r5
 800062a:	2320      	movs	r3, #32
 800062c:	0026      	movs	r6, r4
 800062e:	4097      	lsls	r7, r2
 8000630:	1a9b      	subs	r3, r3, r2
 8000632:	40de      	lsrs	r6, r3
 8000634:	003b      	movs	r3, r7
 8000636:	4333      	orrs	r3, r6
 8000638:	e7cd      	b.n	80005d6 <__udivmoddi4+0x132>
 800063a:	46c0      	nop			; (mov r8, r8)

0800063c <__aeabi_ddiv>:
 800063c:	b5f0      	push	{r4, r5, r6, r7, lr}
 800063e:	4657      	mov	r7, sl
 8000640:	464e      	mov	r6, r9
 8000642:	4645      	mov	r5, r8
 8000644:	46de      	mov	lr, fp
 8000646:	b5e0      	push	{r5, r6, r7, lr}
 8000648:	4681      	mov	r9, r0
 800064a:	0005      	movs	r5, r0
 800064c:	030c      	lsls	r4, r1, #12
 800064e:	0048      	lsls	r0, r1, #1
 8000650:	4692      	mov	sl, r2
 8000652:	001f      	movs	r7, r3
 8000654:	b085      	sub	sp, #20
 8000656:	0b24      	lsrs	r4, r4, #12
 8000658:	0d40      	lsrs	r0, r0, #21
 800065a:	0fce      	lsrs	r6, r1, #31
 800065c:	2800      	cmp	r0, #0
 800065e:	d100      	bne.n	8000662 <__aeabi_ddiv+0x26>
 8000660:	e156      	b.n	8000910 <__aeabi_ddiv+0x2d4>
 8000662:	4bd4      	ldr	r3, [pc, #848]	; (80009b4 <__aeabi_ddiv+0x378>)
 8000664:	4298      	cmp	r0, r3
 8000666:	d100      	bne.n	800066a <__aeabi_ddiv+0x2e>
 8000668:	e172      	b.n	8000950 <__aeabi_ddiv+0x314>
 800066a:	0f6b      	lsrs	r3, r5, #29
 800066c:	00e4      	lsls	r4, r4, #3
 800066e:	431c      	orrs	r4, r3
 8000670:	2380      	movs	r3, #128	; 0x80
 8000672:	041b      	lsls	r3, r3, #16
 8000674:	4323      	orrs	r3, r4
 8000676:	4698      	mov	r8, r3
 8000678:	4bcf      	ldr	r3, [pc, #828]	; (80009b8 <__aeabi_ddiv+0x37c>)
 800067a:	00ed      	lsls	r5, r5, #3
 800067c:	469b      	mov	fp, r3
 800067e:	2300      	movs	r3, #0
 8000680:	4699      	mov	r9, r3
 8000682:	4483      	add	fp, r0
 8000684:	9300      	str	r3, [sp, #0]
 8000686:	033c      	lsls	r4, r7, #12
 8000688:	007b      	lsls	r3, r7, #1
 800068a:	4650      	mov	r0, sl
 800068c:	0b24      	lsrs	r4, r4, #12
 800068e:	0d5b      	lsrs	r3, r3, #21
 8000690:	0fff      	lsrs	r7, r7, #31
 8000692:	2b00      	cmp	r3, #0
 8000694:	d100      	bne.n	8000698 <__aeabi_ddiv+0x5c>
 8000696:	e11f      	b.n	80008d8 <__aeabi_ddiv+0x29c>
 8000698:	4ac6      	ldr	r2, [pc, #792]	; (80009b4 <__aeabi_ddiv+0x378>)
 800069a:	4293      	cmp	r3, r2
 800069c:	d100      	bne.n	80006a0 <__aeabi_ddiv+0x64>
 800069e:	e162      	b.n	8000966 <__aeabi_ddiv+0x32a>
 80006a0:	49c5      	ldr	r1, [pc, #788]	; (80009b8 <__aeabi_ddiv+0x37c>)
 80006a2:	0f42      	lsrs	r2, r0, #29
 80006a4:	468c      	mov	ip, r1
 80006a6:	00e4      	lsls	r4, r4, #3
 80006a8:	4659      	mov	r1, fp
 80006aa:	4314      	orrs	r4, r2
 80006ac:	2280      	movs	r2, #128	; 0x80
 80006ae:	4463      	add	r3, ip
 80006b0:	0412      	lsls	r2, r2, #16
 80006b2:	1acb      	subs	r3, r1, r3
 80006b4:	4314      	orrs	r4, r2
 80006b6:	469b      	mov	fp, r3
 80006b8:	00c2      	lsls	r2, r0, #3
 80006ba:	2000      	movs	r0, #0
 80006bc:	0033      	movs	r3, r6
 80006be:	407b      	eors	r3, r7
 80006c0:	469a      	mov	sl, r3
 80006c2:	464b      	mov	r3, r9
 80006c4:	2b0f      	cmp	r3, #15
 80006c6:	d827      	bhi.n	8000718 <__aeabi_ddiv+0xdc>
 80006c8:	49bc      	ldr	r1, [pc, #752]	; (80009bc <__aeabi_ddiv+0x380>)
 80006ca:	009b      	lsls	r3, r3, #2
 80006cc:	58cb      	ldr	r3, [r1, r3]
 80006ce:	469f      	mov	pc, r3
 80006d0:	46b2      	mov	sl, r6
 80006d2:	9b00      	ldr	r3, [sp, #0]
 80006d4:	2b02      	cmp	r3, #2
 80006d6:	d016      	beq.n	8000706 <__aeabi_ddiv+0xca>
 80006d8:	2b03      	cmp	r3, #3
 80006da:	d100      	bne.n	80006de <__aeabi_ddiv+0xa2>
 80006dc:	e28e      	b.n	8000bfc <__aeabi_ddiv+0x5c0>
 80006de:	2b01      	cmp	r3, #1
 80006e0:	d000      	beq.n	80006e4 <__aeabi_ddiv+0xa8>
 80006e2:	e0d9      	b.n	8000898 <__aeabi_ddiv+0x25c>
 80006e4:	2300      	movs	r3, #0
 80006e6:	2400      	movs	r4, #0
 80006e8:	2500      	movs	r5, #0
 80006ea:	4652      	mov	r2, sl
 80006ec:	051b      	lsls	r3, r3, #20
 80006ee:	4323      	orrs	r3, r4
 80006f0:	07d2      	lsls	r2, r2, #31
 80006f2:	4313      	orrs	r3, r2
 80006f4:	0028      	movs	r0, r5
 80006f6:	0019      	movs	r1, r3
 80006f8:	b005      	add	sp, #20
 80006fa:	bcf0      	pop	{r4, r5, r6, r7}
 80006fc:	46bb      	mov	fp, r7
 80006fe:	46b2      	mov	sl, r6
 8000700:	46a9      	mov	r9, r5
 8000702:	46a0      	mov	r8, r4
 8000704:	bdf0      	pop	{r4, r5, r6, r7, pc}
 8000706:	2400      	movs	r4, #0
 8000708:	2500      	movs	r5, #0
 800070a:	4baa      	ldr	r3, [pc, #680]	; (80009b4 <__aeabi_ddiv+0x378>)
 800070c:	e7ed      	b.n	80006ea <__aeabi_ddiv+0xae>
 800070e:	46ba      	mov	sl, r7
 8000710:	46a0      	mov	r8, r4
 8000712:	0015      	movs	r5, r2
 8000714:	9000      	str	r0, [sp, #0]
 8000716:	e7dc      	b.n	80006d2 <__aeabi_ddiv+0x96>
 8000718:	4544      	cmp	r4, r8
 800071a:	d200      	bcs.n	800071e <__aeabi_ddiv+0xe2>
 800071c:	e1c7      	b.n	8000aae <__aeabi_ddiv+0x472>
 800071e:	d100      	bne.n	8000722 <__aeabi_ddiv+0xe6>
 8000720:	e1c2      	b.n	8000aa8 <__aeabi_ddiv+0x46c>
 8000722:	2301      	movs	r3, #1
 8000724:	425b      	negs	r3, r3
 8000726:	469c      	mov	ip, r3
 8000728:	002e      	movs	r6, r5
 800072a:	4640      	mov	r0, r8
 800072c:	2500      	movs	r5, #0
 800072e:	44e3      	add	fp, ip
 8000730:	0223      	lsls	r3, r4, #8
 8000732:	0e14      	lsrs	r4, r2, #24
 8000734:	431c      	orrs	r4, r3
 8000736:	0c1b      	lsrs	r3, r3, #16
 8000738:	4699      	mov	r9, r3
 800073a:	0423      	lsls	r3, r4, #16
 800073c:	0c1f      	lsrs	r7, r3, #16
 800073e:	0212      	lsls	r2, r2, #8
 8000740:	4649      	mov	r1, r9
 8000742:	9200      	str	r2, [sp, #0]
 8000744:	9701      	str	r7, [sp, #4]
 8000746:	f7ff fd6f 	bl	8000228 <__aeabi_uidivmod>
 800074a:	0002      	movs	r2, r0
 800074c:	437a      	muls	r2, r7
 800074e:	040b      	lsls	r3, r1, #16
 8000750:	0c31      	lsrs	r1, r6, #16
 8000752:	4680      	mov	r8, r0
 8000754:	4319      	orrs	r1, r3
 8000756:	428a      	cmp	r2, r1
 8000758:	d907      	bls.n	800076a <__aeabi_ddiv+0x12e>
 800075a:	2301      	movs	r3, #1
 800075c:	425b      	negs	r3, r3
 800075e:	469c      	mov	ip, r3
 8000760:	1909      	adds	r1, r1, r4
 8000762:	44e0      	add	r8, ip
 8000764:	428c      	cmp	r4, r1
 8000766:	d800      	bhi.n	800076a <__aeabi_ddiv+0x12e>
 8000768:	e207      	b.n	8000b7a <__aeabi_ddiv+0x53e>
 800076a:	1a88      	subs	r0, r1, r2
 800076c:	4649      	mov	r1, r9
 800076e:	f7ff fd5b 	bl	8000228 <__aeabi_uidivmod>
 8000772:	0409      	lsls	r1, r1, #16
 8000774:	468c      	mov	ip, r1
 8000776:	0431      	lsls	r1, r6, #16
 8000778:	4666      	mov	r6, ip
 800077a:	9a01      	ldr	r2, [sp, #4]
 800077c:	0c09      	lsrs	r1, r1, #16
 800077e:	4342      	muls	r2, r0
 8000780:	0003      	movs	r3, r0
 8000782:	4331      	orrs	r1, r6
 8000784:	428a      	cmp	r2, r1
 8000786:	d904      	bls.n	8000792 <__aeabi_ddiv+0x156>
 8000788:	1909      	adds	r1, r1, r4
 800078a:	3b01      	subs	r3, #1
 800078c:	428c      	cmp	r4, r1
 800078e:	d800      	bhi.n	8000792 <__aeabi_ddiv+0x156>
 8000790:	e1ed      	b.n	8000b6e <__aeabi_ddiv+0x532>
 8000792:	1a88      	subs	r0, r1, r2
 8000794:	4642      	mov	r2, r8
 8000796:	0412      	lsls	r2, r2, #16
 8000798:	431a      	orrs	r2, r3
 800079a:	4690      	mov	r8, r2
 800079c:	4641      	mov	r1, r8
 800079e:	9b00      	ldr	r3, [sp, #0]
 80007a0:	040e      	lsls	r6, r1, #16
 80007a2:	0c1b      	lsrs	r3, r3, #16
 80007a4:	001f      	movs	r7, r3
 80007a6:	9302      	str	r3, [sp, #8]
 80007a8:	9b00      	ldr	r3, [sp, #0]
 80007aa:	0c36      	lsrs	r6, r6, #16
 80007ac:	041b      	lsls	r3, r3, #16
 80007ae:	0c19      	lsrs	r1, r3, #16
 80007b0:	000b      	movs	r3, r1
 80007b2:	4373      	muls	r3, r6
 80007b4:	0c12      	lsrs	r2, r2, #16
 80007b6:	437e      	muls	r6, r7
 80007b8:	9103      	str	r1, [sp, #12]
 80007ba:	4351      	muls	r1, r2
 80007bc:	437a      	muls	r2, r7
 80007be:	0c1f      	lsrs	r7, r3, #16
 80007c0:	46bc      	mov	ip, r7
 80007c2:	1876      	adds	r6, r6, r1
 80007c4:	4466      	add	r6, ip
 80007c6:	42b1      	cmp	r1, r6
 80007c8:	d903      	bls.n	80007d2 <__aeabi_ddiv+0x196>
 80007ca:	2180      	movs	r1, #128	; 0x80
 80007cc:	0249      	lsls	r1, r1, #9
 80007ce:	468c      	mov	ip, r1
 80007d0:	4462      	add	r2, ip
 80007d2:	0c31      	lsrs	r1, r6, #16
 80007d4:	188a      	adds	r2, r1, r2
 80007d6:	0431      	lsls	r1, r6, #16
 80007d8:	041e      	lsls	r6, r3, #16
 80007da:	0c36      	lsrs	r6, r6, #16
 80007dc:	198e      	adds	r6, r1, r6
 80007de:	4290      	cmp	r0, r2
 80007e0:	d302      	bcc.n	80007e8 <__aeabi_ddiv+0x1ac>
 80007e2:	d112      	bne.n	800080a <__aeabi_ddiv+0x1ce>
 80007e4:	42b5      	cmp	r5, r6
 80007e6:	d210      	bcs.n	800080a <__aeabi_ddiv+0x1ce>
 80007e8:	4643      	mov	r3, r8
 80007ea:	1e59      	subs	r1, r3, #1
 80007ec:	9b00      	ldr	r3, [sp, #0]
 80007ee:	469c      	mov	ip, r3
 80007f0:	4465      	add	r5, ip
 80007f2:	001f      	movs	r7, r3
 80007f4:	429d      	cmp	r5, r3
 80007f6:	419b      	sbcs	r3, r3
 80007f8:	425b      	negs	r3, r3
 80007fa:	191b      	adds	r3, r3, r4
 80007fc:	18c0      	adds	r0, r0, r3
 80007fe:	4284      	cmp	r4, r0
 8000800:	d200      	bcs.n	8000804 <__aeabi_ddiv+0x1c8>
 8000802:	e1a0      	b.n	8000b46 <__aeabi_ddiv+0x50a>
 8000804:	d100      	bne.n	8000808 <__aeabi_ddiv+0x1cc>
 8000806:	e19b      	b.n	8000b40 <__aeabi_ddiv+0x504>
 8000808:	4688      	mov	r8, r1
 800080a:	1bae      	subs	r6, r5, r6
 800080c:	42b5      	cmp	r5, r6
 800080e:	41ad      	sbcs	r5, r5
 8000810:	1a80      	subs	r0, r0, r2
 8000812:	426d      	negs	r5, r5
 8000814:	1b40      	subs	r0, r0, r5
 8000816:	4284      	cmp	r4, r0
 8000818:	d100      	bne.n	800081c <__aeabi_ddiv+0x1e0>
 800081a:	e1d5      	b.n	8000bc8 <__aeabi_ddiv+0x58c>
 800081c:	4649      	mov	r1, r9
 800081e:	f7ff fd03 	bl	8000228 <__aeabi_uidivmod>
 8000822:	9a01      	ldr	r2, [sp, #4]
 8000824:	040b      	lsls	r3, r1, #16
 8000826:	4342      	muls	r2, r0
 8000828:	0c31      	lsrs	r1, r6, #16
 800082a:	0005      	movs	r5, r0
 800082c:	4319      	orrs	r1, r3
 800082e:	428a      	cmp	r2, r1
 8000830:	d900      	bls.n	8000834 <__aeabi_ddiv+0x1f8>
 8000832:	e16c      	b.n	8000b0e <__aeabi_ddiv+0x4d2>
 8000834:	1a88      	subs	r0, r1, r2
 8000836:	4649      	mov	r1, r9
 8000838:	f7ff fcf6 	bl	8000228 <__aeabi_uidivmod>
 800083c:	9a01      	ldr	r2, [sp, #4]
 800083e:	0436      	lsls	r6, r6, #16
 8000840:	4342      	muls	r2, r0
 8000842:	0409      	lsls	r1, r1, #16
 8000844:	0c36      	lsrs	r6, r6, #16
 8000846:	0003      	movs	r3, r0
 8000848:	430e      	orrs	r6, r1
 800084a:	42b2      	cmp	r2, r6
 800084c:	d900      	bls.n	8000850 <__aeabi_ddiv+0x214>
 800084e:	e153      	b.n	8000af8 <__aeabi_ddiv+0x4bc>
 8000850:	9803      	ldr	r0, [sp, #12]
 8000852:	1ab6      	subs	r6, r6, r2
 8000854:	0002      	movs	r2, r0
 8000856:	042d      	lsls	r5, r5, #16
 8000858:	431d      	orrs	r5, r3
 800085a:	9f02      	ldr	r7, [sp, #8]
 800085c:	042b      	lsls	r3, r5, #16
 800085e:	0c1b      	lsrs	r3, r3, #16
 8000860:	435a      	muls	r2, r3
 8000862:	437b      	muls	r3, r7
 8000864:	469c      	mov	ip, r3
 8000866:	0c29      	lsrs	r1, r5, #16
 8000868:	4348      	muls	r0, r1
 800086a:	0c13      	lsrs	r3, r2, #16
 800086c:	4484      	add	ip, r0
 800086e:	4463      	add	r3, ip
 8000870:	4379      	muls	r1, r7
 8000872:	4298      	cmp	r0, r3
 8000874:	d903      	bls.n	800087e <__aeabi_ddiv+0x242>
 8000876:	2080      	movs	r0, #128	; 0x80
 8000878:	0240      	lsls	r0, r0, #9
 800087a:	4684      	mov	ip, r0
 800087c:	4461      	add	r1, ip
 800087e:	0c18      	lsrs	r0, r3, #16
 8000880:	0412      	lsls	r2, r2, #16
 8000882:	041b      	lsls	r3, r3, #16
 8000884:	0c12      	lsrs	r2, r2, #16
 8000886:	1841      	adds	r1, r0, r1
 8000888:	189b      	adds	r3, r3, r2
 800088a:	428e      	cmp	r6, r1
 800088c:	d200      	bcs.n	8000890 <__aeabi_ddiv+0x254>
 800088e:	e0ff      	b.n	8000a90 <__aeabi_ddiv+0x454>
 8000890:	d100      	bne.n	8000894 <__aeabi_ddiv+0x258>
 8000892:	e0fa      	b.n	8000a8a <__aeabi_ddiv+0x44e>
 8000894:	2301      	movs	r3, #1
 8000896:	431d      	orrs	r5, r3
 8000898:	4a49      	ldr	r2, [pc, #292]	; (80009c0 <__aeabi_ddiv+0x384>)
 800089a:	445a      	add	r2, fp
 800089c:	2a00      	cmp	r2, #0
 800089e:	dc00      	bgt.n	80008a2 <__aeabi_ddiv+0x266>
 80008a0:	e0aa      	b.n	80009f8 <__aeabi_ddiv+0x3bc>
 80008a2:	076b      	lsls	r3, r5, #29
 80008a4:	d000      	beq.n	80008a8 <__aeabi_ddiv+0x26c>
 80008a6:	e13d      	b.n	8000b24 <__aeabi_ddiv+0x4e8>
 80008a8:	08ed      	lsrs	r5, r5, #3
 80008aa:	4643      	mov	r3, r8
 80008ac:	01db      	lsls	r3, r3, #7
 80008ae:	d506      	bpl.n	80008be <__aeabi_ddiv+0x282>
 80008b0:	4642      	mov	r2, r8
 80008b2:	4b44      	ldr	r3, [pc, #272]	; (80009c4 <__aeabi_ddiv+0x388>)
 80008b4:	401a      	ands	r2, r3
 80008b6:	4690      	mov	r8, r2
 80008b8:	2280      	movs	r2, #128	; 0x80
 80008ba:	00d2      	lsls	r2, r2, #3
 80008bc:	445a      	add	r2, fp
 80008be:	4b42      	ldr	r3, [pc, #264]	; (80009c8 <__aeabi_ddiv+0x38c>)
 80008c0:	429a      	cmp	r2, r3
 80008c2:	dd00      	ble.n	80008c6 <__aeabi_ddiv+0x28a>
 80008c4:	e71f      	b.n	8000706 <__aeabi_ddiv+0xca>
 80008c6:	4643      	mov	r3, r8
 80008c8:	075b      	lsls	r3, r3, #29
 80008ca:	431d      	orrs	r5, r3
 80008cc:	4643      	mov	r3, r8
 80008ce:	0552      	lsls	r2, r2, #21
 80008d0:	025c      	lsls	r4, r3, #9
 80008d2:	0b24      	lsrs	r4, r4, #12
 80008d4:	0d53      	lsrs	r3, r2, #21
 80008d6:	e708      	b.n	80006ea <__aeabi_ddiv+0xae>
 80008d8:	4652      	mov	r2, sl
 80008da:	4322      	orrs	r2, r4
 80008dc:	d100      	bne.n	80008e0 <__aeabi_ddiv+0x2a4>
 80008de:	e07b      	b.n	80009d8 <__aeabi_ddiv+0x39c>
 80008e0:	2c00      	cmp	r4, #0
 80008e2:	d100      	bne.n	80008e6 <__aeabi_ddiv+0x2aa>
 80008e4:	e0fa      	b.n	8000adc <__aeabi_ddiv+0x4a0>
 80008e6:	0020      	movs	r0, r4
 80008e8:	f001 f802 	bl	80018f0 <__clzsi2>
 80008ec:	0002      	movs	r2, r0
 80008ee:	3a0b      	subs	r2, #11
 80008f0:	231d      	movs	r3, #29
 80008f2:	0001      	movs	r1, r0
 80008f4:	1a9b      	subs	r3, r3, r2
 80008f6:	4652      	mov	r2, sl
 80008f8:	3908      	subs	r1, #8
 80008fa:	40da      	lsrs	r2, r3
 80008fc:	408c      	lsls	r4, r1
 80008fe:	4314      	orrs	r4, r2
 8000900:	4652      	mov	r2, sl
 8000902:	408a      	lsls	r2, r1
 8000904:	4b31      	ldr	r3, [pc, #196]	; (80009cc <__aeabi_ddiv+0x390>)
 8000906:	4458      	add	r0, fp
 8000908:	469b      	mov	fp, r3
 800090a:	4483      	add	fp, r0
 800090c:	2000      	movs	r0, #0
 800090e:	e6d5      	b.n	80006bc <__aeabi_ddiv+0x80>
 8000910:	464b      	mov	r3, r9
 8000912:	4323      	orrs	r3, r4
 8000914:	4698      	mov	r8, r3
 8000916:	d044      	beq.n	80009a2 <__aeabi_ddiv+0x366>
 8000918:	2c00      	cmp	r4, #0
 800091a:	d100      	bne.n	800091e <__aeabi_ddiv+0x2e2>
 800091c:	e0ce      	b.n	8000abc <__aeabi_ddiv+0x480>
 800091e:	0020      	movs	r0, r4
 8000920:	f000 ffe6 	bl	80018f0 <__clzsi2>
 8000924:	0001      	movs	r1, r0
 8000926:	0002      	movs	r2, r0
 8000928:	390b      	subs	r1, #11
 800092a:	231d      	movs	r3, #29
 800092c:	1a5b      	subs	r3, r3, r1
 800092e:	4649      	mov	r1, r9
 8000930:	0010      	movs	r0, r2
 8000932:	40d9      	lsrs	r1, r3
 8000934:	3808      	subs	r0, #8
 8000936:	4084      	lsls	r4, r0
 8000938:	000b      	movs	r3, r1
 800093a:	464d      	mov	r5, r9
 800093c:	4323      	orrs	r3, r4
 800093e:	4698      	mov	r8, r3
 8000940:	4085      	lsls	r5, r0
 8000942:	4823      	ldr	r0, [pc, #140]	; (80009d0 <__aeabi_ddiv+0x394>)
 8000944:	1a83      	subs	r3, r0, r2
 8000946:	469b      	mov	fp, r3
 8000948:	2300      	movs	r3, #0
 800094a:	4699      	mov	r9, r3
 800094c:	9300      	str	r3, [sp, #0]
 800094e:	e69a      	b.n	8000686 <__aeabi_ddiv+0x4a>
 8000950:	464b      	mov	r3, r9
 8000952:	4323      	orrs	r3, r4
 8000954:	4698      	mov	r8, r3
 8000956:	d11d      	bne.n	8000994 <__aeabi_ddiv+0x358>
 8000958:	2308      	movs	r3, #8
 800095a:	4699      	mov	r9, r3
 800095c:	3b06      	subs	r3, #6
 800095e:	2500      	movs	r5, #0
 8000960:	4683      	mov	fp, r0
 8000962:	9300      	str	r3, [sp, #0]
 8000964:	e68f      	b.n	8000686 <__aeabi_ddiv+0x4a>
 8000966:	4652      	mov	r2, sl
 8000968:	4322      	orrs	r2, r4
 800096a:	d109      	bne.n	8000980 <__aeabi_ddiv+0x344>
 800096c:	2302      	movs	r3, #2
 800096e:	4649      	mov	r1, r9
 8000970:	4319      	orrs	r1, r3
 8000972:	4b18      	ldr	r3, [pc, #96]	; (80009d4 <__aeabi_ddiv+0x398>)
 8000974:	4689      	mov	r9, r1
 8000976:	469c      	mov	ip, r3
 8000978:	2400      	movs	r4, #0
 800097a:	2002      	movs	r0, #2
 800097c:	44e3      	add	fp, ip
 800097e:	e69d      	b.n	80006bc <__aeabi_ddiv+0x80>
 8000980:	2303      	movs	r3, #3
 8000982:	464a      	mov	r2, r9
 8000984:	431a      	orrs	r2, r3
 8000986:	4b13      	ldr	r3, [pc, #76]	; (80009d4 <__aeabi_ddiv+0x398>)
 8000988:	4691      	mov	r9, r2
 800098a:	469c      	mov	ip, r3
 800098c:	4652      	mov	r2, sl
 800098e:	2003      	movs	r0, #3
 8000990:	44e3      	add	fp, ip
 8000992:	e693      	b.n	80006bc <__aeabi_ddiv+0x80>
 8000994:	230c      	movs	r3, #12
 8000996:	4699      	mov	r9, r3
 8000998:	3b09      	subs	r3, #9
 800099a:	46a0      	mov	r8, r4
 800099c:	4683      	mov	fp, r0
 800099e:	9300      	str	r3, [sp, #0]
 80009a0:	e671      	b.n	8000686 <__aeabi_ddiv+0x4a>
 80009a2:	2304      	movs	r3, #4
 80009a4:	4699      	mov	r9, r3
 80009a6:	2300      	movs	r3, #0
 80009a8:	469b      	mov	fp, r3
 80009aa:	3301      	adds	r3, #1
 80009ac:	2500      	movs	r5, #0
 80009ae:	9300      	str	r3, [sp, #0]
 80009b0:	e669      	b.n	8000686 <__aeabi_ddiv+0x4a>
 80009b2:	46c0      	nop			; (mov r8, r8)
 80009b4:	000007ff 	.word	0x000007ff
 80009b8:	fffffc01 	.word	0xfffffc01
 80009bc:	08005f1c 	.word	0x08005f1c
 80009c0:	000003ff 	.word	0x000003ff
 80009c4:	feffffff 	.word	0xfeffffff
 80009c8:	000007fe 	.word	0x000007fe
 80009cc:	000003f3 	.word	0x000003f3
 80009d0:	fffffc0d 	.word	0xfffffc0d
 80009d4:	fffff801 	.word	0xfffff801
 80009d8:	4649      	mov	r1, r9
 80009da:	2301      	movs	r3, #1
 80009dc:	4319      	orrs	r1, r3
 80009de:	4689      	mov	r9, r1
 80009e0:	2400      	movs	r4, #0
 80009e2:	2001      	movs	r0, #1
 80009e4:	e66a      	b.n	80006bc <__aeabi_ddiv+0x80>
 80009e6:	2300      	movs	r3, #0
 80009e8:	2480      	movs	r4, #128	; 0x80
 80009ea:	469a      	mov	sl, r3
 80009ec:	2500      	movs	r5, #0
 80009ee:	4b8a      	ldr	r3, [pc, #552]	; (8000c18 <__aeabi_ddiv+0x5dc>)
 80009f0:	0324      	lsls	r4, r4, #12
 80009f2:	e67a      	b.n	80006ea <__aeabi_ddiv+0xae>
 80009f4:	2501      	movs	r5, #1
 80009f6:	426d      	negs	r5, r5
 80009f8:	2301      	movs	r3, #1
 80009fa:	1a9b      	subs	r3, r3, r2
 80009fc:	2b38      	cmp	r3, #56	; 0x38
 80009fe:	dd00      	ble.n	8000a02 <__aeabi_ddiv+0x3c6>
 8000a00:	e670      	b.n	80006e4 <__aeabi_ddiv+0xa8>
 8000a02:	2b1f      	cmp	r3, #31
 8000a04:	dc00      	bgt.n	8000a08 <__aeabi_ddiv+0x3cc>
 8000a06:	e0bf      	b.n	8000b88 <__aeabi_ddiv+0x54c>
 8000a08:	211f      	movs	r1, #31
 8000a0a:	4249      	negs	r1, r1
 8000a0c:	1a8a      	subs	r2, r1, r2
 8000a0e:	4641      	mov	r1, r8
 8000a10:	40d1      	lsrs	r1, r2
 8000a12:	000a      	movs	r2, r1
 8000a14:	2b20      	cmp	r3, #32
 8000a16:	d004      	beq.n	8000a22 <__aeabi_ddiv+0x3e6>
 8000a18:	4641      	mov	r1, r8
 8000a1a:	4b80      	ldr	r3, [pc, #512]	; (8000c1c <__aeabi_ddiv+0x5e0>)
 8000a1c:	445b      	add	r3, fp
 8000a1e:	4099      	lsls	r1, r3
 8000a20:	430d      	orrs	r5, r1
 8000a22:	1e6b      	subs	r3, r5, #1
 8000a24:	419d      	sbcs	r5, r3
 8000a26:	2307      	movs	r3, #7
 8000a28:	432a      	orrs	r2, r5
 8000a2a:	001d      	movs	r5, r3
 8000a2c:	2400      	movs	r4, #0
 8000a2e:	4015      	ands	r5, r2
 8000a30:	4213      	tst	r3, r2
 8000a32:	d100      	bne.n	8000a36 <__aeabi_ddiv+0x3fa>
 8000a34:	e0d4      	b.n	8000be0 <__aeabi_ddiv+0x5a4>
 8000a36:	210f      	movs	r1, #15
 8000a38:	2300      	movs	r3, #0
 8000a3a:	4011      	ands	r1, r2
 8000a3c:	2904      	cmp	r1, #4
 8000a3e:	d100      	bne.n	8000a42 <__aeabi_ddiv+0x406>
 8000a40:	e0cb      	b.n	8000bda <__aeabi_ddiv+0x59e>
 8000a42:	1d11      	adds	r1, r2, #4
 8000a44:	4291      	cmp	r1, r2
 8000a46:	4192      	sbcs	r2, r2
 8000a48:	4252      	negs	r2, r2
 8000a4a:	189b      	adds	r3, r3, r2
 8000a4c:	000a      	movs	r2, r1
 8000a4e:	0219      	lsls	r1, r3, #8
 8000a50:	d400      	bmi.n	8000a54 <__aeabi_ddiv+0x418>
 8000a52:	e0c2      	b.n	8000bda <__aeabi_ddiv+0x59e>
 8000a54:	2301      	movs	r3, #1
 8000a56:	2400      	movs	r4, #0
 8000a58:	2500      	movs	r5, #0
 8000a5a:	e646      	b.n	80006ea <__aeabi_ddiv+0xae>
 8000a5c:	2380      	movs	r3, #128	; 0x80
 8000a5e:	4641      	mov	r1, r8
 8000a60:	031b      	lsls	r3, r3, #12
 8000a62:	4219      	tst	r1, r3
 8000a64:	d008      	beq.n	8000a78 <__aeabi_ddiv+0x43c>
 8000a66:	421c      	tst	r4, r3
 8000a68:	d106      	bne.n	8000a78 <__aeabi_ddiv+0x43c>
 8000a6a:	431c      	orrs	r4, r3
 8000a6c:	0324      	lsls	r4, r4, #12
 8000a6e:	46ba      	mov	sl, r7
 8000a70:	0015      	movs	r5, r2
 8000a72:	4b69      	ldr	r3, [pc, #420]	; (8000c18 <__aeabi_ddiv+0x5dc>)
 8000a74:	0b24      	lsrs	r4, r4, #12
 8000a76:	e638      	b.n	80006ea <__aeabi_ddiv+0xae>
 8000a78:	2480      	movs	r4, #128	; 0x80
 8000a7a:	4643      	mov	r3, r8
 8000a7c:	0324      	lsls	r4, r4, #12
 8000a7e:	431c      	orrs	r4, r3
 8000a80:	0324      	lsls	r4, r4, #12
 8000a82:	46b2      	mov	sl, r6
 8000a84:	4b64      	ldr	r3, [pc, #400]	; (8000c18 <__aeabi_ddiv+0x5dc>)
 8000a86:	0b24      	lsrs	r4, r4, #12
 8000a88:	e62f      	b.n	80006ea <__aeabi_ddiv+0xae>
 8000a8a:	2b00      	cmp	r3, #0
 8000a8c:	d100      	bne.n	8000a90 <__aeabi_ddiv+0x454>
 8000a8e:	e703      	b.n	8000898 <__aeabi_ddiv+0x25c>
 8000a90:	19a6      	adds	r6, r4, r6
 8000a92:	1e68      	subs	r0, r5, #1
 8000a94:	42a6      	cmp	r6, r4
 8000a96:	d200      	bcs.n	8000a9a <__aeabi_ddiv+0x45e>
 8000a98:	e08d      	b.n	8000bb6 <__aeabi_ddiv+0x57a>
 8000a9a:	428e      	cmp	r6, r1
 8000a9c:	d200      	bcs.n	8000aa0 <__aeabi_ddiv+0x464>
 8000a9e:	e0a3      	b.n	8000be8 <__aeabi_ddiv+0x5ac>
 8000aa0:	d100      	bne.n	8000aa4 <__aeabi_ddiv+0x468>
 8000aa2:	e0b3      	b.n	8000c0c <__aeabi_ddiv+0x5d0>
 8000aa4:	0005      	movs	r5, r0
 8000aa6:	e6f5      	b.n	8000894 <__aeabi_ddiv+0x258>
 8000aa8:	42aa      	cmp	r2, r5
 8000aaa:	d900      	bls.n	8000aae <__aeabi_ddiv+0x472>
 8000aac:	e639      	b.n	8000722 <__aeabi_ddiv+0xe6>
 8000aae:	4643      	mov	r3, r8
 8000ab0:	07de      	lsls	r6, r3, #31
 8000ab2:	0858      	lsrs	r0, r3, #1
 8000ab4:	086b      	lsrs	r3, r5, #1
 8000ab6:	431e      	orrs	r6, r3
 8000ab8:	07ed      	lsls	r5, r5, #31
 8000aba:	e639      	b.n	8000730 <__aeabi_ddiv+0xf4>
 8000abc:	4648      	mov	r0, r9
 8000abe:	f000 ff17 	bl	80018f0 <__clzsi2>
 8000ac2:	0001      	movs	r1, r0
 8000ac4:	0002      	movs	r2, r0
 8000ac6:	3115      	adds	r1, #21
 8000ac8:	3220      	adds	r2, #32
 8000aca:	291c      	cmp	r1, #28
 8000acc:	dc00      	bgt.n	8000ad0 <__aeabi_ddiv+0x494>
 8000ace:	e72c      	b.n	800092a <__aeabi_ddiv+0x2ee>
 8000ad0:	464b      	mov	r3, r9
 8000ad2:	3808      	subs	r0, #8
 8000ad4:	4083      	lsls	r3, r0
 8000ad6:	2500      	movs	r5, #0
 8000ad8:	4698      	mov	r8, r3
 8000ada:	e732      	b.n	8000942 <__aeabi_ddiv+0x306>
 8000adc:	f000 ff08 	bl	80018f0 <__clzsi2>
 8000ae0:	0003      	movs	r3, r0
 8000ae2:	001a      	movs	r2, r3
 8000ae4:	3215      	adds	r2, #21
 8000ae6:	3020      	adds	r0, #32
 8000ae8:	2a1c      	cmp	r2, #28
 8000aea:	dc00      	bgt.n	8000aee <__aeabi_ddiv+0x4b2>
 8000aec:	e700      	b.n	80008f0 <__aeabi_ddiv+0x2b4>
 8000aee:	4654      	mov	r4, sl
 8000af0:	3b08      	subs	r3, #8
 8000af2:	2200      	movs	r2, #0
 8000af4:	409c      	lsls	r4, r3
 8000af6:	e705      	b.n	8000904 <__aeabi_ddiv+0x2c8>
 8000af8:	1936      	adds	r6, r6, r4
 8000afa:	3b01      	subs	r3, #1
 8000afc:	42b4      	cmp	r4, r6
 8000afe:	d900      	bls.n	8000b02 <__aeabi_ddiv+0x4c6>
 8000b00:	e6a6      	b.n	8000850 <__aeabi_ddiv+0x214>
 8000b02:	42b2      	cmp	r2, r6
 8000b04:	d800      	bhi.n	8000b08 <__aeabi_ddiv+0x4cc>
 8000b06:	e6a3      	b.n	8000850 <__aeabi_ddiv+0x214>
 8000b08:	1e83      	subs	r3, r0, #2
 8000b0a:	1936      	adds	r6, r6, r4
 8000b0c:	e6a0      	b.n	8000850 <__aeabi_ddiv+0x214>
 8000b0e:	1909      	adds	r1, r1, r4
 8000b10:	3d01      	subs	r5, #1
 8000b12:	428c      	cmp	r4, r1
 8000b14:	d900      	bls.n	8000b18 <__aeabi_ddiv+0x4dc>
 8000b16:	e68d      	b.n	8000834 <__aeabi_ddiv+0x1f8>
 8000b18:	428a      	cmp	r2, r1
 8000b1a:	d800      	bhi.n	8000b1e <__aeabi_ddiv+0x4e2>
 8000b1c:	e68a      	b.n	8000834 <__aeabi_ddiv+0x1f8>
 8000b1e:	1e85      	subs	r5, r0, #2
 8000b20:	1909      	adds	r1, r1, r4
 8000b22:	e687      	b.n	8000834 <__aeabi_ddiv+0x1f8>
 8000b24:	230f      	movs	r3, #15
 8000b26:	402b      	ands	r3, r5
 8000b28:	2b04      	cmp	r3, #4
 8000b2a:	d100      	bne.n	8000b2e <__aeabi_ddiv+0x4f2>
 8000b2c:	e6bc      	b.n	80008a8 <__aeabi_ddiv+0x26c>
 8000b2e:	2305      	movs	r3, #5
 8000b30:	425b      	negs	r3, r3
 8000b32:	42ab      	cmp	r3, r5
 8000b34:	419b      	sbcs	r3, r3
 8000b36:	3504      	adds	r5, #4
 8000b38:	425b      	negs	r3, r3
 8000b3a:	08ed      	lsrs	r5, r5, #3
 8000b3c:	4498      	add	r8, r3
 8000b3e:	e6b4      	b.n	80008aa <__aeabi_ddiv+0x26e>
 8000b40:	42af      	cmp	r7, r5
 8000b42:	d900      	bls.n	8000b46 <__aeabi_ddiv+0x50a>
 8000b44:	e660      	b.n	8000808 <__aeabi_ddiv+0x1cc>
 8000b46:	4282      	cmp	r2, r0
 8000b48:	d804      	bhi.n	8000b54 <__aeabi_ddiv+0x518>
 8000b4a:	d000      	beq.n	8000b4e <__aeabi_ddiv+0x512>
 8000b4c:	e65c      	b.n	8000808 <__aeabi_ddiv+0x1cc>
 8000b4e:	42ae      	cmp	r6, r5
 8000b50:	d800      	bhi.n	8000b54 <__aeabi_ddiv+0x518>
 8000b52:	e659      	b.n	8000808 <__aeabi_ddiv+0x1cc>
 8000b54:	2302      	movs	r3, #2
 8000b56:	425b      	negs	r3, r3
 8000b58:	469c      	mov	ip, r3
 8000b5a:	9b00      	ldr	r3, [sp, #0]
 8000b5c:	44e0      	add	r8, ip
 8000b5e:	469c      	mov	ip, r3
 8000b60:	4465      	add	r5, ip
 8000b62:	429d      	cmp	r5, r3
 8000b64:	419b      	sbcs	r3, r3
 8000b66:	425b      	negs	r3, r3
 8000b68:	191b      	adds	r3, r3, r4
 8000b6a:	18c0      	adds	r0, r0, r3
 8000b6c:	e64d      	b.n	800080a <__aeabi_ddiv+0x1ce>
 8000b6e:	428a      	cmp	r2, r1
 8000b70:	d800      	bhi.n	8000b74 <__aeabi_ddiv+0x538>
 8000b72:	e60e      	b.n	8000792 <__aeabi_ddiv+0x156>
 8000b74:	1e83      	subs	r3, r0, #2
 8000b76:	1909      	adds	r1, r1, r4
 8000b78:	e60b      	b.n	8000792 <__aeabi_ddiv+0x156>
 8000b7a:	428a      	cmp	r2, r1
 8000b7c:	d800      	bhi.n	8000b80 <__aeabi_ddiv+0x544>
 8000b7e:	e5f4      	b.n	800076a <__aeabi_ddiv+0x12e>
 8000b80:	1e83      	subs	r3, r0, #2
 8000b82:	4698      	mov	r8, r3
 8000b84:	1909      	adds	r1, r1, r4
 8000b86:	e5f0      	b.n	800076a <__aeabi_ddiv+0x12e>
 8000b88:	4925      	ldr	r1, [pc, #148]	; (8000c20 <__aeabi_ddiv+0x5e4>)
 8000b8a:	0028      	movs	r0, r5
 8000b8c:	4459      	add	r1, fp
 8000b8e:	408d      	lsls	r5, r1
 8000b90:	4642      	mov	r2, r8
 8000b92:	408a      	lsls	r2, r1
 8000b94:	1e69      	subs	r1, r5, #1
 8000b96:	418d      	sbcs	r5, r1
 8000b98:	4641      	mov	r1, r8
 8000b9a:	40d8      	lsrs	r0, r3
 8000b9c:	40d9      	lsrs	r1, r3
 8000b9e:	4302      	orrs	r2, r0
 8000ba0:	432a      	orrs	r2, r5
 8000ba2:	000b      	movs	r3, r1
 8000ba4:	0751      	lsls	r1, r2, #29
 8000ba6:	d100      	bne.n	8000baa <__aeabi_ddiv+0x56e>
 8000ba8:	e751      	b.n	8000a4e <__aeabi_ddiv+0x412>
 8000baa:	210f      	movs	r1, #15
 8000bac:	4011      	ands	r1, r2
 8000bae:	2904      	cmp	r1, #4
 8000bb0:	d000      	beq.n	8000bb4 <__aeabi_ddiv+0x578>
 8000bb2:	e746      	b.n	8000a42 <__aeabi_ddiv+0x406>
 8000bb4:	e74b      	b.n	8000a4e <__aeabi_ddiv+0x412>
 8000bb6:	0005      	movs	r5, r0
 8000bb8:	428e      	cmp	r6, r1
 8000bba:	d000      	beq.n	8000bbe <__aeabi_ddiv+0x582>
 8000bbc:	e66a      	b.n	8000894 <__aeabi_ddiv+0x258>
 8000bbe:	9a00      	ldr	r2, [sp, #0]
 8000bc0:	4293      	cmp	r3, r2
 8000bc2:	d000      	beq.n	8000bc6 <__aeabi_ddiv+0x58a>
 8000bc4:	e666      	b.n	8000894 <__aeabi_ddiv+0x258>
 8000bc6:	e667      	b.n	8000898 <__aeabi_ddiv+0x25c>
 8000bc8:	4a16      	ldr	r2, [pc, #88]	; (8000c24 <__aeabi_ddiv+0x5e8>)
 8000bca:	445a      	add	r2, fp
 8000bcc:	2a00      	cmp	r2, #0
 8000bce:	dc00      	bgt.n	8000bd2 <__aeabi_ddiv+0x596>
 8000bd0:	e710      	b.n	80009f4 <__aeabi_ddiv+0x3b8>
 8000bd2:	2301      	movs	r3, #1
 8000bd4:	2500      	movs	r5, #0
 8000bd6:	4498      	add	r8, r3
 8000bd8:	e667      	b.n	80008aa <__aeabi_ddiv+0x26e>
 8000bda:	075d      	lsls	r5, r3, #29
 8000bdc:	025b      	lsls	r3, r3, #9
 8000bde:	0b1c      	lsrs	r4, r3, #12
 8000be0:	08d2      	lsrs	r2, r2, #3
 8000be2:	2300      	movs	r3, #0
 8000be4:	4315      	orrs	r5, r2
 8000be6:	e580      	b.n	80006ea <__aeabi_ddiv+0xae>
 8000be8:	9800      	ldr	r0, [sp, #0]
 8000bea:	3d02      	subs	r5, #2
 8000bec:	0042      	lsls	r2, r0, #1
 8000bee:	4282      	cmp	r2, r0
 8000bf0:	41bf      	sbcs	r7, r7
 8000bf2:	427f      	negs	r7, r7
 8000bf4:	193c      	adds	r4, r7, r4
 8000bf6:	1936      	adds	r6, r6, r4
 8000bf8:	9200      	str	r2, [sp, #0]
 8000bfa:	e7dd      	b.n	8000bb8 <__aeabi_ddiv+0x57c>
 8000bfc:	2480      	movs	r4, #128	; 0x80
 8000bfe:	4643      	mov	r3, r8
 8000c00:	0324      	lsls	r4, r4, #12
 8000c02:	431c      	orrs	r4, r3
 8000c04:	0324      	lsls	r4, r4, #12
 8000c06:	4b04      	ldr	r3, [pc, #16]	; (8000c18 <__aeabi_ddiv+0x5dc>)
 8000c08:	0b24      	lsrs	r4, r4, #12
 8000c0a:	e56e      	b.n	80006ea <__aeabi_ddiv+0xae>
 8000c0c:	9a00      	ldr	r2, [sp, #0]
 8000c0e:	429a      	cmp	r2, r3
 8000c10:	d3ea      	bcc.n	8000be8 <__aeabi_ddiv+0x5ac>
 8000c12:	0005      	movs	r5, r0
 8000c14:	e7d3      	b.n	8000bbe <__aeabi_ddiv+0x582>
 8000c16:	46c0      	nop			; (mov r8, r8)
 8000c18:	000007ff 	.word	0x000007ff
 8000c1c:	0000043e 	.word	0x0000043e
 8000c20:	0000041e 	.word	0x0000041e
 8000c24:	000003ff 	.word	0x000003ff

08000c28 <__aeabi_dmul>:
 8000c28:	b5f0      	push	{r4, r5, r6, r7, lr}
 8000c2a:	4657      	mov	r7, sl
 8000c2c:	464e      	mov	r6, r9
 8000c2e:	4645      	mov	r5, r8
 8000c30:	46de      	mov	lr, fp
 8000c32:	b5e0      	push	{r5, r6, r7, lr}
 8000c34:	4698      	mov	r8, r3
 8000c36:	030c      	lsls	r4, r1, #12
 8000c38:	004b      	lsls	r3, r1, #1
 8000c3a:	0006      	movs	r6, r0
 8000c3c:	4692      	mov	sl, r2
 8000c3e:	b087      	sub	sp, #28
 8000c40:	0b24      	lsrs	r4, r4, #12
 8000c42:	0d5b      	lsrs	r3, r3, #21
 8000c44:	0fcf      	lsrs	r7, r1, #31
 8000c46:	2b00      	cmp	r3, #0
 8000c48:	d100      	bne.n	8000c4c <__aeabi_dmul+0x24>
 8000c4a:	e15c      	b.n	8000f06 <__aeabi_dmul+0x2de>
 8000c4c:	4ad9      	ldr	r2, [pc, #868]	; (8000fb4 <__aeabi_dmul+0x38c>)
 8000c4e:	4293      	cmp	r3, r2
 8000c50:	d100      	bne.n	8000c54 <__aeabi_dmul+0x2c>
 8000c52:	e175      	b.n	8000f40 <__aeabi_dmul+0x318>
 8000c54:	0f42      	lsrs	r2, r0, #29
 8000c56:	00e4      	lsls	r4, r4, #3
 8000c58:	4314      	orrs	r4, r2
 8000c5a:	2280      	movs	r2, #128	; 0x80
 8000c5c:	0412      	lsls	r2, r2, #16
 8000c5e:	4314      	orrs	r4, r2
 8000c60:	4ad5      	ldr	r2, [pc, #852]	; (8000fb8 <__aeabi_dmul+0x390>)
 8000c62:	00c5      	lsls	r5, r0, #3
 8000c64:	4694      	mov	ip, r2
 8000c66:	4463      	add	r3, ip
 8000c68:	9300      	str	r3, [sp, #0]
 8000c6a:	2300      	movs	r3, #0
 8000c6c:	4699      	mov	r9, r3
 8000c6e:	469b      	mov	fp, r3
 8000c70:	4643      	mov	r3, r8
 8000c72:	4642      	mov	r2, r8
 8000c74:	031e      	lsls	r6, r3, #12
 8000c76:	0fd2      	lsrs	r2, r2, #31
 8000c78:	005b      	lsls	r3, r3, #1
 8000c7a:	4650      	mov	r0, sl
 8000c7c:	4690      	mov	r8, r2
 8000c7e:	0b36      	lsrs	r6, r6, #12
 8000c80:	0d5b      	lsrs	r3, r3, #21
 8000c82:	d100      	bne.n	8000c86 <__aeabi_dmul+0x5e>
 8000c84:	e120      	b.n	8000ec8 <__aeabi_dmul+0x2a0>
 8000c86:	4acb      	ldr	r2, [pc, #812]	; (8000fb4 <__aeabi_dmul+0x38c>)
 8000c88:	4293      	cmp	r3, r2
 8000c8a:	d100      	bne.n	8000c8e <__aeabi_dmul+0x66>
 8000c8c:	e162      	b.n	8000f54 <__aeabi_dmul+0x32c>
 8000c8e:	49ca      	ldr	r1, [pc, #808]	; (8000fb8 <__aeabi_dmul+0x390>)
 8000c90:	0f42      	lsrs	r2, r0, #29
 8000c92:	468c      	mov	ip, r1
 8000c94:	9900      	ldr	r1, [sp, #0]
 8000c96:	4463      	add	r3, ip
 8000c98:	00f6      	lsls	r6, r6, #3
 8000c9a:	468c      	mov	ip, r1
 8000c9c:	4316      	orrs	r6, r2
 8000c9e:	2280      	movs	r2, #128	; 0x80
 8000ca0:	449c      	add	ip, r3
 8000ca2:	0412      	lsls	r2, r2, #16
 8000ca4:	4663      	mov	r3, ip
 8000ca6:	4316      	orrs	r6, r2
 8000ca8:	00c2      	lsls	r2, r0, #3
 8000caa:	2000      	movs	r0, #0
 8000cac:	9300      	str	r3, [sp, #0]
 8000cae:	9900      	ldr	r1, [sp, #0]
 8000cb0:	4643      	mov	r3, r8
 8000cb2:	3101      	adds	r1, #1
 8000cb4:	468c      	mov	ip, r1
 8000cb6:	4649      	mov	r1, r9
 8000cb8:	407b      	eors	r3, r7
 8000cba:	9301      	str	r3, [sp, #4]
 8000cbc:	290f      	cmp	r1, #15
 8000cbe:	d826      	bhi.n	8000d0e <__aeabi_dmul+0xe6>
 8000cc0:	4bbe      	ldr	r3, [pc, #760]	; (8000fbc <__aeabi_dmul+0x394>)
 8000cc2:	0089      	lsls	r1, r1, #2
 8000cc4:	5859      	ldr	r1, [r3, r1]
 8000cc6:	468f      	mov	pc, r1
 8000cc8:	4643      	mov	r3, r8
 8000cca:	9301      	str	r3, [sp, #4]
 8000ccc:	0034      	movs	r4, r6
 8000cce:	0015      	movs	r5, r2
 8000cd0:	4683      	mov	fp, r0
 8000cd2:	465b      	mov	r3, fp
 8000cd4:	2b02      	cmp	r3, #2
 8000cd6:	d016      	beq.n	8000d06 <__aeabi_dmul+0xde>
 8000cd8:	2b03      	cmp	r3, #3
 8000cda:	d100      	bne.n	8000cde <__aeabi_dmul+0xb6>
 8000cdc:	e203      	b.n	80010e6 <__aeabi_dmul+0x4be>
 8000cde:	2b01      	cmp	r3, #1
 8000ce0:	d000      	beq.n	8000ce4 <__aeabi_dmul+0xbc>
 8000ce2:	e0cd      	b.n	8000e80 <__aeabi_dmul+0x258>
 8000ce4:	2200      	movs	r2, #0
 8000ce6:	2400      	movs	r4, #0
 8000ce8:	2500      	movs	r5, #0
 8000cea:	9b01      	ldr	r3, [sp, #4]
 8000cec:	0512      	lsls	r2, r2, #20
 8000cee:	4322      	orrs	r2, r4
 8000cf0:	07db      	lsls	r3, r3, #31
 8000cf2:	431a      	orrs	r2, r3
 8000cf4:	0028      	movs	r0, r5
 8000cf6:	0011      	movs	r1, r2
 8000cf8:	b007      	add	sp, #28
 8000cfa:	bcf0      	pop	{r4, r5, r6, r7}
 8000cfc:	46bb      	mov	fp, r7
 8000cfe:	46b2      	mov	sl, r6
 8000d00:	46a9      	mov	r9, r5
 8000d02:	46a0      	mov	r8, r4
 8000d04:	bdf0      	pop	{r4, r5, r6, r7, pc}
 8000d06:	2400      	movs	r4, #0
 8000d08:	2500      	movs	r5, #0
 8000d0a:	4aaa      	ldr	r2, [pc, #680]	; (8000fb4 <__aeabi_dmul+0x38c>)
 8000d0c:	e7ed      	b.n	8000cea <__aeabi_dmul+0xc2>
 8000d0e:	0c28      	lsrs	r0, r5, #16
 8000d10:	042d      	lsls	r5, r5, #16
 8000d12:	0c2d      	lsrs	r5, r5, #16
 8000d14:	002b      	movs	r3, r5
 8000d16:	0c11      	lsrs	r1, r2, #16
 8000d18:	0412      	lsls	r2, r2, #16
 8000d1a:	0c12      	lsrs	r2, r2, #16
 8000d1c:	4353      	muls	r3, r2
 8000d1e:	4698      	mov	r8, r3
 8000d20:	0013      	movs	r3, r2
 8000d22:	002f      	movs	r7, r5
 8000d24:	4343      	muls	r3, r0
 8000d26:	4699      	mov	r9, r3
 8000d28:	434f      	muls	r7, r1
 8000d2a:	444f      	add	r7, r9
 8000d2c:	46bb      	mov	fp, r7
 8000d2e:	4647      	mov	r7, r8
 8000d30:	000b      	movs	r3, r1
 8000d32:	0c3f      	lsrs	r7, r7, #16
 8000d34:	46ba      	mov	sl, r7
 8000d36:	4343      	muls	r3, r0
 8000d38:	44da      	add	sl, fp
 8000d3a:	9302      	str	r3, [sp, #8]
 8000d3c:	45d1      	cmp	r9, sl
 8000d3e:	d904      	bls.n	8000d4a <__aeabi_dmul+0x122>
 8000d40:	2780      	movs	r7, #128	; 0x80
 8000d42:	027f      	lsls	r7, r7, #9
 8000d44:	46b9      	mov	r9, r7
 8000d46:	444b      	add	r3, r9
 8000d48:	9302      	str	r3, [sp, #8]
 8000d4a:	4653      	mov	r3, sl
 8000d4c:	0c1b      	lsrs	r3, r3, #16
 8000d4e:	469b      	mov	fp, r3
 8000d50:	4653      	mov	r3, sl
 8000d52:	041f      	lsls	r7, r3, #16
 8000d54:	4643      	mov	r3, r8
 8000d56:	041b      	lsls	r3, r3, #16
 8000d58:	0c1b      	lsrs	r3, r3, #16
 8000d5a:	4698      	mov	r8, r3
 8000d5c:	003b      	movs	r3, r7
 8000d5e:	4443      	add	r3, r8
 8000d60:	9304      	str	r3, [sp, #16]
 8000d62:	0c33      	lsrs	r3, r6, #16
 8000d64:	0436      	lsls	r6, r6, #16
 8000d66:	0c36      	lsrs	r6, r6, #16
 8000d68:	4698      	mov	r8, r3
 8000d6a:	0033      	movs	r3, r6
 8000d6c:	4343      	muls	r3, r0
 8000d6e:	4699      	mov	r9, r3
 8000d70:	4643      	mov	r3, r8
 8000d72:	4343      	muls	r3, r0
 8000d74:	002f      	movs	r7, r5
 8000d76:	469a      	mov	sl, r3
 8000d78:	4643      	mov	r3, r8
 8000d7a:	4377      	muls	r7, r6
 8000d7c:	435d      	muls	r5, r3
 8000d7e:	0c38      	lsrs	r0, r7, #16
 8000d80:	444d      	add	r5, r9
 8000d82:	1945      	adds	r5, r0, r5
 8000d84:	45a9      	cmp	r9, r5
 8000d86:	d903      	bls.n	8000d90 <__aeabi_dmul+0x168>
 8000d88:	2380      	movs	r3, #128	; 0x80
 8000d8a:	025b      	lsls	r3, r3, #9
 8000d8c:	4699      	mov	r9, r3
 8000d8e:	44ca      	add	sl, r9
 8000d90:	043f      	lsls	r7, r7, #16
 8000d92:	0c28      	lsrs	r0, r5, #16
 8000d94:	0c3f      	lsrs	r7, r7, #16
 8000d96:	042d      	lsls	r5, r5, #16
 8000d98:	19ed      	adds	r5, r5, r7
 8000d9a:	0c27      	lsrs	r7, r4, #16
 8000d9c:	0424      	lsls	r4, r4, #16
 8000d9e:	0c24      	lsrs	r4, r4, #16
 8000da0:	0003      	movs	r3, r0
 8000da2:	0020      	movs	r0, r4
 8000da4:	4350      	muls	r0, r2
 8000da6:	437a      	muls	r2, r7
 8000da8:	4691      	mov	r9, r2
 8000daa:	003a      	movs	r2, r7
 8000dac:	4453      	add	r3, sl
 8000dae:	9305      	str	r3, [sp, #20]
 8000db0:	0c03      	lsrs	r3, r0, #16
 8000db2:	469a      	mov	sl, r3
 8000db4:	434a      	muls	r2, r1
 8000db6:	4361      	muls	r1, r4
 8000db8:	4449      	add	r1, r9
 8000dba:	4451      	add	r1, sl
 8000dbc:	44ab      	add	fp, r5
 8000dbe:	4589      	cmp	r9, r1
 8000dc0:	d903      	bls.n	8000dca <__aeabi_dmul+0x1a2>
 8000dc2:	2380      	movs	r3, #128	; 0x80
 8000dc4:	025b      	lsls	r3, r3, #9
 8000dc6:	4699      	mov	r9, r3
 8000dc8:	444a      	add	r2, r9
 8000dca:	0400      	lsls	r0, r0, #16
 8000dcc:	0c0b      	lsrs	r3, r1, #16
 8000dce:	0c00      	lsrs	r0, r0, #16
 8000dd0:	0409      	lsls	r1, r1, #16
 8000dd2:	1809      	adds	r1, r1, r0
 8000dd4:	0020      	movs	r0, r4
 8000dd6:	4699      	mov	r9, r3
 8000dd8:	4643      	mov	r3, r8
 8000dda:	4370      	muls	r0, r6
 8000ddc:	435c      	muls	r4, r3
 8000dde:	437e      	muls	r6, r7
 8000de0:	435f      	muls	r7, r3
 8000de2:	0c03      	lsrs	r3, r0, #16
 8000de4:	4698      	mov	r8, r3
 8000de6:	19a4      	adds	r4, r4, r6
 8000de8:	4444      	add	r4, r8
 8000dea:	444a      	add	r2, r9
 8000dec:	9703      	str	r7, [sp, #12]
 8000dee:	42a6      	cmp	r6, r4
 8000df0:	d904      	bls.n	8000dfc <__aeabi_dmul+0x1d4>
 8000df2:	2380      	movs	r3, #128	; 0x80
 8000df4:	025b      	lsls	r3, r3, #9
 8000df6:	4698      	mov	r8, r3
 8000df8:	4447      	add	r7, r8
 8000dfa:	9703      	str	r7, [sp, #12]
 8000dfc:	0423      	lsls	r3, r4, #16
 8000dfe:	9e02      	ldr	r6, [sp, #8]
 8000e00:	469a      	mov	sl, r3
 8000e02:	9b05      	ldr	r3, [sp, #20]
 8000e04:	445e      	add	r6, fp
 8000e06:	4698      	mov	r8, r3
 8000e08:	42ae      	cmp	r6, r5
 8000e0a:	41ad      	sbcs	r5, r5
 8000e0c:	1876      	adds	r6, r6, r1
 8000e0e:	428e      	cmp	r6, r1
 8000e10:	4189      	sbcs	r1, r1
 8000e12:	0400      	lsls	r0, r0, #16
 8000e14:	0c00      	lsrs	r0, r0, #16
 8000e16:	4450      	add	r0, sl
 8000e18:	4440      	add	r0, r8
 8000e1a:	426d      	negs	r5, r5
 8000e1c:	1947      	adds	r7, r0, r5
 8000e1e:	46b8      	mov	r8, r7
 8000e20:	4693      	mov	fp, r2
 8000e22:	4249      	negs	r1, r1
 8000e24:	4689      	mov	r9, r1
 8000e26:	44c3      	add	fp, r8
 8000e28:	44d9      	add	r9, fp
 8000e2a:	4298      	cmp	r0, r3
 8000e2c:	4180      	sbcs	r0, r0
 8000e2e:	45a8      	cmp	r8, r5
 8000e30:	41ad      	sbcs	r5, r5
 8000e32:	4593      	cmp	fp, r2
 8000e34:	4192      	sbcs	r2, r2
 8000e36:	4589      	cmp	r9, r1
 8000e38:	4189      	sbcs	r1, r1
 8000e3a:	426d      	negs	r5, r5
 8000e3c:	4240      	negs	r0, r0
 8000e3e:	4328      	orrs	r0, r5
 8000e40:	0c24      	lsrs	r4, r4, #16
 8000e42:	4252      	negs	r2, r2
 8000e44:	4249      	negs	r1, r1
 8000e46:	430a      	orrs	r2, r1
 8000e48:	9b03      	ldr	r3, [sp, #12]
 8000e4a:	1900      	adds	r0, r0, r4
 8000e4c:	1880      	adds	r0, r0, r2
 8000e4e:	18c7      	adds	r7, r0, r3
 8000e50:	464b      	mov	r3, r9
 8000e52:	0ddc      	lsrs	r4, r3, #23
 8000e54:	9b04      	ldr	r3, [sp, #16]
 8000e56:	0275      	lsls	r5, r6, #9
 8000e58:	431d      	orrs	r5, r3
 8000e5a:	1e6a      	subs	r2, r5, #1
 8000e5c:	4195      	sbcs	r5, r2
 8000e5e:	464b      	mov	r3, r9
 8000e60:	0df6      	lsrs	r6, r6, #23
 8000e62:	027f      	lsls	r7, r7, #9
 8000e64:	4335      	orrs	r5, r6
 8000e66:	025a      	lsls	r2, r3, #9
 8000e68:	433c      	orrs	r4, r7
 8000e6a:	4315      	orrs	r5, r2
 8000e6c:	01fb      	lsls	r3, r7, #7
 8000e6e:	d400      	bmi.n	8000e72 <__aeabi_dmul+0x24a>
 8000e70:	e11c      	b.n	80010ac <__aeabi_dmul+0x484>
 8000e72:	2101      	movs	r1, #1
 8000e74:	086a      	lsrs	r2, r5, #1
 8000e76:	400d      	ands	r5, r1
 8000e78:	4315      	orrs	r5, r2
 8000e7a:	07e2      	lsls	r2, r4, #31
 8000e7c:	4315      	orrs	r5, r2
 8000e7e:	0864      	lsrs	r4, r4, #1
 8000e80:	494f      	ldr	r1, [pc, #316]	; (8000fc0 <__aeabi_dmul+0x398>)
 8000e82:	4461      	add	r1, ip
 8000e84:	2900      	cmp	r1, #0
 8000e86:	dc00      	bgt.n	8000e8a <__aeabi_dmul+0x262>
 8000e88:	e0b0      	b.n	8000fec <__aeabi_dmul+0x3c4>
 8000e8a:	076b      	lsls	r3, r5, #29
 8000e8c:	d009      	beq.n	8000ea2 <__aeabi_dmul+0x27a>
 8000e8e:	220f      	movs	r2, #15
 8000e90:	402a      	ands	r2, r5
 8000e92:	2a04      	cmp	r2, #4
 8000e94:	d005      	beq.n	8000ea2 <__aeabi_dmul+0x27a>
 8000e96:	1d2a      	adds	r2, r5, #4
 8000e98:	42aa      	cmp	r2, r5
 8000e9a:	41ad      	sbcs	r5, r5
 8000e9c:	426d      	negs	r5, r5
 8000e9e:	1964      	adds	r4, r4, r5
 8000ea0:	0015      	movs	r5, r2
 8000ea2:	01e3      	lsls	r3, r4, #7
 8000ea4:	d504      	bpl.n	8000eb0 <__aeabi_dmul+0x288>
 8000ea6:	2180      	movs	r1, #128	; 0x80
 8000ea8:	4a46      	ldr	r2, [pc, #280]	; (8000fc4 <__aeabi_dmul+0x39c>)
 8000eaa:	00c9      	lsls	r1, r1, #3
 8000eac:	4014      	ands	r4, r2
 8000eae:	4461      	add	r1, ip
 8000eb0:	4a45      	ldr	r2, [pc, #276]	; (8000fc8 <__aeabi_dmul+0x3a0>)
 8000eb2:	4291      	cmp	r1, r2
 8000eb4:	dd00      	ble.n	8000eb8 <__aeabi_dmul+0x290>
 8000eb6:	e726      	b.n	8000d06 <__aeabi_dmul+0xde>
 8000eb8:	0762      	lsls	r2, r4, #29
 8000eba:	08ed      	lsrs	r5, r5, #3
 8000ebc:	0264      	lsls	r4, r4, #9
 8000ebe:	0549      	lsls	r1, r1, #21
 8000ec0:	4315      	orrs	r5, r2
 8000ec2:	0b24      	lsrs	r4, r4, #12
 8000ec4:	0d4a      	lsrs	r2, r1, #21
 8000ec6:	e710      	b.n	8000cea <__aeabi_dmul+0xc2>
 8000ec8:	4652      	mov	r2, sl
 8000eca:	4332      	orrs	r2, r6
 8000ecc:	d100      	bne.n	8000ed0 <__aeabi_dmul+0x2a8>
 8000ece:	e07f      	b.n	8000fd0 <__aeabi_dmul+0x3a8>
 8000ed0:	2e00      	cmp	r6, #0
 8000ed2:	d100      	bne.n	8000ed6 <__aeabi_dmul+0x2ae>
 8000ed4:	e0dc      	b.n	8001090 <__aeabi_dmul+0x468>
 8000ed6:	0030      	movs	r0, r6
 8000ed8:	f000 fd0a 	bl	80018f0 <__clzsi2>
 8000edc:	0002      	movs	r2, r0
 8000ede:	3a0b      	subs	r2, #11
 8000ee0:	231d      	movs	r3, #29
 8000ee2:	0001      	movs	r1, r0
 8000ee4:	1a9b      	subs	r3, r3, r2
 8000ee6:	4652      	mov	r2, sl
 8000ee8:	3908      	subs	r1, #8
 8000eea:	40da      	lsrs	r2, r3
 8000eec:	408e      	lsls	r6, r1
 8000eee:	4316      	orrs	r6, r2
 8000ef0:	4652      	mov	r2, sl
 8000ef2:	408a      	lsls	r2, r1
 8000ef4:	9b00      	ldr	r3, [sp, #0]
 8000ef6:	4935      	ldr	r1, [pc, #212]	; (8000fcc <__aeabi_dmul+0x3a4>)
 8000ef8:	1a18      	subs	r0, r3, r0
 8000efa:	0003      	movs	r3, r0
 8000efc:	468c      	mov	ip, r1
 8000efe:	4463      	add	r3, ip
 8000f00:	2000      	movs	r0, #0
 8000f02:	9300      	str	r3, [sp, #0]
 8000f04:	e6d3      	b.n	8000cae <__aeabi_dmul+0x86>
 8000f06:	0025      	movs	r5, r4
 8000f08:	4305      	orrs	r5, r0
 8000f0a:	d04a      	beq.n	8000fa2 <__aeabi_dmul+0x37a>
 8000f0c:	2c00      	cmp	r4, #0
 8000f0e:	d100      	bne.n	8000f12 <__aeabi_dmul+0x2ea>
 8000f10:	e0b0      	b.n	8001074 <__aeabi_dmul+0x44c>
 8000f12:	0020      	movs	r0, r4
 8000f14:	f000 fcec 	bl	80018f0 <__clzsi2>
 8000f18:	0001      	movs	r1, r0
 8000f1a:	0002      	movs	r2, r0
 8000f1c:	390b      	subs	r1, #11
 8000f1e:	231d      	movs	r3, #29
 8000f20:	0010      	movs	r0, r2
 8000f22:	1a5b      	subs	r3, r3, r1
 8000f24:	0031      	movs	r1, r6
 8000f26:	0035      	movs	r5, r6
 8000f28:	3808      	subs	r0, #8
 8000f2a:	4084      	lsls	r4, r0
 8000f2c:	40d9      	lsrs	r1, r3
 8000f2e:	4085      	lsls	r5, r0
 8000f30:	430c      	orrs	r4, r1
 8000f32:	4826      	ldr	r0, [pc, #152]	; (8000fcc <__aeabi_dmul+0x3a4>)
 8000f34:	1a83      	subs	r3, r0, r2
 8000f36:	9300      	str	r3, [sp, #0]
 8000f38:	2300      	movs	r3, #0
 8000f3a:	4699      	mov	r9, r3
 8000f3c:	469b      	mov	fp, r3
 8000f3e:	e697      	b.n	8000c70 <__aeabi_dmul+0x48>
 8000f40:	0005      	movs	r5, r0
 8000f42:	4325      	orrs	r5, r4
 8000f44:	d126      	bne.n	8000f94 <__aeabi_dmul+0x36c>
 8000f46:	2208      	movs	r2, #8
 8000f48:	9300      	str	r3, [sp, #0]
 8000f4a:	2302      	movs	r3, #2
 8000f4c:	2400      	movs	r4, #0
 8000f4e:	4691      	mov	r9, r2
 8000f50:	469b      	mov	fp, r3
 8000f52:	e68d      	b.n	8000c70 <__aeabi_dmul+0x48>
 8000f54:	4652      	mov	r2, sl
 8000f56:	9b00      	ldr	r3, [sp, #0]
 8000f58:	4332      	orrs	r2, r6
 8000f5a:	d110      	bne.n	8000f7e <__aeabi_dmul+0x356>
 8000f5c:	4915      	ldr	r1, [pc, #84]	; (8000fb4 <__aeabi_dmul+0x38c>)
 8000f5e:	2600      	movs	r6, #0
 8000f60:	468c      	mov	ip, r1
 8000f62:	4463      	add	r3, ip
 8000f64:	4649      	mov	r1, r9
 8000f66:	9300      	str	r3, [sp, #0]
 8000f68:	2302      	movs	r3, #2
 8000f6a:	4319      	orrs	r1, r3
 8000f6c:	4689      	mov	r9, r1
 8000f6e:	2002      	movs	r0, #2
 8000f70:	e69d      	b.n	8000cae <__aeabi_dmul+0x86>
 8000f72:	465b      	mov	r3, fp
 8000f74:	9701      	str	r7, [sp, #4]
 8000f76:	2b02      	cmp	r3, #2
 8000f78:	d000      	beq.n	8000f7c <__aeabi_dmul+0x354>
 8000f7a:	e6ad      	b.n	8000cd8 <__aeabi_dmul+0xb0>
 8000f7c:	e6c3      	b.n	8000d06 <__aeabi_dmul+0xde>
 8000f7e:	4a0d      	ldr	r2, [pc, #52]	; (8000fb4 <__aeabi_dmul+0x38c>)
 8000f80:	2003      	movs	r0, #3
 8000f82:	4694      	mov	ip, r2
 8000f84:	4463      	add	r3, ip
 8000f86:	464a      	mov	r2, r9
 8000f88:	9300      	str	r3, [sp, #0]
 8000f8a:	2303      	movs	r3, #3
 8000f8c:	431a      	orrs	r2, r3
 8000f8e:	4691      	mov	r9, r2
 8000f90:	4652      	mov	r2, sl
 8000f92:	e68c      	b.n	8000cae <__aeabi_dmul+0x86>
 8000f94:	220c      	movs	r2, #12
 8000f96:	9300      	str	r3, [sp, #0]
 8000f98:	2303      	movs	r3, #3
 8000f9a:	0005      	movs	r5, r0
 8000f9c:	4691      	mov	r9, r2
 8000f9e:	469b      	mov	fp, r3
 8000fa0:	e666      	b.n	8000c70 <__aeabi_dmul+0x48>
 8000fa2:	2304      	movs	r3, #4
 8000fa4:	4699      	mov	r9, r3
 8000fa6:	2300      	movs	r3, #0
 8000fa8:	9300      	str	r3, [sp, #0]
 8000faa:	3301      	adds	r3, #1
 8000fac:	2400      	movs	r4, #0
 8000fae:	469b      	mov	fp, r3
 8000fb0:	e65e      	b.n	8000c70 <__aeabi_dmul+0x48>
 8000fb2:	46c0      	nop			; (mov r8, r8)
 8000fb4:	000007ff 	.word	0x000007ff
 8000fb8:	fffffc01 	.word	0xfffffc01
 8000fbc:	08005f5c 	.word	0x08005f5c
 8000fc0:	000003ff 	.word	0x000003ff
 8000fc4:	feffffff 	.word	0xfeffffff
 8000fc8:	000007fe 	.word	0x000007fe
 8000fcc:	fffffc0d 	.word	0xfffffc0d
 8000fd0:	4649      	mov	r1, r9
 8000fd2:	2301      	movs	r3, #1
 8000fd4:	4319      	orrs	r1, r3
 8000fd6:	4689      	mov	r9, r1
 8000fd8:	2600      	movs	r6, #0
 8000fda:	2001      	movs	r0, #1
 8000fdc:	e667      	b.n	8000cae <__aeabi_dmul+0x86>
 8000fde:	2300      	movs	r3, #0
 8000fe0:	2480      	movs	r4, #128	; 0x80
 8000fe2:	2500      	movs	r5, #0
 8000fe4:	4a43      	ldr	r2, [pc, #268]	; (80010f4 <__aeabi_dmul+0x4cc>)
 8000fe6:	9301      	str	r3, [sp, #4]
 8000fe8:	0324      	lsls	r4, r4, #12
 8000fea:	e67e      	b.n	8000cea <__aeabi_dmul+0xc2>
 8000fec:	2001      	movs	r0, #1
 8000fee:	1a40      	subs	r0, r0, r1
 8000ff0:	2838      	cmp	r0, #56	; 0x38
 8000ff2:	dd00      	ble.n	8000ff6 <__aeabi_dmul+0x3ce>
 8000ff4:	e676      	b.n	8000ce4 <__aeabi_dmul+0xbc>
 8000ff6:	281f      	cmp	r0, #31
 8000ff8:	dd5b      	ble.n	80010b2 <__aeabi_dmul+0x48a>
 8000ffa:	221f      	movs	r2, #31
 8000ffc:	0023      	movs	r3, r4
 8000ffe:	4252      	negs	r2, r2
 8001000:	1a51      	subs	r1, r2, r1
 8001002:	40cb      	lsrs	r3, r1
 8001004:	0019      	movs	r1, r3
 8001006:	2820      	cmp	r0, #32
 8001008:	d003      	beq.n	8001012 <__aeabi_dmul+0x3ea>
 800100a:	4a3b      	ldr	r2, [pc, #236]	; (80010f8 <__aeabi_dmul+0x4d0>)
 800100c:	4462      	add	r2, ip
 800100e:	4094      	lsls	r4, r2
 8001010:	4325      	orrs	r5, r4
 8001012:	1e6a      	subs	r2, r5, #1
 8001014:	4195      	sbcs	r5, r2
 8001016:	002a      	movs	r2, r5
 8001018:	430a      	orrs	r2, r1
 800101a:	2107      	movs	r1, #7
 800101c:	000d      	movs	r5, r1
 800101e:	2400      	movs	r4, #0
 8001020:	4015      	ands	r5, r2
 8001022:	4211      	tst	r1, r2
 8001024:	d05b      	beq.n	80010de <__aeabi_dmul+0x4b6>
 8001026:	210f      	movs	r1, #15
 8001028:	2400      	movs	r4, #0
 800102a:	4011      	ands	r1, r2
 800102c:	2904      	cmp	r1, #4
 800102e:	d053      	beq.n	80010d8 <__aeabi_dmul+0x4b0>
 8001030:	1d11      	adds	r1, r2, #4
 8001032:	4291      	cmp	r1, r2
 8001034:	4192      	sbcs	r2, r2
 8001036:	4252      	negs	r2, r2
 8001038:	18a4      	adds	r4, r4, r2
 800103a:	000a      	movs	r2, r1
 800103c:	0223      	lsls	r3, r4, #8
 800103e:	d54b      	bpl.n	80010d8 <__aeabi_dmul+0x4b0>
 8001040:	2201      	movs	r2, #1
 8001042:	2400      	movs	r4, #0
 8001044:	2500      	movs	r5, #0
 8001046:	e650      	b.n	8000cea <__aeabi_dmul+0xc2>
 8001048:	2380      	movs	r3, #128	; 0x80
 800104a:	031b      	lsls	r3, r3, #12
 800104c:	421c      	tst	r4, r3
 800104e:	d009      	beq.n	8001064 <__aeabi_dmul+0x43c>
 8001050:	421e      	tst	r6, r3
 8001052:	d107      	bne.n	8001064 <__aeabi_dmul+0x43c>
 8001054:	4333      	orrs	r3, r6
 8001056:	031c      	lsls	r4, r3, #12
 8001058:	4643      	mov	r3, r8
 800105a:	0015      	movs	r5, r2
 800105c:	0b24      	lsrs	r4, r4, #12
 800105e:	4a25      	ldr	r2, [pc, #148]	; (80010f4 <__aeabi_dmul+0x4cc>)
 8001060:	9301      	str	r3, [sp, #4]
 8001062:	e642      	b.n	8000cea <__aeabi_dmul+0xc2>
 8001064:	2280      	movs	r2, #128	; 0x80
 8001066:	0312      	lsls	r2, r2, #12
 8001068:	4314      	orrs	r4, r2
 800106a:	0324      	lsls	r4, r4, #12
 800106c:	4a21      	ldr	r2, [pc, #132]	; (80010f4 <__aeabi_dmul+0x4cc>)
 800106e:	0b24      	lsrs	r4, r4, #12
 8001070:	9701      	str	r7, [sp, #4]
 8001072:	e63a      	b.n	8000cea <__aeabi_dmul+0xc2>
 8001074:	f000 fc3c 	bl	80018f0 <__clzsi2>
 8001078:	0001      	movs	r1, r0
 800107a:	0002      	movs	r2, r0
 800107c:	3115      	adds	r1, #21
 800107e:	3220      	adds	r2, #32
 8001080:	291c      	cmp	r1, #28
 8001082:	dc00      	bgt.n	8001086 <__aeabi_dmul+0x45e>
 8001084:	e74b      	b.n	8000f1e <__aeabi_dmul+0x2f6>
 8001086:	0034      	movs	r4, r6
 8001088:	3808      	subs	r0, #8
 800108a:	2500      	movs	r5, #0
 800108c:	4084      	lsls	r4, r0
 800108e:	e750      	b.n	8000f32 <__aeabi_dmul+0x30a>
 8001090:	f000 fc2e 	bl	80018f0 <__clzsi2>
 8001094:	0003      	movs	r3, r0
 8001096:	001a      	movs	r2, r3
 8001098:	3215      	adds	r2, #21
 800109a:	3020      	adds	r0, #32
 800109c:	2a1c      	cmp	r2, #28
 800109e:	dc00      	bgt.n	80010a2 <__aeabi_dmul+0x47a>
 80010a0:	e71e      	b.n	8000ee0 <__aeabi_dmul+0x2b8>
 80010a2:	4656      	mov	r6, sl
 80010a4:	3b08      	subs	r3, #8
 80010a6:	2200      	movs	r2, #0
 80010a8:	409e      	lsls	r6, r3
 80010aa:	e723      	b.n	8000ef4 <__aeabi_dmul+0x2cc>
 80010ac:	9b00      	ldr	r3, [sp, #0]
 80010ae:	469c      	mov	ip, r3
 80010b0:	e6e6      	b.n	8000e80 <__aeabi_dmul+0x258>
 80010b2:	4912      	ldr	r1, [pc, #72]	; (80010fc <__aeabi_dmul+0x4d4>)
 80010b4:	0022      	movs	r2, r4
 80010b6:	4461      	add	r1, ip
 80010b8:	002e      	movs	r6, r5
 80010ba:	408d      	lsls	r5, r1
 80010bc:	408a      	lsls	r2, r1
 80010be:	40c6      	lsrs	r6, r0
 80010c0:	1e69      	subs	r1, r5, #1
 80010c2:	418d      	sbcs	r5, r1
 80010c4:	4332      	orrs	r2, r6
 80010c6:	432a      	orrs	r2, r5
 80010c8:	40c4      	lsrs	r4, r0
 80010ca:	0753      	lsls	r3, r2, #29
 80010cc:	d0b6      	beq.n	800103c <__aeabi_dmul+0x414>
 80010ce:	210f      	movs	r1, #15
 80010d0:	4011      	ands	r1, r2
 80010d2:	2904      	cmp	r1, #4
 80010d4:	d1ac      	bne.n	8001030 <__aeabi_dmul+0x408>
 80010d6:	e7b1      	b.n	800103c <__aeabi_dmul+0x414>
 80010d8:	0765      	lsls	r5, r4, #29
 80010da:	0264      	lsls	r4, r4, #9
 80010dc:	0b24      	lsrs	r4, r4, #12
 80010de:	08d2      	lsrs	r2, r2, #3
 80010e0:	4315      	orrs	r5, r2
 80010e2:	2200      	movs	r2, #0
 80010e4:	e601      	b.n	8000cea <__aeabi_dmul+0xc2>
 80010e6:	2280      	movs	r2, #128	; 0x80
 80010e8:	0312      	lsls	r2, r2, #12
 80010ea:	4314      	orrs	r4, r2
 80010ec:	0324      	lsls	r4, r4, #12
 80010ee:	4a01      	ldr	r2, [pc, #4]	; (80010f4 <__aeabi_dmul+0x4cc>)
 80010f0:	0b24      	lsrs	r4, r4, #12
 80010f2:	e5fa      	b.n	8000cea <__aeabi_dmul+0xc2>
 80010f4:	000007ff 	.word	0x000007ff
 80010f8:	0000043e 	.word	0x0000043e
 80010fc:	0000041e 	.word	0x0000041e

08001100 <__aeabi_dsub>:
 8001100:	b5f8      	push	{r3, r4, r5, r6, r7, lr}
 8001102:	4657      	mov	r7, sl
 8001104:	464e      	mov	r6, r9
 8001106:	4645      	mov	r5, r8
 8001108:	46de      	mov	lr, fp
 800110a:	b5e0      	push	{r5, r6, r7, lr}
 800110c:	001e      	movs	r6, r3
 800110e:	0017      	movs	r7, r2
 8001110:	004a      	lsls	r2, r1, #1
 8001112:	030b      	lsls	r3, r1, #12
 8001114:	0d52      	lsrs	r2, r2, #21
 8001116:	0a5b      	lsrs	r3, r3, #9
 8001118:	4690      	mov	r8, r2
 800111a:	0f42      	lsrs	r2, r0, #29
 800111c:	431a      	orrs	r2, r3
 800111e:	0fcd      	lsrs	r5, r1, #31
 8001120:	4ccd      	ldr	r4, [pc, #820]	; (8001458 <__aeabi_dsub+0x358>)
 8001122:	0331      	lsls	r1, r6, #12
 8001124:	00c3      	lsls	r3, r0, #3
 8001126:	4694      	mov	ip, r2
 8001128:	0070      	lsls	r0, r6, #1
 800112a:	0f7a      	lsrs	r2, r7, #29
 800112c:	0a49      	lsrs	r1, r1, #9
 800112e:	00ff      	lsls	r7, r7, #3
 8001130:	469a      	mov	sl, r3
 8001132:	46b9      	mov	r9, r7
 8001134:	0d40      	lsrs	r0, r0, #21
 8001136:	0ff6      	lsrs	r6, r6, #31
 8001138:	4311      	orrs	r1, r2
 800113a:	42a0      	cmp	r0, r4
 800113c:	d100      	bne.n	8001140 <__aeabi_dsub+0x40>
 800113e:	e0b1      	b.n	80012a4 <__aeabi_dsub+0x1a4>
 8001140:	2201      	movs	r2, #1
 8001142:	4056      	eors	r6, r2
 8001144:	46b3      	mov	fp, r6
 8001146:	42b5      	cmp	r5, r6
 8001148:	d100      	bne.n	800114c <__aeabi_dsub+0x4c>
 800114a:	e088      	b.n	800125e <__aeabi_dsub+0x15e>
 800114c:	4642      	mov	r2, r8
 800114e:	1a12      	subs	r2, r2, r0
 8001150:	2a00      	cmp	r2, #0
 8001152:	dc00      	bgt.n	8001156 <__aeabi_dsub+0x56>
 8001154:	e0ae      	b.n	80012b4 <__aeabi_dsub+0x1b4>
 8001156:	2800      	cmp	r0, #0
 8001158:	d100      	bne.n	800115c <__aeabi_dsub+0x5c>
 800115a:	e0c1      	b.n	80012e0 <__aeabi_dsub+0x1e0>
 800115c:	48be      	ldr	r0, [pc, #760]	; (8001458 <__aeabi_dsub+0x358>)
 800115e:	4580      	cmp	r8, r0
 8001160:	d100      	bne.n	8001164 <__aeabi_dsub+0x64>
 8001162:	e151      	b.n	8001408 <__aeabi_dsub+0x308>
 8001164:	2080      	movs	r0, #128	; 0x80
 8001166:	0400      	lsls	r0, r0, #16
 8001168:	4301      	orrs	r1, r0
 800116a:	2a38      	cmp	r2, #56	; 0x38
 800116c:	dd00      	ble.n	8001170 <__aeabi_dsub+0x70>
 800116e:	e17b      	b.n	8001468 <__aeabi_dsub+0x368>
 8001170:	2a1f      	cmp	r2, #31
 8001172:	dd00      	ble.n	8001176 <__aeabi_dsub+0x76>
 8001174:	e1ee      	b.n	8001554 <__aeabi_dsub+0x454>
 8001176:	2020      	movs	r0, #32
 8001178:	003e      	movs	r6, r7
 800117a:	1a80      	subs	r0, r0, r2
 800117c:	000c      	movs	r4, r1
 800117e:	40d6      	lsrs	r6, r2
 8001180:	40d1      	lsrs	r1, r2
 8001182:	4087      	lsls	r7, r0
 8001184:	4662      	mov	r2, ip
 8001186:	4084      	lsls	r4, r0
 8001188:	1a52      	subs	r2, r2, r1
 800118a:	1e78      	subs	r0, r7, #1
 800118c:	4187      	sbcs	r7, r0
 800118e:	4694      	mov	ip, r2
 8001190:	4334      	orrs	r4, r6
 8001192:	4327      	orrs	r7, r4
 8001194:	1bdc      	subs	r4, r3, r7
 8001196:	42a3      	cmp	r3, r4
 8001198:	419b      	sbcs	r3, r3
 800119a:	4662      	mov	r2, ip
 800119c:	425b      	negs	r3, r3
 800119e:	1ad3      	subs	r3, r2, r3
 80011a0:	4699      	mov	r9, r3
 80011a2:	464b      	mov	r3, r9
 80011a4:	021b      	lsls	r3, r3, #8
 80011a6:	d400      	bmi.n	80011aa <__aeabi_dsub+0xaa>
 80011a8:	e118      	b.n	80013dc <__aeabi_dsub+0x2dc>
 80011aa:	464b      	mov	r3, r9
 80011ac:	0258      	lsls	r0, r3, #9
 80011ae:	0a43      	lsrs	r3, r0, #9
 80011b0:	4699      	mov	r9, r3
 80011b2:	464b      	mov	r3, r9
 80011b4:	2b00      	cmp	r3, #0
 80011b6:	d100      	bne.n	80011ba <__aeabi_dsub+0xba>
 80011b8:	e137      	b.n	800142a <__aeabi_dsub+0x32a>
 80011ba:	4648      	mov	r0, r9
 80011bc:	f000 fb98 	bl	80018f0 <__clzsi2>
 80011c0:	0001      	movs	r1, r0
 80011c2:	3908      	subs	r1, #8
 80011c4:	2320      	movs	r3, #32
 80011c6:	0022      	movs	r2, r4
 80011c8:	4648      	mov	r0, r9
 80011ca:	1a5b      	subs	r3, r3, r1
 80011cc:	40da      	lsrs	r2, r3
 80011ce:	4088      	lsls	r0, r1
 80011d0:	408c      	lsls	r4, r1
 80011d2:	4643      	mov	r3, r8
 80011d4:	4310      	orrs	r0, r2
 80011d6:	4588      	cmp	r8, r1
 80011d8:	dd00      	ble.n	80011dc <__aeabi_dsub+0xdc>
 80011da:	e136      	b.n	800144a <__aeabi_dsub+0x34a>
 80011dc:	1ac9      	subs	r1, r1, r3
 80011de:	1c4b      	adds	r3, r1, #1
 80011e0:	2b1f      	cmp	r3, #31
 80011e2:	dd00      	ble.n	80011e6 <__aeabi_dsub+0xe6>
 80011e4:	e0ea      	b.n	80013bc <__aeabi_dsub+0x2bc>
 80011e6:	2220      	movs	r2, #32
 80011e8:	0026      	movs	r6, r4
 80011ea:	1ad2      	subs	r2, r2, r3
 80011ec:	0001      	movs	r1, r0
 80011ee:	4094      	lsls	r4, r2
 80011f0:	40de      	lsrs	r6, r3
 80011f2:	40d8      	lsrs	r0, r3
 80011f4:	2300      	movs	r3, #0
 80011f6:	4091      	lsls	r1, r2
 80011f8:	1e62      	subs	r2, r4, #1
 80011fa:	4194      	sbcs	r4, r2
 80011fc:	4681      	mov	r9, r0
 80011fe:	4698      	mov	r8, r3
 8001200:	4331      	orrs	r1, r6
 8001202:	430c      	orrs	r4, r1
 8001204:	0763      	lsls	r3, r4, #29
 8001206:	d009      	beq.n	800121c <__aeabi_dsub+0x11c>
 8001208:	230f      	movs	r3, #15
 800120a:	4023      	ands	r3, r4
 800120c:	2b04      	cmp	r3, #4
 800120e:	d005      	beq.n	800121c <__aeabi_dsub+0x11c>
 8001210:	1d23      	adds	r3, r4, #4
 8001212:	42a3      	cmp	r3, r4
 8001214:	41a4      	sbcs	r4, r4
 8001216:	4264      	negs	r4, r4
 8001218:	44a1      	add	r9, r4
 800121a:	001c      	movs	r4, r3
 800121c:	464b      	mov	r3, r9
 800121e:	021b      	lsls	r3, r3, #8
 8001220:	d400      	bmi.n	8001224 <__aeabi_dsub+0x124>
 8001222:	e0de      	b.n	80013e2 <__aeabi_dsub+0x2e2>
 8001224:	4641      	mov	r1, r8
 8001226:	4b8c      	ldr	r3, [pc, #560]	; (8001458 <__aeabi_dsub+0x358>)
 8001228:	3101      	adds	r1, #1
 800122a:	4299      	cmp	r1, r3
 800122c:	d100      	bne.n	8001230 <__aeabi_dsub+0x130>
 800122e:	e0e7      	b.n	8001400 <__aeabi_dsub+0x300>
 8001230:	464b      	mov	r3, r9
 8001232:	488a      	ldr	r0, [pc, #552]	; (800145c <__aeabi_dsub+0x35c>)
 8001234:	08e4      	lsrs	r4, r4, #3
 8001236:	4003      	ands	r3, r0
 8001238:	0018      	movs	r0, r3
 800123a:	0549      	lsls	r1, r1, #21
 800123c:	075b      	lsls	r3, r3, #29
 800123e:	0240      	lsls	r0, r0, #9
 8001240:	4323      	orrs	r3, r4
 8001242:	0d4a      	lsrs	r2, r1, #21
 8001244:	0b04      	lsrs	r4, r0, #12
 8001246:	0512      	lsls	r2, r2, #20
 8001248:	07ed      	lsls	r5, r5, #31
 800124a:	4322      	orrs	r2, r4
 800124c:	432a      	orrs	r2, r5
 800124e:	0018      	movs	r0, r3
 8001250:	0011      	movs	r1, r2
 8001252:	bcf0      	pop	{r4, r5, r6, r7}
 8001254:	46bb      	mov	fp, r7
 8001256:	46b2      	mov	sl, r6
 8001258:	46a9      	mov	r9, r5
 800125a:	46a0      	mov	r8, r4
 800125c:	bdf8      	pop	{r3, r4, r5, r6, r7, pc}
 800125e:	4642      	mov	r2, r8
 8001260:	1a12      	subs	r2, r2, r0
 8001262:	2a00      	cmp	r2, #0
 8001264:	dd52      	ble.n	800130c <__aeabi_dsub+0x20c>
 8001266:	2800      	cmp	r0, #0
 8001268:	d100      	bne.n	800126c <__aeabi_dsub+0x16c>
 800126a:	e09c      	b.n	80013a6 <__aeabi_dsub+0x2a6>
 800126c:	45a0      	cmp	r8, r4
 800126e:	d100      	bne.n	8001272 <__aeabi_dsub+0x172>
 8001270:	e0ca      	b.n	8001408 <__aeabi_dsub+0x308>
 8001272:	2080      	movs	r0, #128	; 0x80
 8001274:	0400      	lsls	r0, r0, #16
 8001276:	4301      	orrs	r1, r0
 8001278:	2a38      	cmp	r2, #56	; 0x38
 800127a:	dd00      	ble.n	800127e <__aeabi_dsub+0x17e>
 800127c:	e149      	b.n	8001512 <__aeabi_dsub+0x412>
 800127e:	2a1f      	cmp	r2, #31
 8001280:	dc00      	bgt.n	8001284 <__aeabi_dsub+0x184>
 8001282:	e197      	b.n	80015b4 <__aeabi_dsub+0x4b4>
 8001284:	0010      	movs	r0, r2
 8001286:	000e      	movs	r6, r1
 8001288:	3820      	subs	r0, #32
 800128a:	40c6      	lsrs	r6, r0
 800128c:	2a20      	cmp	r2, #32
 800128e:	d004      	beq.n	800129a <__aeabi_dsub+0x19a>
 8001290:	2040      	movs	r0, #64	; 0x40
 8001292:	1a82      	subs	r2, r0, r2
 8001294:	4091      	lsls	r1, r2
 8001296:	430f      	orrs	r7, r1
 8001298:	46b9      	mov	r9, r7
 800129a:	464c      	mov	r4, r9
 800129c:	1e62      	subs	r2, r4, #1
 800129e:	4194      	sbcs	r4, r2
 80012a0:	4334      	orrs	r4, r6
 80012a2:	e13a      	b.n	800151a <__aeabi_dsub+0x41a>
 80012a4:	000a      	movs	r2, r1
 80012a6:	433a      	orrs	r2, r7
 80012a8:	d028      	beq.n	80012fc <__aeabi_dsub+0x1fc>
 80012aa:	46b3      	mov	fp, r6
 80012ac:	42b5      	cmp	r5, r6
 80012ae:	d02b      	beq.n	8001308 <__aeabi_dsub+0x208>
 80012b0:	4a6b      	ldr	r2, [pc, #428]	; (8001460 <__aeabi_dsub+0x360>)
 80012b2:	4442      	add	r2, r8
 80012b4:	2a00      	cmp	r2, #0
 80012b6:	d05d      	beq.n	8001374 <__aeabi_dsub+0x274>
 80012b8:	4642      	mov	r2, r8
 80012ba:	4644      	mov	r4, r8
 80012bc:	1a82      	subs	r2, r0, r2
 80012be:	2c00      	cmp	r4, #0
 80012c0:	d000      	beq.n	80012c4 <__aeabi_dsub+0x1c4>
 80012c2:	e0f5      	b.n	80014b0 <__aeabi_dsub+0x3b0>
 80012c4:	4665      	mov	r5, ip
 80012c6:	431d      	orrs	r5, r3
 80012c8:	d100      	bne.n	80012cc <__aeabi_dsub+0x1cc>
 80012ca:	e19c      	b.n	8001606 <__aeabi_dsub+0x506>
 80012cc:	1e55      	subs	r5, r2, #1
 80012ce:	2a01      	cmp	r2, #1
 80012d0:	d100      	bne.n	80012d4 <__aeabi_dsub+0x1d4>
 80012d2:	e1fb      	b.n	80016cc <__aeabi_dsub+0x5cc>
 80012d4:	4c60      	ldr	r4, [pc, #384]	; (8001458 <__aeabi_dsub+0x358>)
 80012d6:	42a2      	cmp	r2, r4
 80012d8:	d100      	bne.n	80012dc <__aeabi_dsub+0x1dc>
 80012da:	e1bd      	b.n	8001658 <__aeabi_dsub+0x558>
 80012dc:	002a      	movs	r2, r5
 80012de:	e0f0      	b.n	80014c2 <__aeabi_dsub+0x3c2>
 80012e0:	0008      	movs	r0, r1
 80012e2:	4338      	orrs	r0, r7
 80012e4:	d100      	bne.n	80012e8 <__aeabi_dsub+0x1e8>
 80012e6:	e0c3      	b.n	8001470 <__aeabi_dsub+0x370>
 80012e8:	1e50      	subs	r0, r2, #1
 80012ea:	2a01      	cmp	r2, #1
 80012ec:	d100      	bne.n	80012f0 <__aeabi_dsub+0x1f0>
 80012ee:	e1a8      	b.n	8001642 <__aeabi_dsub+0x542>
 80012f0:	4c59      	ldr	r4, [pc, #356]	; (8001458 <__aeabi_dsub+0x358>)
 80012f2:	42a2      	cmp	r2, r4
 80012f4:	d100      	bne.n	80012f8 <__aeabi_dsub+0x1f8>
 80012f6:	e087      	b.n	8001408 <__aeabi_dsub+0x308>
 80012f8:	0002      	movs	r2, r0
 80012fa:	e736      	b.n	800116a <__aeabi_dsub+0x6a>
 80012fc:	2201      	movs	r2, #1
 80012fe:	4056      	eors	r6, r2
 8001300:	46b3      	mov	fp, r6
 8001302:	42b5      	cmp	r5, r6
 8001304:	d000      	beq.n	8001308 <__aeabi_dsub+0x208>
 8001306:	e721      	b.n	800114c <__aeabi_dsub+0x4c>
 8001308:	4a55      	ldr	r2, [pc, #340]	; (8001460 <__aeabi_dsub+0x360>)
 800130a:	4442      	add	r2, r8
 800130c:	2a00      	cmp	r2, #0
 800130e:	d100      	bne.n	8001312 <__aeabi_dsub+0x212>
 8001310:	e0b5      	b.n	800147e <__aeabi_dsub+0x37e>
 8001312:	4642      	mov	r2, r8
 8001314:	4644      	mov	r4, r8
 8001316:	1a82      	subs	r2, r0, r2
 8001318:	2c00      	cmp	r4, #0
 800131a:	d100      	bne.n	800131e <__aeabi_dsub+0x21e>
 800131c:	e138      	b.n	8001590 <__aeabi_dsub+0x490>
 800131e:	4e4e      	ldr	r6, [pc, #312]	; (8001458 <__aeabi_dsub+0x358>)
 8001320:	42b0      	cmp	r0, r6
 8001322:	d100      	bne.n	8001326 <__aeabi_dsub+0x226>
 8001324:	e1de      	b.n	80016e4 <__aeabi_dsub+0x5e4>
 8001326:	2680      	movs	r6, #128	; 0x80
 8001328:	4664      	mov	r4, ip
 800132a:	0436      	lsls	r6, r6, #16
 800132c:	4334      	orrs	r4, r6
 800132e:	46a4      	mov	ip, r4
 8001330:	2a38      	cmp	r2, #56	; 0x38
 8001332:	dd00      	ble.n	8001336 <__aeabi_dsub+0x236>
 8001334:	e196      	b.n	8001664 <__aeabi_dsub+0x564>
 8001336:	2a1f      	cmp	r2, #31
 8001338:	dd00      	ble.n	800133c <__aeabi_dsub+0x23c>
 800133a:	e224      	b.n	8001786 <__aeabi_dsub+0x686>
 800133c:	2620      	movs	r6, #32
 800133e:	1ab4      	subs	r4, r6, r2
 8001340:	46a2      	mov	sl, r4
 8001342:	4664      	mov	r4, ip
 8001344:	4656      	mov	r6, sl
 8001346:	40b4      	lsls	r4, r6
 8001348:	46a1      	mov	r9, r4
 800134a:	001c      	movs	r4, r3
 800134c:	464e      	mov	r6, r9
 800134e:	40d4      	lsrs	r4, r2
 8001350:	4326      	orrs	r6, r4
 8001352:	0034      	movs	r4, r6
 8001354:	4656      	mov	r6, sl
 8001356:	40b3      	lsls	r3, r6
 8001358:	1e5e      	subs	r6, r3, #1
 800135a:	41b3      	sbcs	r3, r6
 800135c:	431c      	orrs	r4, r3
 800135e:	4663      	mov	r3, ip
 8001360:	40d3      	lsrs	r3, r2
 8001362:	18c9      	adds	r1, r1, r3
 8001364:	19e4      	adds	r4, r4, r7
 8001366:	42bc      	cmp	r4, r7
 8001368:	41bf      	sbcs	r7, r7
 800136a:	427f      	negs	r7, r7
 800136c:	46b9      	mov	r9, r7
 800136e:	4680      	mov	r8, r0
 8001370:	4489      	add	r9, r1
 8001372:	e0d8      	b.n	8001526 <__aeabi_dsub+0x426>
 8001374:	4640      	mov	r0, r8
 8001376:	4c3b      	ldr	r4, [pc, #236]	; (8001464 <__aeabi_dsub+0x364>)
 8001378:	3001      	adds	r0, #1
 800137a:	4220      	tst	r0, r4
 800137c:	d000      	beq.n	8001380 <__aeabi_dsub+0x280>
 800137e:	e0b4      	b.n	80014ea <__aeabi_dsub+0x3ea>
 8001380:	4640      	mov	r0, r8
 8001382:	2800      	cmp	r0, #0
 8001384:	d000      	beq.n	8001388 <__aeabi_dsub+0x288>
 8001386:	e144      	b.n	8001612 <__aeabi_dsub+0x512>
 8001388:	4660      	mov	r0, ip
 800138a:	4318      	orrs	r0, r3
 800138c:	d100      	bne.n	8001390 <__aeabi_dsub+0x290>
 800138e:	e190      	b.n	80016b2 <__aeabi_dsub+0x5b2>
 8001390:	0008      	movs	r0, r1
 8001392:	4338      	orrs	r0, r7
 8001394:	d000      	beq.n	8001398 <__aeabi_dsub+0x298>
 8001396:	e1aa      	b.n	80016ee <__aeabi_dsub+0x5ee>
 8001398:	4661      	mov	r1, ip
 800139a:	08db      	lsrs	r3, r3, #3
 800139c:	0749      	lsls	r1, r1, #29
 800139e:	430b      	orrs	r3, r1
 80013a0:	4661      	mov	r1, ip
 80013a2:	08cc      	lsrs	r4, r1, #3
 80013a4:	e027      	b.n	80013f6 <__aeabi_dsub+0x2f6>
 80013a6:	0008      	movs	r0, r1
 80013a8:	4338      	orrs	r0, r7
 80013aa:	d061      	beq.n	8001470 <__aeabi_dsub+0x370>
 80013ac:	1e50      	subs	r0, r2, #1
 80013ae:	2a01      	cmp	r2, #1
 80013b0:	d100      	bne.n	80013b4 <__aeabi_dsub+0x2b4>
 80013b2:	e139      	b.n	8001628 <__aeabi_dsub+0x528>
 80013b4:	42a2      	cmp	r2, r4
 80013b6:	d027      	beq.n	8001408 <__aeabi_dsub+0x308>
 80013b8:	0002      	movs	r2, r0
 80013ba:	e75d      	b.n	8001278 <__aeabi_dsub+0x178>
 80013bc:	0002      	movs	r2, r0
 80013be:	391f      	subs	r1, #31
 80013c0:	40ca      	lsrs	r2, r1
 80013c2:	0011      	movs	r1, r2
 80013c4:	2b20      	cmp	r3, #32
 80013c6:	d003      	beq.n	80013d0 <__aeabi_dsub+0x2d0>
 80013c8:	2240      	movs	r2, #64	; 0x40
 80013ca:	1ad3      	subs	r3, r2, r3
 80013cc:	4098      	lsls	r0, r3
 80013ce:	4304      	orrs	r4, r0
 80013d0:	1e63      	subs	r3, r4, #1
 80013d2:	419c      	sbcs	r4, r3
 80013d4:	2300      	movs	r3, #0
 80013d6:	4699      	mov	r9, r3
 80013d8:	4698      	mov	r8, r3
 80013da:	430c      	orrs	r4, r1
 80013dc:	0763      	lsls	r3, r4, #29
 80013de:	d000      	beq.n	80013e2 <__aeabi_dsub+0x2e2>
 80013e0:	e712      	b.n	8001208 <__aeabi_dsub+0x108>
 80013e2:	464b      	mov	r3, r9
 80013e4:	464a      	mov	r2, r9
 80013e6:	08e4      	lsrs	r4, r4, #3
 80013e8:	075b      	lsls	r3, r3, #29
 80013ea:	4323      	orrs	r3, r4
 80013ec:	08d4      	lsrs	r4, r2, #3
 80013ee:	4642      	mov	r2, r8
 80013f0:	4919      	ldr	r1, [pc, #100]	; (8001458 <__aeabi_dsub+0x358>)
 80013f2:	428a      	cmp	r2, r1
 80013f4:	d00e      	beq.n	8001414 <__aeabi_dsub+0x314>
 80013f6:	0324      	lsls	r4, r4, #12
 80013f8:	0552      	lsls	r2, r2, #21
 80013fa:	0b24      	lsrs	r4, r4, #12
 80013fc:	0d52      	lsrs	r2, r2, #21
 80013fe:	e722      	b.n	8001246 <__aeabi_dsub+0x146>
 8001400:	000a      	movs	r2, r1
 8001402:	2400      	movs	r4, #0
 8001404:	2300      	movs	r3, #0
 8001406:	e71e      	b.n	8001246 <__aeabi_dsub+0x146>
 8001408:	08db      	lsrs	r3, r3, #3
 800140a:	4662      	mov	r2, ip
 800140c:	0752      	lsls	r2, r2, #29
 800140e:	4313      	orrs	r3, r2
 8001410:	4662      	mov	r2, ip
 8001412:	08d4      	lsrs	r4, r2, #3
 8001414:	001a      	movs	r2, r3
 8001416:	4322      	orrs	r2, r4
 8001418:	d100      	bne.n	800141c <__aeabi_dsub+0x31c>
 800141a:	e1fc      	b.n	8001816 <__aeabi_dsub+0x716>
 800141c:	2280      	movs	r2, #128	; 0x80
 800141e:	0312      	lsls	r2, r2, #12
 8001420:	4314      	orrs	r4, r2
 8001422:	0324      	lsls	r4, r4, #12
 8001424:	4a0c      	ldr	r2, [pc, #48]	; (8001458 <__aeabi_dsub+0x358>)
 8001426:	0b24      	lsrs	r4, r4, #12
 8001428:	e70d      	b.n	8001246 <__aeabi_dsub+0x146>
 800142a:	0020      	movs	r0, r4
 800142c:	f000 fa60 	bl	80018f0 <__clzsi2>
 8001430:	0001      	movs	r1, r0
 8001432:	3118      	adds	r1, #24
 8001434:	291f      	cmp	r1, #31
 8001436:	dc00      	bgt.n	800143a <__aeabi_dsub+0x33a>
 8001438:	e6c4      	b.n	80011c4 <__aeabi_dsub+0xc4>
 800143a:	3808      	subs	r0, #8
 800143c:	4084      	lsls	r4, r0
 800143e:	4643      	mov	r3, r8
 8001440:	0020      	movs	r0, r4
 8001442:	2400      	movs	r4, #0
 8001444:	4588      	cmp	r8, r1
 8001446:	dc00      	bgt.n	800144a <__aeabi_dsub+0x34a>
 8001448:	e6c8      	b.n	80011dc <__aeabi_dsub+0xdc>
 800144a:	4a04      	ldr	r2, [pc, #16]	; (800145c <__aeabi_dsub+0x35c>)
 800144c:	1a5b      	subs	r3, r3, r1
 800144e:	4010      	ands	r0, r2
 8001450:	4698      	mov	r8, r3
 8001452:	4681      	mov	r9, r0
 8001454:	e6d6      	b.n	8001204 <__aeabi_dsub+0x104>
 8001456:	46c0      	nop			; (mov r8, r8)
 8001458:	000007ff 	.word	0x000007ff
 800145c:	ff7fffff 	.word	0xff7fffff
 8001460:	fffff801 	.word	0xfffff801
 8001464:	000007fe 	.word	0x000007fe
 8001468:	430f      	orrs	r7, r1
 800146a:	1e7a      	subs	r2, r7, #1
 800146c:	4197      	sbcs	r7, r2
 800146e:	e691      	b.n	8001194 <__aeabi_dsub+0x94>
 8001470:	4661      	mov	r1, ip
 8001472:	08db      	lsrs	r3, r3, #3
 8001474:	0749      	lsls	r1, r1, #29
 8001476:	430b      	orrs	r3, r1
 8001478:	4661      	mov	r1, ip
 800147a:	08cc      	lsrs	r4, r1, #3
 800147c:	e7b8      	b.n	80013f0 <__aeabi_dsub+0x2f0>
 800147e:	4640      	mov	r0, r8
 8001480:	4cd3      	ldr	r4, [pc, #844]	; (80017d0 <__aeabi_dsub+0x6d0>)
 8001482:	3001      	adds	r0, #1
 8001484:	4220      	tst	r0, r4
 8001486:	d000      	beq.n	800148a <__aeabi_dsub+0x38a>
 8001488:	e0a2      	b.n	80015d0 <__aeabi_dsub+0x4d0>
 800148a:	4640      	mov	r0, r8
 800148c:	2800      	cmp	r0, #0
 800148e:	d000      	beq.n	8001492 <__aeabi_dsub+0x392>
 8001490:	e101      	b.n	8001696 <__aeabi_dsub+0x596>
 8001492:	4660      	mov	r0, ip
 8001494:	4318      	orrs	r0, r3
 8001496:	d100      	bne.n	800149a <__aeabi_dsub+0x39a>
 8001498:	e15e      	b.n	8001758 <__aeabi_dsub+0x658>
 800149a:	0008      	movs	r0, r1
 800149c:	4338      	orrs	r0, r7
 800149e:	d000      	beq.n	80014a2 <__aeabi_dsub+0x3a2>
 80014a0:	e15f      	b.n	8001762 <__aeabi_dsub+0x662>
 80014a2:	4661      	mov	r1, ip
 80014a4:	08db      	lsrs	r3, r3, #3
 80014a6:	0749      	lsls	r1, r1, #29
 80014a8:	430b      	orrs	r3, r1
 80014aa:	4661      	mov	r1, ip
 80014ac:	08cc      	lsrs	r4, r1, #3
 80014ae:	e7a2      	b.n	80013f6 <__aeabi_dsub+0x2f6>
 80014b0:	4dc8      	ldr	r5, [pc, #800]	; (80017d4 <__aeabi_dsub+0x6d4>)
 80014b2:	42a8      	cmp	r0, r5
 80014b4:	d100      	bne.n	80014b8 <__aeabi_dsub+0x3b8>
 80014b6:	e0cf      	b.n	8001658 <__aeabi_dsub+0x558>
 80014b8:	2580      	movs	r5, #128	; 0x80
 80014ba:	4664      	mov	r4, ip
 80014bc:	042d      	lsls	r5, r5, #16
 80014be:	432c      	orrs	r4, r5
 80014c0:	46a4      	mov	ip, r4
 80014c2:	2a38      	cmp	r2, #56	; 0x38
 80014c4:	dc56      	bgt.n	8001574 <__aeabi_dsub+0x474>
 80014c6:	2a1f      	cmp	r2, #31
 80014c8:	dd00      	ble.n	80014cc <__aeabi_dsub+0x3cc>
 80014ca:	e0d1      	b.n	8001670 <__aeabi_dsub+0x570>
 80014cc:	2520      	movs	r5, #32
 80014ce:	001e      	movs	r6, r3
 80014d0:	1aad      	subs	r5, r5, r2
 80014d2:	4664      	mov	r4, ip
 80014d4:	40ab      	lsls	r3, r5
 80014d6:	40ac      	lsls	r4, r5
 80014d8:	40d6      	lsrs	r6, r2
 80014da:	1e5d      	subs	r5, r3, #1
 80014dc:	41ab      	sbcs	r3, r5
 80014de:	4334      	orrs	r4, r6
 80014e0:	4323      	orrs	r3, r4
 80014e2:	4664      	mov	r4, ip
 80014e4:	40d4      	lsrs	r4, r2
 80014e6:	1b09      	subs	r1, r1, r4
 80014e8:	e049      	b.n	800157e <__aeabi_dsub+0x47e>
 80014ea:	4660      	mov	r0, ip
 80014ec:	1bdc      	subs	r4, r3, r7
 80014ee:	1a46      	subs	r6, r0, r1
 80014f0:	42a3      	cmp	r3, r4
 80014f2:	4180      	sbcs	r0, r0
 80014f4:	4240      	negs	r0, r0
 80014f6:	4681      	mov	r9, r0
 80014f8:	0030      	movs	r0, r6
 80014fa:	464e      	mov	r6, r9
 80014fc:	1b80      	subs	r0, r0, r6
 80014fe:	4681      	mov	r9, r0
 8001500:	0200      	lsls	r0, r0, #8
 8001502:	d476      	bmi.n	80015f2 <__aeabi_dsub+0x4f2>
 8001504:	464b      	mov	r3, r9
 8001506:	4323      	orrs	r3, r4
 8001508:	d000      	beq.n	800150c <__aeabi_dsub+0x40c>
 800150a:	e652      	b.n	80011b2 <__aeabi_dsub+0xb2>
 800150c:	2400      	movs	r4, #0
 800150e:	2500      	movs	r5, #0
 8001510:	e771      	b.n	80013f6 <__aeabi_dsub+0x2f6>
 8001512:	4339      	orrs	r1, r7
 8001514:	000c      	movs	r4, r1
 8001516:	1e62      	subs	r2, r4, #1
 8001518:	4194      	sbcs	r4, r2
 800151a:	18e4      	adds	r4, r4, r3
 800151c:	429c      	cmp	r4, r3
 800151e:	419b      	sbcs	r3, r3
 8001520:	425b      	negs	r3, r3
 8001522:	4463      	add	r3, ip
 8001524:	4699      	mov	r9, r3
 8001526:	464b      	mov	r3, r9
 8001528:	021b      	lsls	r3, r3, #8
 800152a:	d400      	bmi.n	800152e <__aeabi_dsub+0x42e>
 800152c:	e756      	b.n	80013dc <__aeabi_dsub+0x2dc>
 800152e:	2301      	movs	r3, #1
 8001530:	469c      	mov	ip, r3
 8001532:	4ba8      	ldr	r3, [pc, #672]	; (80017d4 <__aeabi_dsub+0x6d4>)
 8001534:	44e0      	add	r8, ip
 8001536:	4598      	cmp	r8, r3
 8001538:	d038      	beq.n	80015ac <__aeabi_dsub+0x4ac>
 800153a:	464b      	mov	r3, r9
 800153c:	48a6      	ldr	r0, [pc, #664]	; (80017d8 <__aeabi_dsub+0x6d8>)
 800153e:	2201      	movs	r2, #1
 8001540:	4003      	ands	r3, r0
 8001542:	0018      	movs	r0, r3
 8001544:	0863      	lsrs	r3, r4, #1
 8001546:	4014      	ands	r4, r2
 8001548:	431c      	orrs	r4, r3
 800154a:	07c3      	lsls	r3, r0, #31
 800154c:	431c      	orrs	r4, r3
 800154e:	0843      	lsrs	r3, r0, #1
 8001550:	4699      	mov	r9, r3
 8001552:	e657      	b.n	8001204 <__aeabi_dsub+0x104>
 8001554:	0010      	movs	r0, r2
 8001556:	000e      	movs	r6, r1
 8001558:	3820      	subs	r0, #32
 800155a:	40c6      	lsrs	r6, r0
 800155c:	2a20      	cmp	r2, #32
 800155e:	d004      	beq.n	800156a <__aeabi_dsub+0x46a>
 8001560:	2040      	movs	r0, #64	; 0x40
 8001562:	1a82      	subs	r2, r0, r2
 8001564:	4091      	lsls	r1, r2
 8001566:	430f      	orrs	r7, r1
 8001568:	46b9      	mov	r9, r7
 800156a:	464f      	mov	r7, r9
 800156c:	1e7a      	subs	r2, r7, #1
 800156e:	4197      	sbcs	r7, r2
 8001570:	4337      	orrs	r7, r6
 8001572:	e60f      	b.n	8001194 <__aeabi_dsub+0x94>
 8001574:	4662      	mov	r2, ip
 8001576:	431a      	orrs	r2, r3
 8001578:	0013      	movs	r3, r2
 800157a:	1e5a      	subs	r2, r3, #1
 800157c:	4193      	sbcs	r3, r2
 800157e:	1afc      	subs	r4, r7, r3
 8001580:	42a7      	cmp	r7, r4
 8001582:	41bf      	sbcs	r7, r7
 8001584:	427f      	negs	r7, r7
 8001586:	1bcb      	subs	r3, r1, r7
 8001588:	4699      	mov	r9, r3
 800158a:	465d      	mov	r5, fp
 800158c:	4680      	mov	r8, r0
 800158e:	e608      	b.n	80011a2 <__aeabi_dsub+0xa2>
 8001590:	4666      	mov	r6, ip
 8001592:	431e      	orrs	r6, r3
 8001594:	d100      	bne.n	8001598 <__aeabi_dsub+0x498>
 8001596:	e0be      	b.n	8001716 <__aeabi_dsub+0x616>
 8001598:	1e56      	subs	r6, r2, #1
 800159a:	2a01      	cmp	r2, #1
 800159c:	d100      	bne.n	80015a0 <__aeabi_dsub+0x4a0>
 800159e:	e109      	b.n	80017b4 <__aeabi_dsub+0x6b4>
 80015a0:	4c8c      	ldr	r4, [pc, #560]	; (80017d4 <__aeabi_dsub+0x6d4>)
 80015a2:	42a2      	cmp	r2, r4
 80015a4:	d100      	bne.n	80015a8 <__aeabi_dsub+0x4a8>
 80015a6:	e119      	b.n	80017dc <__aeabi_dsub+0x6dc>
 80015a8:	0032      	movs	r2, r6
 80015aa:	e6c1      	b.n	8001330 <__aeabi_dsub+0x230>
 80015ac:	4642      	mov	r2, r8
 80015ae:	2400      	movs	r4, #0
 80015b0:	2300      	movs	r3, #0
 80015b2:	e648      	b.n	8001246 <__aeabi_dsub+0x146>
 80015b4:	2020      	movs	r0, #32
 80015b6:	000c      	movs	r4, r1
 80015b8:	1a80      	subs	r0, r0, r2
 80015ba:	003e      	movs	r6, r7
 80015bc:	4087      	lsls	r7, r0
 80015be:	4084      	lsls	r4, r0
 80015c0:	40d6      	lsrs	r6, r2
 80015c2:	1e78      	subs	r0, r7, #1
 80015c4:	4187      	sbcs	r7, r0
 80015c6:	40d1      	lsrs	r1, r2
 80015c8:	4334      	orrs	r4, r6
 80015ca:	433c      	orrs	r4, r7
 80015cc:	448c      	add	ip, r1
 80015ce:	e7a4      	b.n	800151a <__aeabi_dsub+0x41a>
 80015d0:	4a80      	ldr	r2, [pc, #512]	; (80017d4 <__aeabi_dsub+0x6d4>)
 80015d2:	4290      	cmp	r0, r2
 80015d4:	d100      	bne.n	80015d8 <__aeabi_dsub+0x4d8>
 80015d6:	e0e9      	b.n	80017ac <__aeabi_dsub+0x6ac>
 80015d8:	19df      	adds	r7, r3, r7
 80015da:	429f      	cmp	r7, r3
 80015dc:	419b      	sbcs	r3, r3
 80015de:	4461      	add	r1, ip
 80015e0:	425b      	negs	r3, r3
 80015e2:	18c9      	adds	r1, r1, r3
 80015e4:	07cc      	lsls	r4, r1, #31
 80015e6:	087f      	lsrs	r7, r7, #1
 80015e8:	084b      	lsrs	r3, r1, #1
 80015ea:	4699      	mov	r9, r3
 80015ec:	4680      	mov	r8, r0
 80015ee:	433c      	orrs	r4, r7
 80015f0:	e6f4      	b.n	80013dc <__aeabi_dsub+0x2dc>
 80015f2:	1afc      	subs	r4, r7, r3
 80015f4:	42a7      	cmp	r7, r4
 80015f6:	41bf      	sbcs	r7, r7
 80015f8:	4663      	mov	r3, ip
 80015fa:	427f      	negs	r7, r7
 80015fc:	1ac9      	subs	r1, r1, r3
 80015fe:	1bcb      	subs	r3, r1, r7
 8001600:	4699      	mov	r9, r3
 8001602:	465d      	mov	r5, fp
 8001604:	e5d5      	b.n	80011b2 <__aeabi_dsub+0xb2>
 8001606:	08ff      	lsrs	r7, r7, #3
 8001608:	074b      	lsls	r3, r1, #29
 800160a:	465d      	mov	r5, fp
 800160c:	433b      	orrs	r3, r7
 800160e:	08cc      	lsrs	r4, r1, #3
 8001610:	e6ee      	b.n	80013f0 <__aeabi_dsub+0x2f0>
 8001612:	4662      	mov	r2, ip
 8001614:	431a      	orrs	r2, r3
 8001616:	d000      	beq.n	800161a <__aeabi_dsub+0x51a>
 8001618:	e082      	b.n	8001720 <__aeabi_dsub+0x620>
 800161a:	000b      	movs	r3, r1
 800161c:	433b      	orrs	r3, r7
 800161e:	d11b      	bne.n	8001658 <__aeabi_dsub+0x558>
 8001620:	2480      	movs	r4, #128	; 0x80
 8001622:	2500      	movs	r5, #0
 8001624:	0324      	lsls	r4, r4, #12
 8001626:	e6f9      	b.n	800141c <__aeabi_dsub+0x31c>
 8001628:	19dc      	adds	r4, r3, r7
 800162a:	429c      	cmp	r4, r3
 800162c:	419b      	sbcs	r3, r3
 800162e:	4461      	add	r1, ip
 8001630:	4689      	mov	r9, r1
 8001632:	425b      	negs	r3, r3
 8001634:	4499      	add	r9, r3
 8001636:	464b      	mov	r3, r9
 8001638:	021b      	lsls	r3, r3, #8
 800163a:	d444      	bmi.n	80016c6 <__aeabi_dsub+0x5c6>
 800163c:	2301      	movs	r3, #1
 800163e:	4698      	mov	r8, r3
 8001640:	e6cc      	b.n	80013dc <__aeabi_dsub+0x2dc>
 8001642:	1bdc      	subs	r4, r3, r7
 8001644:	4662      	mov	r2, ip
 8001646:	42a3      	cmp	r3, r4
 8001648:	419b      	sbcs	r3, r3
 800164a:	1a51      	subs	r1, r2, r1
 800164c:	425b      	negs	r3, r3
 800164e:	1acb      	subs	r3, r1, r3
 8001650:	4699      	mov	r9, r3
 8001652:	2301      	movs	r3, #1
 8001654:	4698      	mov	r8, r3
 8001656:	e5a4      	b.n	80011a2 <__aeabi_dsub+0xa2>
 8001658:	08ff      	lsrs	r7, r7, #3
 800165a:	074b      	lsls	r3, r1, #29
 800165c:	465d      	mov	r5, fp
 800165e:	433b      	orrs	r3, r7
 8001660:	08cc      	lsrs	r4, r1, #3
 8001662:	e6d7      	b.n	8001414 <__aeabi_dsub+0x314>
 8001664:	4662      	mov	r2, ip
 8001666:	431a      	orrs	r2, r3
 8001668:	0014      	movs	r4, r2
 800166a:	1e63      	subs	r3, r4, #1
 800166c:	419c      	sbcs	r4, r3
 800166e:	e679      	b.n	8001364 <__aeabi_dsub+0x264>
 8001670:	0015      	movs	r5, r2
 8001672:	4664      	mov	r4, ip
 8001674:	3d20      	subs	r5, #32
 8001676:	40ec      	lsrs	r4, r5
 8001678:	46a0      	mov	r8, r4
 800167a:	2a20      	cmp	r2, #32
 800167c:	d005      	beq.n	800168a <__aeabi_dsub+0x58a>
 800167e:	2540      	movs	r5, #64	; 0x40
 8001680:	4664      	mov	r4, ip
 8001682:	1aaa      	subs	r2, r5, r2
 8001684:	4094      	lsls	r4, r2
 8001686:	4323      	orrs	r3, r4
 8001688:	469a      	mov	sl, r3
 800168a:	4654      	mov	r4, sl
 800168c:	1e63      	subs	r3, r4, #1
 800168e:	419c      	sbcs	r4, r3
 8001690:	4643      	mov	r3, r8
 8001692:	4323      	orrs	r3, r4
 8001694:	e773      	b.n	800157e <__aeabi_dsub+0x47e>
 8001696:	4662      	mov	r2, ip
 8001698:	431a      	orrs	r2, r3
 800169a:	d023      	beq.n	80016e4 <__aeabi_dsub+0x5e4>
 800169c:	000a      	movs	r2, r1
 800169e:	433a      	orrs	r2, r7
 80016a0:	d000      	beq.n	80016a4 <__aeabi_dsub+0x5a4>
 80016a2:	e0a0      	b.n	80017e6 <__aeabi_dsub+0x6e6>
 80016a4:	4662      	mov	r2, ip
 80016a6:	08db      	lsrs	r3, r3, #3
 80016a8:	0752      	lsls	r2, r2, #29
 80016aa:	4313      	orrs	r3, r2
 80016ac:	4662      	mov	r2, ip
 80016ae:	08d4      	lsrs	r4, r2, #3
 80016b0:	e6b0      	b.n	8001414 <__aeabi_dsub+0x314>
 80016b2:	000b      	movs	r3, r1
 80016b4:	433b      	orrs	r3, r7
 80016b6:	d100      	bne.n	80016ba <__aeabi_dsub+0x5ba>
 80016b8:	e728      	b.n	800150c <__aeabi_dsub+0x40c>
 80016ba:	08ff      	lsrs	r7, r7, #3
 80016bc:	074b      	lsls	r3, r1, #29
 80016be:	465d      	mov	r5, fp
 80016c0:	433b      	orrs	r3, r7
 80016c2:	08cc      	lsrs	r4, r1, #3
 80016c4:	e697      	b.n	80013f6 <__aeabi_dsub+0x2f6>
 80016c6:	2302      	movs	r3, #2
 80016c8:	4698      	mov	r8, r3
 80016ca:	e736      	b.n	800153a <__aeabi_dsub+0x43a>
 80016cc:	1afc      	subs	r4, r7, r3
 80016ce:	42a7      	cmp	r7, r4
 80016d0:	41bf      	sbcs	r7, r7
 80016d2:	4663      	mov	r3, ip
 80016d4:	427f      	negs	r7, r7
 80016d6:	1ac9      	subs	r1, r1, r3
 80016d8:	1bcb      	subs	r3, r1, r7
 80016da:	4699      	mov	r9, r3
 80016dc:	2301      	movs	r3, #1
 80016de:	465d      	mov	r5, fp
 80016e0:	4698      	mov	r8, r3
 80016e2:	e55e      	b.n	80011a2 <__aeabi_dsub+0xa2>
 80016e4:	074b      	lsls	r3, r1, #29
 80016e6:	08ff      	lsrs	r7, r7, #3
 80016e8:	433b      	orrs	r3, r7
 80016ea:	08cc      	lsrs	r4, r1, #3
 80016ec:	e692      	b.n	8001414 <__aeabi_dsub+0x314>
 80016ee:	1bdc      	subs	r4, r3, r7
 80016f0:	4660      	mov	r0, ip
 80016f2:	42a3      	cmp	r3, r4
 80016f4:	41b6      	sbcs	r6, r6
 80016f6:	1a40      	subs	r0, r0, r1
 80016f8:	4276      	negs	r6, r6
 80016fa:	1b80      	subs	r0, r0, r6
 80016fc:	4681      	mov	r9, r0
 80016fe:	0200      	lsls	r0, r0, #8
 8001700:	d560      	bpl.n	80017c4 <__aeabi_dsub+0x6c4>
 8001702:	1afc      	subs	r4, r7, r3
 8001704:	42a7      	cmp	r7, r4
 8001706:	41bf      	sbcs	r7, r7
 8001708:	4663      	mov	r3, ip
 800170a:	427f      	negs	r7, r7
 800170c:	1ac9      	subs	r1, r1, r3
 800170e:	1bcb      	subs	r3, r1, r7
 8001710:	4699      	mov	r9, r3
 8001712:	465d      	mov	r5, fp
 8001714:	e576      	b.n	8001204 <__aeabi_dsub+0x104>
 8001716:	08ff      	lsrs	r7, r7, #3
 8001718:	074b      	lsls	r3, r1, #29
 800171a:	433b      	orrs	r3, r7
 800171c:	08cc      	lsrs	r4, r1, #3
 800171e:	e667      	b.n	80013f0 <__aeabi_dsub+0x2f0>
 8001720:	000a      	movs	r2, r1
 8001722:	08db      	lsrs	r3, r3, #3
 8001724:	433a      	orrs	r2, r7
 8001726:	d100      	bne.n	800172a <__aeabi_dsub+0x62a>
 8001728:	e66f      	b.n	800140a <__aeabi_dsub+0x30a>
 800172a:	4662      	mov	r2, ip
 800172c:	0752      	lsls	r2, r2, #29
 800172e:	4313      	orrs	r3, r2
 8001730:	4662      	mov	r2, ip
 8001732:	08d4      	lsrs	r4, r2, #3
 8001734:	2280      	movs	r2, #128	; 0x80
 8001736:	0312      	lsls	r2, r2, #12
 8001738:	4214      	tst	r4, r2
 800173a:	d007      	beq.n	800174c <__aeabi_dsub+0x64c>
 800173c:	08c8      	lsrs	r0, r1, #3
 800173e:	4210      	tst	r0, r2
 8001740:	d104      	bne.n	800174c <__aeabi_dsub+0x64c>
 8001742:	465d      	mov	r5, fp
 8001744:	0004      	movs	r4, r0
 8001746:	08fb      	lsrs	r3, r7, #3
 8001748:	0749      	lsls	r1, r1, #29
 800174a:	430b      	orrs	r3, r1
 800174c:	0f5a      	lsrs	r2, r3, #29
 800174e:	00db      	lsls	r3, r3, #3
 8001750:	08db      	lsrs	r3, r3, #3
 8001752:	0752      	lsls	r2, r2, #29
 8001754:	4313      	orrs	r3, r2
 8001756:	e65d      	b.n	8001414 <__aeabi_dsub+0x314>
 8001758:	074b      	lsls	r3, r1, #29
 800175a:	08ff      	lsrs	r7, r7, #3
 800175c:	433b      	orrs	r3, r7
 800175e:	08cc      	lsrs	r4, r1, #3
 8001760:	e649      	b.n	80013f6 <__aeabi_dsub+0x2f6>
 8001762:	19dc      	adds	r4, r3, r7
 8001764:	429c      	cmp	r4, r3
 8001766:	419b      	sbcs	r3, r3
 8001768:	4461      	add	r1, ip
 800176a:	4689      	mov	r9, r1
 800176c:	425b      	negs	r3, r3
 800176e:	4499      	add	r9, r3
 8001770:	464b      	mov	r3, r9
 8001772:	021b      	lsls	r3, r3, #8
 8001774:	d400      	bmi.n	8001778 <__aeabi_dsub+0x678>
 8001776:	e631      	b.n	80013dc <__aeabi_dsub+0x2dc>
 8001778:	464a      	mov	r2, r9
 800177a:	4b17      	ldr	r3, [pc, #92]	; (80017d8 <__aeabi_dsub+0x6d8>)
 800177c:	401a      	ands	r2, r3
 800177e:	2301      	movs	r3, #1
 8001780:	4691      	mov	r9, r2
 8001782:	4698      	mov	r8, r3
 8001784:	e62a      	b.n	80013dc <__aeabi_dsub+0x2dc>
 8001786:	0016      	movs	r6, r2
 8001788:	4664      	mov	r4, ip
 800178a:	3e20      	subs	r6, #32
 800178c:	40f4      	lsrs	r4, r6
 800178e:	46a0      	mov	r8, r4
 8001790:	2a20      	cmp	r2, #32
 8001792:	d005      	beq.n	80017a0 <__aeabi_dsub+0x6a0>
 8001794:	2640      	movs	r6, #64	; 0x40
 8001796:	4664      	mov	r4, ip
 8001798:	1ab2      	subs	r2, r6, r2
 800179a:	4094      	lsls	r4, r2
 800179c:	4323      	orrs	r3, r4
 800179e:	469a      	mov	sl, r3
 80017a0:	4654      	mov	r4, sl
 80017a2:	1e63      	subs	r3, r4, #1
 80017a4:	419c      	sbcs	r4, r3
 80017a6:	4643      	mov	r3, r8
 80017a8:	431c      	orrs	r4, r3
 80017aa:	e5db      	b.n	8001364 <__aeabi_dsub+0x264>
 80017ac:	0002      	movs	r2, r0
 80017ae:	2400      	movs	r4, #0
 80017b0:	2300      	movs	r3, #0
 80017b2:	e548      	b.n	8001246 <__aeabi_dsub+0x146>
 80017b4:	19dc      	adds	r4, r3, r7
 80017b6:	42bc      	cmp	r4, r7
 80017b8:	41bf      	sbcs	r7, r7
 80017ba:	4461      	add	r1, ip
 80017bc:	4689      	mov	r9, r1
 80017be:	427f      	negs	r7, r7
 80017c0:	44b9      	add	r9, r7
 80017c2:	e738      	b.n	8001636 <__aeabi_dsub+0x536>
 80017c4:	464b      	mov	r3, r9
 80017c6:	4323      	orrs	r3, r4
 80017c8:	d100      	bne.n	80017cc <__aeabi_dsub+0x6cc>
 80017ca:	e69f      	b.n	800150c <__aeabi_dsub+0x40c>
 80017cc:	e606      	b.n	80013dc <__aeabi_dsub+0x2dc>
 80017ce:	46c0      	nop			; (mov r8, r8)
 80017d0:	000007fe 	.word	0x000007fe
 80017d4:	000007ff 	.word	0x000007ff
 80017d8:	ff7fffff 	.word	0xff7fffff
 80017dc:	08ff      	lsrs	r7, r7, #3
 80017de:	074b      	lsls	r3, r1, #29
 80017e0:	433b      	orrs	r3, r7
 80017e2:	08cc      	lsrs	r4, r1, #3
 80017e4:	e616      	b.n	8001414 <__aeabi_dsub+0x314>
 80017e6:	4662      	mov	r2, ip
 80017e8:	08db      	lsrs	r3, r3, #3
 80017ea:	0752      	lsls	r2, r2, #29
 80017ec:	4313      	orrs	r3, r2
 80017ee:	4662      	mov	r2, ip
 80017f0:	08d4      	lsrs	r4, r2, #3
 80017f2:	2280      	movs	r2, #128	; 0x80
 80017f4:	0312      	lsls	r2, r2, #12
 80017f6:	4214      	tst	r4, r2
 80017f8:	d007      	beq.n	800180a <__aeabi_dsub+0x70a>
 80017fa:	08c8      	lsrs	r0, r1, #3
 80017fc:	4210      	tst	r0, r2
 80017fe:	d104      	bne.n	800180a <__aeabi_dsub+0x70a>
 8001800:	465d      	mov	r5, fp
 8001802:	0004      	movs	r4, r0
 8001804:	08fb      	lsrs	r3, r7, #3
 8001806:	0749      	lsls	r1, r1, #29
 8001808:	430b      	orrs	r3, r1
 800180a:	0f5a      	lsrs	r2, r3, #29
 800180c:	00db      	lsls	r3, r3, #3
 800180e:	0752      	lsls	r2, r2, #29
 8001810:	08db      	lsrs	r3, r3, #3
 8001812:	4313      	orrs	r3, r2
 8001814:	e5fe      	b.n	8001414 <__aeabi_dsub+0x314>
 8001816:	2300      	movs	r3, #0
 8001818:	4a01      	ldr	r2, [pc, #4]	; (8001820 <__aeabi_dsub+0x720>)
 800181a:	001c      	movs	r4, r3
 800181c:	e513      	b.n	8001246 <__aeabi_dsub+0x146>
 800181e:	46c0      	nop			; (mov r8, r8)
 8001820:	000007ff 	.word	0x000007ff

08001824 <__aeabi_d2iz>:
 8001824:	000a      	movs	r2, r1
 8001826:	b530      	push	{r4, r5, lr}
 8001828:	4c13      	ldr	r4, [pc, #76]	; (8001878 <__aeabi_d2iz+0x54>)
 800182a:	0053      	lsls	r3, r2, #1
 800182c:	0309      	lsls	r1, r1, #12
 800182e:	0005      	movs	r5, r0
 8001830:	0b09      	lsrs	r1, r1, #12
 8001832:	2000      	movs	r0, #0
 8001834:	0d5b      	lsrs	r3, r3, #21
 8001836:	0fd2      	lsrs	r2, r2, #31
 8001838:	42a3      	cmp	r3, r4
 800183a:	dd04      	ble.n	8001846 <__aeabi_d2iz+0x22>
 800183c:	480f      	ldr	r0, [pc, #60]	; (800187c <__aeabi_d2iz+0x58>)
 800183e:	4283      	cmp	r3, r0
 8001840:	dd02      	ble.n	8001848 <__aeabi_d2iz+0x24>
 8001842:	4b0f      	ldr	r3, [pc, #60]	; (8001880 <__aeabi_d2iz+0x5c>)
 8001844:	18d0      	adds	r0, r2, r3
 8001846:	bd30      	pop	{r4, r5, pc}
 8001848:	2080      	movs	r0, #128	; 0x80
 800184a:	0340      	lsls	r0, r0, #13
 800184c:	4301      	orrs	r1, r0
 800184e:	480d      	ldr	r0, [pc, #52]	; (8001884 <__aeabi_d2iz+0x60>)
 8001850:	1ac0      	subs	r0, r0, r3
 8001852:	281f      	cmp	r0, #31
 8001854:	dd08      	ble.n	8001868 <__aeabi_d2iz+0x44>
 8001856:	480c      	ldr	r0, [pc, #48]	; (8001888 <__aeabi_d2iz+0x64>)
 8001858:	1ac3      	subs	r3, r0, r3
 800185a:	40d9      	lsrs	r1, r3
 800185c:	000b      	movs	r3, r1
 800185e:	4258      	negs	r0, r3
 8001860:	2a00      	cmp	r2, #0
 8001862:	d1f0      	bne.n	8001846 <__aeabi_d2iz+0x22>
 8001864:	0018      	movs	r0, r3
 8001866:	e7ee      	b.n	8001846 <__aeabi_d2iz+0x22>
 8001868:	4c08      	ldr	r4, [pc, #32]	; (800188c <__aeabi_d2iz+0x68>)
 800186a:	40c5      	lsrs	r5, r0
 800186c:	46a4      	mov	ip, r4
 800186e:	4463      	add	r3, ip
 8001870:	4099      	lsls	r1, r3
 8001872:	000b      	movs	r3, r1
 8001874:	432b      	orrs	r3, r5
 8001876:	e7f2      	b.n	800185e <__aeabi_d2iz+0x3a>
 8001878:	000003fe 	.word	0x000003fe
 800187c:	0000041d 	.word	0x0000041d
 8001880:	7fffffff 	.word	0x7fffffff
 8001884:	00000433 	.word	0x00000433
 8001888:	00000413 	.word	0x00000413
 800188c:	fffffbed 	.word	0xfffffbed

08001890 <__aeabi_i2d>:
 8001890:	b570      	push	{r4, r5, r6, lr}
 8001892:	2800      	cmp	r0, #0
 8001894:	d016      	beq.n	80018c4 <__aeabi_i2d+0x34>
 8001896:	17c3      	asrs	r3, r0, #31
 8001898:	18c5      	adds	r5, r0, r3
 800189a:	405d      	eors	r5, r3
 800189c:	0fc4      	lsrs	r4, r0, #31
 800189e:	0028      	movs	r0, r5
 80018a0:	f000 f826 	bl	80018f0 <__clzsi2>
 80018a4:	4a11      	ldr	r2, [pc, #68]	; (80018ec <__aeabi_i2d+0x5c>)
 80018a6:	1a12      	subs	r2, r2, r0
 80018a8:	280a      	cmp	r0, #10
 80018aa:	dc16      	bgt.n	80018da <__aeabi_i2d+0x4a>
 80018ac:	0003      	movs	r3, r0
 80018ae:	002e      	movs	r6, r5
 80018b0:	3315      	adds	r3, #21
 80018b2:	409e      	lsls	r6, r3
 80018b4:	230b      	movs	r3, #11
 80018b6:	1a18      	subs	r0, r3, r0
 80018b8:	40c5      	lsrs	r5, r0
 80018ba:	0552      	lsls	r2, r2, #21
 80018bc:	032d      	lsls	r5, r5, #12
 80018be:	0b2d      	lsrs	r5, r5, #12
 80018c0:	0d53      	lsrs	r3, r2, #21
 80018c2:	e003      	b.n	80018cc <__aeabi_i2d+0x3c>
 80018c4:	2400      	movs	r4, #0
 80018c6:	2300      	movs	r3, #0
 80018c8:	2500      	movs	r5, #0
 80018ca:	2600      	movs	r6, #0
 80018cc:	051b      	lsls	r3, r3, #20
 80018ce:	432b      	orrs	r3, r5
 80018d0:	07e4      	lsls	r4, r4, #31
 80018d2:	4323      	orrs	r3, r4
 80018d4:	0030      	movs	r0, r6
 80018d6:	0019      	movs	r1, r3
 80018d8:	bd70      	pop	{r4, r5, r6, pc}
 80018da:	380b      	subs	r0, #11
 80018dc:	4085      	lsls	r5, r0
 80018de:	0552      	lsls	r2, r2, #21
 80018e0:	032d      	lsls	r5, r5, #12
 80018e2:	2600      	movs	r6, #0
 80018e4:	0b2d      	lsrs	r5, r5, #12
 80018e6:	0d53      	lsrs	r3, r2, #21
 80018e8:	e7f0      	b.n	80018cc <__aeabi_i2d+0x3c>
 80018ea:	46c0      	nop			; (mov r8, r8)
 80018ec:	0000041e 	.word	0x0000041e

080018f0 <__clzsi2>:
 80018f0:	211c      	movs	r1, #28
 80018f2:	2301      	movs	r3, #1
 80018f4:	041b      	lsls	r3, r3, #16
 80018f6:	4298      	cmp	r0, r3
 80018f8:	d301      	bcc.n	80018fe <__clzsi2+0xe>
 80018fa:	0c00      	lsrs	r0, r0, #16
 80018fc:	3910      	subs	r1, #16
 80018fe:	0a1b      	lsrs	r3, r3, #8
 8001900:	4298      	cmp	r0, r3
 8001902:	d301      	bcc.n	8001908 <__clzsi2+0x18>
 8001904:	0a00      	lsrs	r0, r0, #8
 8001906:	3908      	subs	r1, #8
 8001908:	091b      	lsrs	r3, r3, #4
 800190a:	4298      	cmp	r0, r3
 800190c:	d301      	bcc.n	8001912 <__clzsi2+0x22>
 800190e:	0900      	lsrs	r0, r0, #4
 8001910:	3904      	subs	r1, #4
 8001912:	a202      	add	r2, pc, #8	; (adr r2, 800191c <__clzsi2+0x2c>)
 8001914:	5c10      	ldrb	r0, [r2, r0]
 8001916:	1840      	adds	r0, r0, r1
 8001918:	4770      	bx	lr
 800191a:	46c0      	nop			; (mov r8, r8)
 800191c:	02020304 	.word	0x02020304
 8001920:	01010101 	.word	0x01010101
	...

0800192c <__clzdi2>:
 800192c:	b510      	push	{r4, lr}
 800192e:	2900      	cmp	r1, #0
 8001930:	d103      	bne.n	800193a <__clzdi2+0xe>
 8001932:	f7ff ffdd 	bl	80018f0 <__clzsi2>
 8001936:	3020      	adds	r0, #32
 8001938:	e002      	b.n	8001940 <__clzdi2+0x14>
 800193a:	0008      	movs	r0, r1
 800193c:	f7ff ffd8 	bl	80018f0 <__clzsi2>
 8001940:	bd10      	pop	{r4, pc}
 8001942:	46c0      	nop			; (mov r8, r8)

08001944 <main>:

  */

int main(void)

{
 8001944:	b590      	push	{r4, r7, lr}
 8001946:	b0a3      	sub	sp, #140	; 0x8c
 8001948:	af00      	add	r7, sp, #0



  /* Reset of all peripherals, Initializes the Flash interface and the Systick. */

  HAL_Init();
 800194a:	f001 f827 	bl	800299c <HAL_Init>



  /* Configure the system clock */

  SystemClock_Config();
 800194e:	f000 f8f9 	bl	8001b44 <SystemClock_Config>



  /* Initialize all configured peripherals */

  MX_GPIO_Init();
 8001952:	f000 fa35 	bl	8001dc0 <MX_GPIO_Init>

  MX_USART2_UART_Init();
 8001956:	f000 fa03 	bl	8001d60 <MX_USART2_UART_Init>

  MX_SPI1_Init();
 800195a:	f000 f9c9 	bl	8001cf0 <MX_SPI1_Init>

  MX_ADC_Init();
 800195e:	f000 f963 	bl	8001c28 <MX_ADC_Init>

  /* USER CODE BEGIN 2 */

  // CS pin should default high

  HAL_GPIO_WritePin(GPIOB, GPIO_PIN_6, GPIO_PIN_SET);
 8001962:	4b6e      	ldr	r3, [pc, #440]	; (8001b1c <main+0x1d8>)
 8001964:	2201      	movs	r2, #1
 8001966:	2140      	movs	r1, #64	; 0x40
 8001968:	0018      	movs	r0, r3
 800196a:	f001 fe75 	bl	8003658 <HAL_GPIO_WritePin>



  uart_buf_len = sprintf(uart_buf, "Starting SPI Test\r\n");
 800196e:	4a6c      	ldr	r2, [pc, #432]	; (8001b20 <main+0x1dc>)
 8001970:	2418      	movs	r4, #24
 8001972:	193b      	adds	r3, r7, r4
 8001974:	0011      	movs	r1, r2
 8001976:	0018      	movs	r0, r3
 8001978:	f003 ff42 	bl	8005800 <siprintf>
 800197c:	0002      	movs	r2, r0
 800197e:	2173      	movs	r1, #115	; 0x73
 8001980:	187b      	adds	r3, r7, r1
 8001982:	701a      	strb	r2, [r3, #0]

  HAL_UART_Transmit(&huart2, (uint8_t *)uart_buf, uart_buf_len, HAL_MAX_DELAY);
 8001984:	187b      	adds	r3, r7, r1
 8001986:	781b      	ldrb	r3, [r3, #0]
 8001988:	b29a      	uxth	r2, r3
 800198a:	2301      	movs	r3, #1
 800198c:	425b      	negs	r3, r3
 800198e:	1939      	adds	r1, r7, r4
 8001990:	4864      	ldr	r0, [pc, #400]	; (8001b24 <main+0x1e0>)
 8001992:	f003 f8fd 	bl	8004b90 <HAL_UART_Transmit>



  HAL_Delay(500); // Waiting for default register initialization of RF generator (synchronous turn on)
 8001996:	23fa      	movs	r3, #250	; 0xfa
 8001998:	005b      	lsls	r3, r3, #1
 800199a:	0018      	movs	r0, r3
 800199c:	f001 f86e 	bl	8002a7c <HAL_Delay>



  Initialize_Microwave_Generator();
 80019a0:	f000 fb4e 	bl	8002040 <Initialize_Microwave_Generator>

  // Maximum gain

  sendBytes(0x4DB8, 0b00101000);
 80019a4:	4b60      	ldr	r3, [pc, #384]	; (8001b28 <main+0x1e4>)
 80019a6:	2128      	movs	r1, #40	; 0x28
 80019a8:	0018      	movs	r0, r3
 80019aa:	f000 fb01 	bl	8001fb0 <sendBytes>

  // Set divider to 1

  sendBytes(0x90, 0b00101000);
 80019ae:	2128      	movs	r1, #40	; 0x28
 80019b0:	2090      	movs	r0, #144	; 0x90
 80019b2:	f000 fafd 	bl	8001fb0 <sendBytes>

  // Ref Divider Register-Default value = 1h (Rdiv=1).

  sendBytes(0x1, 0b00010000);
 80019b6:	2110      	movs	r1, #16
 80019b8:	2001      	movs	r0, #1
 80019ba:	f000 faf9 	bl	8001fb0 <sendBytes>



  /* USER CODE END 2 */

  int num_cycles = 1;
 80019be:	2301      	movs	r3, #1
 80019c0:	66fb      	str	r3, [r7, #108]	; 0x6c

  int samples_per_freq = 100;
 80019c2:	2364      	movs	r3, #100	; 0x64
 80019c4:	66bb      	str	r3, [r7, #104]	; 0x68

  int freq_steps = 100;
 80019c6:	2364      	movs	r3, #100	; 0x64
 80019c8:	667b      	str	r3, [r7, #100]	; 0x64

  int start_frequency = 2700;
 80019ca:	4b58      	ldr	r3, [pc, #352]	; (8001b2c <main+0x1e8>)
 80019cc:	663b      	str	r3, [r7, #96]	; 0x60

  int end_frequency = 3000;
 80019ce:	4b58      	ldr	r3, [pc, #352]	; (8001b30 <main+0x1ec>)
 80019d0:	65fb      	str	r3, [r7, #92]	; 0x5c



  int step_size = (end_frequency - start_frequency)/freq_steps;
 80019d2:	6dfa      	ldr	r2, [r7, #92]	; 0x5c
 80019d4:	6e3b      	ldr	r3, [r7, #96]	; 0x60
 80019d6:	1ad3      	subs	r3, r2, r3
 80019d8:	6e79      	ldr	r1, [r7, #100]	; 0x64
 80019da:	0018      	movs	r0, r3
 80019dc:	f7fe fc28 	bl	8000230 <__divsi3>
 80019e0:	0003      	movs	r3, r0
 80019e2:	65bb      	str	r3, [r7, #88]	; 0x58



  int sample_count = 0;
 80019e4:	2300      	movs	r3, #0
 80019e6:	2284      	movs	r2, #132	; 0x84
 80019e8:	18ba      	adds	r2, r7, r2
 80019ea:	6013      	str	r3, [r2, #0]

  int i = 0;
 80019ec:	2300      	movs	r3, #0
 80019ee:	2280      	movs	r2, #128	; 0x80
 80019f0:	18ba      	adds	r2, r7, r2
 80019f2:	6013      	str	r3, [r2, #0]

  int j = 1;
 80019f4:	2301      	movs	r3, #1
 80019f6:	67fb      	str	r3, [r7, #124]	; 0x7c



  int set_freq = 0;
 80019f8:	2300      	movs	r3, #0
 80019fa:	67bb      	str	r3, [r7, #120]	; 0x78



  int on_cycle = 0;
 80019fc:	2300      	movs	r3, #0
 80019fe:	677b      	str	r3, [r7, #116]	; 0x74

  /* Infinite loop */

  /* USER CODE BEGIN WHILE */

  int ms1 = HAL_GetTick();
 8001a00:	f001 f832 	bl	8002a68 <HAL_GetTick>
 8001a04:	0003      	movs	r3, r0
 8001a06:	657b      	str	r3, [r7, #84]	; 0x54

    /* USER CODE END WHILE */

	  // Get ADC value

	  	  if (sample_count % samples_per_freq == 0) {
 8001a08:	2384      	movs	r3, #132	; 0x84
 8001a0a:	18fb      	adds	r3, r7, r3
 8001a0c:	681b      	ldr	r3, [r3, #0]
 8001a0e:	6eb9      	ldr	r1, [r7, #104]	; 0x68
 8001a10:	0018      	movs	r0, r3
 8001a12:	f7fe fcf3 	bl	80003fc <__aeabi_idivmod>
 8001a16:	1e0b      	subs	r3, r1, #0
 8001a18:	d134      	bne.n	8001a84 <main+0x140>

	  		if (set_freq >= end_frequency && on_cycle == 0) {
 8001a1a:	6fba      	ldr	r2, [r7, #120]	; 0x78
 8001a1c:	6dfb      	ldr	r3, [r7, #92]	; 0x5c
 8001a1e:	429a      	cmp	r2, r3
 8001a20:	db0d      	blt.n	8001a3e <main+0xfa>
 8001a22:	6f7b      	ldr	r3, [r7, #116]	; 0x74
 8001a24:	2b00      	cmp	r3, #0
 8001a26:	d10a      	bne.n	8001a3e <main+0xfa>

	  			if (j >= num_cycles) {
 8001a28:	6ffa      	ldr	r2, [r7, #124]	; 0x7c
 8001a2a:	6efb      	ldr	r3, [r7, #108]	; 0x6c
 8001a2c:	429a      	cmp	r2, r3
 8001a2e:	da43      	bge.n	8001ab8 <main+0x174>

	  				break;

	  			}

	  			j = j + 1;
 8001a30:	6ffb      	ldr	r3, [r7, #124]	; 0x7c
 8001a32:	3301      	adds	r3, #1
 8001a34:	67fb      	str	r3, [r7, #124]	; 0x7c

	  			i = 0;
 8001a36:	2300      	movs	r3, #0
 8001a38:	2280      	movs	r2, #128	; 0x80
 8001a3a:	18ba      	adds	r2, r7, r2
 8001a3c:	6013      	str	r3, [r2, #0]

	  		}



	  		if (on_cycle == 0) {
 8001a3e:	6f7b      	ldr	r3, [r7, #116]	; 0x74
 8001a40:	2b00      	cmp	r3, #0
 8001a42:	d111      	bne.n	8001a68 <main+0x124>

	  			set_freq = start_frequency + step_size * i;
 8001a44:	6dbb      	ldr	r3, [r7, #88]	; 0x58
 8001a46:	2480      	movs	r4, #128	; 0x80
 8001a48:	193a      	adds	r2, r7, r4
 8001a4a:	6812      	ldr	r2, [r2, #0]
 8001a4c:	4353      	muls	r3, r2
 8001a4e:	6e3a      	ldr	r2, [r7, #96]	; 0x60
 8001a50:	18d3      	adds	r3, r2, r3
 8001a52:	67bb      	str	r3, [r7, #120]	; 0x78

	  			Set_VCO_Frequency(set_freq);
 8001a54:	6fbb      	ldr	r3, [r7, #120]	; 0x78
 8001a56:	0018      	movs	r0, r3
 8001a58:	f000 fa44 	bl	8001ee4 <Set_VCO_Frequency>

	  			i = i + 1;
 8001a5c:	193b      	adds	r3, r7, r4
 8001a5e:	681b      	ldr	r3, [r3, #0]
 8001a60:	3301      	adds	r3, #1
 8001a62:	193a      	adds	r2, r7, r4
 8001a64:	6013      	str	r3, [r2, #0]
 8001a66:	e003      	b.n	8001a70 <main+0x12c>

	  		} else {

	  			Set_VCO_Frequency(1500);
 8001a68:	4b32      	ldr	r3, [pc, #200]	; (8001b34 <main+0x1f0>)
 8001a6a:	0018      	movs	r0, r3
 8001a6c:	f000 fa3a 	bl	8001ee4 <Set_VCO_Frequency>

	  		}



	  		sample_count = 1;
 8001a70:	2301      	movs	r3, #1
 8001a72:	2284      	movs	r2, #132	; 0x84
 8001a74:	18ba      	adds	r2, r7, r2
 8001a76:	6013      	str	r3, [r2, #0]

	  		on_cycle = on_cycle == 1 ? 0 : 1;
 8001a78:	6f7b      	ldr	r3, [r7, #116]	; 0x74
 8001a7a:	3b01      	subs	r3, #1
 8001a7c:	1e5a      	subs	r2, r3, #1
 8001a7e:	4193      	sbcs	r3, r2
 8001a80:	b2db      	uxtb	r3, r3
 8001a82:	677b      	str	r3, [r7, #116]	; 0x74

	  	  }



	  	  HAL_ADC_Start(&hadc);
 8001a84:	4b2c      	ldr	r3, [pc, #176]	; (8001b38 <main+0x1f4>)
 8001a86:	0018      	movs	r0, r3
 8001a88:	f001 f990 	bl	8002dac <HAL_ADC_Start>

	  	  HAL_ADC_PollForConversion(&hadc, HAL_MAX_DELAY);
 8001a8c:	2301      	movs	r3, #1
 8001a8e:	425a      	negs	r2, r3
 8001a90:	4b29      	ldr	r3, [pc, #164]	; (8001b38 <main+0x1f4>)
 8001a92:	0011      	movs	r1, r2
 8001a94:	0018      	movs	r0, r3
 8001a96:	f001 f9dd 	bl	8002e54 <HAL_ADC_PollForConversion>

	  	  photodiode_in = HAL_ADC_GetValue(&hadc);
 8001a9a:	4b27      	ldr	r3, [pc, #156]	; (8001b38 <main+0x1f4>)
 8001a9c:	0018      	movs	r0, r3
 8001a9e:	f001 fa75 	bl	8002f8c <HAL_ADC_GetValue>
 8001aa2:	0002      	movs	r2, r0
 8001aa4:	234a      	movs	r3, #74	; 0x4a
 8001aa6:	18fb      	adds	r3, r7, r3
 8001aa8:	801a      	strh	r2, [r3, #0]
	  	  //uart_buf_len = sprintf(uart_buf, "%hu %d %d\r\n", photodiode_in, set_freq, on_cycle);
	  	  //HAL_UART_Transmit(&huart2, (uint8_t*)uart_buf, uart_buf_len, HAL_MAX_DELAY);



	  	  sample_count += 1;
 8001aaa:	2284      	movs	r2, #132	; 0x84
 8001aac:	18bb      	adds	r3, r7, r2
 8001aae:	681b      	ldr	r3, [r3, #0]
 8001ab0:	3301      	adds	r3, #1
 8001ab2:	18ba      	adds	r2, r7, r2
 8001ab4:	6013      	str	r3, [r2, #0]
	  	  if (sample_count % samples_per_freq == 0) {
 8001ab6:	e7a7      	b.n	8001a08 <main+0xc4>
	  				break;
 8001ab8:	46c0      	nop			; (mov r8, r8)

    /* USER CODE BEGIN 3 */

  }

  uint16_t *data_array = (uint16_t*) malloc(3000 * sizeof(uint16_t));
 8001aba:	4b20      	ldr	r3, [pc, #128]	; (8001b3c <main+0x1f8>)
 8001abc:	0018      	movs	r0, r3
 8001abe:	f003 fd99 	bl	80055f4 <malloc>
 8001ac2:	0003      	movs	r3, r0
 8001ac4:	653b      	str	r3, [r7, #80]	; 0x50
  HAL_UART_Transmit(&huart2, (uint8_t*)data_array, 6000, HAL_MAX_DELAY);
 8001ac6:	2301      	movs	r3, #1
 8001ac8:	425b      	negs	r3, r3
 8001aca:	4a1c      	ldr	r2, [pc, #112]	; (8001b3c <main+0x1f8>)
 8001acc:	6d39      	ldr	r1, [r7, #80]	; 0x50
 8001ace:	4815      	ldr	r0, [pc, #84]	; (8001b24 <main+0x1e0>)
 8001ad0:	f003 f85e 	bl	8004b90 <HAL_UART_Transmit>

  int ms2 = HAL_GetTick();
 8001ad4:	f000 ffc8 	bl	8002a68 <HAL_GetTick>
 8001ad8:	0003      	movs	r3, r0
 8001ada:	64fb      	str	r3, [r7, #76]	; 0x4c

  uart_buf_len = sprintf(uart_buf, "%d \r\n", ms2 - ms1);
 8001adc:	6cfa      	ldr	r2, [r7, #76]	; 0x4c
 8001ade:	6d7b      	ldr	r3, [r7, #84]	; 0x54
 8001ae0:	1ad2      	subs	r2, r2, r3
 8001ae2:	4917      	ldr	r1, [pc, #92]	; (8001b40 <main+0x1fc>)
 8001ae4:	2418      	movs	r4, #24
 8001ae6:	193b      	adds	r3, r7, r4
 8001ae8:	0018      	movs	r0, r3
 8001aea:	f003 fe89 	bl	8005800 <siprintf>
 8001aee:	0002      	movs	r2, r0
 8001af0:	2173      	movs	r1, #115	; 0x73
 8001af2:	187b      	adds	r3, r7, r1
 8001af4:	701a      	strb	r2, [r3, #0]
  HAL_UART_Transmit(&huart2, (uint8_t*)uart_buf, uart_buf_len, HAL_MAX_DELAY);
 8001af6:	187b      	adds	r3, r7, r1
 8001af8:	781b      	ldrb	r3, [r3, #0]
 8001afa:	b29a      	uxth	r2, r3
 8001afc:	2301      	movs	r3, #1
 8001afe:	425b      	negs	r3, r3
 8001b00:	1939      	adds	r1, r7, r4
 8001b02:	4808      	ldr	r0, [pc, #32]	; (8001b24 <main+0x1e0>)
 8001b04:	f003 f844 	bl	8004b90 <HAL_UART_Transmit>

  Set_VCO_Frequency(1500);
 8001b08:	4b0a      	ldr	r3, [pc, #40]	; (8001b34 <main+0x1f0>)
 8001b0a:	0018      	movs	r0, r3
 8001b0c:	f000 f9ea 	bl	8001ee4 <Set_VCO_Frequency>
 8001b10:	2300      	movs	r3, #0

  /* USER CODE END 3 */

}
 8001b12:	0018      	movs	r0, r3
 8001b14:	46bd      	mov	sp, r7
 8001b16:	b023      	add	sp, #140	; 0x8c
 8001b18:	bd90      	pop	{r4, r7, pc}
 8001b1a:	46c0      	nop			; (mov r8, r8)
 8001b1c:	50000400 	.word	0x50000400
 8001b20:	08005f00 	.word	0x08005f00
 8001b24:	20000140 	.word	0x20000140
 8001b28:	00004db8 	.word	0x00004db8
 8001b2c:	00000a8c 	.word	0x00000a8c
 8001b30:	00000bb8 	.word	0x00000bb8
 8001b34:	000005dc 	.word	0x000005dc
 8001b38:	2000008c 	.word	0x2000008c
 8001b3c:	00001770 	.word	0x00001770
 8001b40:	08005f14 	.word	0x08005f14

08001b44 <SystemClock_Config>:

  */

void SystemClock_Config(void)

{
 8001b44:	b590      	push	{r4, r7, lr}
 8001b46:	b09f      	sub	sp, #124	; 0x7c
 8001b48:	af00      	add	r7, sp, #0

  RCC_OscInitTypeDef RCC_OscInitStruct = {0};
 8001b4a:	2440      	movs	r4, #64	; 0x40
 8001b4c:	193b      	adds	r3, r7, r4
 8001b4e:	0018      	movs	r0, r3
 8001b50:	2338      	movs	r3, #56	; 0x38
 8001b52:	001a      	movs	r2, r3
 8001b54:	2100      	movs	r1, #0
 8001b56:	f003 fd57 	bl	8005608 <memset>

  RCC_ClkInitTypeDef RCC_ClkInitStruct = {0};
 8001b5a:	232c      	movs	r3, #44	; 0x2c
 8001b5c:	18fb      	adds	r3, r7, r3
 8001b5e:	0018      	movs	r0, r3
 8001b60:	2314      	movs	r3, #20
 8001b62:	001a      	movs	r2, r3
 8001b64:	2100      	movs	r1, #0
 8001b66:	f003 fd4f 	bl	8005608 <memset>

  RCC_PeriphCLKInitTypeDef PeriphClkInit = {0};
 8001b6a:	1d3b      	adds	r3, r7, #4
 8001b6c:	0018      	movs	r0, r3
 8001b6e:	2328      	movs	r3, #40	; 0x28
 8001b70:	001a      	movs	r2, r3
 8001b72:	2100      	movs	r1, #0
 8001b74:	f003 fd48 	bl	8005608 <memset>

  /** Configure the main internal regulator output voltage

  */

  __HAL_PWR_VOLTAGESCALING_CONFIG(PWR_REGULATOR_VOLTAGE_SCALE1);
 8001b78:	4b29      	ldr	r3, [pc, #164]	; (8001c20 <SystemClock_Config+0xdc>)
 8001b7a:	681b      	ldr	r3, [r3, #0]
 8001b7c:	4a29      	ldr	r2, [pc, #164]	; (8001c24 <SystemClock_Config+0xe0>)
 8001b7e:	401a      	ands	r2, r3
 8001b80:	4b27      	ldr	r3, [pc, #156]	; (8001c20 <SystemClock_Config+0xdc>)
 8001b82:	2180      	movs	r1, #128	; 0x80
 8001b84:	0109      	lsls	r1, r1, #4
 8001b86:	430a      	orrs	r2, r1
 8001b88:	601a      	str	r2, [r3, #0]

  * in the RCC_OscInitTypeDef structure.

  */

  RCC_OscInitStruct.OscillatorType = RCC_OSCILLATORTYPE_HSI;
 8001b8a:	0021      	movs	r1, r4
 8001b8c:	187b      	adds	r3, r7, r1
 8001b8e:	2202      	movs	r2, #2
 8001b90:	601a      	str	r2, [r3, #0]

  RCC_OscInitStruct.HSIState = RCC_HSI_ON;
 8001b92:	187b      	adds	r3, r7, r1
 8001b94:	2201      	movs	r2, #1
 8001b96:	60da      	str	r2, [r3, #12]

  RCC_OscInitStruct.HSICalibrationValue = RCC_HSICALIBRATION_DEFAULT;
 8001b98:	187b      	adds	r3, r7, r1
 8001b9a:	2210      	movs	r2, #16
 8001b9c:	611a      	str	r2, [r3, #16]

  RCC_OscInitStruct.PLL.PLLState = RCC_PLL_ON;
 8001b9e:	187b      	adds	r3, r7, r1
 8001ba0:	2202      	movs	r2, #2
 8001ba2:	629a      	str	r2, [r3, #40]	; 0x28

  RCC_OscInitStruct.PLL.PLLSource = RCC_PLLSOURCE_HSI;
 8001ba4:	187b      	adds	r3, r7, r1
 8001ba6:	2200      	movs	r2, #0
 8001ba8:	62da      	str	r2, [r3, #44]	; 0x2c

  RCC_OscInitStruct.PLL.PLLMUL = RCC_PLLMUL_3;
 8001baa:	187b      	adds	r3, r7, r1
 8001bac:	2200      	movs	r2, #0
 8001bae:	631a      	str	r2, [r3, #48]	; 0x30

  RCC_OscInitStruct.PLL.PLLDIV = RCC_PLLDIV_2;
 8001bb0:	187b      	adds	r3, r7, r1
 8001bb2:	2280      	movs	r2, #128	; 0x80
 8001bb4:	03d2      	lsls	r2, r2, #15
 8001bb6:	635a      	str	r2, [r3, #52]	; 0x34

  if (HAL_RCC_OscConfig(&RCC_OscInitStruct) != HAL_OK)
 8001bb8:	187b      	adds	r3, r7, r1
 8001bba:	0018      	movs	r0, r3
 8001bbc:	f001 fd6a 	bl	8003694 <HAL_RCC_OscConfig>
 8001bc0:	1e03      	subs	r3, r0, #0
 8001bc2:	d001      	beq.n	8001bc8 <SystemClock_Config+0x84>

  {

    Error_Handler();
 8001bc4:	f000 fd8e 	bl	80026e4 <Error_Handler>

  /** Initializes the CPU, AHB and APB buses clocks

  */

  RCC_ClkInitStruct.ClockType = RCC_CLOCKTYPE_HCLK|RCC_CLOCKTYPE_SYSCLK
 8001bc8:	212c      	movs	r1, #44	; 0x2c
 8001bca:	187b      	adds	r3, r7, r1
 8001bcc:	220f      	movs	r2, #15
 8001bce:	601a      	str	r2, [r3, #0]

                              |RCC_CLOCKTYPE_PCLK1|RCC_CLOCKTYPE_PCLK2;

  RCC_ClkInitStruct.SYSCLKSource = RCC_SYSCLKSOURCE_PLLCLK;
 8001bd0:	187b      	adds	r3, r7, r1
 8001bd2:	2203      	movs	r2, #3
 8001bd4:	605a      	str	r2, [r3, #4]

  RCC_ClkInitStruct.AHBCLKDivider = RCC_SYSCLK_DIV1;
 8001bd6:	187b      	adds	r3, r7, r1
 8001bd8:	2200      	movs	r2, #0
 8001bda:	609a      	str	r2, [r3, #8]

  RCC_ClkInitStruct.APB1CLKDivider = RCC_HCLK_DIV1;
 8001bdc:	187b      	adds	r3, r7, r1
 8001bde:	2200      	movs	r2, #0
 8001be0:	60da      	str	r2, [r3, #12]

  RCC_ClkInitStruct.APB2CLKDivider = RCC_HCLK_DIV1;
 8001be2:	187b      	adds	r3, r7, r1
 8001be4:	2200      	movs	r2, #0
 8001be6:	611a      	str	r2, [r3, #16]



  if (HAL_RCC_ClockConfig(&RCC_ClkInitStruct, FLASH_LATENCY_1) != HAL_OK)
 8001be8:	187b      	adds	r3, r7, r1
 8001bea:	2101      	movs	r1, #1
 8001bec:	0018      	movs	r0, r3
 8001bee:	f002 f925 	bl	8003e3c <HAL_RCC_ClockConfig>
 8001bf2:	1e03      	subs	r3, r0, #0
 8001bf4:	d001      	beq.n	8001bfa <SystemClock_Config+0xb6>

  {

    Error_Handler();
 8001bf6:	f000 fd75 	bl	80026e4 <Error_Handler>

  }

  PeriphClkInit.PeriphClockSelection = RCC_PERIPHCLK_USART2;
 8001bfa:	1d3b      	adds	r3, r7, #4
 8001bfc:	2202      	movs	r2, #2
 8001bfe:	601a      	str	r2, [r3, #0]

  PeriphClkInit.Usart2ClockSelection = RCC_USART2CLKSOURCE_PCLK1;
 8001c00:	1d3b      	adds	r3, r7, #4
 8001c02:	2200      	movs	r2, #0
 8001c04:	611a      	str	r2, [r3, #16]

  if (HAL_RCCEx_PeriphCLKConfig(&PeriphClkInit) != HAL_OK)
 8001c06:	1d3b      	adds	r3, r7, #4
 8001c08:	0018      	movs	r0, r3
 8001c0a:	f002 fb3b 	bl	8004284 <HAL_RCCEx_PeriphCLKConfig>
 8001c0e:	1e03      	subs	r3, r0, #0
 8001c10:	d001      	beq.n	8001c16 <SystemClock_Config+0xd2>

  {

    Error_Handler();
 8001c12:	f000 fd67 	bl	80026e4 <Error_Handler>

  }

}
 8001c16:	46c0      	nop			; (mov r8, r8)
 8001c18:	46bd      	mov	sp, r7
 8001c1a:	b01f      	add	sp, #124	; 0x7c
 8001c1c:	bd90      	pop	{r4, r7, pc}
 8001c1e:	46c0      	nop			; (mov r8, r8)
 8001c20:	40007000 	.word	0x40007000
 8001c24:	ffffe7ff 	.word	0xffffe7ff

08001c28 <MX_ADC_Init>:

  */

static void MX_ADC_Init(void)

{
 8001c28:	b580      	push	{r7, lr}
 8001c2a:	b082      	sub	sp, #8
 8001c2c:	af00      	add	r7, sp, #0

  /* USER CODE END ADC_Init 0 */



  ADC_ChannelConfTypeDef sConfig = {0};
 8001c2e:	003b      	movs	r3, r7
 8001c30:	0018      	movs	r0, r3
 8001c32:	2308      	movs	r3, #8
 8001c34:	001a      	movs	r2, r3
 8001c36:	2100      	movs	r1, #0
 8001c38:	f003 fce6 	bl	8005608 <memset>

  /** Configure the global features of the ADC (Clock, Resolution, Data Alignment and number of conversion)

  */

  hadc.Instance = ADC1;
 8001c3c:	4b2a      	ldr	r3, [pc, #168]	; (8001ce8 <MX_ADC_Init+0xc0>)
 8001c3e:	4a2b      	ldr	r2, [pc, #172]	; (8001cec <MX_ADC_Init+0xc4>)
 8001c40:	601a      	str	r2, [r3, #0]

  hadc.Init.OversamplingMode = DISABLE;
 8001c42:	4b29      	ldr	r3, [pc, #164]	; (8001ce8 <MX_ADC_Init+0xc0>)
 8001c44:	2200      	movs	r2, #0
 8001c46:	63da      	str	r2, [r3, #60]	; 0x3c

  hadc.Init.ClockPrescaler = ADC_CLOCK_SYNC_PCLK_DIV2;
 8001c48:	4b27      	ldr	r3, [pc, #156]	; (8001ce8 <MX_ADC_Init+0xc0>)
 8001c4a:	2280      	movs	r2, #128	; 0x80
 8001c4c:	05d2      	lsls	r2, r2, #23
 8001c4e:	605a      	str	r2, [r3, #4]

  hadc.Init.Resolution = ADC_RESOLUTION_12B;
 8001c50:	4b25      	ldr	r3, [pc, #148]	; (8001ce8 <MX_ADC_Init+0xc0>)
 8001c52:	2200      	movs	r2, #0
 8001c54:	609a      	str	r2, [r3, #8]

  hadc.Init.SamplingTime = ADC_SAMPLETIME_1CYCLE_5;
 8001c56:	4b24      	ldr	r3, [pc, #144]	; (8001ce8 <MX_ADC_Init+0xc0>)
 8001c58:	2200      	movs	r2, #0
 8001c5a:	639a      	str	r2, [r3, #56]	; 0x38

  hadc.Init.ScanConvMode = ADC_SCAN_DIRECTION_FORWARD;
 8001c5c:	4b22      	ldr	r3, [pc, #136]	; (8001ce8 <MX_ADC_Init+0xc0>)
 8001c5e:	2201      	movs	r2, #1
 8001c60:	611a      	str	r2, [r3, #16]

  hadc.Init.DataAlign = ADC_DATAALIGN_RIGHT;
 8001c62:	4b21      	ldr	r3, [pc, #132]	; (8001ce8 <MX_ADC_Init+0xc0>)
 8001c64:	2200      	movs	r2, #0
 8001c66:	60da      	str	r2, [r3, #12]

  hadc.Init.ContinuousConvMode = DISABLE;
 8001c68:	4b1f      	ldr	r3, [pc, #124]	; (8001ce8 <MX_ADC_Init+0xc0>)
 8001c6a:	2220      	movs	r2, #32
 8001c6c:	2100      	movs	r1, #0
 8001c6e:	5499      	strb	r1, [r3, r2]

  hadc.Init.DiscontinuousConvMode = DISABLE;
 8001c70:	4b1d      	ldr	r3, [pc, #116]	; (8001ce8 <MX_ADC_Init+0xc0>)
 8001c72:	2221      	movs	r2, #33	; 0x21
 8001c74:	2100      	movs	r1, #0
 8001c76:	5499      	strb	r1, [r3, r2]

  hadc.Init.ExternalTrigConvEdge = ADC_EXTERNALTRIGCONVEDGE_NONE;
 8001c78:	4b1b      	ldr	r3, [pc, #108]	; (8001ce8 <MX_ADC_Init+0xc0>)
 8001c7a:	2200      	movs	r2, #0
 8001c7c:	629a      	str	r2, [r3, #40]	; 0x28

  hadc.Init.ExternalTrigConv = ADC_SOFTWARE_START;
 8001c7e:	4b1a      	ldr	r3, [pc, #104]	; (8001ce8 <MX_ADC_Init+0xc0>)
 8001c80:	22c2      	movs	r2, #194	; 0xc2
 8001c82:	32ff      	adds	r2, #255	; 0xff
 8001c84:	625a      	str	r2, [r3, #36]	; 0x24

  hadc.Init.DMAContinuousRequests = DISABLE;
 8001c86:	4b18      	ldr	r3, [pc, #96]	; (8001ce8 <MX_ADC_Init+0xc0>)
 8001c88:	222c      	movs	r2, #44	; 0x2c
 8001c8a:	2100      	movs	r1, #0
 8001c8c:	5499      	strb	r1, [r3, r2]

  hadc.Init.EOCSelection = ADC_EOC_SINGLE_CONV;
 8001c8e:	4b16      	ldr	r3, [pc, #88]	; (8001ce8 <MX_ADC_Init+0xc0>)
 8001c90:	2204      	movs	r2, #4
 8001c92:	615a      	str	r2, [r3, #20]

  hadc.Init.Overrun = ADC_OVR_DATA_PRESERVED;
 8001c94:	4b14      	ldr	r3, [pc, #80]	; (8001ce8 <MX_ADC_Init+0xc0>)
 8001c96:	2200      	movs	r2, #0
 8001c98:	631a      	str	r2, [r3, #48]	; 0x30

  hadc.Init.LowPowerAutoWait = DISABLE;
 8001c9a:	4b13      	ldr	r3, [pc, #76]	; (8001ce8 <MX_ADC_Init+0xc0>)
 8001c9c:	2200      	movs	r2, #0
 8001c9e:	619a      	str	r2, [r3, #24]

  hadc.Init.LowPowerFrequencyMode = DISABLE;
 8001ca0:	4b11      	ldr	r3, [pc, #68]	; (8001ce8 <MX_ADC_Init+0xc0>)
 8001ca2:	2200      	movs	r2, #0
 8001ca4:	635a      	str	r2, [r3, #52]	; 0x34

  hadc.Init.LowPowerAutoPowerOff = DISABLE;
 8001ca6:	4b10      	ldr	r3, [pc, #64]	; (8001ce8 <MX_ADC_Init+0xc0>)
 8001ca8:	2200      	movs	r2, #0
 8001caa:	61da      	str	r2, [r3, #28]

  if (HAL_ADC_Init(&hadc) != HAL_OK)
 8001cac:	4b0e      	ldr	r3, [pc, #56]	; (8001ce8 <MX_ADC_Init+0xc0>)
 8001cae:	0018      	movs	r0, r3
 8001cb0:	f000 ff08 	bl	8002ac4 <HAL_ADC_Init>
 8001cb4:	1e03      	subs	r3, r0, #0
 8001cb6:	d001      	beq.n	8001cbc <MX_ADC_Init+0x94>

  {

    Error_Handler();
 8001cb8:	f000 fd14 	bl	80026e4 <Error_Handler>

  /** Configure for the selected ADC regular channel to be converted.

  */

  sConfig.Channel = ADC_CHANNEL_0;
 8001cbc:	003b      	movs	r3, r7
 8001cbe:	2201      	movs	r2, #1
 8001cc0:	601a      	str	r2, [r3, #0]

  sConfig.Rank = ADC_RANK_CHANNEL_NUMBER;
 8001cc2:	003b      	movs	r3, r7
 8001cc4:	2280      	movs	r2, #128	; 0x80
 8001cc6:	0152      	lsls	r2, r2, #5
 8001cc8:	605a      	str	r2, [r3, #4]

  if (HAL_ADC_ConfigChannel(&hadc, &sConfig) != HAL_OK)
 8001cca:	003a      	movs	r2, r7
 8001ccc:	4b06      	ldr	r3, [pc, #24]	; (8001ce8 <MX_ADC_Init+0xc0>)
 8001cce:	0011      	movs	r1, r2
 8001cd0:	0018      	movs	r0, r3
 8001cd2:	f001 f967 	bl	8002fa4 <HAL_ADC_ConfigChannel>
 8001cd6:	1e03      	subs	r3, r0, #0
 8001cd8:	d001      	beq.n	8001cde <MX_ADC_Init+0xb6>

  {

    Error_Handler();
 8001cda:	f000 fd03 	bl	80026e4 <Error_Handler>

  /* USER CODE END ADC_Init 2 */



}
 8001cde:	46c0      	nop			; (mov r8, r8)
 8001ce0:	46bd      	mov	sp, r7
 8001ce2:	b002      	add	sp, #8
 8001ce4:	bd80      	pop	{r7, pc}
 8001ce6:	46c0      	nop			; (mov r8, r8)
 8001ce8:	2000008c 	.word	0x2000008c
 8001cec:	40012400 	.word	0x40012400

08001cf0 <MX_SPI1_Init>:

  */

static void MX_SPI1_Init(void)

{
 8001cf0:	b580      	push	{r7, lr}
 8001cf2:	af00      	add	r7, sp, #0

  /* USER CODE END SPI1_Init 1 */

  /* SPI1 parameter configuration*/

  hspi1.Instance = SPI1;
 8001cf4:	4b18      	ldr	r3, [pc, #96]	; (8001d58 <MX_SPI1_Init+0x68>)
 8001cf6:	4a19      	ldr	r2, [pc, #100]	; (8001d5c <MX_SPI1_Init+0x6c>)
 8001cf8:	601a      	str	r2, [r3, #0]

  hspi1.Init.Mode = SPI_MODE_MASTER;
 8001cfa:	4b17      	ldr	r3, [pc, #92]	; (8001d58 <MX_SPI1_Init+0x68>)
 8001cfc:	2282      	movs	r2, #130	; 0x82
 8001cfe:	0052      	lsls	r2, r2, #1
 8001d00:	605a      	str	r2, [r3, #4]

  hspi1.Init.Direction = SPI_DIRECTION_2LINES;
 8001d02:	4b15      	ldr	r3, [pc, #84]	; (8001d58 <MX_SPI1_Init+0x68>)
 8001d04:	2200      	movs	r2, #0
 8001d06:	609a      	str	r2, [r3, #8]

  hspi1.Init.DataSize = SPI_DATASIZE_8BIT;
 8001d08:	4b13      	ldr	r3, [pc, #76]	; (8001d58 <MX_SPI1_Init+0x68>)
 8001d0a:	2200      	movs	r2, #0
 8001d0c:	60da      	str	r2, [r3, #12]

  hspi1.Init.CLKPolarity = SPI_POLARITY_HIGH;
 8001d0e:	4b12      	ldr	r3, [pc, #72]	; (8001d58 <MX_SPI1_Init+0x68>)
 8001d10:	2202      	movs	r2, #2
 8001d12:	611a      	str	r2, [r3, #16]

  hspi1.Init.CLKPhase = SPI_PHASE_1EDGE;
 8001d14:	4b10      	ldr	r3, [pc, #64]	; (8001d58 <MX_SPI1_Init+0x68>)
 8001d16:	2200      	movs	r2, #0
 8001d18:	615a      	str	r2, [r3, #20]

  hspi1.Init.NSS = SPI_NSS_SOFT;
 8001d1a:	4b0f      	ldr	r3, [pc, #60]	; (8001d58 <MX_SPI1_Init+0x68>)
 8001d1c:	2280      	movs	r2, #128	; 0x80
 8001d1e:	0092      	lsls	r2, r2, #2
 8001d20:	619a      	str	r2, [r3, #24]

  hspi1.Init.BaudRatePrescaler = SPI_BAUDRATEPRESCALER_4;
 8001d22:	4b0d      	ldr	r3, [pc, #52]	; (8001d58 <MX_SPI1_Init+0x68>)
 8001d24:	2208      	movs	r2, #8
 8001d26:	61da      	str	r2, [r3, #28]

  hspi1.Init.FirstBit = SPI_FIRSTBIT_MSB;
 8001d28:	4b0b      	ldr	r3, [pc, #44]	; (8001d58 <MX_SPI1_Init+0x68>)
 8001d2a:	2200      	movs	r2, #0
 8001d2c:	621a      	str	r2, [r3, #32]

  hspi1.Init.TIMode = SPI_TIMODE_DISABLE;
 8001d2e:	4b0a      	ldr	r3, [pc, #40]	; (8001d58 <MX_SPI1_Init+0x68>)
 8001d30:	2200      	movs	r2, #0
 8001d32:	625a      	str	r2, [r3, #36]	; 0x24

  hspi1.Init.CRCCalculation = SPI_CRCCALCULATION_DISABLE;
 8001d34:	4b08      	ldr	r3, [pc, #32]	; (8001d58 <MX_SPI1_Init+0x68>)
 8001d36:	2200      	movs	r2, #0
 8001d38:	629a      	str	r2, [r3, #40]	; 0x28

  hspi1.Init.CRCPolynomial = 7;
 8001d3a:	4b07      	ldr	r3, [pc, #28]	; (8001d58 <MX_SPI1_Init+0x68>)
 8001d3c:	2207      	movs	r2, #7
 8001d3e:	62da      	str	r2, [r3, #44]	; 0x2c

  if (HAL_SPI_Init(&hspi1) != HAL_OK)
 8001d40:	4b05      	ldr	r3, [pc, #20]	; (8001d58 <MX_SPI1_Init+0x68>)
 8001d42:	0018      	movs	r0, r3
 8001d44:	f002 fc12 	bl	800456c <HAL_SPI_Init>
 8001d48:	1e03      	subs	r3, r0, #0
 8001d4a:	d001      	beq.n	8001d50 <MX_SPI1_Init+0x60>

  {

    Error_Handler();
 8001d4c:	f000 fcca 	bl	80026e4 <Error_Handler>

  /* USER CODE END SPI1_Init 2 */



}
 8001d50:	46c0      	nop			; (mov r8, r8)
 8001d52:	46bd      	mov	sp, r7
 8001d54:	bd80      	pop	{r7, pc}
 8001d56:	46c0      	nop			; (mov r8, r8)
 8001d58:	200000e8 	.word	0x200000e8
 8001d5c:	40013000 	.word	0x40013000

08001d60 <MX_USART2_UART_Init>:

  */

static void MX_USART2_UART_Init(void)

{
 8001d60:	b580      	push	{r7, lr}
 8001d62:	af00      	add	r7, sp, #0



  /* USER CODE END USART2_Init 1 */

  huart2.Instance = USART2;
 8001d64:	4b14      	ldr	r3, [pc, #80]	; (8001db8 <MX_USART2_UART_Init+0x58>)
 8001d66:	4a15      	ldr	r2, [pc, #84]	; (8001dbc <MX_USART2_UART_Init+0x5c>)
 8001d68:	601a      	str	r2, [r3, #0]

  huart2.Init.BaudRate = 115200;
 8001d6a:	4b13      	ldr	r3, [pc, #76]	; (8001db8 <MX_USART2_UART_Init+0x58>)
 8001d6c:	22e1      	movs	r2, #225	; 0xe1
 8001d6e:	0252      	lsls	r2, r2, #9
 8001d70:	605a      	str	r2, [r3, #4]

  huart2.Init.WordLength = UART_WORDLENGTH_8B;
 8001d72:	4b11      	ldr	r3, [pc, #68]	; (8001db8 <MX_USART2_UART_Init+0x58>)
 8001d74:	2200      	movs	r2, #0
 8001d76:	609a      	str	r2, [r3, #8]

  huart2.Init.StopBits = UART_STOPBITS_1;
 8001d78:	4b0f      	ldr	r3, [pc, #60]	; (8001db8 <MX_USART2_UART_Init+0x58>)
 8001d7a:	2200      	movs	r2, #0
 8001d7c:	60da      	str	r2, [r3, #12]

  huart2.Init.Parity = UART_PARITY_NONE;
 8001d7e:	4b0e      	ldr	r3, [pc, #56]	; (8001db8 <MX_USART2_UART_Init+0x58>)
 8001d80:	2200      	movs	r2, #0
 8001d82:	611a      	str	r2, [r3, #16]

  huart2.Init.Mode = UART_MODE_TX_RX;
 8001d84:	4b0c      	ldr	r3, [pc, #48]	; (8001db8 <MX_USART2_UART_Init+0x58>)
 8001d86:	220c      	movs	r2, #12
 8001d88:	615a      	str	r2, [r3, #20]

  huart2.Init.HwFlowCtl = UART_HWCONTROL_NONE;
 8001d8a:	4b0b      	ldr	r3, [pc, #44]	; (8001db8 <MX_USART2_UART_Init+0x58>)
 8001d8c:	2200      	movs	r2, #0
 8001d8e:	619a      	str	r2, [r3, #24]

  huart2.Init.OverSampling = UART_OVERSAMPLING_16;
 8001d90:	4b09      	ldr	r3, [pc, #36]	; (8001db8 <MX_USART2_UART_Init+0x58>)
 8001d92:	2200      	movs	r2, #0
 8001d94:	61da      	str	r2, [r3, #28]

  huart2.Init.OneBitSampling = UART_ONE_BIT_SAMPLE_DISABLE;
 8001d96:	4b08      	ldr	r3, [pc, #32]	; (8001db8 <MX_USART2_UART_Init+0x58>)
 8001d98:	2200      	movs	r2, #0
 8001d9a:	621a      	str	r2, [r3, #32]

  huart2.AdvancedInit.AdvFeatureInit = UART_ADVFEATURE_NO_INIT;
 8001d9c:	4b06      	ldr	r3, [pc, #24]	; (8001db8 <MX_USART2_UART_Init+0x58>)
 8001d9e:	2200      	movs	r2, #0
 8001da0:	625a      	str	r2, [r3, #36]	; 0x24

  if (HAL_UART_Init(&huart2) != HAL_OK)
 8001da2:	4b05      	ldr	r3, [pc, #20]	; (8001db8 <MX_USART2_UART_Init+0x58>)
 8001da4:	0018      	movs	r0, r3
 8001da6:	f002 fe9f 	bl	8004ae8 <HAL_UART_Init>
 8001daa:	1e03      	subs	r3, r0, #0
 8001dac:	d001      	beq.n	8001db2 <MX_USART2_UART_Init+0x52>

  {

    Error_Handler();
 8001dae:	f000 fc99 	bl	80026e4 <Error_Handler>

  /* USER CODE END USART2_Init 2 */



}
 8001db2:	46c0      	nop			; (mov r8, r8)
 8001db4:	46bd      	mov	sp, r7
 8001db6:	bd80      	pop	{r7, pc}
 8001db8:	20000140 	.word	0x20000140
 8001dbc:	40004400 	.word	0x40004400

08001dc0 <MX_GPIO_Init>:

  */

static void MX_GPIO_Init(void)

{
 8001dc0:	b590      	push	{r4, r7, lr}
 8001dc2:	b08b      	sub	sp, #44	; 0x2c
 8001dc4:	af00      	add	r7, sp, #0

  GPIO_InitTypeDef GPIO_InitStruct = {0};
 8001dc6:	2414      	movs	r4, #20
 8001dc8:	193b      	adds	r3, r7, r4
 8001dca:	0018      	movs	r0, r3
 8001dcc:	2314      	movs	r3, #20
 8001dce:	001a      	movs	r2, r3
 8001dd0:	2100      	movs	r1, #0
 8001dd2:	f003 fc19 	bl	8005608 <memset>



  /* GPIO Ports Clock Enable */

  __HAL_RCC_GPIOC_CLK_ENABLE();
 8001dd6:	4b40      	ldr	r3, [pc, #256]	; (8001ed8 <MX_GPIO_Init+0x118>)
 8001dd8:	6ada      	ldr	r2, [r3, #44]	; 0x2c
 8001dda:	4b3f      	ldr	r3, [pc, #252]	; (8001ed8 <MX_GPIO_Init+0x118>)
 8001ddc:	2104      	movs	r1, #4
 8001dde:	430a      	orrs	r2, r1
 8001de0:	62da      	str	r2, [r3, #44]	; 0x2c
 8001de2:	4b3d      	ldr	r3, [pc, #244]	; (8001ed8 <MX_GPIO_Init+0x118>)
 8001de4:	6adb      	ldr	r3, [r3, #44]	; 0x2c
 8001de6:	2204      	movs	r2, #4
 8001de8:	4013      	ands	r3, r2
 8001dea:	613b      	str	r3, [r7, #16]
 8001dec:	693b      	ldr	r3, [r7, #16]

  __HAL_RCC_GPIOH_CLK_ENABLE();
 8001dee:	4b3a      	ldr	r3, [pc, #232]	; (8001ed8 <MX_GPIO_Init+0x118>)
 8001df0:	6ada      	ldr	r2, [r3, #44]	; 0x2c
 8001df2:	4b39      	ldr	r3, [pc, #228]	; (8001ed8 <MX_GPIO_Init+0x118>)
 8001df4:	2180      	movs	r1, #128	; 0x80
 8001df6:	430a      	orrs	r2, r1
 8001df8:	62da      	str	r2, [r3, #44]	; 0x2c
 8001dfa:	4b37      	ldr	r3, [pc, #220]	; (8001ed8 <MX_GPIO_Init+0x118>)
 8001dfc:	6adb      	ldr	r3, [r3, #44]	; 0x2c
 8001dfe:	2280      	movs	r2, #128	; 0x80
 8001e00:	4013      	ands	r3, r2
 8001e02:	60fb      	str	r3, [r7, #12]
 8001e04:	68fb      	ldr	r3, [r7, #12]

  __HAL_RCC_GPIOA_CLK_ENABLE();
 8001e06:	4b34      	ldr	r3, [pc, #208]	; (8001ed8 <MX_GPIO_Init+0x118>)
 8001e08:	6ada      	ldr	r2, [r3, #44]	; 0x2c
 8001e0a:	4b33      	ldr	r3, [pc, #204]	; (8001ed8 <MX_GPIO_Init+0x118>)
 8001e0c:	2101      	movs	r1, #1
 8001e0e:	430a      	orrs	r2, r1
 8001e10:	62da      	str	r2, [r3, #44]	; 0x2c
 8001e12:	4b31      	ldr	r3, [pc, #196]	; (8001ed8 <MX_GPIO_Init+0x118>)
 8001e14:	6adb      	ldr	r3, [r3, #44]	; 0x2c
 8001e16:	2201      	movs	r2, #1
 8001e18:	4013      	ands	r3, r2
 8001e1a:	60bb      	str	r3, [r7, #8]
 8001e1c:	68bb      	ldr	r3, [r7, #8]

  __HAL_RCC_GPIOB_CLK_ENABLE();
 8001e1e:	4b2e      	ldr	r3, [pc, #184]	; (8001ed8 <MX_GPIO_Init+0x118>)
 8001e20:	6ada      	ldr	r2, [r3, #44]	; 0x2c
 8001e22:	4b2d      	ldr	r3, [pc, #180]	; (8001ed8 <MX_GPIO_Init+0x118>)
 8001e24:	2102      	movs	r1, #2
 8001e26:	430a      	orrs	r2, r1
 8001e28:	62da      	str	r2, [r3, #44]	; 0x2c
 8001e2a:	4b2b      	ldr	r3, [pc, #172]	; (8001ed8 <MX_GPIO_Init+0x118>)
 8001e2c:	6adb      	ldr	r3, [r3, #44]	; 0x2c
 8001e2e:	2202      	movs	r2, #2
 8001e30:	4013      	ands	r3, r2
 8001e32:	607b      	str	r3, [r7, #4]
 8001e34:	687b      	ldr	r3, [r7, #4]



  /*Configure GPIO pin Output Level */

  HAL_GPIO_WritePin(GPIOB, GPIO_PIN_6, GPIO_PIN_RESET);
 8001e36:	4b29      	ldr	r3, [pc, #164]	; (8001edc <MX_GPIO_Init+0x11c>)
 8001e38:	2200      	movs	r2, #0
 8001e3a:	2140      	movs	r1, #64	; 0x40
 8001e3c:	0018      	movs	r0, r3
 8001e3e:	f001 fc0b 	bl	8003658 <HAL_GPIO_WritePin>



  /*Configure GPIO pin : B1_Pin */

  GPIO_InitStruct.Pin = B1_Pin;
 8001e42:	193b      	adds	r3, r7, r4
 8001e44:	2280      	movs	r2, #128	; 0x80
 8001e46:	0192      	lsls	r2, r2, #6
 8001e48:	601a      	str	r2, [r3, #0]

  GPIO_InitStruct.Mode = GPIO_MODE_IT_FALLING;
 8001e4a:	193b      	adds	r3, r7, r4
 8001e4c:	2284      	movs	r2, #132	; 0x84
 8001e4e:	0392      	lsls	r2, r2, #14
 8001e50:	605a      	str	r2, [r3, #4]

  GPIO_InitStruct.Pull = GPIO_NOPULL;
 8001e52:	193b      	adds	r3, r7, r4
 8001e54:	2200      	movs	r2, #0
 8001e56:	609a      	str	r2, [r3, #8]

  HAL_GPIO_Init(B1_GPIO_Port, &GPIO_InitStruct);
 8001e58:	193b      	adds	r3, r7, r4
 8001e5a:	4a21      	ldr	r2, [pc, #132]	; (8001ee0 <MX_GPIO_Init+0x120>)
 8001e5c:	0019      	movs	r1, r3
 8001e5e:	0010      	movs	r0, r2
 8001e60:	f001 fa7c 	bl	800335c <HAL_GPIO_Init>



  /*Configure GPIO pin : PA10 */

  GPIO_InitStruct.Pin = GPIO_PIN_10;
 8001e64:	193b      	adds	r3, r7, r4
 8001e66:	2280      	movs	r2, #128	; 0x80
 8001e68:	00d2      	lsls	r2, r2, #3
 8001e6a:	601a      	str	r2, [r3, #0]

  GPIO_InitStruct.Mode = GPIO_MODE_ANALOG;
 8001e6c:	193b      	adds	r3, r7, r4
 8001e6e:	2203      	movs	r2, #3
 8001e70:	605a      	str	r2, [r3, #4]

  GPIO_InitStruct.Pull = GPIO_NOPULL;
 8001e72:	193b      	adds	r3, r7, r4
 8001e74:	2200      	movs	r2, #0
 8001e76:	609a      	str	r2, [r3, #8]

  HAL_GPIO_Init(GPIOA, &GPIO_InitStruct);
 8001e78:	193a      	adds	r2, r7, r4
 8001e7a:	23a0      	movs	r3, #160	; 0xa0
 8001e7c:	05db      	lsls	r3, r3, #23
 8001e7e:	0011      	movs	r1, r2
 8001e80:	0018      	movs	r0, r3
 8001e82:	f001 fa6b 	bl	800335c <HAL_GPIO_Init>



  /*Configure GPIO pin : PA12 */

  GPIO_InitStruct.Pin = GPIO_PIN_12;
 8001e86:	193b      	adds	r3, r7, r4
 8001e88:	2280      	movs	r2, #128	; 0x80
 8001e8a:	0152      	lsls	r2, r2, #5
 8001e8c:	601a      	str	r2, [r3, #0]

  GPIO_InitStruct.Mode = GPIO_MODE_INPUT;
 8001e8e:	193b      	adds	r3, r7, r4
 8001e90:	2200      	movs	r2, #0
 8001e92:	605a      	str	r2, [r3, #4]

  GPIO_InitStruct.Pull = GPIO_NOPULL;
 8001e94:	193b      	adds	r3, r7, r4
 8001e96:	2200      	movs	r2, #0
 8001e98:	609a      	str	r2, [r3, #8]

  HAL_GPIO_Init(GPIOA, &GPIO_InitStruct);
 8001e9a:	193a      	adds	r2, r7, r4
 8001e9c:	23a0      	movs	r3, #160	; 0xa0
 8001e9e:	05db      	lsls	r3, r3, #23
 8001ea0:	0011      	movs	r1, r2
 8001ea2:	0018      	movs	r0, r3
 8001ea4:	f001 fa5a 	bl	800335c <HAL_GPIO_Init>



  /*Configure GPIO pin : PB6 */

  GPIO_InitStruct.Pin = GPIO_PIN_6;
 8001ea8:	0021      	movs	r1, r4
 8001eaa:	187b      	adds	r3, r7, r1
 8001eac:	2240      	movs	r2, #64	; 0x40
 8001eae:	601a      	str	r2, [r3, #0]

  GPIO_InitStruct.Mode = GPIO_MODE_OUTPUT_PP;
 8001eb0:	187b      	adds	r3, r7, r1
 8001eb2:	2201      	movs	r2, #1
 8001eb4:	605a      	str	r2, [r3, #4]

  GPIO_InitStruct.Pull = GPIO_NOPULL;
 8001eb6:	187b      	adds	r3, r7, r1
 8001eb8:	2200      	movs	r2, #0
 8001eba:	609a      	str	r2, [r3, #8]

  GPIO_InitStruct.Speed = GPIO_SPEED_FREQ_LOW;
 8001ebc:	187b      	adds	r3, r7, r1
 8001ebe:	2200      	movs	r2, #0
 8001ec0:	60da      	str	r2, [r3, #12]

  HAL_GPIO_Init(GPIOB, &GPIO_InitStruct);
 8001ec2:	187b      	adds	r3, r7, r1
 8001ec4:	4a05      	ldr	r2, [pc, #20]	; (8001edc <MX_GPIO_Init+0x11c>)
 8001ec6:	0019      	movs	r1, r3
 8001ec8:	0010      	movs	r0, r2
 8001eca:	f001 fa47 	bl	800335c <HAL_GPIO_Init>



}
 8001ece:	46c0      	nop			; (mov r8, r8)
 8001ed0:	46bd      	mov	sp, r7
 8001ed2:	b00b      	add	sp, #44	; 0x2c
 8001ed4:	bd90      	pop	{r4, r7, pc}
 8001ed6:	46c0      	nop			; (mov r8, r8)
 8001ed8:	40021000 	.word	0x40021000
 8001edc:	50000400 	.word	0x50000400
 8001ee0:	50000800 	.word	0x50000800

08001ee4 <Set_VCO_Frequency>:



/* USER CODE BEGIN 4 */

void Set_VCO_Frequency(int freq) {
 8001ee4:	b5b0      	push	{r4, r5, r7, lr}
 8001ee6:	b08a      	sub	sp, #40	; 0x28
 8001ee8:	af00      	add	r7, sp, #0
 8001eea:	6078      	str	r0, [r7, #4]

	int xtal = 50;
 8001eec:	2332      	movs	r3, #50	; 0x32
 8001eee:	627b      	str	r3, [r7, #36]	; 0x24



	int integer_data = freq/xtal;
 8001ef0:	6a79      	ldr	r1, [r7, #36]	; 0x24
 8001ef2:	6878      	ldr	r0, [r7, #4]
 8001ef4:	f7fe f99c 	bl	8000230 <__divsi3>
 8001ef8:	0003      	movs	r3, r0
 8001efa:	623b      	str	r3, [r7, #32]

	int frac_mod = freq % xtal;
 8001efc:	687b      	ldr	r3, [r7, #4]
 8001efe:	6a79      	ldr	r1, [r7, #36]	; 0x24
 8001f00:	0018      	movs	r0, r3
 8001f02:	f7fe fa7b 	bl	80003fc <__aeabi_idivmod>
 8001f06:	000b      	movs	r3, r1
 8001f08:	61fb      	str	r3, [r7, #28]



	double frac_value = 1.0*freq/xtal - integer_data;
 8001f0a:	6878      	ldr	r0, [r7, #4]
 8001f0c:	f7ff fcc0 	bl	8001890 <__aeabi_i2d>
 8001f10:	0004      	movs	r4, r0
 8001f12:	000d      	movs	r5, r1
 8001f14:	6a78      	ldr	r0, [r7, #36]	; 0x24
 8001f16:	f7ff fcbb 	bl	8001890 <__aeabi_i2d>
 8001f1a:	0002      	movs	r2, r0
 8001f1c:	000b      	movs	r3, r1
 8001f1e:	0020      	movs	r0, r4
 8001f20:	0029      	movs	r1, r5
 8001f22:	f7fe fb8b 	bl	800063c <__aeabi_ddiv>
 8001f26:	0002      	movs	r2, r0
 8001f28:	000b      	movs	r3, r1
 8001f2a:	0014      	movs	r4, r2
 8001f2c:	001d      	movs	r5, r3
 8001f2e:	6a38      	ldr	r0, [r7, #32]
 8001f30:	f7ff fcae 	bl	8001890 <__aeabi_i2d>
 8001f34:	0002      	movs	r2, r0
 8001f36:	000b      	movs	r3, r1
 8001f38:	0020      	movs	r0, r4
 8001f3a:	0029      	movs	r1, r5
 8001f3c:	f7ff f8e0 	bl	8001100 <__aeabi_dsub>
 8001f40:	0002      	movs	r2, r0
 8001f42:	000b      	movs	r3, r1
 8001f44:	613a      	str	r2, [r7, #16]
 8001f46:	617b      	str	r3, [r7, #20]

	int frac_data = frac_value * pow(2,24);
 8001f48:	2200      	movs	r2, #0
 8001f4a:	4b18      	ldr	r3, [pc, #96]	; (8001fac <Set_VCO_Frequency+0xc8>)
 8001f4c:	6938      	ldr	r0, [r7, #16]
 8001f4e:	6979      	ldr	r1, [r7, #20]
 8001f50:	f7fe fe6a 	bl	8000c28 <__aeabi_dmul>
 8001f54:	0002      	movs	r2, r0
 8001f56:	000b      	movs	r3, r1
 8001f58:	0010      	movs	r0, r2
 8001f5a:	0019      	movs	r1, r3
 8001f5c:	f7ff fc62 	bl	8001824 <__aeabi_d2iz>
 8001f60:	0003      	movs	r3, r0
 8001f62:	60fb      	str	r3, [r7, #12]



	uint8_t reg_5 = 0b00101000;
 8001f64:	240b      	movs	r4, #11
 8001f66:	193b      	adds	r3, r7, r4
 8001f68:	2228      	movs	r2, #40	; 0x28
 8001f6a:	701a      	strb	r2, [r3, #0]



	// REG 3 1C

	uint8_t reg_3 = 0b00011000;
 8001f6c:	210a      	movs	r1, #10
 8001f6e:	187b      	adds	r3, r7, r1
 8001f70:	2218      	movs	r2, #24
 8001f72:	701a      	strb	r2, [r3, #0]

	sendBytes(integer_data, reg_3);
 8001f74:	187b      	adds	r3, r7, r1
 8001f76:	781a      	ldrb	r2, [r3, #0]
 8001f78:	6a3b      	ldr	r3, [r7, #32]
 8001f7a:	0011      	movs	r1, r2
 8001f7c:	0018      	movs	r0, r3
 8001f7e:	f000 f817 	bl	8001fb0 <sendBytes>



	// REG 5 0

	sendBytes(0, reg_5);
 8001f82:	193b      	adds	r3, r7, r4
 8001f84:	781b      	ldrb	r3, [r3, #0]
 8001f86:	0019      	movs	r1, r3
 8001f88:	2000      	movs	r0, #0
 8001f8a:	f000 f811 	bl	8001fb0 <sendBytes>



	// REG 4 0

	uint8_t reg_4 = 0b00100000;
 8001f8e:	2109      	movs	r1, #9
 8001f90:	187b      	adds	r3, r7, r1
 8001f92:	2220      	movs	r2, #32
 8001f94:	701a      	strb	r2, [r3, #0]

	sendBytes(frac_data, reg_4);
 8001f96:	187b      	adds	r3, r7, r1
 8001f98:	781a      	ldrb	r2, [r3, #0]
 8001f9a:	68fb      	ldr	r3, [r7, #12]
 8001f9c:	0011      	movs	r1, r2
 8001f9e:	0018      	movs	r0, r3
 8001fa0:	f000 f806 	bl	8001fb0 <sendBytes>

}
 8001fa4:	46c0      	nop			; (mov r8, r8)
 8001fa6:	46bd      	mov	sp, r7
 8001fa8:	b00a      	add	sp, #40	; 0x28
 8001faa:	bdb0      	pop	{r4, r5, r7, pc}
 8001fac:	41700000 	.word	0x41700000

08001fb0 <sendBytes>:



void sendBytes(int data, uint8_t addressByte) {
 8001fb0:	b5f0      	push	{r4, r5, r6, r7, lr}
 8001fb2:	b085      	sub	sp, #20
 8001fb4:	af00      	add	r7, sp, #0
 8001fb6:	6078      	str	r0, [r7, #4]
 8001fb8:	000a      	movs	r2, r1
 8001fba:	1cfb      	adds	r3, r7, #3
 8001fbc:	701a      	strb	r2, [r3, #0]

	uint8_t firstIntDataByte = data & 0xff;
 8001fbe:	687b      	ldr	r3, [r7, #4]
 8001fc0:	b2da      	uxtb	r2, r3
 8001fc2:	240f      	movs	r4, #15
 8001fc4:	193b      	adds	r3, r7, r4
 8001fc6:	701a      	strb	r2, [r3, #0]

	data = data >> 8;
 8001fc8:	687b      	ldr	r3, [r7, #4]
 8001fca:	121b      	asrs	r3, r3, #8
 8001fcc:	607b      	str	r3, [r7, #4]

	uint8_t secondIntDataByte = data & 0xff;
 8001fce:	687b      	ldr	r3, [r7, #4]
 8001fd0:	b2da      	uxtb	r2, r3
 8001fd2:	250e      	movs	r5, #14
 8001fd4:	197b      	adds	r3, r7, r5
 8001fd6:	701a      	strb	r2, [r3, #0]

	data = data >> 8;
 8001fd8:	687b      	ldr	r3, [r7, #4]
 8001fda:	121b      	asrs	r3, r3, #8
 8001fdc:	607b      	str	r3, [r7, #4]

	uint8_t thirdIntDataByte = data & 0xff;
 8001fde:	687b      	ldr	r3, [r7, #4]
 8001fe0:	b2da      	uxtb	r2, r3
 8001fe2:	260d      	movs	r6, #13
 8001fe4:	19bb      	adds	r3, r7, r6
 8001fe6:	701a      	strb	r2, [r3, #0]



	HAL_GPIO_WritePin(GPIOB, GPIO_PIN_6, GPIO_PIN_RESET); // SEN Deassert
 8001fe8:	4b13      	ldr	r3, [pc, #76]	; (8002038 <sendBytes+0x88>)
 8001fea:	2200      	movs	r2, #0
 8001fec:	2140      	movs	r1, #64	; 0x40
 8001fee:	0018      	movs	r0, r3
 8001ff0:	f001 fb32 	bl	8003658 <HAL_GPIO_WritePin>

	HAL_SPI_Transmit(&hspi1, (uint8_t *) &thirdIntDataByte, 1, 100);
 8001ff4:	19b9      	adds	r1, r7, r6
 8001ff6:	4811      	ldr	r0, [pc, #68]	; (800203c <sendBytes+0x8c>)
 8001ff8:	2364      	movs	r3, #100	; 0x64
 8001ffa:	2201      	movs	r2, #1
 8001ffc:	f002 fb4a 	bl	8004694 <HAL_SPI_Transmit>

	HAL_SPI_Transmit(&hspi1, (uint8_t *) &secondIntDataByte, 1, 100);
 8002000:	1979      	adds	r1, r7, r5
 8002002:	480e      	ldr	r0, [pc, #56]	; (800203c <sendBytes+0x8c>)
 8002004:	2364      	movs	r3, #100	; 0x64
 8002006:	2201      	movs	r2, #1
 8002008:	f002 fb44 	bl	8004694 <HAL_SPI_Transmit>

	HAL_SPI_Transmit(&hspi1, (uint8_t *) &firstIntDataByte, 1, 100);
 800200c:	1939      	adds	r1, r7, r4
 800200e:	480b      	ldr	r0, [pc, #44]	; (800203c <sendBytes+0x8c>)
 8002010:	2364      	movs	r3, #100	; 0x64
 8002012:	2201      	movs	r2, #1
 8002014:	f002 fb3e 	bl	8004694 <HAL_SPI_Transmit>

	HAL_SPI_Transmit(&hspi1, (uint8_t *) &addressByte, 1, 100);
 8002018:	1cf9      	adds	r1, r7, #3
 800201a:	4808      	ldr	r0, [pc, #32]	; (800203c <sendBytes+0x8c>)
 800201c:	2364      	movs	r3, #100	; 0x64
 800201e:	2201      	movs	r2, #1
 8002020:	f002 fb38 	bl	8004694 <HAL_SPI_Transmit>

	HAL_GPIO_WritePin(GPIOB, GPIO_PIN_6, GPIO_PIN_SET); // SEN Assert
 8002024:	4b04      	ldr	r3, [pc, #16]	; (8002038 <sendBytes+0x88>)
 8002026:	2201      	movs	r2, #1
 8002028:	2140      	movs	r1, #64	; 0x40
 800202a:	0018      	movs	r0, r3
 800202c:	f001 fb14 	bl	8003658 <HAL_GPIO_WritePin>

}
 8002030:	46c0      	nop			; (mov r8, r8)
 8002032:	46bd      	mov	sp, r7
 8002034:	b005      	add	sp, #20
 8002036:	bdf0      	pop	{r4, r5, r6, r7, pc}
 8002038:	50000400 	.word	0x50000400
 800203c:	200000e8 	.word	0x200000e8

08002040 <Initialize_Microwave_Generator>:





void Initialize_Microwave_Generator(void) {
 8002040:	b5f0      	push	{r4, r5, r6, r7, lr}
 8002042:	b08b      	sub	sp, #44	; 0x2c
 8002044:	af00      	add	r7, sp, #0

	uint8_t VarZero = 0b00000000;
 8002046:	2427      	movs	r4, #39	; 0x27
 8002048:	193b      	adds	r3, r7, r4
 800204a:	2200      	movs	r2, #0
 800204c:	701a      	strb	r2, [r3, #0]

	uint8_t VarOne = 0b00100000;
 800204e:	2626      	movs	r6, #38	; 0x26
 8002050:	19bb      	adds	r3, r7, r6
 8002052:	2220      	movs	r2, #32
 8002054:	701a      	strb	r2, [r3, #0]

	uint8_t VarTwo = 0b00000010;
 8002056:	2325      	movs	r3, #37	; 0x25
 8002058:	18fb      	adds	r3, r7, r3
 800205a:	2202      	movs	r2, #2
 800205c:	701a      	strb	r2, [r3, #0]

	uint8_t VarThree = 0b00001000;
 800205e:	2224      	movs	r2, #36	; 0x24
 8002060:	18bb      	adds	r3, r7, r2
 8002062:	2208      	movs	r2, #8
 8002064:	701a      	strb	r2, [r3, #0]

	uint8_t VarFour = 0b00000001;
 8002066:	2323      	movs	r3, #35	; 0x23
 8002068:	18fb      	adds	r3, r7, r3
 800206a:	2201      	movs	r2, #1
 800206c:	701a      	strb	r2, [r3, #0]

	uint8_t VarFive = 0b00010000;
 800206e:	2122      	movs	r1, #34	; 0x22
 8002070:	187b      	adds	r3, r7, r1
 8002072:	2210      	movs	r2, #16
 8002074:	701a      	strb	r2, [r3, #0]

	uint8_t VarSix = 0b10010000;
 8002076:	2521      	movs	r5, #33	; 0x21
 8002078:	197b      	adds	r3, r7, r5
 800207a:	2290      	movs	r2, #144	; 0x90
 800207c:	701a      	strb	r2, [r3, #0]

	uint8_t VarSeven = 0b00101000;
 800207e:	2520      	movs	r5, #32
 8002080:	197b      	adds	r3, r7, r5
 8002082:	2228      	movs	r2, #40	; 0x28
 8002084:	701a      	strb	r2, [r3, #0]

	uint8_t VarEight = 0b00001111;
 8002086:	221f      	movs	r2, #31
 8002088:	18bb      	adds	r3, r7, r2
 800208a:	220f      	movs	r2, #15
 800208c:	701a      	strb	r2, [r3, #0]

	uint8_t VarNine = 0b10011000;
 800208e:	211e      	movs	r1, #30
 8002090:	187b      	adds	r3, r7, r1
 8002092:	2298      	movs	r2, #152	; 0x98
 8002094:	701a      	strb	r2, [r3, #0]

	uint8_t VarOneZero = 0b01001011;
 8002096:	211d      	movs	r1, #29
 8002098:	187b      	adds	r3, r7, r1
 800209a:	224b      	movs	r2, #75	; 0x4b
 800209c:	701a      	strb	r2, [r3, #0]

	uint8_t VarOneOne = 0b00111000;
 800209e:	211c      	movs	r1, #28
 80020a0:	187b      	adds	r3, r7, r1
 80020a2:	2238      	movs	r2, #56	; 0x38
 80020a4:	701a      	strb	r2, [r3, #0]

	uint8_t VarOneTwo = 0b01001010;
 80020a6:	231b      	movs	r3, #27
 80020a8:	18fb      	adds	r3, r7, r3
 80020aa:	224a      	movs	r2, #74	; 0x4a
 80020ac:	701a      	strb	r2, [r3, #0]

	uint8_t VarOneThree = 0b00110000;
 80020ae:	231a      	movs	r3, #26
 80020b0:	18fb      	adds	r3, r7, r3
 80020b2:	2230      	movs	r2, #48	; 0x30
 80020b4:	701a      	strb	r2, [r3, #0]

	uint8_t VarOneFour = 0b01001101;
 80020b6:	2319      	movs	r3, #25
 80020b8:	18fb      	adds	r3, r7, r3
 80020ba:	224d      	movs	r2, #77	; 0x4d
 80020bc:	701a      	strb	r2, [r3, #0]

	uint8_t VarOneFive = 0b11000001;
 80020be:	2218      	movs	r2, #24
 80020c0:	18bb      	adds	r3, r7, r2
 80020c2:	22c1      	movs	r2, #193	; 0xc1
 80020c4:	701a      	strb	r2, [r3, #0]

	uint8_t VarOneSix = 0b10111110;
 80020c6:	2117      	movs	r1, #23
 80020c8:	187b      	adds	r3, r7, r1
 80020ca:	22be      	movs	r2, #190	; 0xbe
 80020cc:	701a      	strb	r2, [r3, #0]

	uint8_t VarOneSeven = 0b11111111;
 80020ce:	2016      	movs	r0, #22
 80020d0:	183b      	adds	r3, r7, r0
 80020d2:	22ff      	movs	r2, #255	; 0xff
 80020d4:	701a      	strb	r2, [r3, #0]

	uint8_t VarOneEight = 0b01000000;
 80020d6:	2315      	movs	r3, #21
 80020d8:	18fb      	adds	r3, r7, r3
 80020da:	2240      	movs	r2, #64	; 0x40
 80020dc:	701a      	strb	r2, [r3, #0]

	uint8_t VarOneNine = 0b00111111;
 80020de:	2214      	movs	r2, #20
 80020e0:	18bb      	adds	r3, r7, r2
 80020e2:	223f      	movs	r2, #63	; 0x3f
 80020e4:	701a      	strb	r2, [r3, #0]

	uint8_t VarTwoZero = 0b11111110;
 80020e6:	2113      	movs	r1, #19
 80020e8:	187b      	adds	r3, r7, r1
 80020ea:	22fe      	movs	r2, #254	; 0xfe
 80020ec:	701a      	strb	r2, [r3, #0]

	uint8_t VarTwoOne = 0b11111101;
 80020ee:	2012      	movs	r0, #18
 80020f0:	183b      	adds	r3, r7, r0
 80020f2:	22fd      	movs	r2, #253	; 0xfd
 80020f4:	701a      	strb	r2, [r3, #0]

	uint8_t VarTwoTwo = 0b01001000;
 80020f6:	2311      	movs	r3, #17
 80020f8:	18fb      	adds	r3, r7, r3
 80020fa:	2248      	movs	r2, #72	; 0x48
 80020fc:	701a      	strb	r2, [r3, #0]

	uint8_t VarTwoThree = 0b01000110;
 80020fe:	2210      	movs	r2, #16
 8002100:	18bb      	adds	r3, r7, r2
 8002102:	2246      	movs	r2, #70	; 0x46
 8002104:	701a      	strb	r2, [r3, #0]

	uint8_t VarTwoFour = 0b01010000;
 8002106:	210f      	movs	r1, #15
 8002108:	187b      	adds	r3, r7, r1
 800210a:	2250      	movs	r2, #80	; 0x50
 800210c:	701a      	strb	r2, [r3, #0]

	uint8_t VarTwoFive = 0b01001111;
 800210e:	200e      	movs	r0, #14
 8002110:	183b      	adds	r3, r7, r0
 8002112:	224f      	movs	r2, #79	; 0x4f
 8002114:	701a      	strb	r2, [r3, #0]

	uint8_t VarTwoSix = 0b10000000;
 8002116:	230d      	movs	r3, #13
 8002118:	18fb      	adds	r3, r7, r3
 800211a:	2280      	movs	r2, #128	; 0x80
 800211c:	701a      	strb	r2, [r3, #0]

	uint8_t VarTwoSeven = 0b01100001;
 800211e:	220c      	movs	r2, #12
 8002120:	18bb      	adds	r3, r7, r2
 8002122:	2261      	movs	r2, #97	; 0x61
 8002124:	701a      	strb	r2, [r3, #0]

	uint8_t VarTwoEight = 0b01011000;
 8002126:	210b      	movs	r1, #11
 8002128:	187b      	adds	r3, r7, r1
 800212a:	2258      	movs	r2, #88	; 0x58
 800212c:	701a      	strb	r2, [r3, #0]

	uint8_t VarTwoNine = 0b01100000;
 800212e:	200a      	movs	r0, #10
 8002130:	183b      	adds	r3, r7, r0
 8002132:	2260      	movs	r2, #96	; 0x60
 8002134:	701a      	strb	r2, [r3, #0]

	uint8_t VarThreeZero = 0b10000001;
 8002136:	2309      	movs	r3, #9
 8002138:	18fb      	adds	r3, r7, r3
 800213a:	2281      	movs	r2, #129	; 0x81
 800213c:	701a      	strb	r2, [r3, #0]

	uint8_t VarThreeOne = 0b01111000;
 800213e:	2208      	movs	r2, #8
 8002140:	18bb      	adds	r3, r7, r2
 8002142:	2278      	movs	r2, #120	; 0x78
 8002144:	701a      	strb	r2, [r3, #0]

	uint8_t VarThreeTwo = 0b00101010;
 8002146:	1dfb      	adds	r3, r7, #7
 8002148:	222a      	movs	r2, #42	; 0x2a
 800214a:	701a      	strb	r2, [r3, #0]

	uint8_t VarThreeThree = 0b00011000;
 800214c:	1dbb      	adds	r3, r7, #6
 800214e:	2218      	movs	r2, #24
 8002150:	701a      	strb	r2, [r3, #0]

	uint8_t VarThreeFour = 0b01100110;
 8002152:	1d7b      	adds	r3, r7, #5
 8002154:	2266      	movs	r2, #102	; 0x66
 8002156:	701a      	strb	r2, [r3, #0]

	// REG 0 20

	// RESET command.

	HAL_GPIO_WritePin(GPIOB, GPIO_PIN_6, GPIO_PIN_RESET); // SEN Deassert
 8002158:	4bfe      	ldr	r3, [pc, #1016]	; (8002554 <Initialize_Microwave_Generator+0x514>)
 800215a:	2200      	movs	r2, #0
 800215c:	2140      	movs	r1, #64	; 0x40
 800215e:	0018      	movs	r0, r3
 8002160:	f001 fa7a 	bl	8003658 <HAL_GPIO_WritePin>

	HAL_SPI_Transmit(&hspi1, (uint8_t *) &VarZero, 1, 100);
 8002164:	1939      	adds	r1, r7, r4
 8002166:	48fc      	ldr	r0, [pc, #1008]	; (8002558 <Initialize_Microwave_Generator+0x518>)
 8002168:	2364      	movs	r3, #100	; 0x64
 800216a:	2201      	movs	r2, #1
 800216c:	f002 fa92 	bl	8004694 <HAL_SPI_Transmit>

	HAL_SPI_Transmit(&hspi1, (uint8_t *) &VarZero, 1, 100);
 8002170:	1939      	adds	r1, r7, r4
 8002172:	48f9      	ldr	r0, [pc, #996]	; (8002558 <Initialize_Microwave_Generator+0x518>)
 8002174:	2364      	movs	r3, #100	; 0x64
 8002176:	2201      	movs	r2, #1
 8002178:	f002 fa8c 	bl	8004694 <HAL_SPI_Transmit>

	HAL_SPI_Transmit(&hspi1, (uint8_t *) &VarOne, 1, 100);
 800217c:	19b9      	adds	r1, r7, r6
 800217e:	48f6      	ldr	r0, [pc, #984]	; (8002558 <Initialize_Microwave_Generator+0x518>)
 8002180:	2364      	movs	r3, #100	; 0x64
 8002182:	2201      	movs	r2, #1
 8002184:	f002 fa86 	bl	8004694 <HAL_SPI_Transmit>

	HAL_SPI_Transmit(&hspi1, (uint8_t *) &VarZero, 1, 100);
 8002188:	1939      	adds	r1, r7, r4
 800218a:	48f3      	ldr	r0, [pc, #972]	; (8002558 <Initialize_Microwave_Generator+0x518>)
 800218c:	2364      	movs	r3, #100	; 0x64
 800218e:	2201      	movs	r2, #1
 8002190:	f002 fa80 	bl	8004694 <HAL_SPI_Transmit>

	HAL_GPIO_WritePin(GPIOB, GPIO_PIN_6, GPIO_PIN_SET); // SEN Assert
 8002194:	4bef      	ldr	r3, [pc, #956]	; (8002554 <Initialize_Microwave_Generator+0x514>)
 8002196:	2201      	movs	r2, #1
 8002198:	2140      	movs	r1, #64	; 0x40
 800219a:	0018      	movs	r0, r3
 800219c:	f001 fa5c 	bl	8003658 <HAL_GPIO_WritePin>

	HAL_Delay(50);
 80021a0:	2032      	movs	r0, #50	; 0x32
 80021a2:	f000 fc6b 	bl	8002a7c <HAL_Delay>

	// REG 1 2

	// Default = 2.  This value assigns PLL Chip Enable control to the SPI Reg 1 [1], 1 enabled, 0 disabled.  To assign PLL CE control to CE pin, write Reg 1[0]=1.

	HAL_GPIO_WritePin(GPIOB, GPIO_PIN_6, GPIO_PIN_RESET); // SEN Deassert
 80021a6:	4beb      	ldr	r3, [pc, #940]	; (8002554 <Initialize_Microwave_Generator+0x514>)
 80021a8:	2200      	movs	r2, #0
 80021aa:	2140      	movs	r1, #64	; 0x40
 80021ac:	0018      	movs	r0, r3
 80021ae:	f001 fa53 	bl	8003658 <HAL_GPIO_WritePin>

	HAL_SPI_Transmit(&hspi1, (uint8_t *) &VarZero, 1, 100);
 80021b2:	1939      	adds	r1, r7, r4
 80021b4:	48e8      	ldr	r0, [pc, #928]	; (8002558 <Initialize_Microwave_Generator+0x518>)
 80021b6:	2364      	movs	r3, #100	; 0x64
 80021b8:	2201      	movs	r2, #1
 80021ba:	f002 fa6b 	bl	8004694 <HAL_SPI_Transmit>

	HAL_SPI_Transmit(&hspi1, (uint8_t *) &VarZero, 1, 100);
 80021be:	1939      	adds	r1, r7, r4
 80021c0:	48e5      	ldr	r0, [pc, #916]	; (8002558 <Initialize_Microwave_Generator+0x518>)
 80021c2:	2364      	movs	r3, #100	; 0x64
 80021c4:	2201      	movs	r2, #1
 80021c6:	f002 fa65 	bl	8004694 <HAL_SPI_Transmit>

	HAL_SPI_Transmit(&hspi1, (uint8_t *) &VarTwo, 1, 100);
 80021ca:	2025      	movs	r0, #37	; 0x25
 80021cc:	1839      	adds	r1, r7, r0
 80021ce:	48e2      	ldr	r0, [pc, #904]	; (8002558 <Initialize_Microwave_Generator+0x518>)
 80021d0:	2364      	movs	r3, #100	; 0x64
 80021d2:	2201      	movs	r2, #1
 80021d4:	f002 fa5e 	bl	8004694 <HAL_SPI_Transmit>

	HAL_SPI_Transmit(&hspi1, (uint8_t *) &VarThree, 1, 100);
 80021d8:	2024      	movs	r0, #36	; 0x24
 80021da:	1839      	adds	r1, r7, r0
 80021dc:	48de      	ldr	r0, [pc, #888]	; (8002558 <Initialize_Microwave_Generator+0x518>)
 80021de:	2364      	movs	r3, #100	; 0x64
 80021e0:	2201      	movs	r2, #1
 80021e2:	f002 fa57 	bl	8004694 <HAL_SPI_Transmit>

	HAL_GPIO_WritePin(GPIOB, GPIO_PIN_6, GPIO_PIN_SET); // SEN Assert
 80021e6:	4bdb      	ldr	r3, [pc, #876]	; (8002554 <Initialize_Microwave_Generator+0x514>)
 80021e8:	2201      	movs	r2, #1
 80021ea:	2140      	movs	r1, #64	; 0x40
 80021ec:	0018      	movs	r0, r3
 80021ee:	f001 fa33 	bl	8003658 <HAL_GPIO_WritePin>

	HAL_Delay(50);
 80021f2:	2032      	movs	r0, #50	; 0x32
 80021f4:	f000 fc42 	bl	8002a7c <HAL_Delay>

	// REG 2 1

	// Ref Divider Register-Default value = 1h (Rdiv=1). Program as needed.

	HAL_GPIO_WritePin(GPIOB, GPIO_PIN_6, GPIO_PIN_RESET); // SEN Deassert
 80021f8:	4bd6      	ldr	r3, [pc, #856]	; (8002554 <Initialize_Microwave_Generator+0x514>)
 80021fa:	2200      	movs	r2, #0
 80021fc:	2140      	movs	r1, #64	; 0x40
 80021fe:	0018      	movs	r0, r3
 8002200:	f001 fa2a 	bl	8003658 <HAL_GPIO_WritePin>

	HAL_SPI_Transmit(&hspi1, (uint8_t *) &VarZero, 1, 100);
 8002204:	1939      	adds	r1, r7, r4
 8002206:	48d4      	ldr	r0, [pc, #848]	; (8002558 <Initialize_Microwave_Generator+0x518>)
 8002208:	2364      	movs	r3, #100	; 0x64
 800220a:	2201      	movs	r2, #1
 800220c:	f002 fa42 	bl	8004694 <HAL_SPI_Transmit>

	HAL_SPI_Transmit(&hspi1, (uint8_t *) &VarZero, 1, 100);
 8002210:	1939      	adds	r1, r7, r4
 8002212:	48d1      	ldr	r0, [pc, #836]	; (8002558 <Initialize_Microwave_Generator+0x518>)
 8002214:	2364      	movs	r3, #100	; 0x64
 8002216:	2201      	movs	r2, #1
 8002218:	f002 fa3c 	bl	8004694 <HAL_SPI_Transmit>

	HAL_SPI_Transmit(&hspi1, (uint8_t *) &VarFour, 1, 100);
 800221c:	2323      	movs	r3, #35	; 0x23
 800221e:	18f9      	adds	r1, r7, r3
 8002220:	48cd      	ldr	r0, [pc, #820]	; (8002558 <Initialize_Microwave_Generator+0x518>)
 8002222:	2364      	movs	r3, #100	; 0x64
 8002224:	2201      	movs	r2, #1
 8002226:	f002 fa35 	bl	8004694 <HAL_SPI_Transmit>

	HAL_SPI_Transmit(&hspi1, (uint8_t *) &VarFive, 1, 100);
 800222a:	2022      	movs	r0, #34	; 0x22
 800222c:	1839      	adds	r1, r7, r0
 800222e:	48ca      	ldr	r0, [pc, #808]	; (8002558 <Initialize_Microwave_Generator+0x518>)
 8002230:	2364      	movs	r3, #100	; 0x64
 8002232:	2201      	movs	r2, #1
 8002234:	f002 fa2e 	bl	8004694 <HAL_SPI_Transmit>

	HAL_GPIO_WritePin(GPIOB, GPIO_PIN_6, GPIO_PIN_SET); // SEN Assert
 8002238:	4bc6      	ldr	r3, [pc, #792]	; (8002554 <Initialize_Microwave_Generator+0x514>)
 800223a:	2201      	movs	r2, #1
 800223c:	2140      	movs	r1, #64	; 0x40
 800223e:	0018      	movs	r0, r3
 8002240:	f001 fa0a 	bl	8003658 <HAL_GPIO_WritePin>

	HAL_Delay(50);
 8002244:	2032      	movs	r0, #50	; 0x32
 8002246:	f000 fc19 	bl	8002a7c <HAL_Delay>

	// REG 5 90

	// Reg02 = 000000001 = fo (VCO output Div-by-1);

	HAL_GPIO_WritePin(GPIOB, GPIO_PIN_6, GPIO_PIN_RESET); // SEN Deassert
 800224a:	4bc2      	ldr	r3, [pc, #776]	; (8002554 <Initialize_Microwave_Generator+0x514>)
 800224c:	2200      	movs	r2, #0
 800224e:	2140      	movs	r1, #64	; 0x40
 8002250:	0018      	movs	r0, r3
 8002252:	f001 fa01 	bl	8003658 <HAL_GPIO_WritePin>

	HAL_SPI_Transmit(&hspi1, (uint8_t *) &VarZero, 1, 100);
 8002256:	1939      	adds	r1, r7, r4
 8002258:	48bf      	ldr	r0, [pc, #764]	; (8002558 <Initialize_Microwave_Generator+0x518>)
 800225a:	2364      	movs	r3, #100	; 0x64
 800225c:	2201      	movs	r2, #1
 800225e:	f002 fa19 	bl	8004694 <HAL_SPI_Transmit>

	HAL_SPI_Transmit(&hspi1, (uint8_t *) &VarZero, 1, 100);
 8002262:	1939      	adds	r1, r7, r4
 8002264:	48bc      	ldr	r0, [pc, #752]	; (8002558 <Initialize_Microwave_Generator+0x518>)
 8002266:	2364      	movs	r3, #100	; 0x64
 8002268:	2201      	movs	r2, #1
 800226a:	f002 fa13 	bl	8004694 <HAL_SPI_Transmit>

	HAL_SPI_Transmit(&hspi1, (uint8_t *) &VarSix, 1, 100);
 800226e:	2021      	movs	r0, #33	; 0x21
 8002270:	1839      	adds	r1, r7, r0
 8002272:	48b9      	ldr	r0, [pc, #740]	; (8002558 <Initialize_Microwave_Generator+0x518>)
 8002274:	2364      	movs	r3, #100	; 0x64
 8002276:	2201      	movs	r2, #1
 8002278:	f002 fa0c 	bl	8004694 <HAL_SPI_Transmit>

	HAL_SPI_Transmit(&hspi1, (uint8_t *) &VarSeven, 1, 100);
 800227c:	1979      	adds	r1, r7, r5
 800227e:	48b6      	ldr	r0, [pc, #728]	; (8002558 <Initialize_Microwave_Generator+0x518>)
 8002280:	2364      	movs	r3, #100	; 0x64
 8002282:	2201      	movs	r2, #1
 8002284:	f002 fa06 	bl	8004694 <HAL_SPI_Transmit>

	HAL_GPIO_WritePin(GPIOB, GPIO_PIN_6, GPIO_PIN_SET); // SEN Assert
 8002288:	4bb2      	ldr	r3, [pc, #712]	; (8002554 <Initialize_Microwave_Generator+0x514>)
 800228a:	2201      	movs	r2, #1
 800228c:	2140      	movs	r1, #64	; 0x40
 800228e:	0018      	movs	r0, r3
 8002290:	f001 f9e2 	bl	8003658 <HAL_GPIO_WritePin>

	HAL_Delay(50);
 8002294:	2032      	movs	r0, #50	; 0x32
 8002296:	f000 fbf1 	bl	8002a7c <HAL_Delay>

	// REG 5 F98

	// Reg03 = 000011111 = Hi Perf, RF_P & RF_N enabled, 5dB RL,

	HAL_GPIO_WritePin(GPIOB, GPIO_PIN_6, GPIO_PIN_RESET); // SEN Deassert
 800229a:	4bae      	ldr	r3, [pc, #696]	; (8002554 <Initialize_Microwave_Generator+0x514>)
 800229c:	2200      	movs	r2, #0
 800229e:	2140      	movs	r1, #64	; 0x40
 80022a0:	0018      	movs	r0, r3
 80022a2:	f001 f9d9 	bl	8003658 <HAL_GPIO_WritePin>

	HAL_SPI_Transmit(&hspi1, (uint8_t *) &VarZero, 1, 100);
 80022a6:	1939      	adds	r1, r7, r4
 80022a8:	48ab      	ldr	r0, [pc, #684]	; (8002558 <Initialize_Microwave_Generator+0x518>)
 80022aa:	2364      	movs	r3, #100	; 0x64
 80022ac:	2201      	movs	r2, #1
 80022ae:	f002 f9f1 	bl	8004694 <HAL_SPI_Transmit>

	HAL_SPI_Transmit(&hspi1, (uint8_t *) &VarEight, 1, 100);
 80022b2:	221f      	movs	r2, #31
 80022b4:	18b9      	adds	r1, r7, r2
 80022b6:	48a8      	ldr	r0, [pc, #672]	; (8002558 <Initialize_Microwave_Generator+0x518>)
 80022b8:	2364      	movs	r3, #100	; 0x64
 80022ba:	2201      	movs	r2, #1
 80022bc:	f002 f9ea 	bl	8004694 <HAL_SPI_Transmit>

	HAL_SPI_Transmit(&hspi1, (uint8_t *) &VarNine, 1, 100);
 80022c0:	201e      	movs	r0, #30
 80022c2:	1839      	adds	r1, r7, r0
 80022c4:	48a4      	ldr	r0, [pc, #656]	; (8002558 <Initialize_Microwave_Generator+0x518>)
 80022c6:	2364      	movs	r3, #100	; 0x64
 80022c8:	2201      	movs	r2, #1
 80022ca:	f002 f9e3 	bl	8004694 <HAL_SPI_Transmit>

	HAL_SPI_Transmit(&hspi1, (uint8_t *) &VarSeven, 1, 100);
 80022ce:	1979      	adds	r1, r7, r5
 80022d0:	48a1      	ldr	r0, [pc, #644]	; (8002558 <Initialize_Microwave_Generator+0x518>)
 80022d2:	2364      	movs	r3, #100	; 0x64
 80022d4:	2201      	movs	r2, #1
 80022d6:	f002 f9dd 	bl	8004694 <HAL_SPI_Transmit>

	HAL_GPIO_WritePin(GPIOB, GPIO_PIN_6, GPIO_PIN_SET); // SEN Assert
 80022da:	4b9e      	ldr	r3, [pc, #632]	; (8002554 <Initialize_Microwave_Generator+0x514>)
 80022dc:	2201      	movs	r2, #1
 80022de:	2140      	movs	r1, #64	; 0x40
 80022e0:	0018      	movs	r0, r3
 80022e2:	f001 f9b9 	bl	8003658 <HAL_GPIO_WritePin>

	HAL_Delay(50);
 80022e6:	2032      	movs	r0, #50	; 0x32
 80022e8:	f000 fbc8 	bl	8002a7c <HAL_Delay>

	// REG 5 4B38

	// Reg07 = 010010110 = o/p -6dB.  For maximum o/p power program 4DB8h.

	HAL_GPIO_WritePin(GPIOB, GPIO_PIN_6, GPIO_PIN_RESET); // SEN Deassert
 80022ec:	4b99      	ldr	r3, [pc, #612]	; (8002554 <Initialize_Microwave_Generator+0x514>)
 80022ee:	2200      	movs	r2, #0
 80022f0:	2140      	movs	r1, #64	; 0x40
 80022f2:	0018      	movs	r0, r3
 80022f4:	f001 f9b0 	bl	8003658 <HAL_GPIO_WritePin>

	HAL_SPI_Transmit(&hspi1, (uint8_t *) &VarZero, 1, 100);
 80022f8:	1939      	adds	r1, r7, r4
 80022fa:	4897      	ldr	r0, [pc, #604]	; (8002558 <Initialize_Microwave_Generator+0x518>)
 80022fc:	2364      	movs	r3, #100	; 0x64
 80022fe:	2201      	movs	r2, #1
 8002300:	f002 f9c8 	bl	8004694 <HAL_SPI_Transmit>

	HAL_SPI_Transmit(&hspi1, (uint8_t *) &VarOneZero, 1, 100);
 8002304:	201d      	movs	r0, #29
 8002306:	1839      	adds	r1, r7, r0
 8002308:	4893      	ldr	r0, [pc, #588]	; (8002558 <Initialize_Microwave_Generator+0x518>)
 800230a:	2364      	movs	r3, #100	; 0x64
 800230c:	2201      	movs	r2, #1
 800230e:	f002 f9c1 	bl	8004694 <HAL_SPI_Transmit>

	HAL_SPI_Transmit(&hspi1, (uint8_t *) &VarOneOne, 1, 100);
 8002312:	211c      	movs	r1, #28
 8002314:	1879      	adds	r1, r7, r1
 8002316:	4890      	ldr	r0, [pc, #576]	; (8002558 <Initialize_Microwave_Generator+0x518>)
 8002318:	2364      	movs	r3, #100	; 0x64
 800231a:	2201      	movs	r2, #1
 800231c:	f002 f9ba 	bl	8004694 <HAL_SPI_Transmit>

	HAL_SPI_Transmit(&hspi1, (uint8_t *) &VarSeven, 1, 100);
 8002320:	1979      	adds	r1, r7, r5
 8002322:	488d      	ldr	r0, [pc, #564]	; (8002558 <Initialize_Microwave_Generator+0x518>)
 8002324:	2364      	movs	r3, #100	; 0x64
 8002326:	2201      	movs	r2, #1
 8002328:	f002 f9b4 	bl	8004694 <HAL_SPI_Transmit>

	HAL_GPIO_WritePin(GPIOB, GPIO_PIN_6, GPIO_PIN_SET); // SEN Assert
 800232c:	4b89      	ldr	r3, [pc, #548]	; (8002554 <Initialize_Microwave_Generator+0x514>)
 800232e:	2201      	movs	r2, #1
 8002330:	2140      	movs	r1, #64	; 0x40
 8002332:	0018      	movs	r0, r3
 8002334:	f001 f990 	bl	8003658 <HAL_GPIO_WritePin>

	HAL_Delay(50);
 8002338:	2032      	movs	r0, #50	; 0x32
 800233a:	f000 fb9f 	bl	8002a7c <HAL_Delay>

	// REG 5 0

	// Close out VCO register programming by writing Reg 5 = 0.

	HAL_GPIO_WritePin(GPIOB, GPIO_PIN_6, GPIO_PIN_RESET); // SEN Deassert
 800233e:	4b85      	ldr	r3, [pc, #532]	; (8002554 <Initialize_Microwave_Generator+0x514>)
 8002340:	2200      	movs	r2, #0
 8002342:	2140      	movs	r1, #64	; 0x40
 8002344:	0018      	movs	r0, r3
 8002346:	f001 f987 	bl	8003658 <HAL_GPIO_WritePin>

	HAL_SPI_Transmit(&hspi1, (uint8_t *) &VarZero, 1, 100);
 800234a:	1939      	adds	r1, r7, r4
 800234c:	4882      	ldr	r0, [pc, #520]	; (8002558 <Initialize_Microwave_Generator+0x518>)
 800234e:	2364      	movs	r3, #100	; 0x64
 8002350:	2201      	movs	r2, #1
 8002352:	f002 f99f 	bl	8004694 <HAL_SPI_Transmit>

	HAL_SPI_Transmit(&hspi1, (uint8_t *) &VarZero, 1, 100);
 8002356:	1939      	adds	r1, r7, r4
 8002358:	487f      	ldr	r0, [pc, #508]	; (8002558 <Initialize_Microwave_Generator+0x518>)
 800235a:	2364      	movs	r3, #100	; 0x64
 800235c:	2201      	movs	r2, #1
 800235e:	f002 f999 	bl	8004694 <HAL_SPI_Transmit>

	HAL_SPI_Transmit(&hspi1, (uint8_t *) &VarZero, 1, 100);
 8002362:	1939      	adds	r1, r7, r4
 8002364:	487c      	ldr	r0, [pc, #496]	; (8002558 <Initialize_Microwave_Generator+0x518>)
 8002366:	2364      	movs	r3, #100	; 0x64
 8002368:	2201      	movs	r2, #1
 800236a:	f002 f993 	bl	8004694 <HAL_SPI_Transmit>

	HAL_SPI_Transmit(&hspi1, (uint8_t *) &VarSeven, 1, 100);
 800236e:	1979      	adds	r1, r7, r5
 8002370:	4879      	ldr	r0, [pc, #484]	; (8002558 <Initialize_Microwave_Generator+0x518>)
 8002372:	2364      	movs	r3, #100	; 0x64
 8002374:	2201      	movs	r2, #1
 8002376:	f002 f98d 	bl	8004694 <HAL_SPI_Transmit>

	HAL_GPIO_WritePin(GPIOB, GPIO_PIN_6, GPIO_PIN_SET); // SEN Assert
 800237a:	4b76      	ldr	r3, [pc, #472]	; (8002554 <Initialize_Microwave_Generator+0x514>)
 800237c:	2201      	movs	r2, #1
 800237e:	2140      	movs	r1, #64	; 0x40
 8002380:	0018      	movs	r0, r3
 8002382:	f001 f969 	bl	8003658 <HAL_GPIO_WritePin>

	HAL_Delay(50);
 8002386:	2032      	movs	r0, #50	; 0x32
 8002388:	f000 fb78 	bl	8002a7c <HAL_Delay>

	// REG 6 F4A

	// Delta-Sigma Modulator Configuration Register. Program this value for Frac Mode.

	HAL_GPIO_WritePin(GPIOB, GPIO_PIN_6, GPIO_PIN_RESET); // SEN Deassert
 800238c:	4b71      	ldr	r3, [pc, #452]	; (8002554 <Initialize_Microwave_Generator+0x514>)
 800238e:	2200      	movs	r2, #0
 8002390:	2140      	movs	r1, #64	; 0x40
 8002392:	0018      	movs	r0, r3
 8002394:	f001 f960 	bl	8003658 <HAL_GPIO_WritePin>

	HAL_SPI_Transmit(&hspi1, (uint8_t *) &VarZero, 1, 100);
 8002398:	1939      	adds	r1, r7, r4
 800239a:	486f      	ldr	r0, [pc, #444]	; (8002558 <Initialize_Microwave_Generator+0x518>)
 800239c:	2364      	movs	r3, #100	; 0x64
 800239e:	2201      	movs	r2, #1
 80023a0:	f002 f978 	bl	8004694 <HAL_SPI_Transmit>

	HAL_SPI_Transmit(&hspi1, (uint8_t *) &VarEight, 1, 100);
 80023a4:	221f      	movs	r2, #31
 80023a6:	18b9      	adds	r1, r7, r2
 80023a8:	486b      	ldr	r0, [pc, #428]	; (8002558 <Initialize_Microwave_Generator+0x518>)
 80023aa:	2364      	movs	r3, #100	; 0x64
 80023ac:	2201      	movs	r2, #1
 80023ae:	f002 f971 	bl	8004694 <HAL_SPI_Transmit>

	HAL_SPI_Transmit(&hspi1, (uint8_t *) &VarOneTwo, 1, 100);
 80023b2:	221b      	movs	r2, #27
 80023b4:	18b9      	adds	r1, r7, r2
 80023b6:	4868      	ldr	r0, [pc, #416]	; (8002558 <Initialize_Microwave_Generator+0x518>)
 80023b8:	2364      	movs	r3, #100	; 0x64
 80023ba:	2201      	movs	r2, #1
 80023bc:	f002 f96a 	bl	8004694 <HAL_SPI_Transmit>

	HAL_SPI_Transmit(&hspi1, (uint8_t *) &VarOneThree, 1, 100);
 80023c0:	221a      	movs	r2, #26
 80023c2:	18b9      	adds	r1, r7, r2
 80023c4:	4864      	ldr	r0, [pc, #400]	; (8002558 <Initialize_Microwave_Generator+0x518>)
 80023c6:	2364      	movs	r3, #100	; 0x64
 80023c8:	2201      	movs	r2, #1
 80023ca:	f002 f963 	bl	8004694 <HAL_SPI_Transmit>

	HAL_GPIO_WritePin(GPIOB, GPIO_PIN_6, GPIO_PIN_SET); // SEN Assert
 80023ce:	4b61      	ldr	r3, [pc, #388]	; (8002554 <Initialize_Microwave_Generator+0x514>)
 80023d0:	2201      	movs	r2, #1
 80023d2:	2140      	movs	r1, #64	; 0x40
 80023d4:	0018      	movs	r0, r3
 80023d6:	f001 f93f 	bl	8003658 <HAL_GPIO_WritePin>

	HAL_Delay(50);
 80023da:	2032      	movs	r0, #50	; 0x32
 80023dc:	f000 fb4e 	bl	8002a7c <HAL_Delay>

	// REG 7 14D

	// 14Dh is the default value for LD programming (correct for 50MHz comparison). For different configurations, especially higher PFD rates, this may need to change.

	HAL_GPIO_WritePin(GPIOB, GPIO_PIN_6, GPIO_PIN_RESET); // SEN Deassert
 80023e0:	4b5c      	ldr	r3, [pc, #368]	; (8002554 <Initialize_Microwave_Generator+0x514>)
 80023e2:	2200      	movs	r2, #0
 80023e4:	2140      	movs	r1, #64	; 0x40
 80023e6:	0018      	movs	r0, r3
 80023e8:	f001 f936 	bl	8003658 <HAL_GPIO_WritePin>

	HAL_SPI_Transmit(&hspi1, (uint8_t *) &VarZero, 1, 100);
 80023ec:	1939      	adds	r1, r7, r4
 80023ee:	485a      	ldr	r0, [pc, #360]	; (8002558 <Initialize_Microwave_Generator+0x518>)
 80023f0:	2364      	movs	r3, #100	; 0x64
 80023f2:	2201      	movs	r2, #1
 80023f4:	f002 f94e 	bl	8004694 <HAL_SPI_Transmit>

	HAL_SPI_Transmit(&hspi1, (uint8_t *) &VarFour, 1, 100);
 80023f8:	2323      	movs	r3, #35	; 0x23
 80023fa:	18f9      	adds	r1, r7, r3
 80023fc:	4856      	ldr	r0, [pc, #344]	; (8002558 <Initialize_Microwave_Generator+0x518>)
 80023fe:	2364      	movs	r3, #100	; 0x64
 8002400:	2201      	movs	r2, #1
 8002402:	f002 f947 	bl	8004694 <HAL_SPI_Transmit>

	HAL_SPI_Transmit(&hspi1, (uint8_t *) &VarOneFour, 1, 100);
 8002406:	2319      	movs	r3, #25
 8002408:	18f9      	adds	r1, r7, r3
 800240a:	4853      	ldr	r0, [pc, #332]	; (8002558 <Initialize_Microwave_Generator+0x518>)
 800240c:	2364      	movs	r3, #100	; 0x64
 800240e:	2201      	movs	r2, #1
 8002410:	f002 f940 	bl	8004694 <HAL_SPI_Transmit>

	HAL_SPI_Transmit(&hspi1, (uint8_t *) &VarOneOne, 1, 100);
 8002414:	211c      	movs	r1, #28
 8002416:	1879      	adds	r1, r7, r1
 8002418:	484f      	ldr	r0, [pc, #316]	; (8002558 <Initialize_Microwave_Generator+0x518>)
 800241a:	2364      	movs	r3, #100	; 0x64
 800241c:	2201      	movs	r2, #1
 800241e:	f002 f939 	bl	8004694 <HAL_SPI_Transmit>

	HAL_GPIO_WritePin(GPIOB, GPIO_PIN_6, GPIO_PIN_SET); // SEN Assert
 8002422:	4b4c      	ldr	r3, [pc, #304]	; (8002554 <Initialize_Microwave_Generator+0x514>)
 8002424:	2201      	movs	r2, #1
 8002426:	2140      	movs	r1, #64	; 0x40
 8002428:	0018      	movs	r0, r3
 800242a:	f001 f915 	bl	8003658 <HAL_GPIO_WritePin>

	HAL_Delay(50);
 800242e:	2032      	movs	r0, #50	; 0x32
 8002430:	f000 fb24 	bl	8002a7c <HAL_Delay>

	// REG 8 C1BEFF

	// Default value = C1BEFFh.  No need to program.

	HAL_GPIO_WritePin(GPIOB, GPIO_PIN_6, GPIO_PIN_RESET); // SEN Deassert
 8002434:	4b47      	ldr	r3, [pc, #284]	; (8002554 <Initialize_Microwave_Generator+0x514>)
 8002436:	2200      	movs	r2, #0
 8002438:	2140      	movs	r1, #64	; 0x40
 800243a:	0018      	movs	r0, r3
 800243c:	f001 f90c 	bl	8003658 <HAL_GPIO_WritePin>

	HAL_SPI_Transmit(&hspi1, (uint8_t *) &VarOneFive, 1, 100);
 8002440:	2218      	movs	r2, #24
 8002442:	18b9      	adds	r1, r7, r2
 8002444:	4844      	ldr	r0, [pc, #272]	; (8002558 <Initialize_Microwave_Generator+0x518>)
 8002446:	2364      	movs	r3, #100	; 0x64
 8002448:	2201      	movs	r2, #1
 800244a:	f002 f923 	bl	8004694 <HAL_SPI_Transmit>

	HAL_SPI_Transmit(&hspi1, (uint8_t *) &VarOneSix, 1, 100);
 800244e:	2117      	movs	r1, #23
 8002450:	1879      	adds	r1, r7, r1
 8002452:	4841      	ldr	r0, [pc, #260]	; (8002558 <Initialize_Microwave_Generator+0x518>)
 8002454:	2364      	movs	r3, #100	; 0x64
 8002456:	2201      	movs	r2, #1
 8002458:	f002 f91c 	bl	8004694 <HAL_SPI_Transmit>

	HAL_SPI_Transmit(&hspi1, (uint8_t *) &VarOneSeven, 1, 100);
 800245c:	2016      	movs	r0, #22
 800245e:	1839      	adds	r1, r7, r0
 8002460:	483d      	ldr	r0, [pc, #244]	; (8002558 <Initialize_Microwave_Generator+0x518>)
 8002462:	2364      	movs	r3, #100	; 0x64
 8002464:	2201      	movs	r2, #1
 8002466:	f002 f915 	bl	8004694 <HAL_SPI_Transmit>

	HAL_SPI_Transmit(&hspi1, (uint8_t *) &VarOneEight, 1, 100);
 800246a:	2315      	movs	r3, #21
 800246c:	18f9      	adds	r1, r7, r3
 800246e:	483a      	ldr	r0, [pc, #232]	; (8002558 <Initialize_Microwave_Generator+0x518>)
 8002470:	2364      	movs	r3, #100	; 0x64
 8002472:	2201      	movs	r2, #1
 8002474:	f002 f90e 	bl	8004694 <HAL_SPI_Transmit>

	HAL_GPIO_WritePin(GPIOB, GPIO_PIN_6, GPIO_PIN_SET); // SEN Assert
 8002478:	4b36      	ldr	r3, [pc, #216]	; (8002554 <Initialize_Microwave_Generator+0x514>)
 800247a:	2201      	movs	r2, #1
 800247c:	2140      	movs	r1, #64	; 0x40
 800247e:	0018      	movs	r0, r3
 8002480:	f001 f8ea 	bl	8003658 <HAL_GPIO_WritePin>

	HAL_Delay(50);
 8002484:	2032      	movs	r0, #50	; 0x32
 8002486:	f000 faf9 	bl	8002a7c <HAL_Delay>

	// REG 9 3FFEFD

	// CP Register-Program as needed. 3FFEFDh = 2.54mA CP current with 635uA Up CP Offset current.

	HAL_GPIO_WritePin(GPIOB, GPIO_PIN_6, GPIO_PIN_RESET); // SEN Deassert
 800248a:	4b32      	ldr	r3, [pc, #200]	; (8002554 <Initialize_Microwave_Generator+0x514>)
 800248c:	2200      	movs	r2, #0
 800248e:	2140      	movs	r1, #64	; 0x40
 8002490:	0018      	movs	r0, r3
 8002492:	f001 f8e1 	bl	8003658 <HAL_GPIO_WritePin>

	HAL_SPI_Transmit(&hspi1, (uint8_t *) &VarOneNine, 1, 100);
 8002496:	2214      	movs	r2, #20
 8002498:	18b9      	adds	r1, r7, r2
 800249a:	482f      	ldr	r0, [pc, #188]	; (8002558 <Initialize_Microwave_Generator+0x518>)
 800249c:	2364      	movs	r3, #100	; 0x64
 800249e:	2201      	movs	r2, #1
 80024a0:	f002 f8f8 	bl	8004694 <HAL_SPI_Transmit>

	HAL_SPI_Transmit(&hspi1, (uint8_t *) &VarTwoZero, 1, 100);
 80024a4:	2113      	movs	r1, #19
 80024a6:	1879      	adds	r1, r7, r1
 80024a8:	482b      	ldr	r0, [pc, #172]	; (8002558 <Initialize_Microwave_Generator+0x518>)
 80024aa:	2364      	movs	r3, #100	; 0x64
 80024ac:	2201      	movs	r2, #1
 80024ae:	f002 f8f1 	bl	8004694 <HAL_SPI_Transmit>

	HAL_SPI_Transmit(&hspi1, (uint8_t *) &VarTwoOne, 1, 100);
 80024b2:	2012      	movs	r0, #18
 80024b4:	1839      	adds	r1, r7, r0
 80024b6:	4828      	ldr	r0, [pc, #160]	; (8002558 <Initialize_Microwave_Generator+0x518>)
 80024b8:	2364      	movs	r3, #100	; 0x64
 80024ba:	2201      	movs	r2, #1
 80024bc:	f002 f8ea 	bl	8004694 <HAL_SPI_Transmit>

	HAL_SPI_Transmit(&hspi1, (uint8_t *) &VarTwoTwo, 1, 100);
 80024c0:	2311      	movs	r3, #17
 80024c2:	18f9      	adds	r1, r7, r3
 80024c4:	4824      	ldr	r0, [pc, #144]	; (8002558 <Initialize_Microwave_Generator+0x518>)
 80024c6:	2364      	movs	r3, #100	; 0x64
 80024c8:	2201      	movs	r2, #1
 80024ca:	f002 f8e3 	bl	8004694 <HAL_SPI_Transmit>

	HAL_GPIO_WritePin(GPIOB, GPIO_PIN_6, GPIO_PIN_SET); // SEN Assert
 80024ce:	4b21      	ldr	r3, [pc, #132]	; (8002554 <Initialize_Microwave_Generator+0x514>)
 80024d0:	2201      	movs	r2, #1
 80024d2:	2140      	movs	r1, #64	; 0x40
 80024d4:	0018      	movs	r0, r3
 80024d6:	f001 f8bf 	bl	8003658 <HAL_GPIO_WritePin>

	HAL_Delay(50);
 80024da:	2032      	movs	r0, #50	; 0x32
 80024dc:	f000 face 	bl	8002a7c <HAL_Delay>

	// REG A 2046

	// VCO Tuning Configuration Register-Program this value.

	HAL_GPIO_WritePin(GPIOB, GPIO_PIN_6, GPIO_PIN_RESET); // SEN Deassert
 80024e0:	4b1c      	ldr	r3, [pc, #112]	; (8002554 <Initialize_Microwave_Generator+0x514>)
 80024e2:	2200      	movs	r2, #0
 80024e4:	2140      	movs	r1, #64	; 0x40
 80024e6:	0018      	movs	r0, r3
 80024e8:	f001 f8b6 	bl	8003658 <HAL_GPIO_WritePin>

	HAL_SPI_Transmit(&hspi1, (uint8_t *) &VarZero, 1, 100);
 80024ec:	1939      	adds	r1, r7, r4
 80024ee:	481a      	ldr	r0, [pc, #104]	; (8002558 <Initialize_Microwave_Generator+0x518>)
 80024f0:	2364      	movs	r3, #100	; 0x64
 80024f2:	2201      	movs	r2, #1
 80024f4:	f002 f8ce 	bl	8004694 <HAL_SPI_Transmit>

	HAL_SPI_Transmit(&hspi1, (uint8_t *) &VarOne, 1, 100);
 80024f8:	19b9      	adds	r1, r7, r6
 80024fa:	4817      	ldr	r0, [pc, #92]	; (8002558 <Initialize_Microwave_Generator+0x518>)
 80024fc:	2364      	movs	r3, #100	; 0x64
 80024fe:	2201      	movs	r2, #1
 8002500:	f002 f8c8 	bl	8004694 <HAL_SPI_Transmit>

	HAL_SPI_Transmit(&hspi1, (uint8_t *) &VarTwoThree, 1, 100);
 8002504:	2210      	movs	r2, #16
 8002506:	18b9      	adds	r1, r7, r2
 8002508:	4813      	ldr	r0, [pc, #76]	; (8002558 <Initialize_Microwave_Generator+0x518>)
 800250a:	2364      	movs	r3, #100	; 0x64
 800250c:	2201      	movs	r2, #1
 800250e:	f002 f8c1 	bl	8004694 <HAL_SPI_Transmit>

	HAL_SPI_Transmit(&hspi1, (uint8_t *) &VarTwoFour, 1, 100);
 8002512:	210f      	movs	r1, #15
 8002514:	1879      	adds	r1, r7, r1
 8002516:	4810      	ldr	r0, [pc, #64]	; (8002558 <Initialize_Microwave_Generator+0x518>)
 8002518:	2364      	movs	r3, #100	; 0x64
 800251a:	2201      	movs	r2, #1
 800251c:	f002 f8ba 	bl	8004694 <HAL_SPI_Transmit>

	HAL_GPIO_WritePin(GPIOB, GPIO_PIN_6, GPIO_PIN_SET); // SEN Assert
 8002520:	4b0c      	ldr	r3, [pc, #48]	; (8002554 <Initialize_Microwave_Generator+0x514>)
 8002522:	2201      	movs	r2, #1
 8002524:	2140      	movs	r1, #64	; 0x40
 8002526:	0018      	movs	r0, r3
 8002528:	f001 f896 	bl	8003658 <HAL_GPIO_WritePin>

	HAL_Delay(50);
 800252c:	2032      	movs	r0, #50	; 0x32
 800252e:	f000 faa5 	bl	8002a7c <HAL_Delay>

	// REG B 4F8061

	// PFD/CP Control Register.  Default value = F8061h.  4F8061h sets LD/SDO output level to 3.3V from 1.8V default (bit[22]=1 sets 3.3V output level).

	HAL_GPIO_WritePin(GPIOB, GPIO_PIN_6, GPIO_PIN_RESET); // SEN Deassert
 8002532:	4b08      	ldr	r3, [pc, #32]	; (8002554 <Initialize_Microwave_Generator+0x514>)
 8002534:	2200      	movs	r2, #0
 8002536:	2140      	movs	r1, #64	; 0x40
 8002538:	0018      	movs	r0, r3
 800253a:	f001 f88d 	bl	8003658 <HAL_GPIO_WritePin>

	HAL_SPI_Transmit(&hspi1, (uint8_t *) &VarTwoFive, 1, 100);
 800253e:	200e      	movs	r0, #14
 8002540:	1839      	adds	r1, r7, r0
 8002542:	4805      	ldr	r0, [pc, #20]	; (8002558 <Initialize_Microwave_Generator+0x518>)
 8002544:	2364      	movs	r3, #100	; 0x64
 8002546:	2201      	movs	r2, #1
 8002548:	f002 f8a4 	bl	8004694 <HAL_SPI_Transmit>

	HAL_SPI_Transmit(&hspi1, (uint8_t *) &VarTwoSix, 1, 100);
 800254c:	230d      	movs	r3, #13
 800254e:	18f9      	adds	r1, r7, r3
 8002550:	e004      	b.n	800255c <Initialize_Microwave_Generator+0x51c>
 8002552:	46c0      	nop			; (mov r8, r8)
 8002554:	50000400 	.word	0x50000400
 8002558:	200000e8 	.word	0x200000e8
 800255c:	485f      	ldr	r0, [pc, #380]	; (80026dc <Initialize_Microwave_Generator+0x69c>)
 800255e:	2364      	movs	r3, #100	; 0x64
 8002560:	2201      	movs	r2, #1
 8002562:	f002 f897 	bl	8004694 <HAL_SPI_Transmit>

	HAL_SPI_Transmit(&hspi1, (uint8_t *) &VarTwoSeven, 1, 100);
 8002566:	220c      	movs	r2, #12
 8002568:	18b9      	adds	r1, r7, r2
 800256a:	485c      	ldr	r0, [pc, #368]	; (80026dc <Initialize_Microwave_Generator+0x69c>)
 800256c:	2364      	movs	r3, #100	; 0x64
 800256e:	2201      	movs	r2, #1
 8002570:	f002 f890 	bl	8004694 <HAL_SPI_Transmit>

	HAL_SPI_Transmit(&hspi1, (uint8_t *) &VarTwoEight, 1, 100);
 8002574:	210b      	movs	r1, #11
 8002576:	1879      	adds	r1, r7, r1
 8002578:	4858      	ldr	r0, [pc, #352]	; (80026dc <Initialize_Microwave_Generator+0x69c>)
 800257a:	2364      	movs	r3, #100	; 0x64
 800257c:	2201      	movs	r2, #1
 800257e:	f002 f889 	bl	8004694 <HAL_SPI_Transmit>

	HAL_GPIO_WritePin(GPIOB, GPIO_PIN_6, GPIO_PIN_SET); // SEN Assert
 8002582:	4b57      	ldr	r3, [pc, #348]	; (80026e0 <Initialize_Microwave_Generator+0x6a0>)
 8002584:	2201      	movs	r2, #1
 8002586:	2140      	movs	r1, #64	; 0x40
 8002588:	0018      	movs	r0, r3
 800258a:	f001 f865 	bl	8003658 <HAL_GPIO_WritePin>

	HAL_Delay(50);
 800258e:	2032      	movs	r0, #50	; 0x32
 8002590:	f000 fa74 	bl	8002a7c <HAL_Delay>

	// REG C 0

	// Exact Frequency register.  Default value =0h.  No need to program if not using Exact Frequency Mode.

	HAL_GPIO_WritePin(GPIOB, GPIO_PIN_6, GPIO_PIN_RESET); // SEN Deassert
 8002594:	4b52      	ldr	r3, [pc, #328]	; (80026e0 <Initialize_Microwave_Generator+0x6a0>)
 8002596:	2200      	movs	r2, #0
 8002598:	2140      	movs	r1, #64	; 0x40
 800259a:	0018      	movs	r0, r3
 800259c:	f001 f85c 	bl	8003658 <HAL_GPIO_WritePin>

	HAL_SPI_Transmit(&hspi1, (uint8_t *) &VarZero, 1, 100);
 80025a0:	1939      	adds	r1, r7, r4
 80025a2:	484e      	ldr	r0, [pc, #312]	; (80026dc <Initialize_Microwave_Generator+0x69c>)
 80025a4:	2364      	movs	r3, #100	; 0x64
 80025a6:	2201      	movs	r2, #1
 80025a8:	f002 f874 	bl	8004694 <HAL_SPI_Transmit>

	HAL_SPI_Transmit(&hspi1, (uint8_t *) &VarZero, 1, 100);
 80025ac:	1939      	adds	r1, r7, r4
 80025ae:	484b      	ldr	r0, [pc, #300]	; (80026dc <Initialize_Microwave_Generator+0x69c>)
 80025b0:	2364      	movs	r3, #100	; 0x64
 80025b2:	2201      	movs	r2, #1
 80025b4:	f002 f86e 	bl	8004694 <HAL_SPI_Transmit>

	HAL_SPI_Transmit(&hspi1, (uint8_t *) &VarZero, 1, 100);
 80025b8:	1939      	adds	r1, r7, r4
 80025ba:	4848      	ldr	r0, [pc, #288]	; (80026dc <Initialize_Microwave_Generator+0x69c>)
 80025bc:	2364      	movs	r3, #100	; 0x64
 80025be:	2201      	movs	r2, #1
 80025c0:	f002 f868 	bl	8004694 <HAL_SPI_Transmit>

	HAL_SPI_Transmit(&hspi1, (uint8_t *) &VarTwoNine, 1, 100);
 80025c4:	200a      	movs	r0, #10
 80025c6:	1839      	adds	r1, r7, r0
 80025c8:	4844      	ldr	r0, [pc, #272]	; (80026dc <Initialize_Microwave_Generator+0x69c>)
 80025ca:	2364      	movs	r3, #100	; 0x64
 80025cc:	2201      	movs	r2, #1
 80025ce:	f002 f861 	bl	8004694 <HAL_SPI_Transmit>

	HAL_GPIO_WritePin(GPIOB, GPIO_PIN_6, GPIO_PIN_SET); // SEN Assert
 80025d2:	4b43      	ldr	r3, [pc, #268]	; (80026e0 <Initialize_Microwave_Generator+0x6a0>)
 80025d4:	2201      	movs	r2, #1
 80025d6:	2140      	movs	r1, #64	; 0x40
 80025d8:	0018      	movs	r0, r3
 80025da:	f001 f83d 	bl	8003658 <HAL_GPIO_WritePin>

	HAL_Delay(50);
 80025de:	2032      	movs	r0, #50	; 0x32
 80025e0:	f000 fa4c 	bl	8002a7c <HAL_Delay>

	// REG F 81

	// Default vaue =1. 81h configures LD/SDO pin to output LD status always, except during SPI reads when the pin is automatically mux'ed to output the serial data.

	HAL_GPIO_WritePin(GPIOB, GPIO_PIN_6, GPIO_PIN_RESET); // SEN Deassert
 80025e4:	4b3e      	ldr	r3, [pc, #248]	; (80026e0 <Initialize_Microwave_Generator+0x6a0>)
 80025e6:	2200      	movs	r2, #0
 80025e8:	2140      	movs	r1, #64	; 0x40
 80025ea:	0018      	movs	r0, r3
 80025ec:	f001 f834 	bl	8003658 <HAL_GPIO_WritePin>

	HAL_SPI_Transmit(&hspi1, (uint8_t *) &VarZero, 1, 100);
 80025f0:	1939      	adds	r1, r7, r4
 80025f2:	483a      	ldr	r0, [pc, #232]	; (80026dc <Initialize_Microwave_Generator+0x69c>)
 80025f4:	2364      	movs	r3, #100	; 0x64
 80025f6:	2201      	movs	r2, #1
 80025f8:	f002 f84c 	bl	8004694 <HAL_SPI_Transmit>

	HAL_SPI_Transmit(&hspi1, (uint8_t *) &VarZero, 1, 100);
 80025fc:	1939      	adds	r1, r7, r4
 80025fe:	4837      	ldr	r0, [pc, #220]	; (80026dc <Initialize_Microwave_Generator+0x69c>)
 8002600:	2364      	movs	r3, #100	; 0x64
 8002602:	2201      	movs	r2, #1
 8002604:	f002 f846 	bl	8004694 <HAL_SPI_Transmit>

	HAL_SPI_Transmit(&hspi1, (uint8_t *) &VarThreeZero, 1, 100);
 8002608:	2309      	movs	r3, #9
 800260a:	18f9      	adds	r1, r7, r3
 800260c:	4833      	ldr	r0, [pc, #204]	; (80026dc <Initialize_Microwave_Generator+0x69c>)
 800260e:	2364      	movs	r3, #100	; 0x64
 8002610:	2201      	movs	r2, #1
 8002612:	f002 f83f 	bl	8004694 <HAL_SPI_Transmit>

	HAL_SPI_Transmit(&hspi1, (uint8_t *) &VarThreeOne, 1, 100);
 8002616:	2208      	movs	r2, #8
 8002618:	18b9      	adds	r1, r7, r2
 800261a:	4830      	ldr	r0, [pc, #192]	; (80026dc <Initialize_Microwave_Generator+0x69c>)
 800261c:	2364      	movs	r3, #100	; 0x64
 800261e:	2201      	movs	r2, #1
 8002620:	f002 f838 	bl	8004694 <HAL_SPI_Transmit>

	HAL_GPIO_WritePin(GPIOB, GPIO_PIN_6, GPIO_PIN_SET); // SEN Assert
 8002624:	4b2e      	ldr	r3, [pc, #184]	; (80026e0 <Initialize_Microwave_Generator+0x6a0>)
 8002626:	2201      	movs	r2, #1
 8002628:	2140      	movs	r1, #64	; 0x40
 800262a:	0018      	movs	r0, r3
 800262c:	f001 f814 	bl	8003658 <HAL_GPIO_WritePin>

	HAL_Delay(50);
 8002630:	2032      	movs	r0, #50	; 0x32
 8002632:	f000 fa23 	bl	8002a7c <HAL_Delay>

	// REG 3 2A

	// Integer VCO Divider Register-Progarm as needed to set frequency.

	HAL_GPIO_WritePin(GPIOB, GPIO_PIN_6, GPIO_PIN_RESET); // SEN Deassert
 8002636:	4b2a      	ldr	r3, [pc, #168]	; (80026e0 <Initialize_Microwave_Generator+0x6a0>)
 8002638:	2200      	movs	r2, #0
 800263a:	2140      	movs	r1, #64	; 0x40
 800263c:	0018      	movs	r0, r3
 800263e:	f001 f80b 	bl	8003658 <HAL_GPIO_WritePin>

	HAL_SPI_Transmit(&hspi1, (uint8_t *) &VarZero, 1, 100);
 8002642:	1939      	adds	r1, r7, r4
 8002644:	4825      	ldr	r0, [pc, #148]	; (80026dc <Initialize_Microwave_Generator+0x69c>)
 8002646:	2364      	movs	r3, #100	; 0x64
 8002648:	2201      	movs	r2, #1
 800264a:	f002 f823 	bl	8004694 <HAL_SPI_Transmit>

	HAL_SPI_Transmit(&hspi1, (uint8_t *) &VarZero, 1, 100);
 800264e:	1939      	adds	r1, r7, r4
 8002650:	4822      	ldr	r0, [pc, #136]	; (80026dc <Initialize_Microwave_Generator+0x69c>)
 8002652:	2364      	movs	r3, #100	; 0x64
 8002654:	2201      	movs	r2, #1
 8002656:	f002 f81d 	bl	8004694 <HAL_SPI_Transmit>

	HAL_SPI_Transmit(&hspi1, (uint8_t *) &VarThreeTwo, 1, 100);
 800265a:	1df9      	adds	r1, r7, #7
 800265c:	481f      	ldr	r0, [pc, #124]	; (80026dc <Initialize_Microwave_Generator+0x69c>)
 800265e:	2364      	movs	r3, #100	; 0x64
 8002660:	2201      	movs	r2, #1
 8002662:	f002 f817 	bl	8004694 <HAL_SPI_Transmit>

	HAL_SPI_Transmit(&hspi1, (uint8_t *) &VarThreeThree, 1, 100);
 8002666:	1db9      	adds	r1, r7, #6
 8002668:	481c      	ldr	r0, [pc, #112]	; (80026dc <Initialize_Microwave_Generator+0x69c>)
 800266a:	2364      	movs	r3, #100	; 0x64
 800266c:	2201      	movs	r2, #1
 800266e:	f002 f811 	bl	8004694 <HAL_SPI_Transmit>

	HAL_GPIO_WritePin(GPIOB, GPIO_PIN_6, GPIO_PIN_SET); // SEN Assert
 8002672:	4b1b      	ldr	r3, [pc, #108]	; (80026e0 <Initialize_Microwave_Generator+0x6a0>)
 8002674:	2201      	movs	r2, #1
 8002676:	2140      	movs	r1, #64	; 0x40
 8002678:	0018      	movs	r0, r3
 800267a:	f000 ffed 	bl	8003658 <HAL_GPIO_WritePin>

	HAL_Delay(50);
 800267e:	2032      	movs	r0, #50	; 0x32
 8002680:	f000 f9fc 	bl	8002a7c <HAL_Delay>

	// REG 4 666666

	// Fractional VCO Divider Register-Program as needed to set frequency. When this register is written, a VCO auto-cal is initiated.

	HAL_GPIO_WritePin(GPIOB, GPIO_PIN_6, GPIO_PIN_RESET); // SEN Deassert
 8002684:	4b16      	ldr	r3, [pc, #88]	; (80026e0 <Initialize_Microwave_Generator+0x6a0>)
 8002686:	2200      	movs	r2, #0
 8002688:	2140      	movs	r1, #64	; 0x40
 800268a:	0018      	movs	r0, r3
 800268c:	f000 ffe4 	bl	8003658 <HAL_GPIO_WritePin>

	HAL_SPI_Transmit(&hspi1, (uint8_t *) &VarThreeFour, 1, 100);
 8002690:	1d79      	adds	r1, r7, #5
 8002692:	4812      	ldr	r0, [pc, #72]	; (80026dc <Initialize_Microwave_Generator+0x69c>)
 8002694:	2364      	movs	r3, #100	; 0x64
 8002696:	2201      	movs	r2, #1
 8002698:	f001 fffc 	bl	8004694 <HAL_SPI_Transmit>

	HAL_SPI_Transmit(&hspi1, (uint8_t *) &VarThreeFour, 1, 100);
 800269c:	1d79      	adds	r1, r7, #5
 800269e:	480f      	ldr	r0, [pc, #60]	; (80026dc <Initialize_Microwave_Generator+0x69c>)
 80026a0:	2364      	movs	r3, #100	; 0x64
 80026a2:	2201      	movs	r2, #1
 80026a4:	f001 fff6 	bl	8004694 <HAL_SPI_Transmit>

	HAL_SPI_Transmit(&hspi1, (uint8_t *) &VarThreeFour, 1, 100);
 80026a8:	1d79      	adds	r1, r7, #5
 80026aa:	480c      	ldr	r0, [pc, #48]	; (80026dc <Initialize_Microwave_Generator+0x69c>)
 80026ac:	2364      	movs	r3, #100	; 0x64
 80026ae:	2201      	movs	r2, #1
 80026b0:	f001 fff0 	bl	8004694 <HAL_SPI_Transmit>

	HAL_SPI_Transmit(&hspi1, (uint8_t *) &VarOne, 1, 100);
 80026b4:	19b9      	adds	r1, r7, r6
 80026b6:	4809      	ldr	r0, [pc, #36]	; (80026dc <Initialize_Microwave_Generator+0x69c>)
 80026b8:	2364      	movs	r3, #100	; 0x64
 80026ba:	2201      	movs	r2, #1
 80026bc:	f001 ffea 	bl	8004694 <HAL_SPI_Transmit>

	HAL_GPIO_WritePin(GPIOB, GPIO_PIN_6, GPIO_PIN_SET); // SEN Assert
 80026c0:	4b07      	ldr	r3, [pc, #28]	; (80026e0 <Initialize_Microwave_Generator+0x6a0>)
 80026c2:	2201      	movs	r2, #1
 80026c4:	2140      	movs	r1, #64	; 0x40
 80026c6:	0018      	movs	r0, r3
 80026c8:	f000 ffc6 	bl	8003658 <HAL_GPIO_WritePin>

	HAL_Delay(50);
 80026cc:	2032      	movs	r0, #50	; 0x32
 80026ce:	f000 f9d5 	bl	8002a7c <HAL_Delay>

}
 80026d2:	46c0      	nop			; (mov r8, r8)
 80026d4:	46bd      	mov	sp, r7
 80026d6:	b00b      	add	sp, #44	; 0x2c
 80026d8:	bdf0      	pop	{r4, r5, r6, r7, pc}
 80026da:	46c0      	nop			; (mov r8, r8)
 80026dc:	200000e8 	.word	0x200000e8
 80026e0:	50000400 	.word	0x50000400

080026e4 <Error_Handler>:

  */

void Error_Handler(void)

{
 80026e4:	b580      	push	{r7, lr}
 80026e6:	af00      	add	r7, sp, #0
  \details Disables IRQ interrupts by setting the I-bit in the CPSR.
           Can only be executed in Privileged modes.
 */
__STATIC_FORCEINLINE void __disable_irq(void)
{
  __ASM volatile ("cpsid i" : : : "memory");
 80026e8:	b672      	cpsid	i
}
 80026ea:	46c0      	nop			; (mov r8, r8)

  /* User can add his own implementation to report the HAL error return state */

  __disable_irq();

  while (1)
 80026ec:	e7fe      	b.n	80026ec <Error_Handler+0x8>
	...

080026f0 <HAL_MspInit>:
/* USER CODE END 0 */
/**
  * Initializes the Global MSP.
  */
void HAL_MspInit(void)
{
 80026f0:	b580      	push	{r7, lr}
 80026f2:	af00      	add	r7, sp, #0
  /* USER CODE BEGIN MspInit 0 */

  /* USER CODE END MspInit 0 */

  __HAL_RCC_SYSCFG_CLK_ENABLE();
 80026f4:	4b07      	ldr	r3, [pc, #28]	; (8002714 <HAL_MspInit+0x24>)
 80026f6:	6b5a      	ldr	r2, [r3, #52]	; 0x34
 80026f8:	4b06      	ldr	r3, [pc, #24]	; (8002714 <HAL_MspInit+0x24>)
 80026fa:	2101      	movs	r1, #1
 80026fc:	430a      	orrs	r2, r1
 80026fe:	635a      	str	r2, [r3, #52]	; 0x34
  __HAL_RCC_PWR_CLK_ENABLE();
 8002700:	4b04      	ldr	r3, [pc, #16]	; (8002714 <HAL_MspInit+0x24>)
 8002702:	6b9a      	ldr	r2, [r3, #56]	; 0x38
 8002704:	4b03      	ldr	r3, [pc, #12]	; (8002714 <HAL_MspInit+0x24>)
 8002706:	2180      	movs	r1, #128	; 0x80
 8002708:	0549      	lsls	r1, r1, #21
 800270a:	430a      	orrs	r2, r1
 800270c:	639a      	str	r2, [r3, #56]	; 0x38
  /* System interrupt init*/

  /* USER CODE BEGIN MspInit 1 */

  /* USER CODE END MspInit 1 */
}
 800270e:	46c0      	nop			; (mov r8, r8)
 8002710:	46bd      	mov	sp, r7
 8002712:	bd80      	pop	{r7, pc}
 8002714:	40021000 	.word	0x40021000

08002718 <HAL_ADC_MspInit>:
* This function configures the hardware resources used in this example
* @param hadc: ADC handle pointer
* @retval None
*/
void HAL_ADC_MspInit(ADC_HandleTypeDef* hadc)
{
 8002718:	b590      	push	{r4, r7, lr}
 800271a:	b089      	sub	sp, #36	; 0x24
 800271c:	af00      	add	r7, sp, #0
 800271e:	6078      	str	r0, [r7, #4]
  GPIO_InitTypeDef GPIO_InitStruct = {0};
 8002720:	240c      	movs	r4, #12
 8002722:	193b      	adds	r3, r7, r4
 8002724:	0018      	movs	r0, r3
 8002726:	2314      	movs	r3, #20
 8002728:	001a      	movs	r2, r3
 800272a:	2100      	movs	r1, #0
 800272c:	f002 ff6c 	bl	8005608 <memset>
  if(hadc->Instance==ADC1)
 8002730:	687b      	ldr	r3, [r7, #4]
 8002732:	681b      	ldr	r3, [r3, #0]
 8002734:	4a14      	ldr	r2, [pc, #80]	; (8002788 <HAL_ADC_MspInit+0x70>)
 8002736:	4293      	cmp	r3, r2
 8002738:	d122      	bne.n	8002780 <HAL_ADC_MspInit+0x68>
  {
  /* USER CODE BEGIN ADC1_MspInit 0 */

  /* USER CODE END ADC1_MspInit 0 */
    /* Peripheral clock enable */
    __HAL_RCC_ADC1_CLK_ENABLE();
 800273a:	4b14      	ldr	r3, [pc, #80]	; (800278c <HAL_ADC_MspInit+0x74>)
 800273c:	6b5a      	ldr	r2, [r3, #52]	; 0x34
 800273e:	4b13      	ldr	r3, [pc, #76]	; (800278c <HAL_ADC_MspInit+0x74>)
 8002740:	2180      	movs	r1, #128	; 0x80
 8002742:	0089      	lsls	r1, r1, #2
 8002744:	430a      	orrs	r2, r1
 8002746:	635a      	str	r2, [r3, #52]	; 0x34

    __HAL_RCC_GPIOA_CLK_ENABLE();
 8002748:	4b10      	ldr	r3, [pc, #64]	; (800278c <HAL_ADC_MspInit+0x74>)
 800274a:	6ada      	ldr	r2, [r3, #44]	; 0x2c
 800274c:	4b0f      	ldr	r3, [pc, #60]	; (800278c <HAL_ADC_MspInit+0x74>)
 800274e:	2101      	movs	r1, #1
 8002750:	430a      	orrs	r2, r1
 8002752:	62da      	str	r2, [r3, #44]	; 0x2c
 8002754:	4b0d      	ldr	r3, [pc, #52]	; (800278c <HAL_ADC_MspInit+0x74>)
 8002756:	6adb      	ldr	r3, [r3, #44]	; 0x2c
 8002758:	2201      	movs	r2, #1
 800275a:	4013      	ands	r3, r2
 800275c:	60bb      	str	r3, [r7, #8]
 800275e:	68bb      	ldr	r3, [r7, #8]
    /**ADC GPIO Configuration
    PA0     ------> ADC_IN0
    */
    GPIO_InitStruct.Pin = GPIO_PIN_0;
 8002760:	193b      	adds	r3, r7, r4
 8002762:	2201      	movs	r2, #1
 8002764:	601a      	str	r2, [r3, #0]
    GPIO_InitStruct.Mode = GPIO_MODE_ANALOG;
 8002766:	193b      	adds	r3, r7, r4
 8002768:	2203      	movs	r2, #3
 800276a:	605a      	str	r2, [r3, #4]
    GPIO_InitStruct.Pull = GPIO_NOPULL;
 800276c:	193b      	adds	r3, r7, r4
 800276e:	2200      	movs	r2, #0
 8002770:	609a      	str	r2, [r3, #8]
    HAL_GPIO_Init(GPIOA, &GPIO_InitStruct);
 8002772:	193a      	adds	r2, r7, r4
 8002774:	23a0      	movs	r3, #160	; 0xa0
 8002776:	05db      	lsls	r3, r3, #23
 8002778:	0011      	movs	r1, r2
 800277a:	0018      	movs	r0, r3
 800277c:	f000 fdee 	bl	800335c <HAL_GPIO_Init>
  /* USER CODE BEGIN ADC1_MspInit 1 */

  /* USER CODE END ADC1_MspInit 1 */
  }

}
 8002780:	46c0      	nop			; (mov r8, r8)
 8002782:	46bd      	mov	sp, r7
 8002784:	b009      	add	sp, #36	; 0x24
 8002786:	bd90      	pop	{r4, r7, pc}
 8002788:	40012400 	.word	0x40012400
 800278c:	40021000 	.word	0x40021000

08002790 <HAL_SPI_MspInit>:
* This function configures the hardware resources used in this example
* @param hspi: SPI handle pointer
* @retval None
*/
void HAL_SPI_MspInit(SPI_HandleTypeDef* hspi)
{
 8002790:	b590      	push	{r4, r7, lr}
 8002792:	b089      	sub	sp, #36	; 0x24
 8002794:	af00      	add	r7, sp, #0
 8002796:	6078      	str	r0, [r7, #4]
  GPIO_InitTypeDef GPIO_InitStruct = {0};
 8002798:	240c      	movs	r4, #12
 800279a:	193b      	adds	r3, r7, r4
 800279c:	0018      	movs	r0, r3
 800279e:	2314      	movs	r3, #20
 80027a0:	001a      	movs	r2, r3
 80027a2:	2100      	movs	r1, #0
 80027a4:	f002 ff30 	bl	8005608 <memset>
  if(hspi->Instance==SPI1)
 80027a8:	687b      	ldr	r3, [r7, #4]
 80027aa:	681b      	ldr	r3, [r3, #0]
 80027ac:	4a18      	ldr	r2, [pc, #96]	; (8002810 <HAL_SPI_MspInit+0x80>)
 80027ae:	4293      	cmp	r3, r2
 80027b0:	d129      	bne.n	8002806 <HAL_SPI_MspInit+0x76>
  {
  /* USER CODE BEGIN SPI1_MspInit 0 */

  /* USER CODE END SPI1_MspInit 0 */
    /* Peripheral clock enable */
    __HAL_RCC_SPI1_CLK_ENABLE();
 80027b2:	4b18      	ldr	r3, [pc, #96]	; (8002814 <HAL_SPI_MspInit+0x84>)
 80027b4:	6b5a      	ldr	r2, [r3, #52]	; 0x34
 80027b6:	4b17      	ldr	r3, [pc, #92]	; (8002814 <HAL_SPI_MspInit+0x84>)
 80027b8:	2180      	movs	r1, #128	; 0x80
 80027ba:	0149      	lsls	r1, r1, #5
 80027bc:	430a      	orrs	r2, r1
 80027be:	635a      	str	r2, [r3, #52]	; 0x34

    __HAL_RCC_GPIOA_CLK_ENABLE();
 80027c0:	4b14      	ldr	r3, [pc, #80]	; (8002814 <HAL_SPI_MspInit+0x84>)
 80027c2:	6ada      	ldr	r2, [r3, #44]	; 0x2c
 80027c4:	4b13      	ldr	r3, [pc, #76]	; (8002814 <HAL_SPI_MspInit+0x84>)
 80027c6:	2101      	movs	r1, #1
 80027c8:	430a      	orrs	r2, r1
 80027ca:	62da      	str	r2, [r3, #44]	; 0x2c
 80027cc:	4b11      	ldr	r3, [pc, #68]	; (8002814 <HAL_SPI_MspInit+0x84>)
 80027ce:	6adb      	ldr	r3, [r3, #44]	; 0x2c
 80027d0:	2201      	movs	r2, #1
 80027d2:	4013      	ands	r3, r2
 80027d4:	60bb      	str	r3, [r7, #8]
 80027d6:	68bb      	ldr	r3, [r7, #8]
    /**SPI1 GPIO Configuration
    PA5     ------> SPI1_SCK
    PA6     ------> SPI1_MISO
    PA7     ------> SPI1_MOSI
    */
    GPIO_InitStruct.Pin = GPIO_PIN_5|GPIO_PIN_6|GPIO_PIN_7;
 80027d8:	0021      	movs	r1, r4
 80027da:	187b      	adds	r3, r7, r1
 80027dc:	22e0      	movs	r2, #224	; 0xe0
 80027de:	601a      	str	r2, [r3, #0]
    GPIO_InitStruct.Mode = GPIO_MODE_AF_PP;
 80027e0:	187b      	adds	r3, r7, r1
 80027e2:	2202      	movs	r2, #2
 80027e4:	605a      	str	r2, [r3, #4]
    GPIO_InitStruct.Pull = GPIO_NOPULL;
 80027e6:	187b      	adds	r3, r7, r1
 80027e8:	2200      	movs	r2, #0
 80027ea:	609a      	str	r2, [r3, #8]
    GPIO_InitStruct.Speed = GPIO_SPEED_FREQ_VERY_HIGH;
 80027ec:	187b      	adds	r3, r7, r1
 80027ee:	2203      	movs	r2, #3
 80027f0:	60da      	str	r2, [r3, #12]
    GPIO_InitStruct.Alternate = GPIO_AF0_SPI1;
 80027f2:	187b      	adds	r3, r7, r1
 80027f4:	2200      	movs	r2, #0
 80027f6:	611a      	str	r2, [r3, #16]
    HAL_GPIO_Init(GPIOA, &GPIO_InitStruct);
 80027f8:	187a      	adds	r2, r7, r1
 80027fa:	23a0      	movs	r3, #160	; 0xa0
 80027fc:	05db      	lsls	r3, r3, #23
 80027fe:	0011      	movs	r1, r2
 8002800:	0018      	movs	r0, r3
 8002802:	f000 fdab 	bl	800335c <HAL_GPIO_Init>
  /* USER CODE BEGIN SPI1_MspInit 1 */

  /* USER CODE END SPI1_MspInit 1 */
  }

}
 8002806:	46c0      	nop			; (mov r8, r8)
 8002808:	46bd      	mov	sp, r7
 800280a:	b009      	add	sp, #36	; 0x24
 800280c:	bd90      	pop	{r4, r7, pc}
 800280e:	46c0      	nop			; (mov r8, r8)
 8002810:	40013000 	.word	0x40013000
 8002814:	40021000 	.word	0x40021000

08002818 <HAL_UART_MspInit>:
* This function configures the hardware resources used in this example
* @param huart: UART handle pointer
* @retval None
*/
void HAL_UART_MspInit(UART_HandleTypeDef* huart)
{
 8002818:	b590      	push	{r4, r7, lr}
 800281a:	b089      	sub	sp, #36	; 0x24
 800281c:	af00      	add	r7, sp, #0
 800281e:	6078      	str	r0, [r7, #4]
  GPIO_InitTypeDef GPIO_InitStruct = {0};
 8002820:	240c      	movs	r4, #12
 8002822:	193b      	adds	r3, r7, r4
 8002824:	0018      	movs	r0, r3
 8002826:	2314      	movs	r3, #20
 8002828:	001a      	movs	r2, r3
 800282a:	2100      	movs	r1, #0
 800282c:	f002 feec 	bl	8005608 <memset>
  if(huart->Instance==USART2)
 8002830:	687b      	ldr	r3, [r7, #4]
 8002832:	681b      	ldr	r3, [r3, #0]
 8002834:	4a18      	ldr	r2, [pc, #96]	; (8002898 <HAL_UART_MspInit+0x80>)
 8002836:	4293      	cmp	r3, r2
 8002838:	d129      	bne.n	800288e <HAL_UART_MspInit+0x76>
  {
  /* USER CODE BEGIN USART2_MspInit 0 */

  /* USER CODE END USART2_MspInit 0 */
    /* Peripheral clock enable */
    __HAL_RCC_USART2_CLK_ENABLE();
 800283a:	4b18      	ldr	r3, [pc, #96]	; (800289c <HAL_UART_MspInit+0x84>)
 800283c:	6b9a      	ldr	r2, [r3, #56]	; 0x38
 800283e:	4b17      	ldr	r3, [pc, #92]	; (800289c <HAL_UART_MspInit+0x84>)
 8002840:	2180      	movs	r1, #128	; 0x80
 8002842:	0289      	lsls	r1, r1, #10
 8002844:	430a      	orrs	r2, r1
 8002846:	639a      	str	r2, [r3, #56]	; 0x38

    __HAL_RCC_GPIOA_CLK_ENABLE();
 8002848:	4b14      	ldr	r3, [pc, #80]	; (800289c <HAL_UART_MspInit+0x84>)
 800284a:	6ada      	ldr	r2, [r3, #44]	; 0x2c
 800284c:	4b13      	ldr	r3, [pc, #76]	; (800289c <HAL_UART_MspInit+0x84>)
 800284e:	2101      	movs	r1, #1
 8002850:	430a      	orrs	r2, r1
 8002852:	62da      	str	r2, [r3, #44]	; 0x2c
 8002854:	4b11      	ldr	r3, [pc, #68]	; (800289c <HAL_UART_MspInit+0x84>)
 8002856:	6adb      	ldr	r3, [r3, #44]	; 0x2c
 8002858:	2201      	movs	r2, #1
 800285a:	4013      	ands	r3, r2
 800285c:	60bb      	str	r3, [r7, #8]
 800285e:	68bb      	ldr	r3, [r7, #8]
    /**USART2 GPIO Configuration
    PA2     ------> USART2_TX
    PA3     ------> USART2_RX
    */
    GPIO_InitStruct.Pin = USART_TX_Pin|USART_RX_Pin;
 8002860:	0021      	movs	r1, r4
 8002862:	187b      	adds	r3, r7, r1
 8002864:	220c      	movs	r2, #12
 8002866:	601a      	str	r2, [r3, #0]
    GPIO_InitStruct.Mode = GPIO_MODE_AF_PP;
 8002868:	187b      	adds	r3, r7, r1
 800286a:	2202      	movs	r2, #2
 800286c:	605a      	str	r2, [r3, #4]
    GPIO_InitStruct.Pull = GPIO_NOPULL;
 800286e:	187b      	adds	r3, r7, r1
 8002870:	2200      	movs	r2, #0
 8002872:	609a      	str	r2, [r3, #8]
    GPIO_InitStruct.Speed = GPIO_SPEED_FREQ_VERY_HIGH;
 8002874:	187b      	adds	r3, r7, r1
 8002876:	2203      	movs	r2, #3
 8002878:	60da      	str	r2, [r3, #12]
    GPIO_InitStruct.Alternate = GPIO_AF4_USART2;
 800287a:	187b      	adds	r3, r7, r1
 800287c:	2204      	movs	r2, #4
 800287e:	611a      	str	r2, [r3, #16]
    HAL_GPIO_Init(GPIOA, &GPIO_InitStruct);
 8002880:	187a      	adds	r2, r7, r1
 8002882:	23a0      	movs	r3, #160	; 0xa0
 8002884:	05db      	lsls	r3, r3, #23
 8002886:	0011      	movs	r1, r2
 8002888:	0018      	movs	r0, r3
 800288a:	f000 fd67 	bl	800335c <HAL_GPIO_Init>
  /* USER CODE BEGIN USART2_MspInit 1 */

  /* USER CODE END USART2_MspInit 1 */
  }

}
 800288e:	46c0      	nop			; (mov r8, r8)
 8002890:	46bd      	mov	sp, r7
 8002892:	b009      	add	sp, #36	; 0x24
 8002894:	bd90      	pop	{r4, r7, pc}
 8002896:	46c0      	nop			; (mov r8, r8)
 8002898:	40004400 	.word	0x40004400
 800289c:	40021000 	.word	0x40021000

080028a0 <NMI_Handler>:
/******************************************************************************/
/**
  * @brief This function handles Non maskable Interrupt.
  */
void NMI_Handler(void)
{
 80028a0:	b580      	push	{r7, lr}
 80028a2:	af00      	add	r7, sp, #0
  /* USER CODE BEGIN NonMaskableInt_IRQn 0 */

  /* USER CODE END NonMaskableInt_IRQn 0 */
  /* USER CODE BEGIN NonMaskableInt_IRQn 1 */
  while (1)
 80028a4:	e7fe      	b.n	80028a4 <NMI_Handler+0x4>

080028a6 <HardFault_Handler>:

/**
  * @brief This function handles Hard fault interrupt.
  */
void HardFault_Handler(void)
{
 80028a6:	b580      	push	{r7, lr}
 80028a8:	af00      	add	r7, sp, #0
  /* USER CODE BEGIN HardFault_IRQn 0 */

  /* USER CODE END HardFault_IRQn 0 */
  while (1)
 80028aa:	e7fe      	b.n	80028aa <HardFault_Handler+0x4>

080028ac <SVC_Handler>:

/**
  * @brief This function handles System service call via SWI instruction.
  */
void SVC_Handler(void)
{
 80028ac:	b580      	push	{r7, lr}
 80028ae:	af00      	add	r7, sp, #0

  /* USER CODE END SVC_IRQn 0 */
  /* USER CODE BEGIN SVC_IRQn 1 */

  /* USER CODE END SVC_IRQn 1 */
}
 80028b0:	46c0      	nop			; (mov r8, r8)
 80028b2:	46bd      	mov	sp, r7
 80028b4:	bd80      	pop	{r7, pc}

080028b6 <PendSV_Handler>:

/**
  * @brief This function handles Pendable request for system service.
  */
void PendSV_Handler(void)
{
 80028b6:	b580      	push	{r7, lr}
 80028b8:	af00      	add	r7, sp, #0

  /* USER CODE END PendSV_IRQn 0 */
  /* USER CODE BEGIN PendSV_IRQn 1 */

  /* USER CODE END PendSV_IRQn 1 */
}
 80028ba:	46c0      	nop			; (mov r8, r8)
 80028bc:	46bd      	mov	sp, r7
 80028be:	bd80      	pop	{r7, pc}

080028c0 <SysTick_Handler>:

/**
  * @brief This function handles System tick timer.
  */
void SysTick_Handler(void)
{
 80028c0:	b580      	push	{r7, lr}
 80028c2:	af00      	add	r7, sp, #0
  /* USER CODE BEGIN SysTick_IRQn 0 */

  /* USER CODE END SysTick_IRQn 0 */
  HAL_IncTick();
 80028c4:	f000 f8be 	bl	8002a44 <HAL_IncTick>
  /* USER CODE BEGIN SysTick_IRQn 1 */

  /* USER CODE END SysTick_IRQn 1 */
}
 80028c8:	46c0      	nop			; (mov r8, r8)
 80028ca:	46bd      	mov	sp, r7
 80028cc:	bd80      	pop	{r7, pc}
	...

080028d0 <_sbrk>:
 *
 * @param incr Memory size
 * @return Pointer to allocated memory
 */
void *_sbrk(ptrdiff_t incr)
{
 80028d0:	b580      	push	{r7, lr}
 80028d2:	b086      	sub	sp, #24
 80028d4:	af00      	add	r7, sp, #0
 80028d6:	6078      	str	r0, [r7, #4]
  extern uint8_t _end; /* Symbol defined in the linker script */
  extern uint8_t _estack; /* Symbol defined in the linker script */
  extern uint32_t _Min_Stack_Size; /* Symbol defined in the linker script */
  const uint32_t stack_limit = (uint32_t)&_estack - (uint32_t)&_Min_Stack_Size;
 80028d8:	4a14      	ldr	r2, [pc, #80]	; (800292c <_sbrk+0x5c>)
 80028da:	4b15      	ldr	r3, [pc, #84]	; (8002930 <_sbrk+0x60>)
 80028dc:	1ad3      	subs	r3, r2, r3
 80028de:	617b      	str	r3, [r7, #20]
  const uint8_t *max_heap = (uint8_t *)stack_limit;
 80028e0:	697b      	ldr	r3, [r7, #20]
 80028e2:	613b      	str	r3, [r7, #16]
  uint8_t *prev_heap_end;

  /* Initialize heap end at first call */
  if (NULL == __sbrk_heap_end)
 80028e4:	4b13      	ldr	r3, [pc, #76]	; (8002934 <_sbrk+0x64>)
 80028e6:	681b      	ldr	r3, [r3, #0]
 80028e8:	2b00      	cmp	r3, #0
 80028ea:	d102      	bne.n	80028f2 <_sbrk+0x22>
  {
    __sbrk_heap_end = &_end;
 80028ec:	4b11      	ldr	r3, [pc, #68]	; (8002934 <_sbrk+0x64>)
 80028ee:	4a12      	ldr	r2, [pc, #72]	; (8002938 <_sbrk+0x68>)
 80028f0:	601a      	str	r2, [r3, #0]
  }

  /* Protect heap from growing into the reserved MSP stack */
  if (__sbrk_heap_end + incr > max_heap)
 80028f2:	4b10      	ldr	r3, [pc, #64]	; (8002934 <_sbrk+0x64>)
 80028f4:	681a      	ldr	r2, [r3, #0]
 80028f6:	687b      	ldr	r3, [r7, #4]
 80028f8:	18d3      	adds	r3, r2, r3
 80028fa:	693a      	ldr	r2, [r7, #16]
 80028fc:	429a      	cmp	r2, r3
 80028fe:	d207      	bcs.n	8002910 <_sbrk+0x40>
  {
    errno = ENOMEM;
 8002900:	f002 fe4e 	bl	80055a0 <__errno>
 8002904:	0003      	movs	r3, r0
 8002906:	220c      	movs	r2, #12
 8002908:	601a      	str	r2, [r3, #0]
    return (void *)-1;
 800290a:	2301      	movs	r3, #1
 800290c:	425b      	negs	r3, r3
 800290e:	e009      	b.n	8002924 <_sbrk+0x54>
  }

  prev_heap_end = __sbrk_heap_end;
 8002910:	4b08      	ldr	r3, [pc, #32]	; (8002934 <_sbrk+0x64>)
 8002912:	681b      	ldr	r3, [r3, #0]
 8002914:	60fb      	str	r3, [r7, #12]
  __sbrk_heap_end += incr;
 8002916:	4b07      	ldr	r3, [pc, #28]	; (8002934 <_sbrk+0x64>)
 8002918:	681a      	ldr	r2, [r3, #0]
 800291a:	687b      	ldr	r3, [r7, #4]
 800291c:	18d2      	adds	r2, r2, r3
 800291e:	4b05      	ldr	r3, [pc, #20]	; (8002934 <_sbrk+0x64>)
 8002920:	601a      	str	r2, [r3, #0]

  return (void *)prev_heap_end;
 8002922:	68fb      	ldr	r3, [r7, #12]
}
 8002924:	0018      	movs	r0, r3
 8002926:	46bd      	mov	sp, r7
 8002928:	b006      	add	sp, #24
 800292a:	bd80      	pop	{r7, pc}
 800292c:	20005000 	.word	0x20005000
 8002930:	00000400 	.word	0x00000400
 8002934:	200001c4 	.word	0x200001c4
 8002938:	200001e0 	.word	0x200001e0

0800293c <SystemInit>:
  * @brief  Setup the microcontroller system.
  * @param  None
  * @retval None
  */
void SystemInit (void)
{
 800293c:	b580      	push	{r7, lr}
 800293e:	af00      	add	r7, sp, #0
  /* Configure the Vector Table location add offset address ------------------*/
#if defined (USER_VECT_TAB_ADDRESS)
  SCB->VTOR = VECT_TAB_BASE_ADDRESS | VECT_TAB_OFFSET; /* Vector Table Relocation in Internal SRAM */
#endif /* USER_VECT_TAB_ADDRESS */
}
 8002940:	46c0      	nop			; (mov r8, r8)
 8002942:	46bd      	mov	sp, r7
 8002944:	bd80      	pop	{r7, pc}
	...

08002948 <Reset_Handler>:

    .section  .text.Reset_Handler
  .weak  Reset_Handler
  .type  Reset_Handler, %function
Reset_Handler:  
   ldr   r0, =_estack
 8002948:	480d      	ldr	r0, [pc, #52]	; (8002980 <LoopForever+0x2>)
   mov   sp, r0          /* set stack pointer */
 800294a:	4685      	mov	sp, r0

/* Copy the data segment initializers from flash to SRAM */
  ldr r0, =_sdata
 800294c:	480d      	ldr	r0, [pc, #52]	; (8002984 <LoopForever+0x6>)
  ldr r1, =_edata
 800294e:	490e      	ldr	r1, [pc, #56]	; (8002988 <LoopForever+0xa>)
  ldr r2, =_sidata
 8002950:	4a0e      	ldr	r2, [pc, #56]	; (800298c <LoopForever+0xe>)
  movs r3, #0
 8002952:	2300      	movs	r3, #0
  b LoopCopyDataInit
 8002954:	e002      	b.n	800295c <LoopCopyDataInit>

08002956 <CopyDataInit>:

CopyDataInit:
  ldr r4, [r2, r3]
 8002956:	58d4      	ldr	r4, [r2, r3]
  str r4, [r0, r3]
 8002958:	50c4      	str	r4, [r0, r3]
  adds r3, r3, #4
 800295a:	3304      	adds	r3, #4

0800295c <LoopCopyDataInit>:

LoopCopyDataInit:
  adds r4, r0, r3
 800295c:	18c4      	adds	r4, r0, r3
  cmp r4, r1
 800295e:	428c      	cmp	r4, r1
  bcc CopyDataInit
 8002960:	d3f9      	bcc.n	8002956 <CopyDataInit>
  
/* Zero fill the bss segment. */
  ldr r2, =_sbss
 8002962:	4a0b      	ldr	r2, [pc, #44]	; (8002990 <LoopForever+0x12>)
  ldr r4, =_ebss
 8002964:	4c0b      	ldr	r4, [pc, #44]	; (8002994 <LoopForever+0x16>)
  movs r3, #0
 8002966:	2300      	movs	r3, #0
  b LoopFillZerobss
 8002968:	e001      	b.n	800296e <LoopFillZerobss>

0800296a <FillZerobss>:

FillZerobss:
  str  r3, [r2]
 800296a:	6013      	str	r3, [r2, #0]
  adds r2, r2, #4
 800296c:	3204      	adds	r2, #4

0800296e <LoopFillZerobss>:

LoopFillZerobss:
  cmp r2, r4
 800296e:	42a2      	cmp	r2, r4
  bcc FillZerobss
 8002970:	d3fb      	bcc.n	800296a <FillZerobss>

/* Call the clock system intitialization function.*/
  bl  SystemInit
 8002972:	f7ff ffe3 	bl	800293c <SystemInit>
/* Call static constructors */
    bl __libc_init_array
 8002976:	f002 fe19 	bl	80055ac <__libc_init_array>
/* Call the application's entry point.*/
  bl  main
 800297a:	f7fe ffe3 	bl	8001944 <main>

0800297e <LoopForever>:

LoopForever:
    b LoopForever
 800297e:	e7fe      	b.n	800297e <LoopForever>
   ldr   r0, =_estack
 8002980:	20005000 	.word	0x20005000
  ldr r0, =_sdata
 8002984:	20000000 	.word	0x20000000
  ldr r1, =_edata
 8002988:	20000070 	.word	0x20000070
  ldr r2, =_sidata
 800298c:	0800604c 	.word	0x0800604c
  ldr r2, =_sbss
 8002990:	20000070 	.word	0x20000070
  ldr r4, =_ebss
 8002994:	200001dc 	.word	0x200001dc

08002998 <ADC1_COMP_IRQHandler>:
 * @retval : None
*/
    .section  .text.Default_Handler,"ax",%progbits
Default_Handler:
Infinite_Loop:
  b  Infinite_Loop
 8002998:	e7fe      	b.n	8002998 <ADC1_COMP_IRQHandler>
	...

0800299c <HAL_Init>:
  *        In the default implementation,Systick is used as source of time base.
  *        the tick variable is incremented each 1ms in its ISR.
  * @retval HAL status
  */
HAL_StatusTypeDef HAL_Init(void)
{
 800299c:	b580      	push	{r7, lr}
 800299e:	b082      	sub	sp, #8
 80029a0:	af00      	add	r7, sp, #0
  HAL_StatusTypeDef  status = HAL_OK;
 80029a2:	1dfb      	adds	r3, r7, #7
 80029a4:	2200      	movs	r2, #0
 80029a6:	701a      	strb	r2, [r3, #0]
#if (BUFFER_CACHE_DISABLE != 0)
  __HAL_FLASH_BUFFER_CACHE_DISABLE();
#endif /* BUFFER_CACHE_DISABLE */

#if (PREREAD_ENABLE != 0)
  __HAL_FLASH_PREREAD_BUFFER_ENABLE();
 80029a8:	4b0b      	ldr	r3, [pc, #44]	; (80029d8 <HAL_Init+0x3c>)
 80029aa:	681a      	ldr	r2, [r3, #0]
 80029ac:	4b0a      	ldr	r3, [pc, #40]	; (80029d8 <HAL_Init+0x3c>)
 80029ae:	2140      	movs	r1, #64	; 0x40
 80029b0:	430a      	orrs	r2, r1
 80029b2:	601a      	str	r2, [r3, #0]
#if (PREFETCH_ENABLE != 0)
  __HAL_FLASH_PREFETCH_BUFFER_ENABLE();
#endif /* PREFETCH_ENABLE */

  /* Use SysTick as time base source and configure 1ms tick (default clock after Reset is MSI) */
  if (HAL_InitTick(TICK_INT_PRIORITY) != HAL_OK)
 80029b4:	2000      	movs	r0, #0
 80029b6:	f000 f811 	bl	80029dc <HAL_InitTick>
 80029ba:	1e03      	subs	r3, r0, #0
 80029bc:	d003      	beq.n	80029c6 <HAL_Init+0x2a>
  {
    status = HAL_ERROR;
 80029be:	1dfb      	adds	r3, r7, #7
 80029c0:	2201      	movs	r2, #1
 80029c2:	701a      	strb	r2, [r3, #0]
 80029c4:	e001      	b.n	80029ca <HAL_Init+0x2e>
  }
  else
  {
    /* Init the low level hardware */
    HAL_MspInit();
 80029c6:	f7ff fe93 	bl	80026f0 <HAL_MspInit>
  }

  /* Return function status */
  return status;
 80029ca:	1dfb      	adds	r3, r7, #7
 80029cc:	781b      	ldrb	r3, [r3, #0]
}
 80029ce:	0018      	movs	r0, r3
 80029d0:	46bd      	mov	sp, r7
 80029d2:	b002      	add	sp, #8
 80029d4:	bd80      	pop	{r7, pc}
 80029d6:	46c0      	nop			; (mov r8, r8)
 80029d8:	40022000 	.word	0x40022000

080029dc <HAL_InitTick>:
  *       implementation  in user file.
  * @param TickPriority Tick interrupt priority.
  * @retval HAL status
  */
__weak HAL_StatusTypeDef HAL_InitTick(uint32_t TickPriority)
{
 80029dc:	b590      	push	{r4, r7, lr}
 80029de:	b083      	sub	sp, #12
 80029e0:	af00      	add	r7, sp, #0
 80029e2:	6078      	str	r0, [r7, #4]
  /* Configure the SysTick to have interrupt in 1ms time basis*/
  if (HAL_SYSTICK_Config(SystemCoreClock / (1000U / uwTickFreq)) > 0U)
 80029e4:	4b14      	ldr	r3, [pc, #80]	; (8002a38 <HAL_InitTick+0x5c>)
 80029e6:	681c      	ldr	r4, [r3, #0]
 80029e8:	4b14      	ldr	r3, [pc, #80]	; (8002a3c <HAL_InitTick+0x60>)
 80029ea:	781b      	ldrb	r3, [r3, #0]
 80029ec:	0019      	movs	r1, r3
 80029ee:	23fa      	movs	r3, #250	; 0xfa
 80029f0:	0098      	lsls	r0, r3, #2
 80029f2:	f7fd fb93 	bl	800011c <__udivsi3>
 80029f6:	0003      	movs	r3, r0
 80029f8:	0019      	movs	r1, r3
 80029fa:	0020      	movs	r0, r4
 80029fc:	f7fd fb8e 	bl	800011c <__udivsi3>
 8002a00:	0003      	movs	r3, r0
 8002a02:	0018      	movs	r0, r3
 8002a04:	f000 fc9d 	bl	8003342 <HAL_SYSTICK_Config>
 8002a08:	1e03      	subs	r3, r0, #0
 8002a0a:	d001      	beq.n	8002a10 <HAL_InitTick+0x34>
  {
    return HAL_ERROR;
 8002a0c:	2301      	movs	r3, #1
 8002a0e:	e00f      	b.n	8002a30 <HAL_InitTick+0x54>
  }

  /* Configure the SysTick IRQ priority */
  if (TickPriority < (1UL << __NVIC_PRIO_BITS))
 8002a10:	687b      	ldr	r3, [r7, #4]
 8002a12:	2b03      	cmp	r3, #3
 8002a14:	d80b      	bhi.n	8002a2e <HAL_InitTick+0x52>
  {
    HAL_NVIC_SetPriority(SysTick_IRQn, TickPriority, 0U);
 8002a16:	6879      	ldr	r1, [r7, #4]
 8002a18:	2301      	movs	r3, #1
 8002a1a:	425b      	negs	r3, r3
 8002a1c:	2200      	movs	r2, #0
 8002a1e:	0018      	movs	r0, r3
 8002a20:	f000 fc7a 	bl	8003318 <HAL_NVIC_SetPriority>
    uwTickPrio = TickPriority;
 8002a24:	4b06      	ldr	r3, [pc, #24]	; (8002a40 <HAL_InitTick+0x64>)
 8002a26:	687a      	ldr	r2, [r7, #4]
 8002a28:	601a      	str	r2, [r3, #0]
  {
    return HAL_ERROR;
  }

  /* Return function status */
  return HAL_OK;
 8002a2a:	2300      	movs	r3, #0
 8002a2c:	e000      	b.n	8002a30 <HAL_InitTick+0x54>
    return HAL_ERROR;
 8002a2e:	2301      	movs	r3, #1
}
 8002a30:	0018      	movs	r0, r3
 8002a32:	46bd      	mov	sp, r7
 8002a34:	b003      	add	sp, #12
 8002a36:	bd90      	pop	{r4, r7, pc}
 8002a38:	20000000 	.word	0x20000000
 8002a3c:	20000008 	.word	0x20000008
 8002a40:	20000004 	.word	0x20000004

08002a44 <HAL_IncTick>:
 * @note This function is declared as __weak to be overwritten in case of other
  *      implementations in user file.
  * @retval None
  */
__weak void HAL_IncTick(void)
{
 8002a44:	b580      	push	{r7, lr}
 8002a46:	af00      	add	r7, sp, #0
  uwTick += uwTickFreq;
 8002a48:	4b05      	ldr	r3, [pc, #20]	; (8002a60 <HAL_IncTick+0x1c>)
 8002a4a:	781b      	ldrb	r3, [r3, #0]
 8002a4c:	001a      	movs	r2, r3
 8002a4e:	4b05      	ldr	r3, [pc, #20]	; (8002a64 <HAL_IncTick+0x20>)
 8002a50:	681b      	ldr	r3, [r3, #0]
 8002a52:	18d2      	adds	r2, r2, r3
 8002a54:	4b03      	ldr	r3, [pc, #12]	; (8002a64 <HAL_IncTick+0x20>)
 8002a56:	601a      	str	r2, [r3, #0]
}
 8002a58:	46c0      	nop			; (mov r8, r8)
 8002a5a:	46bd      	mov	sp, r7
 8002a5c:	bd80      	pop	{r7, pc}
 8002a5e:	46c0      	nop			; (mov r8, r8)
 8002a60:	20000008 	.word	0x20000008
 8002a64:	200001c8 	.word	0x200001c8

08002a68 <HAL_GetTick>:
  * @note This function is declared as __weak to be overwritten in case of other
  *       implementations in user file.
  * @retval tick value
  */
__weak uint32_t HAL_GetTick(void)
{
 8002a68:	b580      	push	{r7, lr}
 8002a6a:	af00      	add	r7, sp, #0
  return uwTick;
 8002a6c:	4b02      	ldr	r3, [pc, #8]	; (8002a78 <HAL_GetTick+0x10>)
 8002a6e:	681b      	ldr	r3, [r3, #0]
}
 8002a70:	0018      	movs	r0, r3
 8002a72:	46bd      	mov	sp, r7
 8002a74:	bd80      	pop	{r7, pc}
 8002a76:	46c0      	nop			; (mov r8, r8)
 8002a78:	200001c8 	.word	0x200001c8

08002a7c <HAL_Delay>:
  *       implementations in user file.
  * @param Delay specifies the delay time length, in milliseconds.
  * @retval None
  */
__weak void HAL_Delay(uint32_t Delay)
{
 8002a7c:	b580      	push	{r7, lr}
 8002a7e:	b084      	sub	sp, #16
 8002a80:	af00      	add	r7, sp, #0
 8002a82:	6078      	str	r0, [r7, #4]
  uint32_t tickstart = HAL_GetTick();
 8002a84:	f7ff fff0 	bl	8002a68 <HAL_GetTick>
 8002a88:	0003      	movs	r3, r0
 8002a8a:	60bb      	str	r3, [r7, #8]
  uint32_t wait = Delay;
 8002a8c:	687b      	ldr	r3, [r7, #4]
 8002a8e:	60fb      	str	r3, [r7, #12]

  /* Add a freq to guarantee minimum wait */
  if (wait < HAL_MAX_DELAY)
 8002a90:	68fb      	ldr	r3, [r7, #12]
 8002a92:	3301      	adds	r3, #1
 8002a94:	d005      	beq.n	8002aa2 <HAL_Delay+0x26>
  {
    wait += (uint32_t)(uwTickFreq);
 8002a96:	4b0a      	ldr	r3, [pc, #40]	; (8002ac0 <HAL_Delay+0x44>)
 8002a98:	781b      	ldrb	r3, [r3, #0]
 8002a9a:	001a      	movs	r2, r3
 8002a9c:	68fb      	ldr	r3, [r7, #12]
 8002a9e:	189b      	adds	r3, r3, r2
 8002aa0:	60fb      	str	r3, [r7, #12]
  }

  while((HAL_GetTick() - tickstart) < wait)
 8002aa2:	46c0      	nop			; (mov r8, r8)
 8002aa4:	f7ff ffe0 	bl	8002a68 <HAL_GetTick>
 8002aa8:	0002      	movs	r2, r0
 8002aaa:	68bb      	ldr	r3, [r7, #8]
 8002aac:	1ad3      	subs	r3, r2, r3
 8002aae:	68fa      	ldr	r2, [r7, #12]
 8002ab0:	429a      	cmp	r2, r3
 8002ab2:	d8f7      	bhi.n	8002aa4 <HAL_Delay+0x28>
  {
  }
}
 8002ab4:	46c0      	nop			; (mov r8, r8)
 8002ab6:	46c0      	nop			; (mov r8, r8)
 8002ab8:	46bd      	mov	sp, r7
 8002aba:	b004      	add	sp, #16
 8002abc:	bd80      	pop	{r7, pc}
 8002abe:	46c0      	nop			; (mov r8, r8)
 8002ac0:	20000008 	.word	0x20000008

08002ac4 <HAL_ADC_Init>:
  *         function "HAL_ADCEx_EnableVREFINTTempSensor()" must be called similarilly.  
  * @param  hadc ADC handle
  * @retval HAL status
  */
HAL_StatusTypeDef HAL_ADC_Init(ADC_HandleTypeDef* hadc)
{
 8002ac4:	b580      	push	{r7, lr}
 8002ac6:	b082      	sub	sp, #8
 8002ac8:	af00      	add	r7, sp, #0
 8002aca:	6078      	str	r0, [r7, #4]
 
  /* Check ADC handle */
  if(hadc == NULL)
 8002acc:	687b      	ldr	r3, [r7, #4]
 8002ace:	2b00      	cmp	r3, #0
 8002ad0:	d101      	bne.n	8002ad6 <HAL_ADC_Init+0x12>
  {
    return HAL_ERROR;
 8002ad2:	2301      	movs	r3, #1
 8002ad4:	e159      	b.n	8002d8a <HAL_ADC_Init+0x2c6>
  /* Refer to header of this file for more details on clock enabling procedure*/
  
  /* Actions performed only if ADC is coming from state reset:                */
  /* - Initialization of ADC MSP                                              */
  /* - ADC voltage regulator enable                                           */
  if(hadc->State == HAL_ADC_STATE_RESET)
 8002ad6:	687b      	ldr	r3, [r7, #4]
 8002ad8:	6d5b      	ldr	r3, [r3, #84]	; 0x54
 8002ada:	2b00      	cmp	r3, #0
 8002adc:	d10a      	bne.n	8002af4 <HAL_ADC_Init+0x30>
  {
    /* Initialize ADC error code */
    ADC_CLEAR_ERRORCODE(hadc);
 8002ade:	687b      	ldr	r3, [r7, #4]
 8002ae0:	2200      	movs	r2, #0
 8002ae2:	659a      	str	r2, [r3, #88]	; 0x58
    
    /* Allocate lock resource and initialize it */
    hadc->Lock = HAL_UNLOCKED;
 8002ae4:	687b      	ldr	r3, [r7, #4]
 8002ae6:	2250      	movs	r2, #80	; 0x50
 8002ae8:	2100      	movs	r1, #0
 8002aea:	5499      	strb	r1, [r3, r2]
    
    /* Init the low level hardware */
    hadc->MspInitCallback(hadc);
#else
    /* Init the low level hardware */
    HAL_ADC_MspInit(hadc);
 8002aec:	687b      	ldr	r3, [r7, #4]
 8002aee:	0018      	movs	r0, r3
 8002af0:	f7ff fe12 	bl	8002718 <HAL_ADC_MspInit>
  /* Configuration of ADC parameters if previous preliminary actions are      */ 
  /* correctly completed.                                                     */
  /* and if there is no conversion on going on regular group (ADC can be      */
  /* enabled anyway, in case of call of this function to update a parameter   */
  /* on the fly).                                                             */
  if (HAL_IS_BIT_SET(hadc->State, HAL_ADC_STATE_ERROR_INTERNAL) ||
 8002af4:	687b      	ldr	r3, [r7, #4]
 8002af6:	6d5b      	ldr	r3, [r3, #84]	; 0x54
 8002af8:	2210      	movs	r2, #16
 8002afa:	4013      	ands	r3, r2
 8002afc:	2b10      	cmp	r3, #16
 8002afe:	d005      	beq.n	8002b0c <HAL_ADC_Init+0x48>
     (ADC_IS_CONVERSION_ONGOING_REGULAR(hadc) != RESET)  )
 8002b00:	687b      	ldr	r3, [r7, #4]
 8002b02:	681b      	ldr	r3, [r3, #0]
 8002b04:	689b      	ldr	r3, [r3, #8]
 8002b06:	2204      	movs	r2, #4
 8002b08:	4013      	ands	r3, r2
  if (HAL_IS_BIT_SET(hadc->State, HAL_ADC_STATE_ERROR_INTERNAL) ||
 8002b0a:	d00b      	beq.n	8002b24 <HAL_ADC_Init+0x60>
  {
    /* Update ADC state machine to error */
    SET_BIT(hadc->State, HAL_ADC_STATE_ERROR_INTERNAL);
 8002b0c:	687b      	ldr	r3, [r7, #4]
 8002b0e:	6d5b      	ldr	r3, [r3, #84]	; 0x54
 8002b10:	2210      	movs	r2, #16
 8002b12:	431a      	orrs	r2, r3
 8002b14:	687b      	ldr	r3, [r7, #4]
 8002b16:	655a      	str	r2, [r3, #84]	; 0x54
        
    /* Process unlocked */
    __HAL_UNLOCK(hadc);
 8002b18:	687b      	ldr	r3, [r7, #4]
 8002b1a:	2250      	movs	r2, #80	; 0x50
 8002b1c:	2100      	movs	r1, #0
 8002b1e:	5499      	strb	r1, [r3, r2]
    return HAL_ERROR;
 8002b20:	2301      	movs	r3, #1
 8002b22:	e132      	b.n	8002d8a <HAL_ADC_Init+0x2c6>
  }

  /* Set ADC state */
  ADC_STATE_CLR_SET(hadc->State,
 8002b24:	687b      	ldr	r3, [r7, #4]
 8002b26:	6d5b      	ldr	r3, [r3, #84]	; 0x54
 8002b28:	4a9a      	ldr	r2, [pc, #616]	; (8002d94 <HAL_ADC_Init+0x2d0>)
 8002b2a:	4013      	ands	r3, r2
 8002b2c:	2202      	movs	r2, #2
 8002b2e:	431a      	orrs	r2, r3
 8002b30:	687b      	ldr	r3, [r7, #4]
 8002b32:	655a      	str	r2, [r3, #84]	; 0x54
  /* Parameters update conditioned to ADC state:                            */
  /* Parameters that can be updated only when ADC is disabled:              */
  /*  - ADC clock mode                                                      */
  /*  - ADC clock prescaler                                                 */
  /*  - ADC Resolution                                                      */
  if (ADC_IS_ENABLE(hadc) == RESET)
 8002b34:	687b      	ldr	r3, [r7, #4]
 8002b36:	681b      	ldr	r3, [r3, #0]
 8002b38:	689b      	ldr	r3, [r3, #8]
 8002b3a:	2203      	movs	r2, #3
 8002b3c:	4013      	ands	r3, r2
 8002b3e:	2b01      	cmp	r3, #1
 8002b40:	d108      	bne.n	8002b54 <HAL_ADC_Init+0x90>
 8002b42:	687b      	ldr	r3, [r7, #4]
 8002b44:	681b      	ldr	r3, [r3, #0]
 8002b46:	681b      	ldr	r3, [r3, #0]
 8002b48:	2201      	movs	r2, #1
 8002b4a:	4013      	ands	r3, r2
 8002b4c:	2b01      	cmp	r3, #1
 8002b4e:	d101      	bne.n	8002b54 <HAL_ADC_Init+0x90>
 8002b50:	2301      	movs	r3, #1
 8002b52:	e000      	b.n	8002b56 <HAL_ADC_Init+0x92>
 8002b54:	2300      	movs	r3, #0
 8002b56:	2b00      	cmp	r3, #0
 8002b58:	d149      	bne.n	8002bee <HAL_ADC_Init+0x12a>
    /*   - internal measurement paths: Vbat, temperature sensor, Vref       */
    /*     (set into HAL_ADC_ConfigChannel() )                              */
   
    /* Configuration of ADC clock: clock source PCLK or asynchronous with 
    selectable prescaler */
    __HAL_ADC_CLOCK_PRESCALER(hadc);
 8002b5a:	687b      	ldr	r3, [r7, #4]
 8002b5c:	685a      	ldr	r2, [r3, #4]
 8002b5e:	23c0      	movs	r3, #192	; 0xc0
 8002b60:	061b      	lsls	r3, r3, #24
 8002b62:	429a      	cmp	r2, r3
 8002b64:	d00b      	beq.n	8002b7e <HAL_ADC_Init+0xba>
 8002b66:	687b      	ldr	r3, [r7, #4]
 8002b68:	685a      	ldr	r2, [r3, #4]
 8002b6a:	2380      	movs	r3, #128	; 0x80
 8002b6c:	05db      	lsls	r3, r3, #23
 8002b6e:	429a      	cmp	r2, r3
 8002b70:	d005      	beq.n	8002b7e <HAL_ADC_Init+0xba>
 8002b72:	687b      	ldr	r3, [r7, #4]
 8002b74:	685a      	ldr	r2, [r3, #4]
 8002b76:	2380      	movs	r3, #128	; 0x80
 8002b78:	061b      	lsls	r3, r3, #24
 8002b7a:	429a      	cmp	r2, r3
 8002b7c:	d111      	bne.n	8002ba2 <HAL_ADC_Init+0xde>
 8002b7e:	687b      	ldr	r3, [r7, #4]
 8002b80:	681b      	ldr	r3, [r3, #0]
 8002b82:	691a      	ldr	r2, [r3, #16]
 8002b84:	687b      	ldr	r3, [r7, #4]
 8002b86:	681b      	ldr	r3, [r3, #0]
 8002b88:	0092      	lsls	r2, r2, #2
 8002b8a:	0892      	lsrs	r2, r2, #2
 8002b8c:	611a      	str	r2, [r3, #16]
 8002b8e:	687b      	ldr	r3, [r7, #4]
 8002b90:	681b      	ldr	r3, [r3, #0]
 8002b92:	6919      	ldr	r1, [r3, #16]
 8002b94:	687b      	ldr	r3, [r7, #4]
 8002b96:	685a      	ldr	r2, [r3, #4]
 8002b98:	687b      	ldr	r3, [r7, #4]
 8002b9a:	681b      	ldr	r3, [r3, #0]
 8002b9c:	430a      	orrs	r2, r1
 8002b9e:	611a      	str	r2, [r3, #16]
 8002ba0:	e014      	b.n	8002bcc <HAL_ADC_Init+0x108>
 8002ba2:	687b      	ldr	r3, [r7, #4]
 8002ba4:	681b      	ldr	r3, [r3, #0]
 8002ba6:	691a      	ldr	r2, [r3, #16]
 8002ba8:	687b      	ldr	r3, [r7, #4]
 8002baa:	681b      	ldr	r3, [r3, #0]
 8002bac:	0092      	lsls	r2, r2, #2
 8002bae:	0892      	lsrs	r2, r2, #2
 8002bb0:	611a      	str	r2, [r3, #16]
 8002bb2:	4b79      	ldr	r3, [pc, #484]	; (8002d98 <HAL_ADC_Init+0x2d4>)
 8002bb4:	681a      	ldr	r2, [r3, #0]
 8002bb6:	4b78      	ldr	r3, [pc, #480]	; (8002d98 <HAL_ADC_Init+0x2d4>)
 8002bb8:	4978      	ldr	r1, [pc, #480]	; (8002d9c <HAL_ADC_Init+0x2d8>)
 8002bba:	400a      	ands	r2, r1
 8002bbc:	601a      	str	r2, [r3, #0]
 8002bbe:	4b76      	ldr	r3, [pc, #472]	; (8002d98 <HAL_ADC_Init+0x2d4>)
 8002bc0:	6819      	ldr	r1, [r3, #0]
 8002bc2:	687b      	ldr	r3, [r7, #4]
 8002bc4:	685a      	ldr	r2, [r3, #4]
 8002bc6:	4b74      	ldr	r3, [pc, #464]	; (8002d98 <HAL_ADC_Init+0x2d4>)
 8002bc8:	430a      	orrs	r2, r1
 8002bca:	601a      	str	r2, [r3, #0]
    
    /* Configuration of ADC:                                                */
    /*  - Resolution                                                        */
    hadc->Instance->CFGR1 &= ~( ADC_CFGR1_RES);
 8002bcc:	687b      	ldr	r3, [r7, #4]
 8002bce:	681b      	ldr	r3, [r3, #0]
 8002bd0:	68da      	ldr	r2, [r3, #12]
 8002bd2:	687b      	ldr	r3, [r7, #4]
 8002bd4:	681b      	ldr	r3, [r3, #0]
 8002bd6:	2118      	movs	r1, #24
 8002bd8:	438a      	bics	r2, r1
 8002bda:	60da      	str	r2, [r3, #12]
    hadc->Instance->CFGR1 |= hadc->Init.Resolution;    
 8002bdc:	687b      	ldr	r3, [r7, #4]
 8002bde:	681b      	ldr	r3, [r3, #0]
 8002be0:	68d9      	ldr	r1, [r3, #12]
 8002be2:	687b      	ldr	r3, [r7, #4]
 8002be4:	689a      	ldr	r2, [r3, #8]
 8002be6:	687b      	ldr	r3, [r7, #4]
 8002be8:	681b      	ldr	r3, [r3, #0]
 8002bea:	430a      	orrs	r2, r1
 8002bec:	60da      	str	r2, [r3, #12]
  }
  
  /* Set the Low Frequency mode */
  ADC->CCR &= (uint32_t)~ADC_CCR_LFMEN;
 8002bee:	4b6a      	ldr	r3, [pc, #424]	; (8002d98 <HAL_ADC_Init+0x2d4>)
 8002bf0:	681a      	ldr	r2, [r3, #0]
 8002bf2:	4b69      	ldr	r3, [pc, #420]	; (8002d98 <HAL_ADC_Init+0x2d4>)
 8002bf4:	496a      	ldr	r1, [pc, #424]	; (8002da0 <HAL_ADC_Init+0x2dc>)
 8002bf6:	400a      	ands	r2, r1
 8002bf8:	601a      	str	r2, [r3, #0]
  ADC->CCR |=__HAL_ADC_CCR_LOWFREQUENCY(hadc->Init.LowPowerFrequencyMode);  
 8002bfa:	4b67      	ldr	r3, [pc, #412]	; (8002d98 <HAL_ADC_Init+0x2d4>)
 8002bfc:	6819      	ldr	r1, [r3, #0]
 8002bfe:	687b      	ldr	r3, [r7, #4]
 8002c00:	6b5b      	ldr	r3, [r3, #52]	; 0x34
 8002c02:	065a      	lsls	r2, r3, #25
 8002c04:	4b64      	ldr	r3, [pc, #400]	; (8002d98 <HAL_ADC_Init+0x2d4>)
 8002c06:	430a      	orrs	r2, r1
 8002c08:	601a      	str	r2, [r3, #0]
   
  /* Enable voltage regulator (if disabled at this step) */
  if (HAL_IS_BIT_CLR(hadc->Instance->CR, ADC_CR_ADVREGEN))
 8002c0a:	687b      	ldr	r3, [r7, #4]
 8002c0c:	681b      	ldr	r3, [r3, #0]
 8002c0e:	689a      	ldr	r2, [r3, #8]
 8002c10:	2380      	movs	r3, #128	; 0x80
 8002c12:	055b      	lsls	r3, r3, #21
 8002c14:	4013      	ands	r3, r2
 8002c16:	d108      	bne.n	8002c2a <HAL_ADC_Init+0x166>
  {
    /* Set ADVREGEN bit */
    hadc->Instance->CR |= ADC_CR_ADVREGEN;
 8002c18:	687b      	ldr	r3, [r7, #4]
 8002c1a:	681b      	ldr	r3, [r3, #0]
 8002c1c:	689a      	ldr	r2, [r3, #8]
 8002c1e:	687b      	ldr	r3, [r7, #4]
 8002c20:	681b      	ldr	r3, [r3, #0]
 8002c22:	2180      	movs	r1, #128	; 0x80
 8002c24:	0549      	lsls	r1, r1, #21
 8002c26:	430a      	orrs	r2, r1
 8002c28:	609a      	str	r2, [r3, #8]
  /*  - Continuous conversion mode                                            */
  /*  - DMA continuous request                                                */
  /*  - Overrun                                                               */
  /*  - AutoDelay feature                                                     */
  /*  - Discontinuous mode                                                    */
  hadc->Instance->CFGR1 &= ~(ADC_CFGR1_ALIGN   |
 8002c2a:	687b      	ldr	r3, [r7, #4]
 8002c2c:	681b      	ldr	r3, [r3, #0]
 8002c2e:	68da      	ldr	r2, [r3, #12]
 8002c30:	687b      	ldr	r3, [r7, #4]
 8002c32:	681b      	ldr	r3, [r3, #0]
 8002c34:	495b      	ldr	r1, [pc, #364]	; (8002da4 <HAL_ADC_Init+0x2e0>)
 8002c36:	400a      	ands	r2, r1
 8002c38:	60da      	str	r2, [r3, #12]
                             ADC_CFGR1_OVRMOD  |
                             ADC_CFGR1_AUTDLY  |
                             ADC_CFGR1_AUTOFF  |
                             ADC_CFGR1_DISCEN   );
  
  hadc->Instance->CFGR1 |= (hadc->Init.DataAlign                             |
 8002c3a:	687b      	ldr	r3, [r7, #4]
 8002c3c:	681b      	ldr	r3, [r3, #0]
 8002c3e:	68d9      	ldr	r1, [r3, #12]
 8002c40:	687b      	ldr	r3, [r7, #4]
 8002c42:	68da      	ldr	r2, [r3, #12]
                            ADC_SCANDIR(hadc->Init.ScanConvMode)             |
 8002c44:	687b      	ldr	r3, [r7, #4]
 8002c46:	691b      	ldr	r3, [r3, #16]
 8002c48:	2b02      	cmp	r3, #2
 8002c4a:	d101      	bne.n	8002c50 <HAL_ADC_Init+0x18c>
 8002c4c:	2304      	movs	r3, #4
 8002c4e:	e000      	b.n	8002c52 <HAL_ADC_Init+0x18e>
 8002c50:	2300      	movs	r3, #0
  hadc->Instance->CFGR1 |= (hadc->Init.DataAlign                             |
 8002c52:	431a      	orrs	r2, r3
                            ADC_CONTINUOUS((uint32_t)hadc->Init.ContinuousConvMode)    |
 8002c54:	687b      	ldr	r3, [r7, #4]
 8002c56:	2020      	movs	r0, #32
 8002c58:	5c1b      	ldrb	r3, [r3, r0]
 8002c5a:	035b      	lsls	r3, r3, #13
                            ADC_SCANDIR(hadc->Init.ScanConvMode)             |
 8002c5c:	431a      	orrs	r2, r3
                            ADC_DMACONTREQ((uint32_t)hadc->Init.DMAContinuousRequests) |
 8002c5e:	687b      	ldr	r3, [r7, #4]
 8002c60:	202c      	movs	r0, #44	; 0x2c
 8002c62:	5c1b      	ldrb	r3, [r3, r0]
 8002c64:	005b      	lsls	r3, r3, #1
                            ADC_CONTINUOUS((uint32_t)hadc->Init.ContinuousConvMode)    |
 8002c66:	431a      	orrs	r2, r3
                            hadc->Init.Overrun                               |
 8002c68:	687b      	ldr	r3, [r7, #4]
 8002c6a:	6b1b      	ldr	r3, [r3, #48]	; 0x30
                            ADC_DMACONTREQ((uint32_t)hadc->Init.DMAContinuousRequests) |
 8002c6c:	431a      	orrs	r2, r3
                            __HAL_ADC_CFGR1_AutoDelay(hadc->Init.LowPowerAutoWait) |
 8002c6e:	687b      	ldr	r3, [r7, #4]
 8002c70:	699b      	ldr	r3, [r3, #24]
 8002c72:	039b      	lsls	r3, r3, #14
                            hadc->Init.Overrun                               |
 8002c74:	431a      	orrs	r2, r3
                            __HAL_ADC_CFGR1_AUTOFF(hadc->Init.LowPowerAutoPowerOff));
 8002c76:	687b      	ldr	r3, [r7, #4]
 8002c78:	69db      	ldr	r3, [r3, #28]
 8002c7a:	03db      	lsls	r3, r3, #15
                            __HAL_ADC_CFGR1_AutoDelay(hadc->Init.LowPowerAutoWait) |
 8002c7c:	431a      	orrs	r2, r3
  hadc->Instance->CFGR1 |= (hadc->Init.DataAlign                             |
 8002c7e:	687b      	ldr	r3, [r7, #4]
 8002c80:	681b      	ldr	r3, [r3, #0]
 8002c82:	430a      	orrs	r2, r1
 8002c84:	60da      	str	r2, [r3, #12]
  /* Enable external trigger if trigger selection is different of software  */
  /* start.                                                                 */
  /* Note: This configuration keeps the hardware feature of parameter       */
  /*       ExternalTrigConvEdge "trigger edge none" equivalent to           */
  /*       software start.                                                  */
  if (hadc->Init.ExternalTrigConv != ADC_SOFTWARE_START)
 8002c86:	687b      	ldr	r3, [r7, #4]
 8002c88:	6a5a      	ldr	r2, [r3, #36]	; 0x24
 8002c8a:	23c2      	movs	r3, #194	; 0xc2
 8002c8c:	33ff      	adds	r3, #255	; 0xff
 8002c8e:	429a      	cmp	r2, r3
 8002c90:	d00b      	beq.n	8002caa <HAL_ADC_Init+0x1e6>
  {
    hadc->Instance->CFGR1 |= hadc->Init.ExternalTrigConv |
 8002c92:	687b      	ldr	r3, [r7, #4]
 8002c94:	681b      	ldr	r3, [r3, #0]
 8002c96:	68d9      	ldr	r1, [r3, #12]
 8002c98:	687b      	ldr	r3, [r7, #4]
 8002c9a:	6a5a      	ldr	r2, [r3, #36]	; 0x24
                             hadc->Init.ExternalTrigConvEdge;
 8002c9c:	687b      	ldr	r3, [r7, #4]
 8002c9e:	6a9b      	ldr	r3, [r3, #40]	; 0x28
    hadc->Instance->CFGR1 |= hadc->Init.ExternalTrigConv |
 8002ca0:	431a      	orrs	r2, r3
 8002ca2:	687b      	ldr	r3, [r7, #4]
 8002ca4:	681b      	ldr	r3, [r3, #0]
 8002ca6:	430a      	orrs	r2, r1
 8002ca8:	60da      	str	r2, [r3, #12]
  }
  
  /* Enable discontinuous mode only if continuous mode is disabled */
  if (hadc->Init.DiscontinuousConvMode == ENABLE)
 8002caa:	687b      	ldr	r3, [r7, #4]
 8002cac:	2221      	movs	r2, #33	; 0x21
 8002cae:	5c9b      	ldrb	r3, [r3, r2]
 8002cb0:	2b01      	cmp	r3, #1
 8002cb2:	d11a      	bne.n	8002cea <HAL_ADC_Init+0x226>
  {
    if (hadc->Init.ContinuousConvMode == DISABLE)
 8002cb4:	687b      	ldr	r3, [r7, #4]
 8002cb6:	2220      	movs	r2, #32
 8002cb8:	5c9b      	ldrb	r3, [r3, r2]
 8002cba:	2b00      	cmp	r3, #0
 8002cbc:	d109      	bne.n	8002cd2 <HAL_ADC_Init+0x20e>
    {
      /* Enable the selected ADC group regular discontinuous mode */
      hadc->Instance->CFGR1 |= (ADC_CFGR1_DISCEN);
 8002cbe:	687b      	ldr	r3, [r7, #4]
 8002cc0:	681b      	ldr	r3, [r3, #0]
 8002cc2:	68da      	ldr	r2, [r3, #12]
 8002cc4:	687b      	ldr	r3, [r7, #4]
 8002cc6:	681b      	ldr	r3, [r3, #0]
 8002cc8:	2180      	movs	r1, #128	; 0x80
 8002cca:	0249      	lsls	r1, r1, #9
 8002ccc:	430a      	orrs	r2, r1
 8002cce:	60da      	str	r2, [r3, #12]
 8002cd0:	e00b      	b.n	8002cea <HAL_ADC_Init+0x226>
      /* ADC regular group discontinuous was intended to be enabled,        */
      /* but ADC regular group modes continuous and sequencer discontinuous */
      /* cannot be enabled simultaneously.                                  */
      
      /* Update ADC state machine to error */
      SET_BIT(hadc->State, HAL_ADC_STATE_ERROR_CONFIG);
 8002cd2:	687b      	ldr	r3, [r7, #4]
 8002cd4:	6d5b      	ldr	r3, [r3, #84]	; 0x54
 8002cd6:	2220      	movs	r2, #32
 8002cd8:	431a      	orrs	r2, r3
 8002cda:	687b      	ldr	r3, [r7, #4]
 8002cdc:	655a      	str	r2, [r3, #84]	; 0x54
      
      /* Set ADC error code to ADC peripheral internal error */
      SET_BIT(hadc->ErrorCode, HAL_ADC_ERROR_INTERNAL);
 8002cde:	687b      	ldr	r3, [r7, #4]
 8002ce0:	6d9b      	ldr	r3, [r3, #88]	; 0x58
 8002ce2:	2201      	movs	r2, #1
 8002ce4:	431a      	orrs	r2, r3
 8002ce6:	687b      	ldr	r3, [r7, #4]
 8002ce8:	659a      	str	r2, [r3, #88]	; 0x58
    }
  }
  
  if (hadc->Init.OversamplingMode == ENABLE)
 8002cea:	687b      	ldr	r3, [r7, #4]
 8002cec:	6bdb      	ldr	r3, [r3, #60]	; 0x3c
 8002cee:	2b01      	cmp	r3, #1
 8002cf0:	d11f      	bne.n	8002d32 <HAL_ADC_Init+0x26e>
    /* Configuration of Oversampler:                                          */
    /*  - Oversampling Ratio                                                  */
    /*  - Right bit shift                                                     */
    /*  - Triggered mode                                                      */
    
    hadc->Instance->CFGR2 &= ~( ADC_CFGR2_OVSR |
 8002cf2:	687b      	ldr	r3, [r7, #4]
 8002cf4:	681b      	ldr	r3, [r3, #0]
 8002cf6:	691a      	ldr	r2, [r3, #16]
 8002cf8:	687b      	ldr	r3, [r7, #4]
 8002cfa:	681b      	ldr	r3, [r3, #0]
 8002cfc:	492a      	ldr	r1, [pc, #168]	; (8002da8 <HAL_ADC_Init+0x2e4>)
 8002cfe:	400a      	ands	r2, r1
 8002d00:	611a      	str	r2, [r3, #16]
                                ADC_CFGR2_OVSS |
                                ADC_CFGR2_TOVS );
    
    hadc->Instance->CFGR2 |= ( hadc->Init.Oversample.Ratio         |
 8002d02:	687b      	ldr	r3, [r7, #4]
 8002d04:	681b      	ldr	r3, [r3, #0]
 8002d06:	6919      	ldr	r1, [r3, #16]
 8002d08:	687b      	ldr	r3, [r7, #4]
 8002d0a:	6c1a      	ldr	r2, [r3, #64]	; 0x40
                               hadc->Init.Oversample.RightBitShift             |
 8002d0c:	687b      	ldr	r3, [r7, #4]
 8002d0e:	6c5b      	ldr	r3, [r3, #68]	; 0x44
    hadc->Instance->CFGR2 |= ( hadc->Init.Oversample.Ratio         |
 8002d10:	431a      	orrs	r2, r3
                               hadc->Init.Oversample.TriggeredMode );
 8002d12:	687b      	ldr	r3, [r7, #4]
 8002d14:	6c9b      	ldr	r3, [r3, #72]	; 0x48
                               hadc->Init.Oversample.RightBitShift             |
 8002d16:	431a      	orrs	r2, r3
    hadc->Instance->CFGR2 |= ( hadc->Init.Oversample.Ratio         |
 8002d18:	687b      	ldr	r3, [r7, #4]
 8002d1a:	681b      	ldr	r3, [r3, #0]
 8002d1c:	430a      	orrs	r2, r1
 8002d1e:	611a      	str	r2, [r3, #16]
    
    /* Enable OverSampling mode */
     hadc->Instance->CFGR2 |= ADC_CFGR2_OVSE;
 8002d20:	687b      	ldr	r3, [r7, #4]
 8002d22:	681b      	ldr	r3, [r3, #0]
 8002d24:	691a      	ldr	r2, [r3, #16]
 8002d26:	687b      	ldr	r3, [r7, #4]
 8002d28:	681b      	ldr	r3, [r3, #0]
 8002d2a:	2101      	movs	r1, #1
 8002d2c:	430a      	orrs	r2, r1
 8002d2e:	611a      	str	r2, [r3, #16]
 8002d30:	e00e      	b.n	8002d50 <HAL_ADC_Init+0x28c>
  }
  else
  {
    if(HAL_IS_BIT_SET(hadc->Instance->CFGR2, ADC_CFGR2_OVSE))
 8002d32:	687b      	ldr	r3, [r7, #4]
 8002d34:	681b      	ldr	r3, [r3, #0]
 8002d36:	691b      	ldr	r3, [r3, #16]
 8002d38:	2201      	movs	r2, #1
 8002d3a:	4013      	ands	r3, r2
 8002d3c:	2b01      	cmp	r3, #1
 8002d3e:	d107      	bne.n	8002d50 <HAL_ADC_Init+0x28c>
    {
      /* Disable OverSampling mode if needed */
      hadc->Instance->CFGR2 &= ~ADC_CFGR2_OVSE;
 8002d40:	687b      	ldr	r3, [r7, #4]
 8002d42:	681b      	ldr	r3, [r3, #0]
 8002d44:	691a      	ldr	r2, [r3, #16]
 8002d46:	687b      	ldr	r3, [r7, #4]
 8002d48:	681b      	ldr	r3, [r3, #0]
 8002d4a:	2101      	movs	r1, #1
 8002d4c:	438a      	bics	r2, r1
 8002d4e:	611a      	str	r2, [r3, #16]
    }
  }    
  
  /* Clear the old sampling time */
  hadc->Instance->SMPR &= (uint32_t)(~ADC_SMPR_SMPR);
 8002d50:	687b      	ldr	r3, [r7, #4]
 8002d52:	681b      	ldr	r3, [r3, #0]
 8002d54:	695a      	ldr	r2, [r3, #20]
 8002d56:	687b      	ldr	r3, [r7, #4]
 8002d58:	681b      	ldr	r3, [r3, #0]
 8002d5a:	2107      	movs	r1, #7
 8002d5c:	438a      	bics	r2, r1
 8002d5e:	615a      	str	r2, [r3, #20]
  
  /* Set the new sample time */
  hadc->Instance->SMPR |= hadc->Init.SamplingTime;
 8002d60:	687b      	ldr	r3, [r7, #4]
 8002d62:	681b      	ldr	r3, [r3, #0]
 8002d64:	6959      	ldr	r1, [r3, #20]
 8002d66:	687b      	ldr	r3, [r7, #4]
 8002d68:	6b9a      	ldr	r2, [r3, #56]	; 0x38
 8002d6a:	687b      	ldr	r3, [r7, #4]
 8002d6c:	681b      	ldr	r3, [r3, #0]
 8002d6e:	430a      	orrs	r2, r1
 8002d70:	615a      	str	r2, [r3, #20]
  
  /* Clear ADC error code */
  ADC_CLEAR_ERRORCODE(hadc);
 8002d72:	687b      	ldr	r3, [r7, #4]
 8002d74:	2200      	movs	r2, #0
 8002d76:	659a      	str	r2, [r3, #88]	; 0x58

  /* Set the ADC state */
  ADC_STATE_CLR_SET(hadc->State,
 8002d78:	687b      	ldr	r3, [r7, #4]
 8002d7a:	6d5b      	ldr	r3, [r3, #84]	; 0x54
 8002d7c:	2203      	movs	r2, #3
 8002d7e:	4393      	bics	r3, r2
 8002d80:	2201      	movs	r2, #1
 8002d82:	431a      	orrs	r2, r3
 8002d84:	687b      	ldr	r3, [r7, #4]
 8002d86:	655a      	str	r2, [r3, #84]	; 0x54
                    HAL_ADC_STATE_BUSY_INTERNAL,
                    HAL_ADC_STATE_READY);


  /* Return function status */
  return HAL_OK;
 8002d88:	2300      	movs	r3, #0
}
 8002d8a:	0018      	movs	r0, r3
 8002d8c:	46bd      	mov	sp, r7
 8002d8e:	b002      	add	sp, #8
 8002d90:	bd80      	pop	{r7, pc}
 8002d92:	46c0      	nop			; (mov r8, r8)
 8002d94:	fffffefd 	.word	0xfffffefd
 8002d98:	40012708 	.word	0x40012708
 8002d9c:	ffc3ffff 	.word	0xffc3ffff
 8002da0:	fdffffff 	.word	0xfdffffff
 8002da4:	fffe0219 	.word	0xfffe0219
 8002da8:	fffffc03 	.word	0xfffffc03

08002dac <HAL_ADC_Start>:
  * @note   Interruptions enabled in this function: None.
  * @param  hadc ADC handle
  * @retval HAL status
  */
HAL_StatusTypeDef HAL_ADC_Start(ADC_HandleTypeDef* hadc)
{
 8002dac:	b590      	push	{r4, r7, lr}
 8002dae:	b085      	sub	sp, #20
 8002db0:	af00      	add	r7, sp, #0
 8002db2:	6078      	str	r0, [r7, #4]
  HAL_StatusTypeDef tmp_hal_status = HAL_OK;
 8002db4:	230f      	movs	r3, #15
 8002db6:	18fb      	adds	r3, r7, r3
 8002db8:	2200      	movs	r2, #0
 8002dba:	701a      	strb	r2, [r3, #0]
  
  /* Check the parameters */
  assert_param(IS_ADC_ALL_INSTANCE(hadc->Instance));
  
  /* Perform ADC enable and conversion start if no conversion is on going */
  if (ADC_IS_CONVERSION_ONGOING_REGULAR(hadc) == RESET)
 8002dbc:	687b      	ldr	r3, [r7, #4]
 8002dbe:	681b      	ldr	r3, [r3, #0]
 8002dc0:	689b      	ldr	r3, [r3, #8]
 8002dc2:	2204      	movs	r2, #4
 8002dc4:	4013      	ands	r3, r2
 8002dc6:	d138      	bne.n	8002e3a <HAL_ADC_Start+0x8e>
  {
    /* Process locked */
    __HAL_LOCK(hadc);
 8002dc8:	687b      	ldr	r3, [r7, #4]
 8002dca:	2250      	movs	r2, #80	; 0x50
 8002dcc:	5c9b      	ldrb	r3, [r3, r2]
 8002dce:	2b01      	cmp	r3, #1
 8002dd0:	d101      	bne.n	8002dd6 <HAL_ADC_Start+0x2a>
 8002dd2:	2302      	movs	r3, #2
 8002dd4:	e038      	b.n	8002e48 <HAL_ADC_Start+0x9c>
 8002dd6:	687b      	ldr	r3, [r7, #4]
 8002dd8:	2250      	movs	r2, #80	; 0x50
 8002dda:	2101      	movs	r1, #1
 8002ddc:	5499      	strb	r1, [r3, r2]
    
    /* Enable the ADC peripheral */
    /* If low power mode AutoPowerOff is enabled, power-on/off phases are     */
    /* performed automatically by hardware.                                   */
    if (hadc->Init.LowPowerAutoPowerOff != ENABLE)
 8002dde:	687b      	ldr	r3, [r7, #4]
 8002de0:	69db      	ldr	r3, [r3, #28]
 8002de2:	2b01      	cmp	r3, #1
 8002de4:	d007      	beq.n	8002df6 <HAL_ADC_Start+0x4a>
    {
      tmp_hal_status = ADC_Enable(hadc);
 8002de6:	230f      	movs	r3, #15
 8002de8:	18fc      	adds	r4, r7, r3
 8002dea:	687b      	ldr	r3, [r7, #4]
 8002dec:	0018      	movs	r0, r3
 8002dee:	f000 f979 	bl	80030e4 <ADC_Enable>
 8002df2:	0003      	movs	r3, r0
 8002df4:	7023      	strb	r3, [r4, #0]
    }
    
    /* Start conversion if ADC is effectively enabled */
    if (tmp_hal_status == HAL_OK)
 8002df6:	230f      	movs	r3, #15
 8002df8:	18fb      	adds	r3, r7, r3
 8002dfa:	781b      	ldrb	r3, [r3, #0]
 8002dfc:	2b00      	cmp	r3, #0
 8002dfe:	d120      	bne.n	8002e42 <HAL_ADC_Start+0x96>
    {
      /* Set ADC state                                                        */
      /* - Clear state bitfield related to regular group conversion results   */
      /* - Set state bitfield related to regular operation                    */
      ADC_STATE_CLR_SET(hadc->State,
 8002e00:	687b      	ldr	r3, [r7, #4]
 8002e02:	6d5b      	ldr	r3, [r3, #84]	; 0x54
 8002e04:	4a12      	ldr	r2, [pc, #72]	; (8002e50 <HAL_ADC_Start+0xa4>)
 8002e06:	4013      	ands	r3, r2
 8002e08:	2280      	movs	r2, #128	; 0x80
 8002e0a:	0052      	lsls	r2, r2, #1
 8002e0c:	431a      	orrs	r2, r3
 8002e0e:	687b      	ldr	r3, [r7, #4]
 8002e10:	655a      	str	r2, [r3, #84]	; 0x54
                        HAL_ADC_STATE_READY | HAL_ADC_STATE_REG_EOC | HAL_ADC_STATE_REG_OVR | HAL_ADC_STATE_REG_EOSMP,
                        HAL_ADC_STATE_REG_BUSY);
      
      /* Reset ADC all error code fields */
      ADC_CLEAR_ERRORCODE(hadc);
 8002e12:	687b      	ldr	r3, [r7, #4]
 8002e14:	2200      	movs	r2, #0
 8002e16:	659a      	str	r2, [r3, #88]	; 0x58
      
      /* Process unlocked */
      /* Unlock before starting ADC conversions: in case of potential         */
      /* interruption, to let the process to ADC IRQ Handler.                 */
      __HAL_UNLOCK(hadc);
 8002e18:	687b      	ldr	r3, [r7, #4]
 8002e1a:	2250      	movs	r2, #80	; 0x50
 8002e1c:	2100      	movs	r1, #0
 8002e1e:	5499      	strb	r1, [r3, r2]
      
      /* Clear regular group conversion flag and overrun flag */
      /* (To ensure of no unknown state from potential previous ADC           */
      /* operations)                                                          */
      __HAL_ADC_CLEAR_FLAG(hadc, (ADC_FLAG_EOC | ADC_FLAG_EOS | ADC_FLAG_OVR));
 8002e20:	687b      	ldr	r3, [r7, #4]
 8002e22:	681b      	ldr	r3, [r3, #0]
 8002e24:	221c      	movs	r2, #28
 8002e26:	601a      	str	r2, [r3, #0]
      
      /* Enable conversion of regular group.                                  */
      /* If software start has been selected, conversion starts immediately.  */
      /* If external trigger has been selected, conversion will start at next */
      /* trigger event.                                                       */
      hadc->Instance->CR |= ADC_CR_ADSTART;
 8002e28:	687b      	ldr	r3, [r7, #4]
 8002e2a:	681b      	ldr	r3, [r3, #0]
 8002e2c:	689a      	ldr	r2, [r3, #8]
 8002e2e:	687b      	ldr	r3, [r7, #4]
 8002e30:	681b      	ldr	r3, [r3, #0]
 8002e32:	2104      	movs	r1, #4
 8002e34:	430a      	orrs	r2, r1
 8002e36:	609a      	str	r2, [r3, #8]
 8002e38:	e003      	b.n	8002e42 <HAL_ADC_Start+0x96>
    }
  }
  else
  {
    tmp_hal_status = HAL_BUSY;
 8002e3a:	230f      	movs	r3, #15
 8002e3c:	18fb      	adds	r3, r7, r3
 8002e3e:	2202      	movs	r2, #2
 8002e40:	701a      	strb	r2, [r3, #0]
  }
  
  /* Return function status */
  return tmp_hal_status;
 8002e42:	230f      	movs	r3, #15
 8002e44:	18fb      	adds	r3, r7, r3
 8002e46:	781b      	ldrb	r3, [r3, #0]
}
 8002e48:	0018      	movs	r0, r3
 8002e4a:	46bd      	mov	sp, r7
 8002e4c:	b005      	add	sp, #20
 8002e4e:	bd90      	pop	{r4, r7, pc}
 8002e50:	fffff0fe 	.word	0xfffff0fe

08002e54 <HAL_ADC_PollForConversion>:
  * @param  hadc ADC handle
  * @param  Timeout Timeout value in millisecond.
  * @retval HAL status
  */
HAL_StatusTypeDef HAL_ADC_PollForConversion(ADC_HandleTypeDef* hadc, uint32_t Timeout)
{
 8002e54:	b580      	push	{r7, lr}
 8002e56:	b084      	sub	sp, #16
 8002e58:	af00      	add	r7, sp, #0
 8002e5a:	6078      	str	r0, [r7, #4]
 8002e5c:	6039      	str	r1, [r7, #0]
  uint32_t tickstart = 0;
 8002e5e:	2300      	movs	r3, #0
 8002e60:	60bb      	str	r3, [r7, #8]
  uint32_t tmp_Flag_EOC   = 0x00;
 8002e62:	2300      	movs	r3, #0
 8002e64:	60fb      	str	r3, [r7, #12]
  
  /* Check the parameters */
  assert_param(IS_ADC_ALL_INSTANCE(hadc->Instance));
  
  /* If end of conversion selected to end of sequence conversions */
  if (hadc->Init.EOCSelection == ADC_EOC_SEQ_CONV)
 8002e66:	687b      	ldr	r3, [r7, #4]
 8002e68:	695b      	ldr	r3, [r3, #20]
 8002e6a:	2b08      	cmp	r3, #8
 8002e6c:	d102      	bne.n	8002e74 <HAL_ADC_PollForConversion+0x20>
  {
    tmp_Flag_EOC = ADC_FLAG_EOS;
 8002e6e:	2308      	movs	r3, #8
 8002e70:	60fb      	str	r3, [r7, #12]
 8002e72:	e014      	b.n	8002e9e <HAL_ADC_PollForConversion+0x4a>
    /* each conversion:                                                       */
    /* Particular case is ADC configured in DMA mode and ADC sequencer with   */
    /* several ranks and polling for end of each conversion.                  */
    /* For code simplicity sake, this particular case is generalized to       */
    /* ADC configured in DMA mode and and polling for end of each conversion. */
    if (HAL_IS_BIT_SET(hadc->Instance->CFGR1, ADC_CFGR1_DMAEN))
 8002e74:	687b      	ldr	r3, [r7, #4]
 8002e76:	681b      	ldr	r3, [r3, #0]
 8002e78:	68db      	ldr	r3, [r3, #12]
 8002e7a:	2201      	movs	r2, #1
 8002e7c:	4013      	ands	r3, r2
 8002e7e:	2b01      	cmp	r3, #1
 8002e80:	d10b      	bne.n	8002e9a <HAL_ADC_PollForConversion+0x46>
    {
      /* Update ADC state machine to error */
      SET_BIT(hadc->State, HAL_ADC_STATE_ERROR_CONFIG);
 8002e82:	687b      	ldr	r3, [r7, #4]
 8002e84:	6d5b      	ldr	r3, [r3, #84]	; 0x54
 8002e86:	2220      	movs	r2, #32
 8002e88:	431a      	orrs	r2, r3
 8002e8a:	687b      	ldr	r3, [r7, #4]
 8002e8c:	655a      	str	r2, [r3, #84]	; 0x54
      
      /* Process unlocked */
      __HAL_UNLOCK(hadc);
 8002e8e:	687b      	ldr	r3, [r7, #4]
 8002e90:	2250      	movs	r2, #80	; 0x50
 8002e92:	2100      	movs	r1, #0
 8002e94:	5499      	strb	r1, [r3, r2]
      
      return HAL_ERROR;
 8002e96:	2301      	movs	r3, #1
 8002e98:	e072      	b.n	8002f80 <HAL_ADC_PollForConversion+0x12c>
    }
    else
    {
      tmp_Flag_EOC = (ADC_FLAG_EOC | ADC_FLAG_EOS);
 8002e9a:	230c      	movs	r3, #12
 8002e9c:	60fb      	str	r3, [r7, #12]
    }
  }
  
  /* Get tick count */
  tickstart = HAL_GetTick();
 8002e9e:	f7ff fde3 	bl	8002a68 <HAL_GetTick>
 8002ea2:	0003      	movs	r3, r0
 8002ea4:	60bb      	str	r3, [r7, #8]
  
  /* Wait until End of unitary conversion or sequence conversions flag is raised */
  while(HAL_IS_BIT_CLR(hadc->Instance->ISR, tmp_Flag_EOC))
 8002ea6:	e01f      	b.n	8002ee8 <HAL_ADC_PollForConversion+0x94>
  {
    /* Check if timeout is disabled (set to infinite wait) */
    if(Timeout != HAL_MAX_DELAY)
 8002ea8:	683b      	ldr	r3, [r7, #0]
 8002eaa:	3301      	adds	r3, #1
 8002eac:	d01c      	beq.n	8002ee8 <HAL_ADC_PollForConversion+0x94>
    {
      if((Timeout == 0U) || ((HAL_GetTick()-tickstart) > Timeout))
 8002eae:	683b      	ldr	r3, [r7, #0]
 8002eb0:	2b00      	cmp	r3, #0
 8002eb2:	d007      	beq.n	8002ec4 <HAL_ADC_PollForConversion+0x70>
 8002eb4:	f7ff fdd8 	bl	8002a68 <HAL_GetTick>
 8002eb8:	0002      	movs	r2, r0
 8002eba:	68bb      	ldr	r3, [r7, #8]
 8002ebc:	1ad3      	subs	r3, r2, r3
 8002ebe:	683a      	ldr	r2, [r7, #0]
 8002ec0:	429a      	cmp	r2, r3
 8002ec2:	d211      	bcs.n	8002ee8 <HAL_ADC_PollForConversion+0x94>
      {
        /* New check to avoid false timeout detection in case of preemption */
        if(HAL_IS_BIT_CLR(hadc->Instance->ISR, tmp_Flag_EOC))
 8002ec4:	687b      	ldr	r3, [r7, #4]
 8002ec6:	681b      	ldr	r3, [r3, #0]
 8002ec8:	681b      	ldr	r3, [r3, #0]
 8002eca:	68fa      	ldr	r2, [r7, #12]
 8002ecc:	4013      	ands	r3, r2
 8002ece:	d10b      	bne.n	8002ee8 <HAL_ADC_PollForConversion+0x94>
        {
          /* Update ADC state machine to timeout */
          SET_BIT(hadc->State, HAL_ADC_STATE_TIMEOUT);
 8002ed0:	687b      	ldr	r3, [r7, #4]
 8002ed2:	6d5b      	ldr	r3, [r3, #84]	; 0x54
 8002ed4:	2204      	movs	r2, #4
 8002ed6:	431a      	orrs	r2, r3
 8002ed8:	687b      	ldr	r3, [r7, #4]
 8002eda:	655a      	str	r2, [r3, #84]	; 0x54

          /* Process unlocked */
          __HAL_UNLOCK(hadc);
 8002edc:	687b      	ldr	r3, [r7, #4]
 8002ede:	2250      	movs	r2, #80	; 0x50
 8002ee0:	2100      	movs	r1, #0
 8002ee2:	5499      	strb	r1, [r3, r2]

          return HAL_TIMEOUT;
 8002ee4:	2303      	movs	r3, #3
 8002ee6:	e04b      	b.n	8002f80 <HAL_ADC_PollForConversion+0x12c>
  while(HAL_IS_BIT_CLR(hadc->Instance->ISR, tmp_Flag_EOC))
 8002ee8:	687b      	ldr	r3, [r7, #4]
 8002eea:	681b      	ldr	r3, [r3, #0]
 8002eec:	681b      	ldr	r3, [r3, #0]
 8002eee:	68fa      	ldr	r2, [r7, #12]
 8002ef0:	4013      	ands	r3, r2
 8002ef2:	d0d9      	beq.n	8002ea8 <HAL_ADC_PollForConversion+0x54>
      }
    }
  }
  
  /* Update ADC state machine */
  SET_BIT(hadc->State, HAL_ADC_STATE_REG_EOC);
 8002ef4:	687b      	ldr	r3, [r7, #4]
 8002ef6:	6d5b      	ldr	r3, [r3, #84]	; 0x54
 8002ef8:	2280      	movs	r2, #128	; 0x80
 8002efa:	0092      	lsls	r2, r2, #2
 8002efc:	431a      	orrs	r2, r3
 8002efe:	687b      	ldr	r3, [r7, #4]
 8002f00:	655a      	str	r2, [r3, #84]	; 0x54
  
  /* Determine whether any further conversion upcoming on group regular       */
  /* by external trigger, continuous mode or scan sequence on going.          */
  if(ADC_IS_SOFTWARE_START_REGULAR(hadc)        && 
 8002f02:	687b      	ldr	r3, [r7, #4]
 8002f04:	681b      	ldr	r3, [r3, #0]
 8002f06:	68da      	ldr	r2, [r3, #12]
 8002f08:	23c0      	movs	r3, #192	; 0xc0
 8002f0a:	011b      	lsls	r3, r3, #4
 8002f0c:	4013      	ands	r3, r2
 8002f0e:	d12e      	bne.n	8002f6e <HAL_ADC_PollForConversion+0x11a>
     (hadc->Init.ContinuousConvMode == DISABLE)   )
 8002f10:	687b      	ldr	r3, [r7, #4]
 8002f12:	2220      	movs	r2, #32
 8002f14:	5c9b      	ldrb	r3, [r3, r2]
  if(ADC_IS_SOFTWARE_START_REGULAR(hadc)        && 
 8002f16:	2b00      	cmp	r3, #0
 8002f18:	d129      	bne.n	8002f6e <HAL_ADC_PollForConversion+0x11a>
  {
    /* If End of Sequence is reached, disable interrupts */
    if( __HAL_ADC_GET_FLAG(hadc, ADC_FLAG_EOS) )
 8002f1a:	687b      	ldr	r3, [r7, #4]
 8002f1c:	681b      	ldr	r3, [r3, #0]
 8002f1e:	681b      	ldr	r3, [r3, #0]
 8002f20:	2208      	movs	r2, #8
 8002f22:	4013      	ands	r3, r2
 8002f24:	2b08      	cmp	r3, #8
 8002f26:	d122      	bne.n	8002f6e <HAL_ADC_PollForConversion+0x11a>
    {
      /* Allowed to modify bits ADC_IT_EOC/ADC_IT_EOS only if bit             */
      /* ADSTART==0 (no conversion on going)                                  */
      if (ADC_IS_CONVERSION_ONGOING_REGULAR(hadc) == RESET)
 8002f28:	687b      	ldr	r3, [r7, #4]
 8002f2a:	681b      	ldr	r3, [r3, #0]
 8002f2c:	689b      	ldr	r3, [r3, #8]
 8002f2e:	2204      	movs	r2, #4
 8002f30:	4013      	ands	r3, r2
 8002f32:	d110      	bne.n	8002f56 <HAL_ADC_PollForConversion+0x102>
      {
        /* Disable ADC end of single conversion interrupt on group regular */
        /* Note: Overrun interrupt was enabled with EOC interrupt in          */
        /* HAL_Start_IT(), but is not disabled here because can be used       */
        /* by overrun IRQ process below.                                      */
        __HAL_ADC_DISABLE_IT(hadc, ADC_IT_EOC | ADC_IT_EOS);
 8002f34:	687b      	ldr	r3, [r7, #4]
 8002f36:	681b      	ldr	r3, [r3, #0]
 8002f38:	685a      	ldr	r2, [r3, #4]
 8002f3a:	687b      	ldr	r3, [r7, #4]
 8002f3c:	681b      	ldr	r3, [r3, #0]
 8002f3e:	210c      	movs	r1, #12
 8002f40:	438a      	bics	r2, r1
 8002f42:	605a      	str	r2, [r3, #4]
        
        /* Set ADC state */
        ADC_STATE_CLR_SET(hadc->State,
 8002f44:	687b      	ldr	r3, [r7, #4]
 8002f46:	6d5b      	ldr	r3, [r3, #84]	; 0x54
 8002f48:	4a0f      	ldr	r2, [pc, #60]	; (8002f88 <HAL_ADC_PollForConversion+0x134>)
 8002f4a:	4013      	ands	r3, r2
 8002f4c:	2201      	movs	r2, #1
 8002f4e:	431a      	orrs	r2, r3
 8002f50:	687b      	ldr	r3, [r7, #4]
 8002f52:	655a      	str	r2, [r3, #84]	; 0x54
 8002f54:	e00b      	b.n	8002f6e <HAL_ADC_PollForConversion+0x11a>
                          HAL_ADC_STATE_READY);
      }
      else
      {
        /* Change ADC state to error state */
        SET_BIT(hadc->State, HAL_ADC_STATE_ERROR_CONFIG);
 8002f56:	687b      	ldr	r3, [r7, #4]
 8002f58:	6d5b      	ldr	r3, [r3, #84]	; 0x54
 8002f5a:	2220      	movs	r2, #32
 8002f5c:	431a      	orrs	r2, r3
 8002f5e:	687b      	ldr	r3, [r7, #4]
 8002f60:	655a      	str	r2, [r3, #84]	; 0x54
        
        /* Set ADC error code to ADC peripheral internal error */
        SET_BIT(hadc->ErrorCode, HAL_ADC_ERROR_INTERNAL);
 8002f62:	687b      	ldr	r3, [r7, #4]
 8002f64:	6d9b      	ldr	r3, [r3, #88]	; 0x58
 8002f66:	2201      	movs	r2, #1
 8002f68:	431a      	orrs	r2, r3
 8002f6a:	687b      	ldr	r3, [r7, #4]
 8002f6c:	659a      	str	r2, [r3, #88]	; 0x58
  }
  
  /* Clear end of conversion flag of regular group if low power feature       */
  /* "LowPowerAutoWait " is disabled, to not interfere with this feature      */
  /* until data register is read using function HAL_ADC_GetValue().           */
  if (hadc->Init.LowPowerAutoWait == DISABLE)
 8002f6e:	687b      	ldr	r3, [r7, #4]
 8002f70:	699b      	ldr	r3, [r3, #24]
 8002f72:	2b00      	cmp	r3, #0
 8002f74:	d103      	bne.n	8002f7e <HAL_ADC_PollForConversion+0x12a>
  {
    /* Clear regular group conversion flag */
    __HAL_ADC_CLEAR_FLAG(hadc, (ADC_FLAG_EOC | ADC_FLAG_EOS));
 8002f76:	687b      	ldr	r3, [r7, #4]
 8002f78:	681b      	ldr	r3, [r3, #0]
 8002f7a:	220c      	movs	r2, #12
 8002f7c:	601a      	str	r2, [r3, #0]
  }
  
  /* Return function status */
  return HAL_OK;
 8002f7e:	2300      	movs	r3, #0
}
 8002f80:	0018      	movs	r0, r3
 8002f82:	46bd      	mov	sp, r7
 8002f84:	b004      	add	sp, #16
 8002f86:	bd80      	pop	{r7, pc}
 8002f88:	fffffefe 	.word	0xfffffefe

08002f8c <HAL_ADC_GetValue>:
  *         or @ref __HAL_ADC_CLEAR_FLAG(&hadc, ADC_FLAG_EOS).
  * @param  hadc ADC handle
  * @retval ADC group regular conversion data
  */
uint32_t HAL_ADC_GetValue(ADC_HandleTypeDef* hadc)
{
 8002f8c:	b580      	push	{r7, lr}
 8002f8e:	b082      	sub	sp, #8
 8002f90:	af00      	add	r7, sp, #0
 8002f92:	6078      	str	r0, [r7, #4]

  /* Note: EOC flag is not cleared here by software because automatically     */
  /*       cleared by hardware when reading register DR.                      */
  
  /* Return ADC converted value */ 
  return hadc->Instance->DR;
 8002f94:	687b      	ldr	r3, [r7, #4]
 8002f96:	681b      	ldr	r3, [r3, #0]
 8002f98:	6c1b      	ldr	r3, [r3, #64]	; 0x40
}
 8002f9a:	0018      	movs	r0, r3
 8002f9c:	46bd      	mov	sp, r7
 8002f9e:	b002      	add	sp, #8
 8002fa0:	bd80      	pop	{r7, pc}
	...

08002fa4 <HAL_ADC_ConfigChannel>:
  * @param  hadc ADC handle
  * @param  sConfig Structure of ADC channel assigned to ADC group regular.
  * @retval HAL status
  */
HAL_StatusTypeDef HAL_ADC_ConfigChannel(ADC_HandleTypeDef* hadc, ADC_ChannelConfTypeDef* sConfig)
{
 8002fa4:	b580      	push	{r7, lr}
 8002fa6:	b082      	sub	sp, #8
 8002fa8:	af00      	add	r7, sp, #0
 8002faa:	6078      	str	r0, [r7, #4]
 8002fac:	6039      	str	r1, [r7, #0]
  assert_param(IS_ADC_ALL_INSTANCE(hadc->Instance));
  assert_param(IS_ADC_CHANNEL(sConfig->Channel));
  assert_param(IS_ADC_RANK(sConfig->Rank));
  
  /* Process locked */
  __HAL_LOCK(hadc);
 8002fae:	687b      	ldr	r3, [r7, #4]
 8002fb0:	2250      	movs	r2, #80	; 0x50
 8002fb2:	5c9b      	ldrb	r3, [r3, r2]
 8002fb4:	2b01      	cmp	r3, #1
 8002fb6:	d101      	bne.n	8002fbc <HAL_ADC_ConfigChannel+0x18>
 8002fb8:	2302      	movs	r3, #2
 8002fba:	e085      	b.n	80030c8 <HAL_ADC_ConfigChannel+0x124>
 8002fbc:	687b      	ldr	r3, [r7, #4]
 8002fbe:	2250      	movs	r2, #80	; 0x50
 8002fc0:	2101      	movs	r1, #1
 8002fc2:	5499      	strb	r1, [r3, r2]
  /* Parameters update conditioned to ADC state:                              */
  /* Parameters that can be updated when ADC is disabled or enabled without   */
  /* conversion on going on regular group:                                    */
  /*  - Channel number                                                        */
  /*  - Management of internal measurement channels: Vbat/VrefInt/TempSensor  */
  if (ADC_IS_CONVERSION_ONGOING_REGULAR(hadc) != RESET)
 8002fc4:	687b      	ldr	r3, [r7, #4]
 8002fc6:	681b      	ldr	r3, [r3, #0]
 8002fc8:	689b      	ldr	r3, [r3, #8]
 8002fca:	2204      	movs	r2, #4
 8002fcc:	4013      	ands	r3, r2
 8002fce:	d00b      	beq.n	8002fe8 <HAL_ADC_ConfigChannel+0x44>
  {
    /* Update ADC state machine to error */
    SET_BIT(hadc->State, HAL_ADC_STATE_ERROR_CONFIG);
 8002fd0:	687b      	ldr	r3, [r7, #4]
 8002fd2:	6d5b      	ldr	r3, [r3, #84]	; 0x54
 8002fd4:	2220      	movs	r2, #32
 8002fd6:	431a      	orrs	r2, r3
 8002fd8:	687b      	ldr	r3, [r7, #4]
 8002fda:	655a      	str	r2, [r3, #84]	; 0x54
    /* Process unlocked */
    __HAL_UNLOCK(hadc);
 8002fdc:	687b      	ldr	r3, [r7, #4]
 8002fde:	2250      	movs	r2, #80	; 0x50
 8002fe0:	2100      	movs	r1, #0
 8002fe2:	5499      	strb	r1, [r3, r2]
    return HAL_ERROR;
 8002fe4:	2301      	movs	r3, #1
 8002fe6:	e06f      	b.n	80030c8 <HAL_ADC_ConfigChannel+0x124>
  }
  
  if (sConfig->Rank != ADC_RANK_NONE)
 8002fe8:	683b      	ldr	r3, [r7, #0]
 8002fea:	685b      	ldr	r3, [r3, #4]
 8002fec:	4a38      	ldr	r2, [pc, #224]	; (80030d0 <HAL_ADC_ConfigChannel+0x12c>)
 8002fee:	4293      	cmp	r3, r2
 8002ff0:	d035      	beq.n	800305e <HAL_ADC_ConfigChannel+0xba>
  {
    /* Enable selected channels */
    hadc->Instance->CHSELR |= (uint32_t)(sConfig->Channel & ADC_CHANNEL_MASK);
 8002ff2:	687b      	ldr	r3, [r7, #4]
 8002ff4:	681b      	ldr	r3, [r3, #0]
 8002ff6:	6a99      	ldr	r1, [r3, #40]	; 0x28
 8002ff8:	683b      	ldr	r3, [r7, #0]
 8002ffa:	681b      	ldr	r3, [r3, #0]
 8002ffc:	035b      	lsls	r3, r3, #13
 8002ffe:	0b5a      	lsrs	r2, r3, #13
 8003000:	687b      	ldr	r3, [r7, #4]
 8003002:	681b      	ldr	r3, [r3, #0]
 8003004:	430a      	orrs	r2, r1
 8003006:	629a      	str	r2, [r3, #40]	; 0x28
    /* dedicated internal buffers and path.                                     */
    
    #if defined(ADC_CCR_TSEN)
    /* If Temperature sensor channel is selected, then enable the internal      */
    /* buffers and path  */
    if (((sConfig->Channel & ADC_CHANNEL_MASK) & ADC_CHANNEL_TEMPSENSOR ) == (ADC_CHANNEL_TEMPSENSOR & ADC_CHANNEL_MASK))
 8003008:	683b      	ldr	r3, [r7, #0]
 800300a:	681a      	ldr	r2, [r3, #0]
 800300c:	2380      	movs	r3, #128	; 0x80
 800300e:	02db      	lsls	r3, r3, #11
 8003010:	4013      	ands	r3, r2
 8003012:	d009      	beq.n	8003028 <HAL_ADC_ConfigChannel+0x84>
    {
      ADC->CCR |= ADC_CCR_TSEN;   
 8003014:	4b2f      	ldr	r3, [pc, #188]	; (80030d4 <HAL_ADC_ConfigChannel+0x130>)
 8003016:	681a      	ldr	r2, [r3, #0]
 8003018:	4b2e      	ldr	r3, [pc, #184]	; (80030d4 <HAL_ADC_ConfigChannel+0x130>)
 800301a:	2180      	movs	r1, #128	; 0x80
 800301c:	0409      	lsls	r1, r1, #16
 800301e:	430a      	orrs	r2, r1
 8003020:	601a      	str	r2, [r3, #0]
      
      /* Delay for temperature sensor stabilization time */
      ADC_DelayMicroSecond(ADC_TEMPSENSOR_DELAY_US);
 8003022:	200a      	movs	r0, #10
 8003024:	f000 f8c6 	bl	80031b4 <ADC_DelayMicroSecond>
    }
    #endif
    
    /* If VRefInt channel is selected, then enable the internal buffers and path   */
    if (((sConfig->Channel & ADC_CHANNEL_MASK) & ADC_CHANNEL_VREFINT) == (ADC_CHANNEL_VREFINT & ADC_CHANNEL_MASK))
 8003028:	683b      	ldr	r3, [r7, #0]
 800302a:	681a      	ldr	r2, [r3, #0]
 800302c:	2380      	movs	r3, #128	; 0x80
 800302e:	029b      	lsls	r3, r3, #10
 8003030:	4013      	ands	r3, r2
 8003032:	d006      	beq.n	8003042 <HAL_ADC_ConfigChannel+0x9e>
    {
      ADC->CCR |= ADC_CCR_VREFEN;   
 8003034:	4b27      	ldr	r3, [pc, #156]	; (80030d4 <HAL_ADC_ConfigChannel+0x130>)
 8003036:	681a      	ldr	r2, [r3, #0]
 8003038:	4b26      	ldr	r3, [pc, #152]	; (80030d4 <HAL_ADC_ConfigChannel+0x130>)
 800303a:	2180      	movs	r1, #128	; 0x80
 800303c:	03c9      	lsls	r1, r1, #15
 800303e:	430a      	orrs	r2, r1
 8003040:	601a      	str	r2, [r3, #0]
    }
    
#if defined (STM32L053xx) || defined (STM32L063xx) || defined (STM32L073xx) || defined (STM32L083xx)
    /* If Vlcd channel is selected, then enable the internal buffers and path   */
    if (((sConfig->Channel & ADC_CHANNEL_MASK) & ADC_CHANNEL_VLCD) == (ADC_CHANNEL_VLCD & ADC_CHANNEL_MASK))
 8003042:	683b      	ldr	r3, [r7, #0]
 8003044:	681a      	ldr	r2, [r3, #0]
 8003046:	2380      	movs	r3, #128	; 0x80
 8003048:	025b      	lsls	r3, r3, #9
 800304a:	4013      	ands	r3, r2
 800304c:	d037      	beq.n	80030be <HAL_ADC_ConfigChannel+0x11a>
    {
      ADC->CCR |= ADC_CCR_VLCDEN;   
 800304e:	4b21      	ldr	r3, [pc, #132]	; (80030d4 <HAL_ADC_ConfigChannel+0x130>)
 8003050:	681a      	ldr	r2, [r3, #0]
 8003052:	4b20      	ldr	r3, [pc, #128]	; (80030d4 <HAL_ADC_ConfigChannel+0x130>)
 8003054:	2180      	movs	r1, #128	; 0x80
 8003056:	0449      	lsls	r1, r1, #17
 8003058:	430a      	orrs	r2, r1
 800305a:	601a      	str	r2, [r3, #0]
 800305c:	e02f      	b.n	80030be <HAL_ADC_ConfigChannel+0x11a>
  }
  else
  {
    /* Regular sequence configuration */
    /* Reset the channel selection register from the selected channel */
    hadc->Instance->CHSELR &= ~((uint32_t)(sConfig->Channel & ADC_CHANNEL_MASK));
 800305e:	687b      	ldr	r3, [r7, #4]
 8003060:	681b      	ldr	r3, [r3, #0]
 8003062:	6a9a      	ldr	r2, [r3, #40]	; 0x28
 8003064:	683b      	ldr	r3, [r7, #0]
 8003066:	681b      	ldr	r3, [r3, #0]
 8003068:	035b      	lsls	r3, r3, #13
 800306a:	0b5b      	lsrs	r3, r3, #13
 800306c:	43d9      	mvns	r1, r3
 800306e:	687b      	ldr	r3, [r7, #4]
 8003070:	681b      	ldr	r3, [r3, #0]
 8003072:	400a      	ands	r2, r1
 8003074:	629a      	str	r2, [r3, #40]	; 0x28
    
    /* Management of internal measurement channels: VrefInt/TempSensor/Vbat */
    /* internal measurement paths disable: If internal channel selected,    */
    /* disable dedicated internal buffers and path.                         */
    #if defined(ADC_CCR_TSEN)
    if (((sConfig->Channel & ADC_CHANNEL_MASK) & ADC_CHANNEL_TEMPSENSOR ) == (ADC_CHANNEL_TEMPSENSOR & ADC_CHANNEL_MASK))
 8003076:	683b      	ldr	r3, [r7, #0]
 8003078:	681a      	ldr	r2, [r3, #0]
 800307a:	2380      	movs	r3, #128	; 0x80
 800307c:	02db      	lsls	r3, r3, #11
 800307e:	4013      	ands	r3, r2
 8003080:	d005      	beq.n	800308e <HAL_ADC_ConfigChannel+0xea>
    {
      ADC->CCR &= ~ADC_CCR_TSEN;   
 8003082:	4b14      	ldr	r3, [pc, #80]	; (80030d4 <HAL_ADC_ConfigChannel+0x130>)
 8003084:	681a      	ldr	r2, [r3, #0]
 8003086:	4b13      	ldr	r3, [pc, #76]	; (80030d4 <HAL_ADC_ConfigChannel+0x130>)
 8003088:	4913      	ldr	r1, [pc, #76]	; (80030d8 <HAL_ADC_ConfigChannel+0x134>)
 800308a:	400a      	ands	r2, r1
 800308c:	601a      	str	r2, [r3, #0]
    }
    #endif
    
    /* If VRefInt channel is selected, then enable the internal buffers and path   */
    if (((sConfig->Channel & ADC_CHANNEL_MASK) & ADC_CHANNEL_VREFINT) == (ADC_CHANNEL_VREFINT & ADC_CHANNEL_MASK))
 800308e:	683b      	ldr	r3, [r7, #0]
 8003090:	681a      	ldr	r2, [r3, #0]
 8003092:	2380      	movs	r3, #128	; 0x80
 8003094:	029b      	lsls	r3, r3, #10
 8003096:	4013      	ands	r3, r2
 8003098:	d005      	beq.n	80030a6 <HAL_ADC_ConfigChannel+0x102>
    {
      ADC->CCR &= ~ADC_CCR_VREFEN;   
 800309a:	4b0e      	ldr	r3, [pc, #56]	; (80030d4 <HAL_ADC_ConfigChannel+0x130>)
 800309c:	681a      	ldr	r2, [r3, #0]
 800309e:	4b0d      	ldr	r3, [pc, #52]	; (80030d4 <HAL_ADC_ConfigChannel+0x130>)
 80030a0:	490e      	ldr	r1, [pc, #56]	; (80030dc <HAL_ADC_ConfigChannel+0x138>)
 80030a2:	400a      	ands	r2, r1
 80030a4:	601a      	str	r2, [r3, #0]
    }
    
#if defined (STM32L053xx) || defined (STM32L063xx) || defined (STM32L073xx) || defined (STM32L083xx)
    /* If Vlcd channel is selected, then enable the internal buffers and path   */
    if (((sConfig->Channel & ADC_CHANNEL_MASK) & ADC_CHANNEL_VLCD) == (ADC_CHANNEL_VLCD & ADC_CHANNEL_MASK))
 80030a6:	683b      	ldr	r3, [r7, #0]
 80030a8:	681a      	ldr	r2, [r3, #0]
 80030aa:	2380      	movs	r3, #128	; 0x80
 80030ac:	025b      	lsls	r3, r3, #9
 80030ae:	4013      	ands	r3, r2
 80030b0:	d005      	beq.n	80030be <HAL_ADC_ConfigChannel+0x11a>
    {
      ADC->CCR &= ~ADC_CCR_VLCDEN;   
 80030b2:	4b08      	ldr	r3, [pc, #32]	; (80030d4 <HAL_ADC_ConfigChannel+0x130>)
 80030b4:	681a      	ldr	r2, [r3, #0]
 80030b6:	4b07      	ldr	r3, [pc, #28]	; (80030d4 <HAL_ADC_ConfigChannel+0x130>)
 80030b8:	4909      	ldr	r1, [pc, #36]	; (80030e0 <HAL_ADC_ConfigChannel+0x13c>)
 80030ba:	400a      	ands	r2, r1
 80030bc:	601a      	str	r2, [r3, #0]
    }
#endif
  }
  
  /* Process unlocked */
  __HAL_UNLOCK(hadc);
 80030be:	687b      	ldr	r3, [r7, #4]
 80030c0:	2250      	movs	r2, #80	; 0x50
 80030c2:	2100      	movs	r1, #0
 80030c4:	5499      	strb	r1, [r3, r2]
  
  /* Return function status */
  return HAL_OK;
 80030c6:	2300      	movs	r3, #0
}
 80030c8:	0018      	movs	r0, r3
 80030ca:	46bd      	mov	sp, r7
 80030cc:	b002      	add	sp, #8
 80030ce:	bd80      	pop	{r7, pc}
 80030d0:	00001001 	.word	0x00001001
 80030d4:	40012708 	.word	0x40012708
 80030d8:	ff7fffff 	.word	0xff7fffff
 80030dc:	ffbfffff 	.word	0xffbfffff
 80030e0:	feffffff 	.word	0xfeffffff

080030e4 <ADC_Enable>:
  *         "if (hadc->Init.LowPowerAutoPowerOff != ENABLE)".
  * @param  hadc ADC handle
  * @retval HAL status.
  */
static HAL_StatusTypeDef ADC_Enable(ADC_HandleTypeDef* hadc)
{
 80030e4:	b580      	push	{r7, lr}
 80030e6:	b084      	sub	sp, #16
 80030e8:	af00      	add	r7, sp, #0
 80030ea:	6078      	str	r0, [r7, #4]
  uint32_t tickstart = 0U;
 80030ec:	2300      	movs	r3, #0
 80030ee:	60fb      	str	r3, [r7, #12]

  /* ADC enable and wait for ADC ready (in case of ADC is disabled or         */
  /* enabling phase not yet completed: flag ADC ready not yet set).           */
  /* Timeout implemented to not be stuck if ADC cannot be enabled (possible   */
  /* causes: ADC clock not running, ...).                                     */
  if (ADC_IS_ENABLE(hadc) == RESET)
 80030f0:	687b      	ldr	r3, [r7, #4]
 80030f2:	681b      	ldr	r3, [r3, #0]
 80030f4:	689b      	ldr	r3, [r3, #8]
 80030f6:	2203      	movs	r2, #3
 80030f8:	4013      	ands	r3, r2
 80030fa:	2b01      	cmp	r3, #1
 80030fc:	d108      	bne.n	8003110 <ADC_Enable+0x2c>
 80030fe:	687b      	ldr	r3, [r7, #4]
 8003100:	681b      	ldr	r3, [r3, #0]
 8003102:	681b      	ldr	r3, [r3, #0]
 8003104:	2201      	movs	r2, #1
 8003106:	4013      	ands	r3, r2
 8003108:	2b01      	cmp	r3, #1
 800310a:	d101      	bne.n	8003110 <ADC_Enable+0x2c>
 800310c:	2301      	movs	r3, #1
 800310e:	e000      	b.n	8003112 <ADC_Enable+0x2e>
 8003110:	2300      	movs	r3, #0
 8003112:	2b00      	cmp	r3, #0
 8003114:	d146      	bne.n	80031a4 <ADC_Enable+0xc0>
  {
    /* Check if conditions to enable the ADC are fulfilled */
    if (ADC_ENABLING_CONDITIONS(hadc) == RESET)
 8003116:	687b      	ldr	r3, [r7, #4]
 8003118:	681b      	ldr	r3, [r3, #0]
 800311a:	689b      	ldr	r3, [r3, #8]
 800311c:	4a24      	ldr	r2, [pc, #144]	; (80031b0 <ADC_Enable+0xcc>)
 800311e:	4013      	ands	r3, r2
 8003120:	d00d      	beq.n	800313e <ADC_Enable+0x5a>
    {
      /* Update ADC state machine to error */
      SET_BIT(hadc->State, HAL_ADC_STATE_ERROR_INTERNAL);
 8003122:	687b      	ldr	r3, [r7, #4]
 8003124:	6d5b      	ldr	r3, [r3, #84]	; 0x54
 8003126:	2210      	movs	r2, #16
 8003128:	431a      	orrs	r2, r3
 800312a:	687b      	ldr	r3, [r7, #4]
 800312c:	655a      	str	r2, [r3, #84]	; 0x54
      
      /* Set ADC error code to ADC peripheral internal error */
      SET_BIT(hadc->ErrorCode, HAL_ADC_ERROR_INTERNAL);
 800312e:	687b      	ldr	r3, [r7, #4]
 8003130:	6d9b      	ldr	r3, [r3, #88]	; 0x58
 8003132:	2201      	movs	r2, #1
 8003134:	431a      	orrs	r2, r3
 8003136:	687b      	ldr	r3, [r7, #4]
 8003138:	659a      	str	r2, [r3, #88]	; 0x58
      
      return HAL_ERROR;
 800313a:	2301      	movs	r3, #1
 800313c:	e033      	b.n	80031a6 <ADC_Enable+0xc2>
    }
    
    /* Enable the ADC peripheral */
    __HAL_ADC_ENABLE(hadc);
 800313e:	687b      	ldr	r3, [r7, #4]
 8003140:	681b      	ldr	r3, [r3, #0]
 8003142:	689a      	ldr	r2, [r3, #8]
 8003144:	687b      	ldr	r3, [r7, #4]
 8003146:	681b      	ldr	r3, [r3, #0]
 8003148:	2101      	movs	r1, #1
 800314a:	430a      	orrs	r2, r1
 800314c:	609a      	str	r2, [r3, #8]
    
    /* Delay for ADC stabilization time. */
    ADC_DelayMicroSecond(ADC_STAB_DELAY_US);
 800314e:	2001      	movs	r0, #1
 8003150:	f000 f830 	bl	80031b4 <ADC_DelayMicroSecond>

    /* Get tick count */
    tickstart = HAL_GetTick();
 8003154:	f7ff fc88 	bl	8002a68 <HAL_GetTick>
 8003158:	0003      	movs	r3, r0
 800315a:	60fb      	str	r3, [r7, #12]
    
    /* Wait for ADC effectively enabled */
    while(__HAL_ADC_GET_FLAG(hadc, ADC_FLAG_RDY) == RESET)
 800315c:	e01b      	b.n	8003196 <ADC_Enable+0xb2>
    {
      if((HAL_GetTick() - tickstart) > ADC_ENABLE_TIMEOUT)
 800315e:	f7ff fc83 	bl	8002a68 <HAL_GetTick>
 8003162:	0002      	movs	r2, r0
 8003164:	68fb      	ldr	r3, [r7, #12]
 8003166:	1ad3      	subs	r3, r2, r3
 8003168:	2b0a      	cmp	r3, #10
 800316a:	d914      	bls.n	8003196 <ADC_Enable+0xb2>
      {
        /* New check to avoid false timeout detection in case of preemption */
        if(__HAL_ADC_GET_FLAG(hadc, ADC_FLAG_RDY) == RESET)
 800316c:	687b      	ldr	r3, [r7, #4]
 800316e:	681b      	ldr	r3, [r3, #0]
 8003170:	681b      	ldr	r3, [r3, #0]
 8003172:	2201      	movs	r2, #1
 8003174:	4013      	ands	r3, r2
 8003176:	2b01      	cmp	r3, #1
 8003178:	d00d      	beq.n	8003196 <ADC_Enable+0xb2>
        {
          /* Update ADC state machine to error */
          SET_BIT(hadc->State, HAL_ADC_STATE_ERROR_INTERNAL);
 800317a:	687b      	ldr	r3, [r7, #4]
 800317c:	6d5b      	ldr	r3, [r3, #84]	; 0x54
 800317e:	2210      	movs	r2, #16
 8003180:	431a      	orrs	r2, r3
 8003182:	687b      	ldr	r3, [r7, #4]
 8003184:	655a      	str	r2, [r3, #84]	; 0x54

          /* Set ADC error code to ADC peripheral internal error */
          SET_BIT(hadc->ErrorCode, HAL_ADC_ERROR_INTERNAL);
 8003186:	687b      	ldr	r3, [r7, #4]
 8003188:	6d9b      	ldr	r3, [r3, #88]	; 0x58
 800318a:	2201      	movs	r2, #1
 800318c:	431a      	orrs	r2, r3
 800318e:	687b      	ldr	r3, [r7, #4]
 8003190:	659a      	str	r2, [r3, #88]	; 0x58

          return HAL_ERROR;
 8003192:	2301      	movs	r3, #1
 8003194:	e007      	b.n	80031a6 <ADC_Enable+0xc2>
    while(__HAL_ADC_GET_FLAG(hadc, ADC_FLAG_RDY) == RESET)
 8003196:	687b      	ldr	r3, [r7, #4]
 8003198:	681b      	ldr	r3, [r3, #0]
 800319a:	681b      	ldr	r3, [r3, #0]
 800319c:	2201      	movs	r2, #1
 800319e:	4013      	ands	r3, r2
 80031a0:	2b01      	cmp	r3, #1
 80031a2:	d1dc      	bne.n	800315e <ADC_Enable+0x7a>
      }
    }
  }
   
  /* Return HAL status */
  return HAL_OK;
 80031a4:	2300      	movs	r3, #0
}
 80031a6:	0018      	movs	r0, r3
 80031a8:	46bd      	mov	sp, r7
 80031aa:	b004      	add	sp, #16
 80031ac:	bd80      	pop	{r7, pc}
 80031ae:	46c0      	nop			; (mov r8, r8)
 80031b0:	80000017 	.word	0x80000017

080031b4 <ADC_DelayMicroSecond>:
  * @brief  Delay micro seconds 
  * @param  microSecond  delay
  * @retval None
  */
static void ADC_DelayMicroSecond(uint32_t microSecond)
{
 80031b4:	b580      	push	{r7, lr}
 80031b6:	b084      	sub	sp, #16
 80031b8:	af00      	add	r7, sp, #0
 80031ba:	6078      	str	r0, [r7, #4]
  /* Compute number of CPU cycles to wait for */
  __IO uint32_t waitLoopIndex = (microSecond * (SystemCoreClock / 1000000U));
 80031bc:	4b0b      	ldr	r3, [pc, #44]	; (80031ec <ADC_DelayMicroSecond+0x38>)
 80031be:	681b      	ldr	r3, [r3, #0]
 80031c0:	490b      	ldr	r1, [pc, #44]	; (80031f0 <ADC_DelayMicroSecond+0x3c>)
 80031c2:	0018      	movs	r0, r3
 80031c4:	f7fc ffaa 	bl	800011c <__udivsi3>
 80031c8:	0003      	movs	r3, r0
 80031ca:	001a      	movs	r2, r3
 80031cc:	687b      	ldr	r3, [r7, #4]
 80031ce:	4353      	muls	r3, r2
 80031d0:	60fb      	str	r3, [r7, #12]

  while(waitLoopIndex != 0U)
 80031d2:	e002      	b.n	80031da <ADC_DelayMicroSecond+0x26>
  {
    waitLoopIndex--;
 80031d4:	68fb      	ldr	r3, [r7, #12]
 80031d6:	3b01      	subs	r3, #1
 80031d8:	60fb      	str	r3, [r7, #12]
  while(waitLoopIndex != 0U)
 80031da:	68fb      	ldr	r3, [r7, #12]
 80031dc:	2b00      	cmp	r3, #0
 80031de:	d1f9      	bne.n	80031d4 <ADC_DelayMicroSecond+0x20>
  } 
}
 80031e0:	46c0      	nop			; (mov r8, r8)
 80031e2:	46c0      	nop			; (mov r8, r8)
 80031e4:	46bd      	mov	sp, r7
 80031e6:	b004      	add	sp, #16
 80031e8:	bd80      	pop	{r7, pc}
 80031ea:	46c0      	nop			; (mov r8, r8)
 80031ec:	20000000 	.word	0x20000000
 80031f0:	000f4240 	.word	0x000f4240

080031f4 <__NVIC_SetPriority>:
  \param [in]      IRQn  Interrupt number.
  \param [in]  priority  Priority to set.
  \note    The priority cannot be set for every processor exception.
 */
__STATIC_INLINE void __NVIC_SetPriority(IRQn_Type IRQn, uint32_t priority)
{
 80031f4:	b590      	push	{r4, r7, lr}
 80031f6:	b083      	sub	sp, #12
 80031f8:	af00      	add	r7, sp, #0
 80031fa:	0002      	movs	r2, r0
 80031fc:	6039      	str	r1, [r7, #0]
 80031fe:	1dfb      	adds	r3, r7, #7
 8003200:	701a      	strb	r2, [r3, #0]
  if ((int32_t)(IRQn) >= 0)
 8003202:	1dfb      	adds	r3, r7, #7
 8003204:	781b      	ldrb	r3, [r3, #0]
 8003206:	2b7f      	cmp	r3, #127	; 0x7f
 8003208:	d828      	bhi.n	800325c <__NVIC_SetPriority+0x68>
  {
    NVIC->IP[_IP_IDX(IRQn)]  = ((uint32_t)(NVIC->IP[_IP_IDX(IRQn)]  & ~(0xFFUL << _BIT_SHIFT(IRQn))) |
 800320a:	4a2f      	ldr	r2, [pc, #188]	; (80032c8 <__NVIC_SetPriority+0xd4>)
 800320c:	1dfb      	adds	r3, r7, #7
 800320e:	781b      	ldrb	r3, [r3, #0]
 8003210:	b25b      	sxtb	r3, r3
 8003212:	089b      	lsrs	r3, r3, #2
 8003214:	33c0      	adds	r3, #192	; 0xc0
 8003216:	009b      	lsls	r3, r3, #2
 8003218:	589b      	ldr	r3, [r3, r2]
 800321a:	1dfa      	adds	r2, r7, #7
 800321c:	7812      	ldrb	r2, [r2, #0]
 800321e:	0011      	movs	r1, r2
 8003220:	2203      	movs	r2, #3
 8003222:	400a      	ands	r2, r1
 8003224:	00d2      	lsls	r2, r2, #3
 8003226:	21ff      	movs	r1, #255	; 0xff
 8003228:	4091      	lsls	r1, r2
 800322a:	000a      	movs	r2, r1
 800322c:	43d2      	mvns	r2, r2
 800322e:	401a      	ands	r2, r3
 8003230:	0011      	movs	r1, r2
       (((priority << (8U - __NVIC_PRIO_BITS)) & (uint32_t)0xFFUL) << _BIT_SHIFT(IRQn)));
 8003232:	683b      	ldr	r3, [r7, #0]
 8003234:	019b      	lsls	r3, r3, #6
 8003236:	22ff      	movs	r2, #255	; 0xff
 8003238:	401a      	ands	r2, r3
 800323a:	1dfb      	adds	r3, r7, #7
 800323c:	781b      	ldrb	r3, [r3, #0]
 800323e:	0018      	movs	r0, r3
 8003240:	2303      	movs	r3, #3
 8003242:	4003      	ands	r3, r0
 8003244:	00db      	lsls	r3, r3, #3
 8003246:	409a      	lsls	r2, r3
    NVIC->IP[_IP_IDX(IRQn)]  = ((uint32_t)(NVIC->IP[_IP_IDX(IRQn)]  & ~(0xFFUL << _BIT_SHIFT(IRQn))) |
 8003248:	481f      	ldr	r0, [pc, #124]	; (80032c8 <__NVIC_SetPriority+0xd4>)
 800324a:	1dfb      	adds	r3, r7, #7
 800324c:	781b      	ldrb	r3, [r3, #0]
 800324e:	b25b      	sxtb	r3, r3
 8003250:	089b      	lsrs	r3, r3, #2
 8003252:	430a      	orrs	r2, r1
 8003254:	33c0      	adds	r3, #192	; 0xc0
 8003256:	009b      	lsls	r3, r3, #2
 8003258:	501a      	str	r2, [r3, r0]
  else
  {
    SCB->SHP[_SHP_IDX(IRQn)] = ((uint32_t)(SCB->SHP[_SHP_IDX(IRQn)] & ~(0xFFUL << _BIT_SHIFT(IRQn))) |
       (((priority << (8U - __NVIC_PRIO_BITS)) & (uint32_t)0xFFUL) << _BIT_SHIFT(IRQn)));
  }
}
 800325a:	e031      	b.n	80032c0 <__NVIC_SetPriority+0xcc>
    SCB->SHP[_SHP_IDX(IRQn)] = ((uint32_t)(SCB->SHP[_SHP_IDX(IRQn)] & ~(0xFFUL << _BIT_SHIFT(IRQn))) |
 800325c:	4a1b      	ldr	r2, [pc, #108]	; (80032cc <__NVIC_SetPriority+0xd8>)
 800325e:	1dfb      	adds	r3, r7, #7
 8003260:	781b      	ldrb	r3, [r3, #0]
 8003262:	0019      	movs	r1, r3
 8003264:	230f      	movs	r3, #15
 8003266:	400b      	ands	r3, r1
 8003268:	3b08      	subs	r3, #8
 800326a:	089b      	lsrs	r3, r3, #2
 800326c:	3306      	adds	r3, #6
 800326e:	009b      	lsls	r3, r3, #2
 8003270:	18d3      	adds	r3, r2, r3
 8003272:	3304      	adds	r3, #4
 8003274:	681b      	ldr	r3, [r3, #0]
 8003276:	1dfa      	adds	r2, r7, #7
 8003278:	7812      	ldrb	r2, [r2, #0]
 800327a:	0011      	movs	r1, r2
 800327c:	2203      	movs	r2, #3
 800327e:	400a      	ands	r2, r1
 8003280:	00d2      	lsls	r2, r2, #3
 8003282:	21ff      	movs	r1, #255	; 0xff
 8003284:	4091      	lsls	r1, r2
 8003286:	000a      	movs	r2, r1
 8003288:	43d2      	mvns	r2, r2
 800328a:	401a      	ands	r2, r3
 800328c:	0011      	movs	r1, r2
       (((priority << (8U - __NVIC_PRIO_BITS)) & (uint32_t)0xFFUL) << _BIT_SHIFT(IRQn)));
 800328e:	683b      	ldr	r3, [r7, #0]
 8003290:	019b      	lsls	r3, r3, #6
 8003292:	22ff      	movs	r2, #255	; 0xff
 8003294:	401a      	ands	r2, r3
 8003296:	1dfb      	adds	r3, r7, #7
 8003298:	781b      	ldrb	r3, [r3, #0]
 800329a:	0018      	movs	r0, r3
 800329c:	2303      	movs	r3, #3
 800329e:	4003      	ands	r3, r0
 80032a0:	00db      	lsls	r3, r3, #3
 80032a2:	409a      	lsls	r2, r3
    SCB->SHP[_SHP_IDX(IRQn)] = ((uint32_t)(SCB->SHP[_SHP_IDX(IRQn)] & ~(0xFFUL << _BIT_SHIFT(IRQn))) |
 80032a4:	4809      	ldr	r0, [pc, #36]	; (80032cc <__NVIC_SetPriority+0xd8>)
 80032a6:	1dfb      	adds	r3, r7, #7
 80032a8:	781b      	ldrb	r3, [r3, #0]
 80032aa:	001c      	movs	r4, r3
 80032ac:	230f      	movs	r3, #15
 80032ae:	4023      	ands	r3, r4
 80032b0:	3b08      	subs	r3, #8
 80032b2:	089b      	lsrs	r3, r3, #2
 80032b4:	430a      	orrs	r2, r1
 80032b6:	3306      	adds	r3, #6
 80032b8:	009b      	lsls	r3, r3, #2
 80032ba:	18c3      	adds	r3, r0, r3
 80032bc:	3304      	adds	r3, #4
 80032be:	601a      	str	r2, [r3, #0]
}
 80032c0:	46c0      	nop			; (mov r8, r8)
 80032c2:	46bd      	mov	sp, r7
 80032c4:	b003      	add	sp, #12
 80032c6:	bd90      	pop	{r4, r7, pc}
 80032c8:	e000e100 	.word	0xe000e100
 80032cc:	e000ed00 	.word	0xe000ed00

080032d0 <SysTick_Config>:
  \note    When the variable <b>__Vendor_SysTickConfig</b> is set to 1, then the
           function <b>SysTick_Config</b> is not included. In this case, the file <b><i>device</i>.h</b>
           must contain a vendor-specific implementation of this function.
 */
__STATIC_INLINE uint32_t SysTick_Config(uint32_t ticks)
{
 80032d0:	b580      	push	{r7, lr}
 80032d2:	b082      	sub	sp, #8
 80032d4:	af00      	add	r7, sp, #0
 80032d6:	6078      	str	r0, [r7, #4]
  if ((ticks - 1UL) > SysTick_LOAD_RELOAD_Msk)
 80032d8:	687b      	ldr	r3, [r7, #4]
 80032da:	1e5a      	subs	r2, r3, #1
 80032dc:	2380      	movs	r3, #128	; 0x80
 80032de:	045b      	lsls	r3, r3, #17
 80032e0:	429a      	cmp	r2, r3
 80032e2:	d301      	bcc.n	80032e8 <SysTick_Config+0x18>
  {
    return (1UL);                                                   /* Reload value impossible */
 80032e4:	2301      	movs	r3, #1
 80032e6:	e010      	b.n	800330a <SysTick_Config+0x3a>
  }

  SysTick->LOAD  = (uint32_t)(ticks - 1UL);                         /* set reload register */
 80032e8:	4b0a      	ldr	r3, [pc, #40]	; (8003314 <SysTick_Config+0x44>)
 80032ea:	687a      	ldr	r2, [r7, #4]
 80032ec:	3a01      	subs	r2, #1
 80032ee:	605a      	str	r2, [r3, #4]
  NVIC_SetPriority (SysTick_IRQn, (1UL << __NVIC_PRIO_BITS) - 1UL); /* set Priority for Systick Interrupt */
 80032f0:	2301      	movs	r3, #1
 80032f2:	425b      	negs	r3, r3
 80032f4:	2103      	movs	r1, #3
 80032f6:	0018      	movs	r0, r3
 80032f8:	f7ff ff7c 	bl	80031f4 <__NVIC_SetPriority>
  SysTick->VAL   = 0UL;                                             /* Load the SysTick Counter Value */
 80032fc:	4b05      	ldr	r3, [pc, #20]	; (8003314 <SysTick_Config+0x44>)
 80032fe:	2200      	movs	r2, #0
 8003300:	609a      	str	r2, [r3, #8]
  SysTick->CTRL  = SysTick_CTRL_CLKSOURCE_Msk |
 8003302:	4b04      	ldr	r3, [pc, #16]	; (8003314 <SysTick_Config+0x44>)
 8003304:	2207      	movs	r2, #7
 8003306:	601a      	str	r2, [r3, #0]
                   SysTick_CTRL_TICKINT_Msk   |
                   SysTick_CTRL_ENABLE_Msk;                         /* Enable SysTick IRQ and SysTick Timer */
  return (0UL);                                                     /* Function successful */
 8003308:	2300      	movs	r3, #0
}
 800330a:	0018      	movs	r0, r3
 800330c:	46bd      	mov	sp, r7
 800330e:	b002      	add	sp, #8
 8003310:	bd80      	pop	{r7, pc}
 8003312:	46c0      	nop			; (mov r8, r8)
 8003314:	e000e010 	.word	0xe000e010

08003318 <HAL_NVIC_SetPriority>:
  *         with stm32l0xx devices, this parameter is a dummy value and it is ignored, because 
  *         no subpriority supported in Cortex M0+ based products.   
  * @retval None
  */
void HAL_NVIC_SetPriority(IRQn_Type IRQn, uint32_t PreemptPriority, uint32_t SubPriority)
{ 
 8003318:	b580      	push	{r7, lr}
 800331a:	b084      	sub	sp, #16
 800331c:	af00      	add	r7, sp, #0
 800331e:	60b9      	str	r1, [r7, #8]
 8003320:	607a      	str	r2, [r7, #4]
 8003322:	210f      	movs	r1, #15
 8003324:	187b      	adds	r3, r7, r1
 8003326:	1c02      	adds	r2, r0, #0
 8003328:	701a      	strb	r2, [r3, #0]
    /* Check the parameters */
  assert_param(IS_NVIC_PREEMPTION_PRIORITY(PreemptPriority));
  NVIC_SetPriority(IRQn,PreemptPriority);
 800332a:	68ba      	ldr	r2, [r7, #8]
 800332c:	187b      	adds	r3, r7, r1
 800332e:	781b      	ldrb	r3, [r3, #0]
 8003330:	b25b      	sxtb	r3, r3
 8003332:	0011      	movs	r1, r2
 8003334:	0018      	movs	r0, r3
 8003336:	f7ff ff5d 	bl	80031f4 <__NVIC_SetPriority>
}
 800333a:	46c0      	nop			; (mov r8, r8)
 800333c:	46bd      	mov	sp, r7
 800333e:	b004      	add	sp, #16
 8003340:	bd80      	pop	{r7, pc}

08003342 <HAL_SYSTICK_Config>:
  * @param  TicksNumb Specifies the ticks Number of ticks between two interrupts.
  * @retval status:  - 0  Function succeeded.
  *                  - 1  Function failed.
  */
uint32_t HAL_SYSTICK_Config(uint32_t TicksNumb)
{
 8003342:	b580      	push	{r7, lr}
 8003344:	b082      	sub	sp, #8
 8003346:	af00      	add	r7, sp, #0
 8003348:	6078      	str	r0, [r7, #4]
   return SysTick_Config(TicksNumb);
 800334a:	687b      	ldr	r3, [r7, #4]
 800334c:	0018      	movs	r0, r3
 800334e:	f7ff ffbf 	bl	80032d0 <SysTick_Config>
 8003352:	0003      	movs	r3, r0
}
 8003354:	0018      	movs	r0, r3
 8003356:	46bd      	mov	sp, r7
 8003358:	b002      	add	sp, #8
 800335a:	bd80      	pop	{r7, pc}

0800335c <HAL_GPIO_Init>:
  * @param  GPIO_Init pointer to a GPIO_InitTypeDef structure that contains
  *                    the configuration information for the specified GPIO peripheral.
  * @retval None
  */
void HAL_GPIO_Init(GPIO_TypeDef  *GPIOx, GPIO_InitTypeDef *GPIO_Init)
{
 800335c:	b580      	push	{r7, lr}
 800335e:	b086      	sub	sp, #24
 8003360:	af00      	add	r7, sp, #0
 8003362:	6078      	str	r0, [r7, #4]
 8003364:	6039      	str	r1, [r7, #0]
  uint32_t position = 0x00U;
 8003366:	2300      	movs	r3, #0
 8003368:	617b      	str	r3, [r7, #20]
  uint32_t iocurrent = 0x00U;
 800336a:	2300      	movs	r3, #0
 800336c:	60fb      	str	r3, [r7, #12]
  uint32_t temp = 0x00U;
 800336e:	2300      	movs	r3, #0
 8003370:	613b      	str	r3, [r7, #16]
  /* Check the parameters */
  assert_param(IS_GPIO_MODE(GPIO_Init->Mode));
  assert_param(IS_GPIO_PIN_AVAILABLE(GPIOx, (GPIO_Init->Pin)));

  /* Configure the port pins */
  while (((GPIO_Init->Pin) >> position) != 0)
 8003372:	e155      	b.n	8003620 <HAL_GPIO_Init+0x2c4>
  {
    /* Get the IO position */
    iocurrent = (GPIO_Init->Pin) & (1U << position);
 8003374:	683b      	ldr	r3, [r7, #0]
 8003376:	681b      	ldr	r3, [r3, #0]
 8003378:	2101      	movs	r1, #1
 800337a:	697a      	ldr	r2, [r7, #20]
 800337c:	4091      	lsls	r1, r2
 800337e:	000a      	movs	r2, r1
 8003380:	4013      	ands	r3, r2
 8003382:	60fb      	str	r3, [r7, #12]

    if (iocurrent)
 8003384:	68fb      	ldr	r3, [r7, #12]
 8003386:	2b00      	cmp	r3, #0
 8003388:	d100      	bne.n	800338c <HAL_GPIO_Init+0x30>
 800338a:	e146      	b.n	800361a <HAL_GPIO_Init+0x2be>
    {
      /*--------------------- GPIO Mode Configuration ------------------------*/
      /* In case of Output or Alternate function mode selection */
      if (((GPIO_Init->Mode & GPIO_MODE) == MODE_OUTPUT) ||
 800338c:	683b      	ldr	r3, [r7, #0]
 800338e:	685b      	ldr	r3, [r3, #4]
 8003390:	2203      	movs	r2, #3
 8003392:	4013      	ands	r3, r2
 8003394:	2b01      	cmp	r3, #1
 8003396:	d005      	beq.n	80033a4 <HAL_GPIO_Init+0x48>
          ((GPIO_Init->Mode & GPIO_MODE) == MODE_AF))
 8003398:	683b      	ldr	r3, [r7, #0]
 800339a:	685b      	ldr	r3, [r3, #4]
 800339c:	2203      	movs	r2, #3
 800339e:	4013      	ands	r3, r2
      if (((GPIO_Init->Mode & GPIO_MODE) == MODE_OUTPUT) ||
 80033a0:	2b02      	cmp	r3, #2
 80033a2:	d130      	bne.n	8003406 <HAL_GPIO_Init+0xaa>
      {
        /* Check the Speed parameter */
        assert_param(IS_GPIO_SPEED(GPIO_Init->Speed));
        /* Configure the IO Speed */
        temp = GPIOx->OSPEEDR;
 80033a4:	687b      	ldr	r3, [r7, #4]
 80033a6:	689b      	ldr	r3, [r3, #8]
 80033a8:	613b      	str	r3, [r7, #16]
        temp &= ~(GPIO_OSPEEDER_OSPEED0 << (position * 2U));
 80033aa:	697b      	ldr	r3, [r7, #20]
 80033ac:	005b      	lsls	r3, r3, #1
 80033ae:	2203      	movs	r2, #3
 80033b0:	409a      	lsls	r2, r3
 80033b2:	0013      	movs	r3, r2
 80033b4:	43da      	mvns	r2, r3
 80033b6:	693b      	ldr	r3, [r7, #16]
 80033b8:	4013      	ands	r3, r2
 80033ba:	613b      	str	r3, [r7, #16]
        temp |= (GPIO_Init->Speed << (position * 2U));
 80033bc:	683b      	ldr	r3, [r7, #0]
 80033be:	68da      	ldr	r2, [r3, #12]
 80033c0:	697b      	ldr	r3, [r7, #20]
 80033c2:	005b      	lsls	r3, r3, #1
 80033c4:	409a      	lsls	r2, r3
 80033c6:	0013      	movs	r3, r2
 80033c8:	693a      	ldr	r2, [r7, #16]
 80033ca:	4313      	orrs	r3, r2
 80033cc:	613b      	str	r3, [r7, #16]
        GPIOx->OSPEEDR = temp;
 80033ce:	687b      	ldr	r3, [r7, #4]
 80033d0:	693a      	ldr	r2, [r7, #16]
 80033d2:	609a      	str	r2, [r3, #8]

        /* Configure the IO Output Type */
        temp = GPIOx->OTYPER;
 80033d4:	687b      	ldr	r3, [r7, #4]
 80033d6:	685b      	ldr	r3, [r3, #4]
 80033d8:	613b      	str	r3, [r7, #16]
        temp &= ~(GPIO_OTYPER_OT_0 << position) ;
 80033da:	2201      	movs	r2, #1
 80033dc:	697b      	ldr	r3, [r7, #20]
 80033de:	409a      	lsls	r2, r3
 80033e0:	0013      	movs	r3, r2
 80033e2:	43da      	mvns	r2, r3
 80033e4:	693b      	ldr	r3, [r7, #16]
 80033e6:	4013      	ands	r3, r2
 80033e8:	613b      	str	r3, [r7, #16]
        temp |= (((GPIO_Init->Mode & OUTPUT_TYPE) >> OUTPUT_TYPE_Pos) << position);
 80033ea:	683b      	ldr	r3, [r7, #0]
 80033ec:	685b      	ldr	r3, [r3, #4]
 80033ee:	091b      	lsrs	r3, r3, #4
 80033f0:	2201      	movs	r2, #1
 80033f2:	401a      	ands	r2, r3
 80033f4:	697b      	ldr	r3, [r7, #20]
 80033f6:	409a      	lsls	r2, r3
 80033f8:	0013      	movs	r3, r2
 80033fa:	693a      	ldr	r2, [r7, #16]
 80033fc:	4313      	orrs	r3, r2
 80033fe:	613b      	str	r3, [r7, #16]
        GPIOx->OTYPER = temp;
 8003400:	687b      	ldr	r3, [r7, #4]
 8003402:	693a      	ldr	r2, [r7, #16]
 8003404:	605a      	str	r2, [r3, #4]
      }

      if ((GPIO_Init->Mode & GPIO_MODE) != MODE_ANALOG)
 8003406:	683b      	ldr	r3, [r7, #0]
 8003408:	685b      	ldr	r3, [r3, #4]
 800340a:	2203      	movs	r2, #3
 800340c:	4013      	ands	r3, r2
 800340e:	2b03      	cmp	r3, #3
 8003410:	d017      	beq.n	8003442 <HAL_GPIO_Init+0xe6>
      {
        /* Check the Pull parameter */
        assert_param(IS_GPIO_PULL(GPIO_Init->Pull));

        /* Activate the Pull-up or Pull down resistor for the current IO */
        temp = GPIOx->PUPDR;
 8003412:	687b      	ldr	r3, [r7, #4]
 8003414:	68db      	ldr	r3, [r3, #12]
 8003416:	613b      	str	r3, [r7, #16]
        temp &= ~(GPIO_PUPDR_PUPD0 << (position * 2U));
 8003418:	697b      	ldr	r3, [r7, #20]
 800341a:	005b      	lsls	r3, r3, #1
 800341c:	2203      	movs	r2, #3
 800341e:	409a      	lsls	r2, r3
 8003420:	0013      	movs	r3, r2
 8003422:	43da      	mvns	r2, r3
 8003424:	693b      	ldr	r3, [r7, #16]
 8003426:	4013      	ands	r3, r2
 8003428:	613b      	str	r3, [r7, #16]
        temp |= ((GPIO_Init->Pull) << (position * 2U));
 800342a:	683b      	ldr	r3, [r7, #0]
 800342c:	689a      	ldr	r2, [r3, #8]
 800342e:	697b      	ldr	r3, [r7, #20]
 8003430:	005b      	lsls	r3, r3, #1
 8003432:	409a      	lsls	r2, r3
 8003434:	0013      	movs	r3, r2
 8003436:	693a      	ldr	r2, [r7, #16]
 8003438:	4313      	orrs	r3, r2
 800343a:	613b      	str	r3, [r7, #16]
        GPIOx->PUPDR = temp;
 800343c:	687b      	ldr	r3, [r7, #4]
 800343e:	693a      	ldr	r2, [r7, #16]
 8003440:	60da      	str	r2, [r3, #12]
      }

      /* In case of Alternate function mode selection */
      if ((GPIO_Init->Mode & GPIO_MODE) == MODE_AF)
 8003442:	683b      	ldr	r3, [r7, #0]
 8003444:	685b      	ldr	r3, [r3, #4]
 8003446:	2203      	movs	r2, #3
 8003448:	4013      	ands	r3, r2
 800344a:	2b02      	cmp	r3, #2
 800344c:	d123      	bne.n	8003496 <HAL_GPIO_Init+0x13a>
        /* Check the Alternate function parameters */
        assert_param(IS_GPIO_AF_INSTANCE(GPIOx));
        assert_param(IS_GPIO_AF(GPIO_Init->Alternate));

        /* Configure Alternate function mapped with the current IO */
        temp = GPIOx->AFR[position >> 3U];
 800344e:	697b      	ldr	r3, [r7, #20]
 8003450:	08da      	lsrs	r2, r3, #3
 8003452:	687b      	ldr	r3, [r7, #4]
 8003454:	3208      	adds	r2, #8
 8003456:	0092      	lsls	r2, r2, #2
 8003458:	58d3      	ldr	r3, [r2, r3]
 800345a:	613b      	str	r3, [r7, #16]
        temp &= ~(0xFUL << ((uint32_t)(position & 0x07UL) * 4U));
 800345c:	697b      	ldr	r3, [r7, #20]
 800345e:	2207      	movs	r2, #7
 8003460:	4013      	ands	r3, r2
 8003462:	009b      	lsls	r3, r3, #2
 8003464:	220f      	movs	r2, #15
 8003466:	409a      	lsls	r2, r3
 8003468:	0013      	movs	r3, r2
 800346a:	43da      	mvns	r2, r3
 800346c:	693b      	ldr	r3, [r7, #16]
 800346e:	4013      	ands	r3, r2
 8003470:	613b      	str	r3, [r7, #16]
        temp |= ((uint32_t)(GPIO_Init->Alternate) << (((uint32_t)position & (uint32_t)0x07U) * 4U));
 8003472:	683b      	ldr	r3, [r7, #0]
 8003474:	691a      	ldr	r2, [r3, #16]
 8003476:	697b      	ldr	r3, [r7, #20]
 8003478:	2107      	movs	r1, #7
 800347a:	400b      	ands	r3, r1
 800347c:	009b      	lsls	r3, r3, #2
 800347e:	409a      	lsls	r2, r3
 8003480:	0013      	movs	r3, r2
 8003482:	693a      	ldr	r2, [r7, #16]
 8003484:	4313      	orrs	r3, r2
 8003486:	613b      	str	r3, [r7, #16]
        GPIOx->AFR[position >> 3U] = temp;
 8003488:	697b      	ldr	r3, [r7, #20]
 800348a:	08da      	lsrs	r2, r3, #3
 800348c:	687b      	ldr	r3, [r7, #4]
 800348e:	3208      	adds	r2, #8
 8003490:	0092      	lsls	r2, r2, #2
 8003492:	6939      	ldr	r1, [r7, #16]
 8003494:	50d1      	str	r1, [r2, r3]
      }

      /* Configure IO Direction mode (Input, Output, Alternate or Analog) */
      temp = GPIOx->MODER;
 8003496:	687b      	ldr	r3, [r7, #4]
 8003498:	681b      	ldr	r3, [r3, #0]
 800349a:	613b      	str	r3, [r7, #16]
      temp &= ~(GPIO_MODER_MODE0 << (position * 2U));
 800349c:	697b      	ldr	r3, [r7, #20]
 800349e:	005b      	lsls	r3, r3, #1
 80034a0:	2203      	movs	r2, #3
 80034a2:	409a      	lsls	r2, r3
 80034a4:	0013      	movs	r3, r2
 80034a6:	43da      	mvns	r2, r3
 80034a8:	693b      	ldr	r3, [r7, #16]
 80034aa:	4013      	ands	r3, r2
 80034ac:	613b      	str	r3, [r7, #16]
      temp |= ((GPIO_Init->Mode & GPIO_MODE) << (position * 2U));
 80034ae:	683b      	ldr	r3, [r7, #0]
 80034b0:	685b      	ldr	r3, [r3, #4]
 80034b2:	2203      	movs	r2, #3
 80034b4:	401a      	ands	r2, r3
 80034b6:	697b      	ldr	r3, [r7, #20]
 80034b8:	005b      	lsls	r3, r3, #1
 80034ba:	409a      	lsls	r2, r3
 80034bc:	0013      	movs	r3, r2
 80034be:	693a      	ldr	r2, [r7, #16]
 80034c0:	4313      	orrs	r3, r2
 80034c2:	613b      	str	r3, [r7, #16]
      GPIOx->MODER = temp;
 80034c4:	687b      	ldr	r3, [r7, #4]
 80034c6:	693a      	ldr	r2, [r7, #16]
 80034c8:	601a      	str	r2, [r3, #0]

      /*--------------------- EXTI Mode Configuration ------------------------*/
      /* Configure the External Interrupt or event for the current IO */
      if ((GPIO_Init->Mode & EXTI_MODE) != 0x00U)
 80034ca:	683b      	ldr	r3, [r7, #0]
 80034cc:	685a      	ldr	r2, [r3, #4]
 80034ce:	23c0      	movs	r3, #192	; 0xc0
 80034d0:	029b      	lsls	r3, r3, #10
 80034d2:	4013      	ands	r3, r2
 80034d4:	d100      	bne.n	80034d8 <HAL_GPIO_Init+0x17c>
 80034d6:	e0a0      	b.n	800361a <HAL_GPIO_Init+0x2be>
      {
        /* Enable SYSCFG Clock */
        __HAL_RCC_SYSCFG_CLK_ENABLE();
 80034d8:	4b57      	ldr	r3, [pc, #348]	; (8003638 <HAL_GPIO_Init+0x2dc>)
 80034da:	6b5a      	ldr	r2, [r3, #52]	; 0x34
 80034dc:	4b56      	ldr	r3, [pc, #344]	; (8003638 <HAL_GPIO_Init+0x2dc>)
 80034de:	2101      	movs	r1, #1
 80034e0:	430a      	orrs	r2, r1
 80034e2:	635a      	str	r2, [r3, #52]	; 0x34

        temp = SYSCFG->EXTICR[position >> 2U];
 80034e4:	4a55      	ldr	r2, [pc, #340]	; (800363c <HAL_GPIO_Init+0x2e0>)
 80034e6:	697b      	ldr	r3, [r7, #20]
 80034e8:	089b      	lsrs	r3, r3, #2
 80034ea:	3302      	adds	r3, #2
 80034ec:	009b      	lsls	r3, r3, #2
 80034ee:	589b      	ldr	r3, [r3, r2]
 80034f0:	613b      	str	r3, [r7, #16]
        CLEAR_BIT(temp, (0x0FUL) << (4U * (position & 0x03U)));
 80034f2:	697b      	ldr	r3, [r7, #20]
 80034f4:	2203      	movs	r2, #3
 80034f6:	4013      	ands	r3, r2
 80034f8:	009b      	lsls	r3, r3, #2
 80034fa:	220f      	movs	r2, #15
 80034fc:	409a      	lsls	r2, r3
 80034fe:	0013      	movs	r3, r2
 8003500:	43da      	mvns	r2, r3
 8003502:	693b      	ldr	r3, [r7, #16]
 8003504:	4013      	ands	r3, r2
 8003506:	613b      	str	r3, [r7, #16]
        SET_BIT(temp, (GPIO_GET_INDEX(GPIOx)) << (4 * (position & 0x03U)));
 8003508:	687a      	ldr	r2, [r7, #4]
 800350a:	23a0      	movs	r3, #160	; 0xa0
 800350c:	05db      	lsls	r3, r3, #23
 800350e:	429a      	cmp	r2, r3
 8003510:	d01f      	beq.n	8003552 <HAL_GPIO_Init+0x1f6>
 8003512:	687b      	ldr	r3, [r7, #4]
 8003514:	4a4a      	ldr	r2, [pc, #296]	; (8003640 <HAL_GPIO_Init+0x2e4>)
 8003516:	4293      	cmp	r3, r2
 8003518:	d019      	beq.n	800354e <HAL_GPIO_Init+0x1f2>
 800351a:	687b      	ldr	r3, [r7, #4]
 800351c:	4a49      	ldr	r2, [pc, #292]	; (8003644 <HAL_GPIO_Init+0x2e8>)
 800351e:	4293      	cmp	r3, r2
 8003520:	d013      	beq.n	800354a <HAL_GPIO_Init+0x1ee>
 8003522:	687b      	ldr	r3, [r7, #4]
 8003524:	4a48      	ldr	r2, [pc, #288]	; (8003648 <HAL_GPIO_Init+0x2ec>)
 8003526:	4293      	cmp	r3, r2
 8003528:	d00d      	beq.n	8003546 <HAL_GPIO_Init+0x1ea>
 800352a:	687b      	ldr	r3, [r7, #4]
 800352c:	4a47      	ldr	r2, [pc, #284]	; (800364c <HAL_GPIO_Init+0x2f0>)
 800352e:	4293      	cmp	r3, r2
 8003530:	d007      	beq.n	8003542 <HAL_GPIO_Init+0x1e6>
 8003532:	687b      	ldr	r3, [r7, #4]
 8003534:	4a46      	ldr	r2, [pc, #280]	; (8003650 <HAL_GPIO_Init+0x2f4>)
 8003536:	4293      	cmp	r3, r2
 8003538:	d101      	bne.n	800353e <HAL_GPIO_Init+0x1e2>
 800353a:	2305      	movs	r3, #5
 800353c:	e00a      	b.n	8003554 <HAL_GPIO_Init+0x1f8>
 800353e:	2306      	movs	r3, #6
 8003540:	e008      	b.n	8003554 <HAL_GPIO_Init+0x1f8>
 8003542:	2304      	movs	r3, #4
 8003544:	e006      	b.n	8003554 <HAL_GPIO_Init+0x1f8>
 8003546:	2303      	movs	r3, #3
 8003548:	e004      	b.n	8003554 <HAL_GPIO_Init+0x1f8>
 800354a:	2302      	movs	r3, #2
 800354c:	e002      	b.n	8003554 <HAL_GPIO_Init+0x1f8>
 800354e:	2301      	movs	r3, #1
 8003550:	e000      	b.n	8003554 <HAL_GPIO_Init+0x1f8>
 8003552:	2300      	movs	r3, #0
 8003554:	697a      	ldr	r2, [r7, #20]
 8003556:	2103      	movs	r1, #3
 8003558:	400a      	ands	r2, r1
 800355a:	0092      	lsls	r2, r2, #2
 800355c:	4093      	lsls	r3, r2
 800355e:	693a      	ldr	r2, [r7, #16]
 8003560:	4313      	orrs	r3, r2
 8003562:	613b      	str	r3, [r7, #16]
        SYSCFG->EXTICR[position >> 2U] = temp;
 8003564:	4935      	ldr	r1, [pc, #212]	; (800363c <HAL_GPIO_Init+0x2e0>)
 8003566:	697b      	ldr	r3, [r7, #20]
 8003568:	089b      	lsrs	r3, r3, #2
 800356a:	3302      	adds	r3, #2
 800356c:	009b      	lsls	r3, r3, #2
 800356e:	693a      	ldr	r2, [r7, #16]
 8003570:	505a      	str	r2, [r3, r1]

        /* Clear EXTI line configuration */
        temp = EXTI->IMR;
 8003572:	4b38      	ldr	r3, [pc, #224]	; (8003654 <HAL_GPIO_Init+0x2f8>)
 8003574:	681b      	ldr	r3, [r3, #0]
 8003576:	613b      	str	r3, [r7, #16]
        temp &= ~((uint32_t)iocurrent);
 8003578:	68fb      	ldr	r3, [r7, #12]
 800357a:	43da      	mvns	r2, r3
 800357c:	693b      	ldr	r3, [r7, #16]
 800357e:	4013      	ands	r3, r2
 8003580:	613b      	str	r3, [r7, #16]
        if ((GPIO_Init->Mode & EXTI_IT) != 0x00U)
 8003582:	683b      	ldr	r3, [r7, #0]
 8003584:	685a      	ldr	r2, [r3, #4]
 8003586:	2380      	movs	r3, #128	; 0x80
 8003588:	025b      	lsls	r3, r3, #9
 800358a:	4013      	ands	r3, r2
 800358c:	d003      	beq.n	8003596 <HAL_GPIO_Init+0x23a>
        {
          temp |= iocurrent;
 800358e:	693a      	ldr	r2, [r7, #16]
 8003590:	68fb      	ldr	r3, [r7, #12]
 8003592:	4313      	orrs	r3, r2
 8003594:	613b      	str	r3, [r7, #16]
        }
        EXTI->IMR = temp;
 8003596:	4b2f      	ldr	r3, [pc, #188]	; (8003654 <HAL_GPIO_Init+0x2f8>)
 8003598:	693a      	ldr	r2, [r7, #16]
 800359a:	601a      	str	r2, [r3, #0]

        temp = EXTI->EMR;
 800359c:	4b2d      	ldr	r3, [pc, #180]	; (8003654 <HAL_GPIO_Init+0x2f8>)
 800359e:	685b      	ldr	r3, [r3, #4]
 80035a0:	613b      	str	r3, [r7, #16]
        temp &= ~((uint32_t)iocurrent);
 80035a2:	68fb      	ldr	r3, [r7, #12]
 80035a4:	43da      	mvns	r2, r3
 80035a6:	693b      	ldr	r3, [r7, #16]
 80035a8:	4013      	ands	r3, r2
 80035aa:	613b      	str	r3, [r7, #16]
        if ((GPIO_Init->Mode & EXTI_EVT) != 0x00U)
 80035ac:	683b      	ldr	r3, [r7, #0]
 80035ae:	685a      	ldr	r2, [r3, #4]
 80035b0:	2380      	movs	r3, #128	; 0x80
 80035b2:	029b      	lsls	r3, r3, #10
 80035b4:	4013      	ands	r3, r2
 80035b6:	d003      	beq.n	80035c0 <HAL_GPIO_Init+0x264>
        {
          temp |= iocurrent;
 80035b8:	693a      	ldr	r2, [r7, #16]
 80035ba:	68fb      	ldr	r3, [r7, #12]
 80035bc:	4313      	orrs	r3, r2
 80035be:	613b      	str	r3, [r7, #16]
        }
        EXTI->EMR = temp;
 80035c0:	4b24      	ldr	r3, [pc, #144]	; (8003654 <HAL_GPIO_Init+0x2f8>)
 80035c2:	693a      	ldr	r2, [r7, #16]
 80035c4:	605a      	str	r2, [r3, #4]

        /* Clear Rising Falling edge configuration */
        temp = EXTI->RTSR;
 80035c6:	4b23      	ldr	r3, [pc, #140]	; (8003654 <HAL_GPIO_Init+0x2f8>)
 80035c8:	689b      	ldr	r3, [r3, #8]
 80035ca:	613b      	str	r3, [r7, #16]
        temp &= ~((uint32_t)iocurrent);
 80035cc:	68fb      	ldr	r3, [r7, #12]
 80035ce:	43da      	mvns	r2, r3
 80035d0:	693b      	ldr	r3, [r7, #16]
 80035d2:	4013      	ands	r3, r2
 80035d4:	613b      	str	r3, [r7, #16]
        if ((GPIO_Init->Mode & TRIGGER_RISING) != 0x00U)
 80035d6:	683b      	ldr	r3, [r7, #0]
 80035d8:	685a      	ldr	r2, [r3, #4]
 80035da:	2380      	movs	r3, #128	; 0x80
 80035dc:	035b      	lsls	r3, r3, #13
 80035de:	4013      	ands	r3, r2
 80035e0:	d003      	beq.n	80035ea <HAL_GPIO_Init+0x28e>
        {
          temp |= iocurrent;
 80035e2:	693a      	ldr	r2, [r7, #16]
 80035e4:	68fb      	ldr	r3, [r7, #12]
 80035e6:	4313      	orrs	r3, r2
 80035e8:	613b      	str	r3, [r7, #16]
        }
        EXTI->RTSR = temp;
 80035ea:	4b1a      	ldr	r3, [pc, #104]	; (8003654 <HAL_GPIO_Init+0x2f8>)
 80035ec:	693a      	ldr	r2, [r7, #16]
 80035ee:	609a      	str	r2, [r3, #8]

        temp = EXTI->FTSR;
 80035f0:	4b18      	ldr	r3, [pc, #96]	; (8003654 <HAL_GPIO_Init+0x2f8>)
 80035f2:	68db      	ldr	r3, [r3, #12]
 80035f4:	613b      	str	r3, [r7, #16]
        temp &= ~((uint32_t)iocurrent);
 80035f6:	68fb      	ldr	r3, [r7, #12]
 80035f8:	43da      	mvns	r2, r3
 80035fa:	693b      	ldr	r3, [r7, #16]
 80035fc:	4013      	ands	r3, r2
 80035fe:	613b      	str	r3, [r7, #16]
        if ((GPIO_Init->Mode & TRIGGER_FALLING) != 0x00U)
 8003600:	683b      	ldr	r3, [r7, #0]
 8003602:	685a      	ldr	r2, [r3, #4]
 8003604:	2380      	movs	r3, #128	; 0x80
 8003606:	039b      	lsls	r3, r3, #14
 8003608:	4013      	ands	r3, r2
 800360a:	d003      	beq.n	8003614 <HAL_GPIO_Init+0x2b8>
        {
          temp |= iocurrent;
 800360c:	693a      	ldr	r2, [r7, #16]
 800360e:	68fb      	ldr	r3, [r7, #12]
 8003610:	4313      	orrs	r3, r2
 8003612:	613b      	str	r3, [r7, #16]
        }
        EXTI->FTSR = temp;
 8003614:	4b0f      	ldr	r3, [pc, #60]	; (8003654 <HAL_GPIO_Init+0x2f8>)
 8003616:	693a      	ldr	r2, [r7, #16]
 8003618:	60da      	str	r2, [r3, #12]
      }
    }
    position++;
 800361a:	697b      	ldr	r3, [r7, #20]
 800361c:	3301      	adds	r3, #1
 800361e:	617b      	str	r3, [r7, #20]
  while (((GPIO_Init->Pin) >> position) != 0)
 8003620:	683b      	ldr	r3, [r7, #0]
 8003622:	681a      	ldr	r2, [r3, #0]
 8003624:	697b      	ldr	r3, [r7, #20]
 8003626:	40da      	lsrs	r2, r3
 8003628:	1e13      	subs	r3, r2, #0
 800362a:	d000      	beq.n	800362e <HAL_GPIO_Init+0x2d2>
 800362c:	e6a2      	b.n	8003374 <HAL_GPIO_Init+0x18>
  }
}
 800362e:	46c0      	nop			; (mov r8, r8)
 8003630:	46c0      	nop			; (mov r8, r8)
 8003632:	46bd      	mov	sp, r7
 8003634:	b006      	add	sp, #24
 8003636:	bd80      	pop	{r7, pc}
 8003638:	40021000 	.word	0x40021000
 800363c:	40010000 	.word	0x40010000
 8003640:	50000400 	.word	0x50000400
 8003644:	50000800 	.word	0x50000800
 8003648:	50000c00 	.word	0x50000c00
 800364c:	50001000 	.word	0x50001000
 8003650:	50001c00 	.word	0x50001c00
 8003654:	40010400 	.word	0x40010400

08003658 <HAL_GPIO_WritePin>:
  *                        GPIO_PIN_RESET: to clear the port pin
  *                        GPIO_PIN_SET: to set the port pin
  * @retval None
  */
void HAL_GPIO_WritePin(GPIO_TypeDef *GPIOx, uint16_t GPIO_Pin, GPIO_PinState PinState)
{
 8003658:	b580      	push	{r7, lr}
 800365a:	b082      	sub	sp, #8
 800365c:	af00      	add	r7, sp, #0
 800365e:	6078      	str	r0, [r7, #4]
 8003660:	0008      	movs	r0, r1
 8003662:	0011      	movs	r1, r2
 8003664:	1cbb      	adds	r3, r7, #2
 8003666:	1c02      	adds	r2, r0, #0
 8003668:	801a      	strh	r2, [r3, #0]
 800366a:	1c7b      	adds	r3, r7, #1
 800366c:	1c0a      	adds	r2, r1, #0
 800366e:	701a      	strb	r2, [r3, #0]
  /* Check the parameters */
  assert_param(IS_GPIO_PIN_AVAILABLE(GPIOx, GPIO_Pin));
  assert_param(IS_GPIO_PIN_ACTION(PinState));

  if (PinState != GPIO_PIN_RESET)
 8003670:	1c7b      	adds	r3, r7, #1
 8003672:	781b      	ldrb	r3, [r3, #0]
 8003674:	2b00      	cmp	r3, #0
 8003676:	d004      	beq.n	8003682 <HAL_GPIO_WritePin+0x2a>
  {
    GPIOx->BSRR = GPIO_Pin;
 8003678:	1cbb      	adds	r3, r7, #2
 800367a:	881a      	ldrh	r2, [r3, #0]
 800367c:	687b      	ldr	r3, [r7, #4]
 800367e:	619a      	str	r2, [r3, #24]
  }
  else
  {
    GPIOx->BRR = GPIO_Pin ;
  }
}
 8003680:	e003      	b.n	800368a <HAL_GPIO_WritePin+0x32>
    GPIOx->BRR = GPIO_Pin ;
 8003682:	1cbb      	adds	r3, r7, #2
 8003684:	881a      	ldrh	r2, [r3, #0]
 8003686:	687b      	ldr	r3, [r7, #4]
 8003688:	629a      	str	r2, [r3, #40]	; 0x28
}
 800368a:	46c0      	nop			; (mov r8, r8)
 800368c:	46bd      	mov	sp, r7
 800368e:	b002      	add	sp, #8
 8003690:	bd80      	pop	{r7, pc}
	...

08003694 <HAL_RCC_OscConfig>:
  *         supported by this macro. User should request a transition to HSE Off
  *         first and then HSE On or HSE Bypass.
  * @retval HAL status
  */
HAL_StatusTypeDef HAL_RCC_OscConfig(RCC_OscInitTypeDef  *RCC_OscInitStruct)
{
 8003694:	b5b0      	push	{r4, r5, r7, lr}
 8003696:	b08a      	sub	sp, #40	; 0x28
 8003698:	af00      	add	r7, sp, #0
 800369a:	6078      	str	r0, [r7, #4]
  uint32_t hsi_state;
  HAL_StatusTypeDef status;
  uint32_t sysclk_source, pll_config;

  /* Check Null pointer */
  if(RCC_OscInitStruct == NULL)
 800369c:	687b      	ldr	r3, [r7, #4]
 800369e:	2b00      	cmp	r3, #0
 80036a0:	d102      	bne.n	80036a8 <HAL_RCC_OscConfig+0x14>
  {
    return HAL_ERROR;
 80036a2:	2301      	movs	r3, #1
 80036a4:	f000 fbbf 	bl	8003e26 <HAL_RCC_OscConfig+0x792>
  }

  /* Check the parameters */
  assert_param(IS_RCC_OSCILLATORTYPE(RCC_OscInitStruct->OscillatorType));

  sysclk_source = __HAL_RCC_GET_SYSCLK_SOURCE();
 80036a8:	4bc9      	ldr	r3, [pc, #804]	; (80039d0 <HAL_RCC_OscConfig+0x33c>)
 80036aa:	68db      	ldr	r3, [r3, #12]
 80036ac:	220c      	movs	r2, #12
 80036ae:	4013      	ands	r3, r2
 80036b0:	61fb      	str	r3, [r7, #28]
  pll_config = __HAL_RCC_GET_PLL_OSCSOURCE();
 80036b2:	4bc7      	ldr	r3, [pc, #796]	; (80039d0 <HAL_RCC_OscConfig+0x33c>)
 80036b4:	68da      	ldr	r2, [r3, #12]
 80036b6:	2380      	movs	r3, #128	; 0x80
 80036b8:	025b      	lsls	r3, r3, #9
 80036ba:	4013      	ands	r3, r2
 80036bc:	61bb      	str	r3, [r7, #24]

  /*------------------------------- HSE Configuration ------------------------*/
  if(((RCC_OscInitStruct->OscillatorType) & RCC_OSCILLATORTYPE_HSE) == RCC_OSCILLATORTYPE_HSE)
 80036be:	687b      	ldr	r3, [r7, #4]
 80036c0:	681b      	ldr	r3, [r3, #0]
 80036c2:	2201      	movs	r2, #1
 80036c4:	4013      	ands	r3, r2
 80036c6:	d100      	bne.n	80036ca <HAL_RCC_OscConfig+0x36>
 80036c8:	e07e      	b.n	80037c8 <HAL_RCC_OscConfig+0x134>
  {
    /* Check the parameters */
    assert_param(IS_RCC_HSE(RCC_OscInitStruct->HSEState));

    /* When the HSE is used as system clock or clock source for PLL in these cases it is not allowed to be disabled */
    if((sysclk_source == RCC_SYSCLKSOURCE_STATUS_HSE)
 80036ca:	69fb      	ldr	r3, [r7, #28]
 80036cc:	2b08      	cmp	r3, #8
 80036ce:	d007      	beq.n	80036e0 <HAL_RCC_OscConfig+0x4c>
       || ((sysclk_source == RCC_SYSCLKSOURCE_STATUS_PLLCLK) && (pll_config == RCC_PLLSOURCE_HSE)))
 80036d0:	69fb      	ldr	r3, [r7, #28]
 80036d2:	2b0c      	cmp	r3, #12
 80036d4:	d112      	bne.n	80036fc <HAL_RCC_OscConfig+0x68>
 80036d6:	69ba      	ldr	r2, [r7, #24]
 80036d8:	2380      	movs	r3, #128	; 0x80
 80036da:	025b      	lsls	r3, r3, #9
 80036dc:	429a      	cmp	r2, r3
 80036de:	d10d      	bne.n	80036fc <HAL_RCC_OscConfig+0x68>
    {
      if((__HAL_RCC_GET_FLAG(RCC_FLAG_HSERDY) != 0U) && (RCC_OscInitStruct->HSEState == RCC_HSE_OFF))
 80036e0:	4bbb      	ldr	r3, [pc, #748]	; (80039d0 <HAL_RCC_OscConfig+0x33c>)
 80036e2:	681a      	ldr	r2, [r3, #0]
 80036e4:	2380      	movs	r3, #128	; 0x80
 80036e6:	029b      	lsls	r3, r3, #10
 80036e8:	4013      	ands	r3, r2
 80036ea:	d100      	bne.n	80036ee <HAL_RCC_OscConfig+0x5a>
 80036ec:	e06b      	b.n	80037c6 <HAL_RCC_OscConfig+0x132>
 80036ee:	687b      	ldr	r3, [r7, #4]
 80036f0:	685b      	ldr	r3, [r3, #4]
 80036f2:	2b00      	cmp	r3, #0
 80036f4:	d167      	bne.n	80037c6 <HAL_RCC_OscConfig+0x132>
      {
        return HAL_ERROR;
 80036f6:	2301      	movs	r3, #1
 80036f8:	f000 fb95 	bl	8003e26 <HAL_RCC_OscConfig+0x792>
      }
    }
    else
    {
      /* Set the new HSE configuration ---------------------------------------*/
      __HAL_RCC_HSE_CONFIG(RCC_OscInitStruct->HSEState);
 80036fc:	687b      	ldr	r3, [r7, #4]
 80036fe:	685a      	ldr	r2, [r3, #4]
 8003700:	2380      	movs	r3, #128	; 0x80
 8003702:	025b      	lsls	r3, r3, #9
 8003704:	429a      	cmp	r2, r3
 8003706:	d107      	bne.n	8003718 <HAL_RCC_OscConfig+0x84>
 8003708:	4bb1      	ldr	r3, [pc, #708]	; (80039d0 <HAL_RCC_OscConfig+0x33c>)
 800370a:	681a      	ldr	r2, [r3, #0]
 800370c:	4bb0      	ldr	r3, [pc, #704]	; (80039d0 <HAL_RCC_OscConfig+0x33c>)
 800370e:	2180      	movs	r1, #128	; 0x80
 8003710:	0249      	lsls	r1, r1, #9
 8003712:	430a      	orrs	r2, r1
 8003714:	601a      	str	r2, [r3, #0]
 8003716:	e027      	b.n	8003768 <HAL_RCC_OscConfig+0xd4>
 8003718:	687b      	ldr	r3, [r7, #4]
 800371a:	685a      	ldr	r2, [r3, #4]
 800371c:	23a0      	movs	r3, #160	; 0xa0
 800371e:	02db      	lsls	r3, r3, #11
 8003720:	429a      	cmp	r2, r3
 8003722:	d10e      	bne.n	8003742 <HAL_RCC_OscConfig+0xae>
 8003724:	4baa      	ldr	r3, [pc, #680]	; (80039d0 <HAL_RCC_OscConfig+0x33c>)
 8003726:	681a      	ldr	r2, [r3, #0]
 8003728:	4ba9      	ldr	r3, [pc, #676]	; (80039d0 <HAL_RCC_OscConfig+0x33c>)
 800372a:	2180      	movs	r1, #128	; 0x80
 800372c:	02c9      	lsls	r1, r1, #11
 800372e:	430a      	orrs	r2, r1
 8003730:	601a      	str	r2, [r3, #0]
 8003732:	4ba7      	ldr	r3, [pc, #668]	; (80039d0 <HAL_RCC_OscConfig+0x33c>)
 8003734:	681a      	ldr	r2, [r3, #0]
 8003736:	4ba6      	ldr	r3, [pc, #664]	; (80039d0 <HAL_RCC_OscConfig+0x33c>)
 8003738:	2180      	movs	r1, #128	; 0x80
 800373a:	0249      	lsls	r1, r1, #9
 800373c:	430a      	orrs	r2, r1
 800373e:	601a      	str	r2, [r3, #0]
 8003740:	e012      	b.n	8003768 <HAL_RCC_OscConfig+0xd4>
 8003742:	4ba3      	ldr	r3, [pc, #652]	; (80039d0 <HAL_RCC_OscConfig+0x33c>)
 8003744:	681a      	ldr	r2, [r3, #0]
 8003746:	4ba2      	ldr	r3, [pc, #648]	; (80039d0 <HAL_RCC_OscConfig+0x33c>)
 8003748:	49a2      	ldr	r1, [pc, #648]	; (80039d4 <HAL_RCC_OscConfig+0x340>)
 800374a:	400a      	ands	r2, r1
 800374c:	601a      	str	r2, [r3, #0]
 800374e:	4ba0      	ldr	r3, [pc, #640]	; (80039d0 <HAL_RCC_OscConfig+0x33c>)
 8003750:	681a      	ldr	r2, [r3, #0]
 8003752:	2380      	movs	r3, #128	; 0x80
 8003754:	025b      	lsls	r3, r3, #9
 8003756:	4013      	ands	r3, r2
 8003758:	60fb      	str	r3, [r7, #12]
 800375a:	68fb      	ldr	r3, [r7, #12]
 800375c:	4b9c      	ldr	r3, [pc, #624]	; (80039d0 <HAL_RCC_OscConfig+0x33c>)
 800375e:	681a      	ldr	r2, [r3, #0]
 8003760:	4b9b      	ldr	r3, [pc, #620]	; (80039d0 <HAL_RCC_OscConfig+0x33c>)
 8003762:	499d      	ldr	r1, [pc, #628]	; (80039d8 <HAL_RCC_OscConfig+0x344>)
 8003764:	400a      	ands	r2, r1
 8003766:	601a      	str	r2, [r3, #0]

      /* Check the HSE State */
      if(RCC_OscInitStruct->HSEState != RCC_HSE_OFF)
 8003768:	687b      	ldr	r3, [r7, #4]
 800376a:	685b      	ldr	r3, [r3, #4]
 800376c:	2b00      	cmp	r3, #0
 800376e:	d015      	beq.n	800379c <HAL_RCC_OscConfig+0x108>
      {
        /* Get Start Tick */
        tickstart = HAL_GetTick();
 8003770:	f7ff f97a 	bl	8002a68 <HAL_GetTick>
 8003774:	0003      	movs	r3, r0
 8003776:	617b      	str	r3, [r7, #20]

        /* Wait till HSE is ready */
        while(__HAL_RCC_GET_FLAG(RCC_FLAG_HSERDY) == 0U)
 8003778:	e009      	b.n	800378e <HAL_RCC_OscConfig+0xfa>
        {
          if((HAL_GetTick() - tickstart ) > HSE_TIMEOUT_VALUE)
 800377a:	f7ff f975 	bl	8002a68 <HAL_GetTick>
 800377e:	0002      	movs	r2, r0
 8003780:	697b      	ldr	r3, [r7, #20]
 8003782:	1ad3      	subs	r3, r2, r3
 8003784:	2b64      	cmp	r3, #100	; 0x64
 8003786:	d902      	bls.n	800378e <HAL_RCC_OscConfig+0xfa>
          {
            return HAL_TIMEOUT;
 8003788:	2303      	movs	r3, #3
 800378a:	f000 fb4c 	bl	8003e26 <HAL_RCC_OscConfig+0x792>
        while(__HAL_RCC_GET_FLAG(RCC_FLAG_HSERDY) == 0U)
 800378e:	4b90      	ldr	r3, [pc, #576]	; (80039d0 <HAL_RCC_OscConfig+0x33c>)
 8003790:	681a      	ldr	r2, [r3, #0]
 8003792:	2380      	movs	r3, #128	; 0x80
 8003794:	029b      	lsls	r3, r3, #10
 8003796:	4013      	ands	r3, r2
 8003798:	d0ef      	beq.n	800377a <HAL_RCC_OscConfig+0xe6>
 800379a:	e015      	b.n	80037c8 <HAL_RCC_OscConfig+0x134>
        }
      }
      else
      {
        /* Get Start Tick */
        tickstart = HAL_GetTick();
 800379c:	f7ff f964 	bl	8002a68 <HAL_GetTick>
 80037a0:	0003      	movs	r3, r0
 80037a2:	617b      	str	r3, [r7, #20]

        /* Wait till HSE is disabled */
        while(__HAL_RCC_GET_FLAG(RCC_FLAG_HSERDY) != 0U)
 80037a4:	e008      	b.n	80037b8 <HAL_RCC_OscConfig+0x124>
        {
           if((HAL_GetTick() - tickstart ) > HSE_TIMEOUT_VALUE)
 80037a6:	f7ff f95f 	bl	8002a68 <HAL_GetTick>
 80037aa:	0002      	movs	r2, r0
 80037ac:	697b      	ldr	r3, [r7, #20]
 80037ae:	1ad3      	subs	r3, r2, r3
 80037b0:	2b64      	cmp	r3, #100	; 0x64
 80037b2:	d901      	bls.n	80037b8 <HAL_RCC_OscConfig+0x124>
          {
            return HAL_TIMEOUT;
 80037b4:	2303      	movs	r3, #3
 80037b6:	e336      	b.n	8003e26 <HAL_RCC_OscConfig+0x792>
        while(__HAL_RCC_GET_FLAG(RCC_FLAG_HSERDY) != 0U)
 80037b8:	4b85      	ldr	r3, [pc, #532]	; (80039d0 <HAL_RCC_OscConfig+0x33c>)
 80037ba:	681a      	ldr	r2, [r3, #0]
 80037bc:	2380      	movs	r3, #128	; 0x80
 80037be:	029b      	lsls	r3, r3, #10
 80037c0:	4013      	ands	r3, r2
 80037c2:	d1f0      	bne.n	80037a6 <HAL_RCC_OscConfig+0x112>
 80037c4:	e000      	b.n	80037c8 <HAL_RCC_OscConfig+0x134>
      if((__HAL_RCC_GET_FLAG(RCC_FLAG_HSERDY) != 0U) && (RCC_OscInitStruct->HSEState == RCC_HSE_OFF))
 80037c6:	46c0      	nop			; (mov r8, r8)
        }
      }
    }
  }
  /*----------------------------- HSI Configuration --------------------------*/
  if(((RCC_OscInitStruct->OscillatorType) & RCC_OSCILLATORTYPE_HSI) == RCC_OSCILLATORTYPE_HSI)
 80037c8:	687b      	ldr	r3, [r7, #4]
 80037ca:	681b      	ldr	r3, [r3, #0]
 80037cc:	2202      	movs	r2, #2
 80037ce:	4013      	ands	r3, r2
 80037d0:	d100      	bne.n	80037d4 <HAL_RCC_OscConfig+0x140>
 80037d2:	e099      	b.n	8003908 <HAL_RCC_OscConfig+0x274>
  {
    /* Check the parameters */
    assert_param(IS_RCC_HSI(RCC_OscInitStruct->HSIState));
    assert_param(IS_RCC_CALIBRATION_VALUE(RCC_OscInitStruct->HSICalibrationValue));

    hsi_state = RCC_OscInitStruct->HSIState;
 80037d4:	687b      	ldr	r3, [r7, #4]
 80037d6:	68db      	ldr	r3, [r3, #12]
 80037d8:	627b      	str	r3, [r7, #36]	; 0x24

#if defined(RCC_CR_HSIOUTEN)
    if((hsi_state & RCC_HSI_OUTEN) != 0U)
 80037da:	6a7b      	ldr	r3, [r7, #36]	; 0x24
 80037dc:	2220      	movs	r2, #32
 80037de:	4013      	ands	r3, r2
 80037e0:	d009      	beq.n	80037f6 <HAL_RCC_OscConfig+0x162>
    {
      /* HSI Output enable for timer requested */
      SET_BIT(RCC->CR, RCC_CR_HSIOUTEN);
 80037e2:	4b7b      	ldr	r3, [pc, #492]	; (80039d0 <HAL_RCC_OscConfig+0x33c>)
 80037e4:	681a      	ldr	r2, [r3, #0]
 80037e6:	4b7a      	ldr	r3, [pc, #488]	; (80039d0 <HAL_RCC_OscConfig+0x33c>)
 80037e8:	2120      	movs	r1, #32
 80037ea:	430a      	orrs	r2, r1
 80037ec:	601a      	str	r2, [r3, #0]

      hsi_state &= ~RCC_CR_HSIOUTEN;
 80037ee:	6a7b      	ldr	r3, [r7, #36]	; 0x24
 80037f0:	2220      	movs	r2, #32
 80037f2:	4393      	bics	r3, r2
 80037f4:	627b      	str	r3, [r7, #36]	; 0x24
    }
#endif

    /* Check if HSI is used as system clock or as PLL source when PLL is selected as system clock */
    if((sysclk_source == RCC_SYSCLKSOURCE_STATUS_HSI)
 80037f6:	69fb      	ldr	r3, [r7, #28]
 80037f8:	2b04      	cmp	r3, #4
 80037fa:	d005      	beq.n	8003808 <HAL_RCC_OscConfig+0x174>
       || ((sysclk_source == RCC_SYSCLKSOURCE_STATUS_PLLCLK) && (pll_config == RCC_PLLSOURCE_HSI)))
 80037fc:	69fb      	ldr	r3, [r7, #28]
 80037fe:	2b0c      	cmp	r3, #12
 8003800:	d13e      	bne.n	8003880 <HAL_RCC_OscConfig+0x1ec>
 8003802:	69bb      	ldr	r3, [r7, #24]
 8003804:	2b00      	cmp	r3, #0
 8003806:	d13b      	bne.n	8003880 <HAL_RCC_OscConfig+0x1ec>
    {
      /* When HSI is used as system clock it will not disabled */
      if((__HAL_RCC_GET_FLAG(RCC_FLAG_HSIRDY) != 0U) && (hsi_state == RCC_HSI_OFF))
 8003808:	4b71      	ldr	r3, [pc, #452]	; (80039d0 <HAL_RCC_OscConfig+0x33c>)
 800380a:	681b      	ldr	r3, [r3, #0]
 800380c:	2204      	movs	r2, #4
 800380e:	4013      	ands	r3, r2
 8003810:	d004      	beq.n	800381c <HAL_RCC_OscConfig+0x188>
 8003812:	6a7b      	ldr	r3, [r7, #36]	; 0x24
 8003814:	2b00      	cmp	r3, #0
 8003816:	d101      	bne.n	800381c <HAL_RCC_OscConfig+0x188>
      {
        return HAL_ERROR;
 8003818:	2301      	movs	r3, #1
 800381a:	e304      	b.n	8003e26 <HAL_RCC_OscConfig+0x792>
      }
      /* Otherwise, just the calibration and HSI or HSIdiv4 are allowed */
      else
      {
        /* Adjusts the Internal High Speed oscillator (HSI) calibration value.*/
        __HAL_RCC_HSI_CALIBRATIONVALUE_ADJUST(RCC_OscInitStruct->HSICalibrationValue);
 800381c:	4b6c      	ldr	r3, [pc, #432]	; (80039d0 <HAL_RCC_OscConfig+0x33c>)
 800381e:	685b      	ldr	r3, [r3, #4]
 8003820:	4a6e      	ldr	r2, [pc, #440]	; (80039dc <HAL_RCC_OscConfig+0x348>)
 8003822:	4013      	ands	r3, r2
 8003824:	0019      	movs	r1, r3
 8003826:	687b      	ldr	r3, [r7, #4]
 8003828:	691b      	ldr	r3, [r3, #16]
 800382a:	021a      	lsls	r2, r3, #8
 800382c:	4b68      	ldr	r3, [pc, #416]	; (80039d0 <HAL_RCC_OscConfig+0x33c>)
 800382e:	430a      	orrs	r2, r1
 8003830:	605a      	str	r2, [r3, #4]

        /* Enable the Internal High Speed oscillator (HSI or HSIdiv4) */
        __HAL_RCC_HSI_CONFIG(hsi_state);
 8003832:	4b67      	ldr	r3, [pc, #412]	; (80039d0 <HAL_RCC_OscConfig+0x33c>)
 8003834:	681b      	ldr	r3, [r3, #0]
 8003836:	2209      	movs	r2, #9
 8003838:	4393      	bics	r3, r2
 800383a:	0019      	movs	r1, r3
 800383c:	4b64      	ldr	r3, [pc, #400]	; (80039d0 <HAL_RCC_OscConfig+0x33c>)
 800383e:	6a7a      	ldr	r2, [r7, #36]	; 0x24
 8003840:	430a      	orrs	r2, r1
 8003842:	601a      	str	r2, [r3, #0]
      }

      /* Update the SystemCoreClock global variable */
      SystemCoreClock = HAL_RCC_GetSysClockFreq() >> AHBPrescTable[(RCC->CFGR & RCC_CFGR_HPRE)>> RCC_CFGR_HPRE_Pos];
 8003844:	f000 fc42 	bl	80040cc <HAL_RCC_GetSysClockFreq>
 8003848:	0001      	movs	r1, r0
 800384a:	4b61      	ldr	r3, [pc, #388]	; (80039d0 <HAL_RCC_OscConfig+0x33c>)
 800384c:	68db      	ldr	r3, [r3, #12]
 800384e:	091b      	lsrs	r3, r3, #4
 8003850:	220f      	movs	r2, #15
 8003852:	4013      	ands	r3, r2
 8003854:	4a62      	ldr	r2, [pc, #392]	; (80039e0 <HAL_RCC_OscConfig+0x34c>)
 8003856:	5cd3      	ldrb	r3, [r2, r3]
 8003858:	000a      	movs	r2, r1
 800385a:	40da      	lsrs	r2, r3
 800385c:	4b61      	ldr	r3, [pc, #388]	; (80039e4 <HAL_RCC_OscConfig+0x350>)
 800385e:	601a      	str	r2, [r3, #0]

      /* Configure the source of time base considering new system clocks settings*/
      status = HAL_InitTick (uwTickPrio);
 8003860:	4b61      	ldr	r3, [pc, #388]	; (80039e8 <HAL_RCC_OscConfig+0x354>)
 8003862:	681b      	ldr	r3, [r3, #0]
 8003864:	2513      	movs	r5, #19
 8003866:	197c      	adds	r4, r7, r5
 8003868:	0018      	movs	r0, r3
 800386a:	f7ff f8b7 	bl	80029dc <HAL_InitTick>
 800386e:	0003      	movs	r3, r0
 8003870:	7023      	strb	r3, [r4, #0]
      if(status != HAL_OK)
 8003872:	197b      	adds	r3, r7, r5
 8003874:	781b      	ldrb	r3, [r3, #0]
 8003876:	2b00      	cmp	r3, #0
 8003878:	d046      	beq.n	8003908 <HAL_RCC_OscConfig+0x274>
      {
        return status;
 800387a:	197b      	adds	r3, r7, r5
 800387c:	781b      	ldrb	r3, [r3, #0]
 800387e:	e2d2      	b.n	8003e26 <HAL_RCC_OscConfig+0x792>
      }
    }
    else
    {
      /* Check the HSI State */
      if(hsi_state != RCC_HSI_OFF)
 8003880:	6a7b      	ldr	r3, [r7, #36]	; 0x24
 8003882:	2b00      	cmp	r3, #0
 8003884:	d027      	beq.n	80038d6 <HAL_RCC_OscConfig+0x242>
      {
        /* Enable the Internal High Speed oscillator (HSI or HSIdiv4) */
        __HAL_RCC_HSI_CONFIG(hsi_state);
 8003886:	4b52      	ldr	r3, [pc, #328]	; (80039d0 <HAL_RCC_OscConfig+0x33c>)
 8003888:	681b      	ldr	r3, [r3, #0]
 800388a:	2209      	movs	r2, #9
 800388c:	4393      	bics	r3, r2
 800388e:	0019      	movs	r1, r3
 8003890:	4b4f      	ldr	r3, [pc, #316]	; (80039d0 <HAL_RCC_OscConfig+0x33c>)
 8003892:	6a7a      	ldr	r2, [r7, #36]	; 0x24
 8003894:	430a      	orrs	r2, r1
 8003896:	601a      	str	r2, [r3, #0]

        /* Get Start Tick */
        tickstart = HAL_GetTick();
 8003898:	f7ff f8e6 	bl	8002a68 <HAL_GetTick>
 800389c:	0003      	movs	r3, r0
 800389e:	617b      	str	r3, [r7, #20]

        /* Wait till HSI is ready */
        while(__HAL_RCC_GET_FLAG(RCC_FLAG_HSIRDY) == 0U)
 80038a0:	e008      	b.n	80038b4 <HAL_RCC_OscConfig+0x220>
        {
          if((HAL_GetTick() - tickstart ) > HSI_TIMEOUT_VALUE)
 80038a2:	f7ff f8e1 	bl	8002a68 <HAL_GetTick>
 80038a6:	0002      	movs	r2, r0
 80038a8:	697b      	ldr	r3, [r7, #20]
 80038aa:	1ad3      	subs	r3, r2, r3
 80038ac:	2b02      	cmp	r3, #2
 80038ae:	d901      	bls.n	80038b4 <HAL_RCC_OscConfig+0x220>
          {
            return HAL_TIMEOUT;
 80038b0:	2303      	movs	r3, #3
 80038b2:	e2b8      	b.n	8003e26 <HAL_RCC_OscConfig+0x792>
        while(__HAL_RCC_GET_FLAG(RCC_FLAG_HSIRDY) == 0U)
 80038b4:	4b46      	ldr	r3, [pc, #280]	; (80039d0 <HAL_RCC_OscConfig+0x33c>)
 80038b6:	681b      	ldr	r3, [r3, #0]
 80038b8:	2204      	movs	r2, #4
 80038ba:	4013      	ands	r3, r2
 80038bc:	d0f1      	beq.n	80038a2 <HAL_RCC_OscConfig+0x20e>
          }
        }

        /* Adjusts the Internal High Speed oscillator (HSI) calibration value.*/
        __HAL_RCC_HSI_CALIBRATIONVALUE_ADJUST(RCC_OscInitStruct->HSICalibrationValue);
 80038be:	4b44      	ldr	r3, [pc, #272]	; (80039d0 <HAL_RCC_OscConfig+0x33c>)
 80038c0:	685b      	ldr	r3, [r3, #4]
 80038c2:	4a46      	ldr	r2, [pc, #280]	; (80039dc <HAL_RCC_OscConfig+0x348>)
 80038c4:	4013      	ands	r3, r2
 80038c6:	0019      	movs	r1, r3
 80038c8:	687b      	ldr	r3, [r7, #4]
 80038ca:	691b      	ldr	r3, [r3, #16]
 80038cc:	021a      	lsls	r2, r3, #8
 80038ce:	4b40      	ldr	r3, [pc, #256]	; (80039d0 <HAL_RCC_OscConfig+0x33c>)
 80038d0:	430a      	orrs	r2, r1
 80038d2:	605a      	str	r2, [r3, #4]
 80038d4:	e018      	b.n	8003908 <HAL_RCC_OscConfig+0x274>
      }
      else
      {
        /* Disable the Internal High Speed oscillator (HSI). */
        __HAL_RCC_HSI_DISABLE();
 80038d6:	4b3e      	ldr	r3, [pc, #248]	; (80039d0 <HAL_RCC_OscConfig+0x33c>)
 80038d8:	681a      	ldr	r2, [r3, #0]
 80038da:	4b3d      	ldr	r3, [pc, #244]	; (80039d0 <HAL_RCC_OscConfig+0x33c>)
 80038dc:	2101      	movs	r1, #1
 80038de:	438a      	bics	r2, r1
 80038e0:	601a      	str	r2, [r3, #0]

        /* Get Start Tick */
        tickstart = HAL_GetTick();
 80038e2:	f7ff f8c1 	bl	8002a68 <HAL_GetTick>
 80038e6:	0003      	movs	r3, r0
 80038e8:	617b      	str	r3, [r7, #20]

        /* Wait till HSI is disabled */
        while(__HAL_RCC_GET_FLAG(RCC_FLAG_HSIRDY) != 0U)
 80038ea:	e008      	b.n	80038fe <HAL_RCC_OscConfig+0x26a>
        {
          if((HAL_GetTick() - tickstart ) > HSI_TIMEOUT_VALUE)
 80038ec:	f7ff f8bc 	bl	8002a68 <HAL_GetTick>
 80038f0:	0002      	movs	r2, r0
 80038f2:	697b      	ldr	r3, [r7, #20]
 80038f4:	1ad3      	subs	r3, r2, r3
 80038f6:	2b02      	cmp	r3, #2
 80038f8:	d901      	bls.n	80038fe <HAL_RCC_OscConfig+0x26a>
          {
            return HAL_TIMEOUT;
 80038fa:	2303      	movs	r3, #3
 80038fc:	e293      	b.n	8003e26 <HAL_RCC_OscConfig+0x792>
        while(__HAL_RCC_GET_FLAG(RCC_FLAG_HSIRDY) != 0U)
 80038fe:	4b34      	ldr	r3, [pc, #208]	; (80039d0 <HAL_RCC_OscConfig+0x33c>)
 8003900:	681b      	ldr	r3, [r3, #0]
 8003902:	2204      	movs	r2, #4
 8003904:	4013      	ands	r3, r2
 8003906:	d1f1      	bne.n	80038ec <HAL_RCC_OscConfig+0x258>
        }
      }
    }
  }
  /*----------------------------- MSI Configuration --------------------------*/
  if(((RCC_OscInitStruct->OscillatorType) & RCC_OSCILLATORTYPE_MSI) == RCC_OSCILLATORTYPE_MSI)
 8003908:	687b      	ldr	r3, [r7, #4]
 800390a:	681b      	ldr	r3, [r3, #0]
 800390c:	2210      	movs	r2, #16
 800390e:	4013      	ands	r3, r2
 8003910:	d100      	bne.n	8003914 <HAL_RCC_OscConfig+0x280>
 8003912:	e0a2      	b.n	8003a5a <HAL_RCC_OscConfig+0x3c6>
  {
    /* When the MSI is used as system clock it will not be disabled */
    if(sysclk_source == RCC_CFGR_SWS_MSI)
 8003914:	69fb      	ldr	r3, [r7, #28]
 8003916:	2b00      	cmp	r3, #0
 8003918:	d140      	bne.n	800399c <HAL_RCC_OscConfig+0x308>
    {
      if((__HAL_RCC_GET_FLAG(RCC_FLAG_MSIRDY) != 0U) && (RCC_OscInitStruct->MSIState == RCC_MSI_OFF))
 800391a:	4b2d      	ldr	r3, [pc, #180]	; (80039d0 <HAL_RCC_OscConfig+0x33c>)
 800391c:	681a      	ldr	r2, [r3, #0]
 800391e:	2380      	movs	r3, #128	; 0x80
 8003920:	009b      	lsls	r3, r3, #2
 8003922:	4013      	ands	r3, r2
 8003924:	d005      	beq.n	8003932 <HAL_RCC_OscConfig+0x29e>
 8003926:	687b      	ldr	r3, [r7, #4]
 8003928:	69db      	ldr	r3, [r3, #28]
 800392a:	2b00      	cmp	r3, #0
 800392c:	d101      	bne.n	8003932 <HAL_RCC_OscConfig+0x29e>
      {
        return HAL_ERROR;
 800392e:	2301      	movs	r3, #1
 8003930:	e279      	b.n	8003e26 <HAL_RCC_OscConfig+0x792>
        /* Check MSICalibrationValue and MSIClockRange input parameters */
        assert_param(IS_RCC_MSICALIBRATION_VALUE(RCC_OscInitStruct->MSICalibrationValue));
        assert_param(IS_RCC_MSI_CLOCK_RANGE(RCC_OscInitStruct->MSIClockRange));

        /* Selects the Multiple Speed oscillator (MSI) clock range .*/
        __HAL_RCC_MSI_RANGE_CONFIG(RCC_OscInitStruct->MSIClockRange);
 8003932:	4b27      	ldr	r3, [pc, #156]	; (80039d0 <HAL_RCC_OscConfig+0x33c>)
 8003934:	685b      	ldr	r3, [r3, #4]
 8003936:	4a2d      	ldr	r2, [pc, #180]	; (80039ec <HAL_RCC_OscConfig+0x358>)
 8003938:	4013      	ands	r3, r2
 800393a:	0019      	movs	r1, r3
 800393c:	687b      	ldr	r3, [r7, #4]
 800393e:	6a5a      	ldr	r2, [r3, #36]	; 0x24
 8003940:	4b23      	ldr	r3, [pc, #140]	; (80039d0 <HAL_RCC_OscConfig+0x33c>)
 8003942:	430a      	orrs	r2, r1
 8003944:	605a      	str	r2, [r3, #4]
        /* Adjusts the Multiple Speed oscillator (MSI) calibration value.*/
        __HAL_RCC_MSI_CALIBRATIONVALUE_ADJUST(RCC_OscInitStruct->MSICalibrationValue);
 8003946:	4b22      	ldr	r3, [pc, #136]	; (80039d0 <HAL_RCC_OscConfig+0x33c>)
 8003948:	685b      	ldr	r3, [r3, #4]
 800394a:	021b      	lsls	r3, r3, #8
 800394c:	0a19      	lsrs	r1, r3, #8
 800394e:	687b      	ldr	r3, [r7, #4]
 8003950:	6a1b      	ldr	r3, [r3, #32]
 8003952:	061a      	lsls	r2, r3, #24
 8003954:	4b1e      	ldr	r3, [pc, #120]	; (80039d0 <HAL_RCC_OscConfig+0x33c>)
 8003956:	430a      	orrs	r2, r1
 8003958:	605a      	str	r2, [r3, #4]


        /* Update the SystemCoreClock global variable */
        SystemCoreClock =  (32768U * (1UL << ((RCC_OscInitStruct->MSIClockRange >> RCC_ICSCR_MSIRANGE_Pos) + 1U)))
 800395a:	687b      	ldr	r3, [r7, #4]
 800395c:	6a5b      	ldr	r3, [r3, #36]	; 0x24
 800395e:	0b5b      	lsrs	r3, r3, #13
 8003960:	3301      	adds	r3, #1
 8003962:	2280      	movs	r2, #128	; 0x80
 8003964:	0212      	lsls	r2, r2, #8
 8003966:	409a      	lsls	r2, r3
                           >> AHBPrescTable[((RCC->CFGR & RCC_CFGR_HPRE) >> RCC_CFGR_HPRE_Pos)];
 8003968:	4b19      	ldr	r3, [pc, #100]	; (80039d0 <HAL_RCC_OscConfig+0x33c>)
 800396a:	68db      	ldr	r3, [r3, #12]
 800396c:	091b      	lsrs	r3, r3, #4
 800396e:	210f      	movs	r1, #15
 8003970:	400b      	ands	r3, r1
 8003972:	491b      	ldr	r1, [pc, #108]	; (80039e0 <HAL_RCC_OscConfig+0x34c>)
 8003974:	5ccb      	ldrb	r3, [r1, r3]
 8003976:	40da      	lsrs	r2, r3
        SystemCoreClock =  (32768U * (1UL << ((RCC_OscInitStruct->MSIClockRange >> RCC_ICSCR_MSIRANGE_Pos) + 1U)))
 8003978:	4b1a      	ldr	r3, [pc, #104]	; (80039e4 <HAL_RCC_OscConfig+0x350>)
 800397a:	601a      	str	r2, [r3, #0]

        /* Configure the source of time base considering new system clocks settings*/
        status = HAL_InitTick (uwTickPrio);
 800397c:	4b1a      	ldr	r3, [pc, #104]	; (80039e8 <HAL_RCC_OscConfig+0x354>)
 800397e:	681b      	ldr	r3, [r3, #0]
 8003980:	2513      	movs	r5, #19
 8003982:	197c      	adds	r4, r7, r5
 8003984:	0018      	movs	r0, r3
 8003986:	f7ff f829 	bl	80029dc <HAL_InitTick>
 800398a:	0003      	movs	r3, r0
 800398c:	7023      	strb	r3, [r4, #0]
        if(status != HAL_OK)
 800398e:	197b      	adds	r3, r7, r5
 8003990:	781b      	ldrb	r3, [r3, #0]
 8003992:	2b00      	cmp	r3, #0
 8003994:	d061      	beq.n	8003a5a <HAL_RCC_OscConfig+0x3c6>
        {
          return status;
 8003996:	197b      	adds	r3, r7, r5
 8003998:	781b      	ldrb	r3, [r3, #0]
 800399a:	e244      	b.n	8003e26 <HAL_RCC_OscConfig+0x792>
    {
      /* Check MSI State */
      assert_param(IS_RCC_MSI(RCC_OscInitStruct->MSIState));

      /* Check the MSI State */
      if(RCC_OscInitStruct->MSIState != RCC_MSI_OFF)
 800399c:	687b      	ldr	r3, [r7, #4]
 800399e:	69db      	ldr	r3, [r3, #28]
 80039a0:	2b00      	cmp	r3, #0
 80039a2:	d040      	beq.n	8003a26 <HAL_RCC_OscConfig+0x392>
      {
        /* Enable the Multi Speed oscillator (MSI). */
        __HAL_RCC_MSI_ENABLE();
 80039a4:	4b0a      	ldr	r3, [pc, #40]	; (80039d0 <HAL_RCC_OscConfig+0x33c>)
 80039a6:	681a      	ldr	r2, [r3, #0]
 80039a8:	4b09      	ldr	r3, [pc, #36]	; (80039d0 <HAL_RCC_OscConfig+0x33c>)
 80039aa:	2180      	movs	r1, #128	; 0x80
 80039ac:	0049      	lsls	r1, r1, #1
 80039ae:	430a      	orrs	r2, r1
 80039b0:	601a      	str	r2, [r3, #0]

        /* Get Start Tick */
        tickstart = HAL_GetTick();
 80039b2:	f7ff f859 	bl	8002a68 <HAL_GetTick>
 80039b6:	0003      	movs	r3, r0
 80039b8:	617b      	str	r3, [r7, #20]

        /* Wait till MSI is ready */
        while(__HAL_RCC_GET_FLAG(RCC_FLAG_MSIRDY) == 0U)
 80039ba:	e019      	b.n	80039f0 <HAL_RCC_OscConfig+0x35c>
        {
          if((HAL_GetTick() - tickstart) > MSI_TIMEOUT_VALUE)
 80039bc:	f7ff f854 	bl	8002a68 <HAL_GetTick>
 80039c0:	0002      	movs	r2, r0
 80039c2:	697b      	ldr	r3, [r7, #20]
 80039c4:	1ad3      	subs	r3, r2, r3
 80039c6:	2b02      	cmp	r3, #2
 80039c8:	d912      	bls.n	80039f0 <HAL_RCC_OscConfig+0x35c>
          {
            return HAL_TIMEOUT;
 80039ca:	2303      	movs	r3, #3
 80039cc:	e22b      	b.n	8003e26 <HAL_RCC_OscConfig+0x792>
 80039ce:	46c0      	nop			; (mov r8, r8)
 80039d0:	40021000 	.word	0x40021000
 80039d4:	fffeffff 	.word	0xfffeffff
 80039d8:	fffbffff 	.word	0xfffbffff
 80039dc:	ffffe0ff 	.word	0xffffe0ff
 80039e0:	08005f9c 	.word	0x08005f9c
 80039e4:	20000000 	.word	0x20000000
 80039e8:	20000004 	.word	0x20000004
 80039ec:	ffff1fff 	.word	0xffff1fff
        while(__HAL_RCC_GET_FLAG(RCC_FLAG_MSIRDY) == 0U)
 80039f0:	4bca      	ldr	r3, [pc, #808]	; (8003d1c <HAL_RCC_OscConfig+0x688>)
 80039f2:	681a      	ldr	r2, [r3, #0]
 80039f4:	2380      	movs	r3, #128	; 0x80
 80039f6:	009b      	lsls	r3, r3, #2
 80039f8:	4013      	ands	r3, r2
 80039fa:	d0df      	beq.n	80039bc <HAL_RCC_OscConfig+0x328>
        /* Check MSICalibrationValue and MSIClockRange input parameters */
        assert_param(IS_RCC_MSICALIBRATION_VALUE(RCC_OscInitStruct->MSICalibrationValue));
        assert_param(IS_RCC_MSI_CLOCK_RANGE(RCC_OscInitStruct->MSIClockRange));

        /* Selects the Multiple Speed oscillator (MSI) clock range .*/
        __HAL_RCC_MSI_RANGE_CONFIG(RCC_OscInitStruct->MSIClockRange);
 80039fc:	4bc7      	ldr	r3, [pc, #796]	; (8003d1c <HAL_RCC_OscConfig+0x688>)
 80039fe:	685b      	ldr	r3, [r3, #4]
 8003a00:	4ac7      	ldr	r2, [pc, #796]	; (8003d20 <HAL_RCC_OscConfig+0x68c>)
 8003a02:	4013      	ands	r3, r2
 8003a04:	0019      	movs	r1, r3
 8003a06:	687b      	ldr	r3, [r7, #4]
 8003a08:	6a5a      	ldr	r2, [r3, #36]	; 0x24
 8003a0a:	4bc4      	ldr	r3, [pc, #784]	; (8003d1c <HAL_RCC_OscConfig+0x688>)
 8003a0c:	430a      	orrs	r2, r1
 8003a0e:	605a      	str	r2, [r3, #4]
         /* Adjusts the Multiple Speed oscillator (MSI) calibration value.*/
        __HAL_RCC_MSI_CALIBRATIONVALUE_ADJUST(RCC_OscInitStruct->MSICalibrationValue);
 8003a10:	4bc2      	ldr	r3, [pc, #776]	; (8003d1c <HAL_RCC_OscConfig+0x688>)
 8003a12:	685b      	ldr	r3, [r3, #4]
 8003a14:	021b      	lsls	r3, r3, #8
 8003a16:	0a19      	lsrs	r1, r3, #8
 8003a18:	687b      	ldr	r3, [r7, #4]
 8003a1a:	6a1b      	ldr	r3, [r3, #32]
 8003a1c:	061a      	lsls	r2, r3, #24
 8003a1e:	4bbf      	ldr	r3, [pc, #764]	; (8003d1c <HAL_RCC_OscConfig+0x688>)
 8003a20:	430a      	orrs	r2, r1
 8003a22:	605a      	str	r2, [r3, #4]
 8003a24:	e019      	b.n	8003a5a <HAL_RCC_OscConfig+0x3c6>
      }
      else
      {
        /* Disable the Multi Speed oscillator (MSI). */
        __HAL_RCC_MSI_DISABLE();
 8003a26:	4bbd      	ldr	r3, [pc, #756]	; (8003d1c <HAL_RCC_OscConfig+0x688>)
 8003a28:	681a      	ldr	r2, [r3, #0]
 8003a2a:	4bbc      	ldr	r3, [pc, #752]	; (8003d1c <HAL_RCC_OscConfig+0x688>)
 8003a2c:	49bd      	ldr	r1, [pc, #756]	; (8003d24 <HAL_RCC_OscConfig+0x690>)
 8003a2e:	400a      	ands	r2, r1
 8003a30:	601a      	str	r2, [r3, #0]

        /* Get Start Tick */
        tickstart = HAL_GetTick();
 8003a32:	f7ff f819 	bl	8002a68 <HAL_GetTick>
 8003a36:	0003      	movs	r3, r0
 8003a38:	617b      	str	r3, [r7, #20]

        /* Wait till MSI is ready */
        while(__HAL_RCC_GET_FLAG(RCC_FLAG_MSIRDY) != 0U)
 8003a3a:	e008      	b.n	8003a4e <HAL_RCC_OscConfig+0x3ba>
        {
          if((HAL_GetTick() - tickstart) > MSI_TIMEOUT_VALUE)
 8003a3c:	f7ff f814 	bl	8002a68 <HAL_GetTick>
 8003a40:	0002      	movs	r2, r0
 8003a42:	697b      	ldr	r3, [r7, #20]
 8003a44:	1ad3      	subs	r3, r2, r3
 8003a46:	2b02      	cmp	r3, #2
 8003a48:	d901      	bls.n	8003a4e <HAL_RCC_OscConfig+0x3ba>
          {
            return HAL_TIMEOUT;
 8003a4a:	2303      	movs	r3, #3
 8003a4c:	e1eb      	b.n	8003e26 <HAL_RCC_OscConfig+0x792>
        while(__HAL_RCC_GET_FLAG(RCC_FLAG_MSIRDY) != 0U)
 8003a4e:	4bb3      	ldr	r3, [pc, #716]	; (8003d1c <HAL_RCC_OscConfig+0x688>)
 8003a50:	681a      	ldr	r2, [r3, #0]
 8003a52:	2380      	movs	r3, #128	; 0x80
 8003a54:	009b      	lsls	r3, r3, #2
 8003a56:	4013      	ands	r3, r2
 8003a58:	d1f0      	bne.n	8003a3c <HAL_RCC_OscConfig+0x3a8>
        }
      }
    }
  }
  /*------------------------------ LSI Configuration -------------------------*/
  if(((RCC_OscInitStruct->OscillatorType) & RCC_OSCILLATORTYPE_LSI) == RCC_OSCILLATORTYPE_LSI)
 8003a5a:	687b      	ldr	r3, [r7, #4]
 8003a5c:	681b      	ldr	r3, [r3, #0]
 8003a5e:	2208      	movs	r2, #8
 8003a60:	4013      	ands	r3, r2
 8003a62:	d036      	beq.n	8003ad2 <HAL_RCC_OscConfig+0x43e>
  {
    /* Check the parameters */
    assert_param(IS_RCC_LSI(RCC_OscInitStruct->LSIState));

    /* Check the LSI State */
    if(RCC_OscInitStruct->LSIState != RCC_LSI_OFF)
 8003a64:	687b      	ldr	r3, [r7, #4]
 8003a66:	695b      	ldr	r3, [r3, #20]
 8003a68:	2b00      	cmp	r3, #0
 8003a6a:	d019      	beq.n	8003aa0 <HAL_RCC_OscConfig+0x40c>
    {
      /* Enable the Internal Low Speed oscillator (LSI). */
      __HAL_RCC_LSI_ENABLE();
 8003a6c:	4bab      	ldr	r3, [pc, #684]	; (8003d1c <HAL_RCC_OscConfig+0x688>)
 8003a6e:	6d1a      	ldr	r2, [r3, #80]	; 0x50
 8003a70:	4baa      	ldr	r3, [pc, #680]	; (8003d1c <HAL_RCC_OscConfig+0x688>)
 8003a72:	2101      	movs	r1, #1
 8003a74:	430a      	orrs	r2, r1
 8003a76:	651a      	str	r2, [r3, #80]	; 0x50

      /* Get Start Tick */
      tickstart = HAL_GetTick();
 8003a78:	f7fe fff6 	bl	8002a68 <HAL_GetTick>
 8003a7c:	0003      	movs	r3, r0
 8003a7e:	617b      	str	r3, [r7, #20]

      /* Wait till LSI is ready */
      while(__HAL_RCC_GET_FLAG(RCC_FLAG_LSIRDY) == 0U)
 8003a80:	e008      	b.n	8003a94 <HAL_RCC_OscConfig+0x400>
      {
        if((HAL_GetTick() - tickstart ) > LSI_TIMEOUT_VALUE)
 8003a82:	f7fe fff1 	bl	8002a68 <HAL_GetTick>
 8003a86:	0002      	movs	r2, r0
 8003a88:	697b      	ldr	r3, [r7, #20]
 8003a8a:	1ad3      	subs	r3, r2, r3
 8003a8c:	2b02      	cmp	r3, #2
 8003a8e:	d901      	bls.n	8003a94 <HAL_RCC_OscConfig+0x400>
        {
          return HAL_TIMEOUT;
 8003a90:	2303      	movs	r3, #3
 8003a92:	e1c8      	b.n	8003e26 <HAL_RCC_OscConfig+0x792>
      while(__HAL_RCC_GET_FLAG(RCC_FLAG_LSIRDY) == 0U)
 8003a94:	4ba1      	ldr	r3, [pc, #644]	; (8003d1c <HAL_RCC_OscConfig+0x688>)
 8003a96:	6d1b      	ldr	r3, [r3, #80]	; 0x50
 8003a98:	2202      	movs	r2, #2
 8003a9a:	4013      	ands	r3, r2
 8003a9c:	d0f1      	beq.n	8003a82 <HAL_RCC_OscConfig+0x3ee>
 8003a9e:	e018      	b.n	8003ad2 <HAL_RCC_OscConfig+0x43e>
      }
    }
    else
    {
      /* Disable the Internal Low Speed oscillator (LSI). */
      __HAL_RCC_LSI_DISABLE();
 8003aa0:	4b9e      	ldr	r3, [pc, #632]	; (8003d1c <HAL_RCC_OscConfig+0x688>)
 8003aa2:	6d1a      	ldr	r2, [r3, #80]	; 0x50
 8003aa4:	4b9d      	ldr	r3, [pc, #628]	; (8003d1c <HAL_RCC_OscConfig+0x688>)
 8003aa6:	2101      	movs	r1, #1
 8003aa8:	438a      	bics	r2, r1
 8003aaa:	651a      	str	r2, [r3, #80]	; 0x50

      /* Get Start Tick */
      tickstart = HAL_GetTick();
 8003aac:	f7fe ffdc 	bl	8002a68 <HAL_GetTick>
 8003ab0:	0003      	movs	r3, r0
 8003ab2:	617b      	str	r3, [r7, #20]

      /* Wait till LSI is disabled */
      while(__HAL_RCC_GET_FLAG(RCC_FLAG_LSIRDY) != 0U)
 8003ab4:	e008      	b.n	8003ac8 <HAL_RCC_OscConfig+0x434>
      {
        if((HAL_GetTick() - tickstart ) > LSI_TIMEOUT_VALUE)
 8003ab6:	f7fe ffd7 	bl	8002a68 <HAL_GetTick>
 8003aba:	0002      	movs	r2, r0
 8003abc:	697b      	ldr	r3, [r7, #20]
 8003abe:	1ad3      	subs	r3, r2, r3
 8003ac0:	2b02      	cmp	r3, #2
 8003ac2:	d901      	bls.n	8003ac8 <HAL_RCC_OscConfig+0x434>
        {
          return HAL_TIMEOUT;
 8003ac4:	2303      	movs	r3, #3
 8003ac6:	e1ae      	b.n	8003e26 <HAL_RCC_OscConfig+0x792>
      while(__HAL_RCC_GET_FLAG(RCC_FLAG_LSIRDY) != 0U)
 8003ac8:	4b94      	ldr	r3, [pc, #592]	; (8003d1c <HAL_RCC_OscConfig+0x688>)
 8003aca:	6d1b      	ldr	r3, [r3, #80]	; 0x50
 8003acc:	2202      	movs	r2, #2
 8003ace:	4013      	ands	r3, r2
 8003ad0:	d1f1      	bne.n	8003ab6 <HAL_RCC_OscConfig+0x422>
        }
      }
    }
  }
  /*------------------------------ LSE Configuration -------------------------*/
  if(((RCC_OscInitStruct->OscillatorType) & RCC_OSCILLATORTYPE_LSE) == RCC_OSCILLATORTYPE_LSE)
 8003ad2:	687b      	ldr	r3, [r7, #4]
 8003ad4:	681b      	ldr	r3, [r3, #0]
 8003ad6:	2204      	movs	r2, #4
 8003ad8:	4013      	ands	r3, r2
 8003ada:	d100      	bne.n	8003ade <HAL_RCC_OscConfig+0x44a>
 8003adc:	e0ae      	b.n	8003c3c <HAL_RCC_OscConfig+0x5a8>
  {
    FlagStatus       pwrclkchanged = RESET;
 8003ade:	2023      	movs	r0, #35	; 0x23
 8003ae0:	183b      	adds	r3, r7, r0
 8003ae2:	2200      	movs	r2, #0
 8003ae4:	701a      	strb	r2, [r3, #0]
    /* Check the parameters */
    assert_param(IS_RCC_LSE(RCC_OscInitStruct->LSEState));

    /* Update LSE configuration in Backup Domain control register    */
    /* Requires to enable write access to Backup Domain of necessary */
    if(__HAL_RCC_PWR_IS_CLK_DISABLED())
 8003ae6:	4b8d      	ldr	r3, [pc, #564]	; (8003d1c <HAL_RCC_OscConfig+0x688>)
 8003ae8:	6b9a      	ldr	r2, [r3, #56]	; 0x38
 8003aea:	2380      	movs	r3, #128	; 0x80
 8003aec:	055b      	lsls	r3, r3, #21
 8003aee:	4013      	ands	r3, r2
 8003af0:	d109      	bne.n	8003b06 <HAL_RCC_OscConfig+0x472>
    {
      __HAL_RCC_PWR_CLK_ENABLE();
 8003af2:	4b8a      	ldr	r3, [pc, #552]	; (8003d1c <HAL_RCC_OscConfig+0x688>)
 8003af4:	6b9a      	ldr	r2, [r3, #56]	; 0x38
 8003af6:	4b89      	ldr	r3, [pc, #548]	; (8003d1c <HAL_RCC_OscConfig+0x688>)
 8003af8:	2180      	movs	r1, #128	; 0x80
 8003afa:	0549      	lsls	r1, r1, #21
 8003afc:	430a      	orrs	r2, r1
 8003afe:	639a      	str	r2, [r3, #56]	; 0x38
      pwrclkchanged = SET;
 8003b00:	183b      	adds	r3, r7, r0
 8003b02:	2201      	movs	r2, #1
 8003b04:	701a      	strb	r2, [r3, #0]
    }

    if(HAL_IS_BIT_CLR(PWR->CR, PWR_CR_DBP))
 8003b06:	4b88      	ldr	r3, [pc, #544]	; (8003d28 <HAL_RCC_OscConfig+0x694>)
 8003b08:	681a      	ldr	r2, [r3, #0]
 8003b0a:	2380      	movs	r3, #128	; 0x80
 8003b0c:	005b      	lsls	r3, r3, #1
 8003b0e:	4013      	ands	r3, r2
 8003b10:	d11a      	bne.n	8003b48 <HAL_RCC_OscConfig+0x4b4>
    {
      /* Enable write access to Backup domain */
      SET_BIT(PWR->CR, PWR_CR_DBP);
 8003b12:	4b85      	ldr	r3, [pc, #532]	; (8003d28 <HAL_RCC_OscConfig+0x694>)
 8003b14:	681a      	ldr	r2, [r3, #0]
 8003b16:	4b84      	ldr	r3, [pc, #528]	; (8003d28 <HAL_RCC_OscConfig+0x694>)
 8003b18:	2180      	movs	r1, #128	; 0x80
 8003b1a:	0049      	lsls	r1, r1, #1
 8003b1c:	430a      	orrs	r2, r1
 8003b1e:	601a      	str	r2, [r3, #0]

      /* Wait for Backup domain Write protection disable */
      tickstart = HAL_GetTick();
 8003b20:	f7fe ffa2 	bl	8002a68 <HAL_GetTick>
 8003b24:	0003      	movs	r3, r0
 8003b26:	617b      	str	r3, [r7, #20]

      while(HAL_IS_BIT_CLR(PWR->CR, PWR_CR_DBP))
 8003b28:	e008      	b.n	8003b3c <HAL_RCC_OscConfig+0x4a8>
      {
        if((HAL_GetTick() - tickstart) > RCC_DBP_TIMEOUT_VALUE)
 8003b2a:	f7fe ff9d 	bl	8002a68 <HAL_GetTick>
 8003b2e:	0002      	movs	r2, r0
 8003b30:	697b      	ldr	r3, [r7, #20]
 8003b32:	1ad3      	subs	r3, r2, r3
 8003b34:	2b64      	cmp	r3, #100	; 0x64
 8003b36:	d901      	bls.n	8003b3c <HAL_RCC_OscConfig+0x4a8>
        {
          return HAL_TIMEOUT;
 8003b38:	2303      	movs	r3, #3
 8003b3a:	e174      	b.n	8003e26 <HAL_RCC_OscConfig+0x792>
      while(HAL_IS_BIT_CLR(PWR->CR, PWR_CR_DBP))
 8003b3c:	4b7a      	ldr	r3, [pc, #488]	; (8003d28 <HAL_RCC_OscConfig+0x694>)
 8003b3e:	681a      	ldr	r2, [r3, #0]
 8003b40:	2380      	movs	r3, #128	; 0x80
 8003b42:	005b      	lsls	r3, r3, #1
 8003b44:	4013      	ands	r3, r2
 8003b46:	d0f0      	beq.n	8003b2a <HAL_RCC_OscConfig+0x496>
        }
      }
    }

    /* Set the new LSE configuration -----------------------------------------*/
    __HAL_RCC_LSE_CONFIG(RCC_OscInitStruct->LSEState);
 8003b48:	687b      	ldr	r3, [r7, #4]
 8003b4a:	689a      	ldr	r2, [r3, #8]
 8003b4c:	2380      	movs	r3, #128	; 0x80
 8003b4e:	005b      	lsls	r3, r3, #1
 8003b50:	429a      	cmp	r2, r3
 8003b52:	d107      	bne.n	8003b64 <HAL_RCC_OscConfig+0x4d0>
 8003b54:	4b71      	ldr	r3, [pc, #452]	; (8003d1c <HAL_RCC_OscConfig+0x688>)
 8003b56:	6d1a      	ldr	r2, [r3, #80]	; 0x50
 8003b58:	4b70      	ldr	r3, [pc, #448]	; (8003d1c <HAL_RCC_OscConfig+0x688>)
 8003b5a:	2180      	movs	r1, #128	; 0x80
 8003b5c:	0049      	lsls	r1, r1, #1
 8003b5e:	430a      	orrs	r2, r1
 8003b60:	651a      	str	r2, [r3, #80]	; 0x50
 8003b62:	e031      	b.n	8003bc8 <HAL_RCC_OscConfig+0x534>
 8003b64:	687b      	ldr	r3, [r7, #4]
 8003b66:	689b      	ldr	r3, [r3, #8]
 8003b68:	2b00      	cmp	r3, #0
 8003b6a:	d10c      	bne.n	8003b86 <HAL_RCC_OscConfig+0x4f2>
 8003b6c:	4b6b      	ldr	r3, [pc, #428]	; (8003d1c <HAL_RCC_OscConfig+0x688>)
 8003b6e:	6d1a      	ldr	r2, [r3, #80]	; 0x50
 8003b70:	4b6a      	ldr	r3, [pc, #424]	; (8003d1c <HAL_RCC_OscConfig+0x688>)
 8003b72:	496c      	ldr	r1, [pc, #432]	; (8003d24 <HAL_RCC_OscConfig+0x690>)
 8003b74:	400a      	ands	r2, r1
 8003b76:	651a      	str	r2, [r3, #80]	; 0x50
 8003b78:	4b68      	ldr	r3, [pc, #416]	; (8003d1c <HAL_RCC_OscConfig+0x688>)
 8003b7a:	6d1a      	ldr	r2, [r3, #80]	; 0x50
 8003b7c:	4b67      	ldr	r3, [pc, #412]	; (8003d1c <HAL_RCC_OscConfig+0x688>)
 8003b7e:	496b      	ldr	r1, [pc, #428]	; (8003d2c <HAL_RCC_OscConfig+0x698>)
 8003b80:	400a      	ands	r2, r1
 8003b82:	651a      	str	r2, [r3, #80]	; 0x50
 8003b84:	e020      	b.n	8003bc8 <HAL_RCC_OscConfig+0x534>
 8003b86:	687b      	ldr	r3, [r7, #4]
 8003b88:	689a      	ldr	r2, [r3, #8]
 8003b8a:	23a0      	movs	r3, #160	; 0xa0
 8003b8c:	00db      	lsls	r3, r3, #3
 8003b8e:	429a      	cmp	r2, r3
 8003b90:	d10e      	bne.n	8003bb0 <HAL_RCC_OscConfig+0x51c>
 8003b92:	4b62      	ldr	r3, [pc, #392]	; (8003d1c <HAL_RCC_OscConfig+0x688>)
 8003b94:	6d1a      	ldr	r2, [r3, #80]	; 0x50
 8003b96:	4b61      	ldr	r3, [pc, #388]	; (8003d1c <HAL_RCC_OscConfig+0x688>)
 8003b98:	2180      	movs	r1, #128	; 0x80
 8003b9a:	00c9      	lsls	r1, r1, #3
 8003b9c:	430a      	orrs	r2, r1
 8003b9e:	651a      	str	r2, [r3, #80]	; 0x50
 8003ba0:	4b5e      	ldr	r3, [pc, #376]	; (8003d1c <HAL_RCC_OscConfig+0x688>)
 8003ba2:	6d1a      	ldr	r2, [r3, #80]	; 0x50
 8003ba4:	4b5d      	ldr	r3, [pc, #372]	; (8003d1c <HAL_RCC_OscConfig+0x688>)
 8003ba6:	2180      	movs	r1, #128	; 0x80
 8003ba8:	0049      	lsls	r1, r1, #1
 8003baa:	430a      	orrs	r2, r1
 8003bac:	651a      	str	r2, [r3, #80]	; 0x50
 8003bae:	e00b      	b.n	8003bc8 <HAL_RCC_OscConfig+0x534>
 8003bb0:	4b5a      	ldr	r3, [pc, #360]	; (8003d1c <HAL_RCC_OscConfig+0x688>)
 8003bb2:	6d1a      	ldr	r2, [r3, #80]	; 0x50
 8003bb4:	4b59      	ldr	r3, [pc, #356]	; (8003d1c <HAL_RCC_OscConfig+0x688>)
 8003bb6:	495b      	ldr	r1, [pc, #364]	; (8003d24 <HAL_RCC_OscConfig+0x690>)
 8003bb8:	400a      	ands	r2, r1
 8003bba:	651a      	str	r2, [r3, #80]	; 0x50
 8003bbc:	4b57      	ldr	r3, [pc, #348]	; (8003d1c <HAL_RCC_OscConfig+0x688>)
 8003bbe:	6d1a      	ldr	r2, [r3, #80]	; 0x50
 8003bc0:	4b56      	ldr	r3, [pc, #344]	; (8003d1c <HAL_RCC_OscConfig+0x688>)
 8003bc2:	495a      	ldr	r1, [pc, #360]	; (8003d2c <HAL_RCC_OscConfig+0x698>)
 8003bc4:	400a      	ands	r2, r1
 8003bc6:	651a      	str	r2, [r3, #80]	; 0x50

    /* Check the LSE State */
    if(RCC_OscInitStruct->LSEState != RCC_LSE_OFF)
 8003bc8:	687b      	ldr	r3, [r7, #4]
 8003bca:	689b      	ldr	r3, [r3, #8]
 8003bcc:	2b00      	cmp	r3, #0
 8003bce:	d015      	beq.n	8003bfc <HAL_RCC_OscConfig+0x568>
    {
      /* Get Start Tick */
      tickstart = HAL_GetTick();
 8003bd0:	f7fe ff4a 	bl	8002a68 <HAL_GetTick>
 8003bd4:	0003      	movs	r3, r0
 8003bd6:	617b      	str	r3, [r7, #20]

      /* Wait till LSE is ready */
      while(__HAL_RCC_GET_FLAG(RCC_FLAG_LSERDY) == 0U)
 8003bd8:	e009      	b.n	8003bee <HAL_RCC_OscConfig+0x55a>
      {
        if((HAL_GetTick() - tickstart ) > RCC_LSE_TIMEOUT_VALUE)
 8003bda:	f7fe ff45 	bl	8002a68 <HAL_GetTick>
 8003bde:	0002      	movs	r2, r0
 8003be0:	697b      	ldr	r3, [r7, #20]
 8003be2:	1ad3      	subs	r3, r2, r3
 8003be4:	4a52      	ldr	r2, [pc, #328]	; (8003d30 <HAL_RCC_OscConfig+0x69c>)
 8003be6:	4293      	cmp	r3, r2
 8003be8:	d901      	bls.n	8003bee <HAL_RCC_OscConfig+0x55a>
        {
          return HAL_TIMEOUT;
 8003bea:	2303      	movs	r3, #3
 8003bec:	e11b      	b.n	8003e26 <HAL_RCC_OscConfig+0x792>
      while(__HAL_RCC_GET_FLAG(RCC_FLAG_LSERDY) == 0U)
 8003bee:	4b4b      	ldr	r3, [pc, #300]	; (8003d1c <HAL_RCC_OscConfig+0x688>)
 8003bf0:	6d1a      	ldr	r2, [r3, #80]	; 0x50
 8003bf2:	2380      	movs	r3, #128	; 0x80
 8003bf4:	009b      	lsls	r3, r3, #2
 8003bf6:	4013      	ands	r3, r2
 8003bf8:	d0ef      	beq.n	8003bda <HAL_RCC_OscConfig+0x546>
 8003bfa:	e014      	b.n	8003c26 <HAL_RCC_OscConfig+0x592>
      }
    }
    else
    {
      /* Get Start Tick */
      tickstart = HAL_GetTick();
 8003bfc:	f7fe ff34 	bl	8002a68 <HAL_GetTick>
 8003c00:	0003      	movs	r3, r0
 8003c02:	617b      	str	r3, [r7, #20]

      /* Wait till LSE is disabled */
      while(__HAL_RCC_GET_FLAG(RCC_FLAG_LSERDY) != 0U)
 8003c04:	e009      	b.n	8003c1a <HAL_RCC_OscConfig+0x586>
      {
        if((HAL_GetTick() - tickstart ) > RCC_LSE_TIMEOUT_VALUE)
 8003c06:	f7fe ff2f 	bl	8002a68 <HAL_GetTick>
 8003c0a:	0002      	movs	r2, r0
 8003c0c:	697b      	ldr	r3, [r7, #20]
 8003c0e:	1ad3      	subs	r3, r2, r3
 8003c10:	4a47      	ldr	r2, [pc, #284]	; (8003d30 <HAL_RCC_OscConfig+0x69c>)
 8003c12:	4293      	cmp	r3, r2
 8003c14:	d901      	bls.n	8003c1a <HAL_RCC_OscConfig+0x586>
        {
          return HAL_TIMEOUT;
 8003c16:	2303      	movs	r3, #3
 8003c18:	e105      	b.n	8003e26 <HAL_RCC_OscConfig+0x792>
      while(__HAL_RCC_GET_FLAG(RCC_FLAG_LSERDY) != 0U)
 8003c1a:	4b40      	ldr	r3, [pc, #256]	; (8003d1c <HAL_RCC_OscConfig+0x688>)
 8003c1c:	6d1a      	ldr	r2, [r3, #80]	; 0x50
 8003c1e:	2380      	movs	r3, #128	; 0x80
 8003c20:	009b      	lsls	r3, r3, #2
 8003c22:	4013      	ands	r3, r2
 8003c24:	d1ef      	bne.n	8003c06 <HAL_RCC_OscConfig+0x572>
        }
      }
    }

    /* Require to disable power clock if necessary */
    if(pwrclkchanged == SET)
 8003c26:	2323      	movs	r3, #35	; 0x23
 8003c28:	18fb      	adds	r3, r7, r3
 8003c2a:	781b      	ldrb	r3, [r3, #0]
 8003c2c:	2b01      	cmp	r3, #1
 8003c2e:	d105      	bne.n	8003c3c <HAL_RCC_OscConfig+0x5a8>
    {
      __HAL_RCC_PWR_CLK_DISABLE();
 8003c30:	4b3a      	ldr	r3, [pc, #232]	; (8003d1c <HAL_RCC_OscConfig+0x688>)
 8003c32:	6b9a      	ldr	r2, [r3, #56]	; 0x38
 8003c34:	4b39      	ldr	r3, [pc, #228]	; (8003d1c <HAL_RCC_OscConfig+0x688>)
 8003c36:	493f      	ldr	r1, [pc, #252]	; (8003d34 <HAL_RCC_OscConfig+0x6a0>)
 8003c38:	400a      	ands	r2, r1
 8003c3a:	639a      	str	r2, [r3, #56]	; 0x38
    }
  }

#if defined(RCC_HSI48_SUPPORT)
  /*----------------------------- HSI48 Configuration --------------------------*/
  if(((RCC_OscInitStruct->OscillatorType) & RCC_OSCILLATORTYPE_HSI48) == RCC_OSCILLATORTYPE_HSI48)
 8003c3c:	687b      	ldr	r3, [r7, #4]
 8003c3e:	681b      	ldr	r3, [r3, #0]
 8003c40:	2220      	movs	r2, #32
 8003c42:	4013      	ands	r3, r2
 8003c44:	d049      	beq.n	8003cda <HAL_RCC_OscConfig+0x646>
  {
    /* Check the parameters */
    assert_param(IS_RCC_HSI48(RCC_OscInitStruct->HSI48State));

      /* Check the HSI48 State */
      if(RCC_OscInitStruct->HSI48State != RCC_HSI48_OFF)
 8003c46:	687b      	ldr	r3, [r7, #4]
 8003c48:	699b      	ldr	r3, [r3, #24]
 8003c4a:	2b00      	cmp	r3, #0
 8003c4c:	d026      	beq.n	8003c9c <HAL_RCC_OscConfig+0x608>
      {
        /* Enable the Internal High Speed oscillator (HSI48). */
        __HAL_RCC_HSI48_ENABLE();
 8003c4e:	4b33      	ldr	r3, [pc, #204]	; (8003d1c <HAL_RCC_OscConfig+0x688>)
 8003c50:	689a      	ldr	r2, [r3, #8]
 8003c52:	4b32      	ldr	r3, [pc, #200]	; (8003d1c <HAL_RCC_OscConfig+0x688>)
 8003c54:	2101      	movs	r1, #1
 8003c56:	430a      	orrs	r2, r1
 8003c58:	609a      	str	r2, [r3, #8]
 8003c5a:	4b30      	ldr	r3, [pc, #192]	; (8003d1c <HAL_RCC_OscConfig+0x688>)
 8003c5c:	6b5a      	ldr	r2, [r3, #52]	; 0x34
 8003c5e:	4b2f      	ldr	r3, [pc, #188]	; (8003d1c <HAL_RCC_OscConfig+0x688>)
 8003c60:	2101      	movs	r1, #1
 8003c62:	430a      	orrs	r2, r1
 8003c64:	635a      	str	r2, [r3, #52]	; 0x34
 8003c66:	4b34      	ldr	r3, [pc, #208]	; (8003d38 <HAL_RCC_OscConfig+0x6a4>)
 8003c68:	6a1a      	ldr	r2, [r3, #32]
 8003c6a:	4b33      	ldr	r3, [pc, #204]	; (8003d38 <HAL_RCC_OscConfig+0x6a4>)
 8003c6c:	2180      	movs	r1, #128	; 0x80
 8003c6e:	0189      	lsls	r1, r1, #6
 8003c70:	430a      	orrs	r2, r1
 8003c72:	621a      	str	r2, [r3, #32]

        /* Get Start Tick */
        tickstart = HAL_GetTick();
 8003c74:	f7fe fef8 	bl	8002a68 <HAL_GetTick>
 8003c78:	0003      	movs	r3, r0
 8003c7a:	617b      	str	r3, [r7, #20]

        /* Wait till HSI48 is ready */
        while(__HAL_RCC_GET_FLAG(RCC_FLAG_HSI48RDY) == 0U)
 8003c7c:	e008      	b.n	8003c90 <HAL_RCC_OscConfig+0x5fc>
        {
          if((HAL_GetTick() - tickstart) > HSI48_TIMEOUT_VALUE)
 8003c7e:	f7fe fef3 	bl	8002a68 <HAL_GetTick>
 8003c82:	0002      	movs	r2, r0
 8003c84:	697b      	ldr	r3, [r7, #20]
 8003c86:	1ad3      	subs	r3, r2, r3
 8003c88:	2b02      	cmp	r3, #2
 8003c8a:	d901      	bls.n	8003c90 <HAL_RCC_OscConfig+0x5fc>
          {
            return HAL_TIMEOUT;
 8003c8c:	2303      	movs	r3, #3
 8003c8e:	e0ca      	b.n	8003e26 <HAL_RCC_OscConfig+0x792>
        while(__HAL_RCC_GET_FLAG(RCC_FLAG_HSI48RDY) == 0U)
 8003c90:	4b22      	ldr	r3, [pc, #136]	; (8003d1c <HAL_RCC_OscConfig+0x688>)
 8003c92:	689b      	ldr	r3, [r3, #8]
 8003c94:	2202      	movs	r2, #2
 8003c96:	4013      	ands	r3, r2
 8003c98:	d0f1      	beq.n	8003c7e <HAL_RCC_OscConfig+0x5ea>
 8003c9a:	e01e      	b.n	8003cda <HAL_RCC_OscConfig+0x646>
        }
      }
      else
      {
        /* Disable the Internal High Speed oscillator (HSI48). */
        __HAL_RCC_HSI48_DISABLE();
 8003c9c:	4b1f      	ldr	r3, [pc, #124]	; (8003d1c <HAL_RCC_OscConfig+0x688>)
 8003c9e:	689a      	ldr	r2, [r3, #8]
 8003ca0:	4b1e      	ldr	r3, [pc, #120]	; (8003d1c <HAL_RCC_OscConfig+0x688>)
 8003ca2:	2101      	movs	r1, #1
 8003ca4:	438a      	bics	r2, r1
 8003ca6:	609a      	str	r2, [r3, #8]
 8003ca8:	4b23      	ldr	r3, [pc, #140]	; (8003d38 <HAL_RCC_OscConfig+0x6a4>)
 8003caa:	6a1a      	ldr	r2, [r3, #32]
 8003cac:	4b22      	ldr	r3, [pc, #136]	; (8003d38 <HAL_RCC_OscConfig+0x6a4>)
 8003cae:	4923      	ldr	r1, [pc, #140]	; (8003d3c <HAL_RCC_OscConfig+0x6a8>)
 8003cb0:	400a      	ands	r2, r1
 8003cb2:	621a      	str	r2, [r3, #32]

        /* Get Start Tick */
        tickstart = HAL_GetTick();
 8003cb4:	f7fe fed8 	bl	8002a68 <HAL_GetTick>
 8003cb8:	0003      	movs	r3, r0
 8003cba:	617b      	str	r3, [r7, #20]

        /* Wait till HSI48 is ready */
        while(__HAL_RCC_GET_FLAG(RCC_FLAG_HSI48RDY) != 0U)
 8003cbc:	e008      	b.n	8003cd0 <HAL_RCC_OscConfig+0x63c>
        {
          if((HAL_GetTick() - tickstart) > HSI48_TIMEOUT_VALUE)
 8003cbe:	f7fe fed3 	bl	8002a68 <HAL_GetTick>
 8003cc2:	0002      	movs	r2, r0
 8003cc4:	697b      	ldr	r3, [r7, #20]
 8003cc6:	1ad3      	subs	r3, r2, r3
 8003cc8:	2b02      	cmp	r3, #2
 8003cca:	d901      	bls.n	8003cd0 <HAL_RCC_OscConfig+0x63c>
          {
            return HAL_TIMEOUT;
 8003ccc:	2303      	movs	r3, #3
 8003cce:	e0aa      	b.n	8003e26 <HAL_RCC_OscConfig+0x792>
        while(__HAL_RCC_GET_FLAG(RCC_FLAG_HSI48RDY) != 0U)
 8003cd0:	4b12      	ldr	r3, [pc, #72]	; (8003d1c <HAL_RCC_OscConfig+0x688>)
 8003cd2:	689b      	ldr	r3, [r3, #8]
 8003cd4:	2202      	movs	r2, #2
 8003cd6:	4013      	ands	r3, r2
 8003cd8:	d1f1      	bne.n	8003cbe <HAL_RCC_OscConfig+0x62a>
#endif /* RCC_HSI48_SUPPORT */

  /*-------------------------------- PLL Configuration -----------------------*/
  /* Check the parameters */
  assert_param(IS_RCC_PLL(RCC_OscInitStruct->PLL.PLLState));
  if ((RCC_OscInitStruct->PLL.PLLState) != RCC_PLL_NONE)
 8003cda:	687b      	ldr	r3, [r7, #4]
 8003cdc:	6a9b      	ldr	r3, [r3, #40]	; 0x28
 8003cde:	2b00      	cmp	r3, #0
 8003ce0:	d100      	bne.n	8003ce4 <HAL_RCC_OscConfig+0x650>
 8003ce2:	e09f      	b.n	8003e24 <HAL_RCC_OscConfig+0x790>
  {
    /* Check if the PLL is used as system clock or not */
    if(sysclk_source != RCC_SYSCLKSOURCE_STATUS_PLLCLK)
 8003ce4:	69fb      	ldr	r3, [r7, #28]
 8003ce6:	2b0c      	cmp	r3, #12
 8003ce8:	d100      	bne.n	8003cec <HAL_RCC_OscConfig+0x658>
 8003cea:	e078      	b.n	8003dde <HAL_RCC_OscConfig+0x74a>
    {
      if((RCC_OscInitStruct->PLL.PLLState) == RCC_PLL_ON)
 8003cec:	687b      	ldr	r3, [r7, #4]
 8003cee:	6a9b      	ldr	r3, [r3, #40]	; 0x28
 8003cf0:	2b02      	cmp	r3, #2
 8003cf2:	d159      	bne.n	8003da8 <HAL_RCC_OscConfig+0x714>
        assert_param(IS_RCC_PLLSOURCE(RCC_OscInitStruct->PLL.PLLSource));
        assert_param(IS_RCC_PLL_MUL(RCC_OscInitStruct->PLL.PLLMUL));
        assert_param(IS_RCC_PLL_DIV(RCC_OscInitStruct->PLL.PLLDIV));

        /* Disable the main PLL. */
        __HAL_RCC_PLL_DISABLE();
 8003cf4:	4b09      	ldr	r3, [pc, #36]	; (8003d1c <HAL_RCC_OscConfig+0x688>)
 8003cf6:	681a      	ldr	r2, [r3, #0]
 8003cf8:	4b08      	ldr	r3, [pc, #32]	; (8003d1c <HAL_RCC_OscConfig+0x688>)
 8003cfa:	4911      	ldr	r1, [pc, #68]	; (8003d40 <HAL_RCC_OscConfig+0x6ac>)
 8003cfc:	400a      	ands	r2, r1
 8003cfe:	601a      	str	r2, [r3, #0]

        /* Get Start Tick */
        tickstart = HAL_GetTick();
 8003d00:	f7fe feb2 	bl	8002a68 <HAL_GetTick>
 8003d04:	0003      	movs	r3, r0
 8003d06:	617b      	str	r3, [r7, #20]

        /* Wait till PLL is ready */
        while(__HAL_RCC_GET_FLAG(RCC_FLAG_PLLRDY)  != 0U)
 8003d08:	e01c      	b.n	8003d44 <HAL_RCC_OscConfig+0x6b0>
        {
          if((HAL_GetTick() - tickstart ) > PLL_TIMEOUT_VALUE)
 8003d0a:	f7fe fead 	bl	8002a68 <HAL_GetTick>
 8003d0e:	0002      	movs	r2, r0
 8003d10:	697b      	ldr	r3, [r7, #20]
 8003d12:	1ad3      	subs	r3, r2, r3
 8003d14:	2b02      	cmp	r3, #2
 8003d16:	d915      	bls.n	8003d44 <HAL_RCC_OscConfig+0x6b0>
          {
            return HAL_TIMEOUT;
 8003d18:	2303      	movs	r3, #3
 8003d1a:	e084      	b.n	8003e26 <HAL_RCC_OscConfig+0x792>
 8003d1c:	40021000 	.word	0x40021000
 8003d20:	ffff1fff 	.word	0xffff1fff
 8003d24:	fffffeff 	.word	0xfffffeff
 8003d28:	40007000 	.word	0x40007000
 8003d2c:	fffffbff 	.word	0xfffffbff
 8003d30:	00001388 	.word	0x00001388
 8003d34:	efffffff 	.word	0xefffffff
 8003d38:	40010000 	.word	0x40010000
 8003d3c:	ffffdfff 	.word	0xffffdfff
 8003d40:	feffffff 	.word	0xfeffffff
        while(__HAL_RCC_GET_FLAG(RCC_FLAG_PLLRDY)  != 0U)
 8003d44:	4b3a      	ldr	r3, [pc, #232]	; (8003e30 <HAL_RCC_OscConfig+0x79c>)
 8003d46:	681a      	ldr	r2, [r3, #0]
 8003d48:	2380      	movs	r3, #128	; 0x80
 8003d4a:	049b      	lsls	r3, r3, #18
 8003d4c:	4013      	ands	r3, r2
 8003d4e:	d1dc      	bne.n	8003d0a <HAL_RCC_OscConfig+0x676>
          }
        }

        /* Configure the main PLL clock source, multiplication and division factors. */
        __HAL_RCC_PLL_CONFIG(RCC_OscInitStruct->PLL.PLLSource,
 8003d50:	4b37      	ldr	r3, [pc, #220]	; (8003e30 <HAL_RCC_OscConfig+0x79c>)
 8003d52:	68db      	ldr	r3, [r3, #12]
 8003d54:	4a37      	ldr	r2, [pc, #220]	; (8003e34 <HAL_RCC_OscConfig+0x7a0>)
 8003d56:	4013      	ands	r3, r2
 8003d58:	0019      	movs	r1, r3
 8003d5a:	687b      	ldr	r3, [r7, #4]
 8003d5c:	6ada      	ldr	r2, [r3, #44]	; 0x2c
 8003d5e:	687b      	ldr	r3, [r7, #4]
 8003d60:	6b1b      	ldr	r3, [r3, #48]	; 0x30
 8003d62:	431a      	orrs	r2, r3
 8003d64:	687b      	ldr	r3, [r7, #4]
 8003d66:	6b5b      	ldr	r3, [r3, #52]	; 0x34
 8003d68:	431a      	orrs	r2, r3
 8003d6a:	4b31      	ldr	r3, [pc, #196]	; (8003e30 <HAL_RCC_OscConfig+0x79c>)
 8003d6c:	430a      	orrs	r2, r1
 8003d6e:	60da      	str	r2, [r3, #12]
                             RCC_OscInitStruct->PLL.PLLMUL,
                             RCC_OscInitStruct->PLL.PLLDIV);
        /* Enable the main PLL. */
        __HAL_RCC_PLL_ENABLE();
 8003d70:	4b2f      	ldr	r3, [pc, #188]	; (8003e30 <HAL_RCC_OscConfig+0x79c>)
 8003d72:	681a      	ldr	r2, [r3, #0]
 8003d74:	4b2e      	ldr	r3, [pc, #184]	; (8003e30 <HAL_RCC_OscConfig+0x79c>)
 8003d76:	2180      	movs	r1, #128	; 0x80
 8003d78:	0449      	lsls	r1, r1, #17
 8003d7a:	430a      	orrs	r2, r1
 8003d7c:	601a      	str	r2, [r3, #0]

        /* Get Start Tick */
        tickstart = HAL_GetTick();
 8003d7e:	f7fe fe73 	bl	8002a68 <HAL_GetTick>
 8003d82:	0003      	movs	r3, r0
 8003d84:	617b      	str	r3, [r7, #20]

        /* Wait till PLL is ready */
        while(__HAL_RCC_GET_FLAG(RCC_FLAG_PLLRDY)  == 0U)
 8003d86:	e008      	b.n	8003d9a <HAL_RCC_OscConfig+0x706>
        {
          if((HAL_GetTick() - tickstart ) > PLL_TIMEOUT_VALUE)
 8003d88:	f7fe fe6e 	bl	8002a68 <HAL_GetTick>
 8003d8c:	0002      	movs	r2, r0
 8003d8e:	697b      	ldr	r3, [r7, #20]
 8003d90:	1ad3      	subs	r3, r2, r3
 8003d92:	2b02      	cmp	r3, #2
 8003d94:	d901      	bls.n	8003d9a <HAL_RCC_OscConfig+0x706>
          {
            return HAL_TIMEOUT;
 8003d96:	2303      	movs	r3, #3
 8003d98:	e045      	b.n	8003e26 <HAL_RCC_OscConfig+0x792>
        while(__HAL_RCC_GET_FLAG(RCC_FLAG_PLLRDY)  == 0U)
 8003d9a:	4b25      	ldr	r3, [pc, #148]	; (8003e30 <HAL_RCC_OscConfig+0x79c>)
 8003d9c:	681a      	ldr	r2, [r3, #0]
 8003d9e:	2380      	movs	r3, #128	; 0x80
 8003da0:	049b      	lsls	r3, r3, #18
 8003da2:	4013      	ands	r3, r2
 8003da4:	d0f0      	beq.n	8003d88 <HAL_RCC_OscConfig+0x6f4>
 8003da6:	e03d      	b.n	8003e24 <HAL_RCC_OscConfig+0x790>
        }
      }
      else
      {
        /* Disable the main PLL. */
        __HAL_RCC_PLL_DISABLE();
 8003da8:	4b21      	ldr	r3, [pc, #132]	; (8003e30 <HAL_RCC_OscConfig+0x79c>)
 8003daa:	681a      	ldr	r2, [r3, #0]
 8003dac:	4b20      	ldr	r3, [pc, #128]	; (8003e30 <HAL_RCC_OscConfig+0x79c>)
 8003dae:	4922      	ldr	r1, [pc, #136]	; (8003e38 <HAL_RCC_OscConfig+0x7a4>)
 8003db0:	400a      	ands	r2, r1
 8003db2:	601a      	str	r2, [r3, #0]

        /* Get Start Tick */
        tickstart = HAL_GetTick();
 8003db4:	f7fe fe58 	bl	8002a68 <HAL_GetTick>
 8003db8:	0003      	movs	r3, r0
 8003dba:	617b      	str	r3, [r7, #20]

        /* Wait till PLL is disabled */
        while(__HAL_RCC_GET_FLAG(RCC_FLAG_PLLRDY)  != 0U)
 8003dbc:	e008      	b.n	8003dd0 <HAL_RCC_OscConfig+0x73c>
        {
          if((HAL_GetTick() - tickstart ) > PLL_TIMEOUT_VALUE)
 8003dbe:	f7fe fe53 	bl	8002a68 <HAL_GetTick>
 8003dc2:	0002      	movs	r2, r0
 8003dc4:	697b      	ldr	r3, [r7, #20]
 8003dc6:	1ad3      	subs	r3, r2, r3
 8003dc8:	2b02      	cmp	r3, #2
 8003dca:	d901      	bls.n	8003dd0 <HAL_RCC_OscConfig+0x73c>
          {
            return HAL_TIMEOUT;
 8003dcc:	2303      	movs	r3, #3
 8003dce:	e02a      	b.n	8003e26 <HAL_RCC_OscConfig+0x792>
        while(__HAL_RCC_GET_FLAG(RCC_FLAG_PLLRDY)  != 0U)
 8003dd0:	4b17      	ldr	r3, [pc, #92]	; (8003e30 <HAL_RCC_OscConfig+0x79c>)
 8003dd2:	681a      	ldr	r2, [r3, #0]
 8003dd4:	2380      	movs	r3, #128	; 0x80
 8003dd6:	049b      	lsls	r3, r3, #18
 8003dd8:	4013      	ands	r3, r2
 8003dda:	d1f0      	bne.n	8003dbe <HAL_RCC_OscConfig+0x72a>
 8003ddc:	e022      	b.n	8003e24 <HAL_RCC_OscConfig+0x790>
      }
    }
    else
    {
      /* Check if there is a request to disable the PLL used as System clock source */
      if((RCC_OscInitStruct->PLL.PLLState) == RCC_PLL_OFF)
 8003dde:	687b      	ldr	r3, [r7, #4]
 8003de0:	6a9b      	ldr	r3, [r3, #40]	; 0x28
 8003de2:	2b01      	cmp	r3, #1
 8003de4:	d101      	bne.n	8003dea <HAL_RCC_OscConfig+0x756>
      {
        return HAL_ERROR;
 8003de6:	2301      	movs	r3, #1
 8003de8:	e01d      	b.n	8003e26 <HAL_RCC_OscConfig+0x792>
      }
      else
      {
        /* Do not return HAL_ERROR if request repeats the current configuration */
        pll_config = RCC->CFGR;
 8003dea:	4b11      	ldr	r3, [pc, #68]	; (8003e30 <HAL_RCC_OscConfig+0x79c>)
 8003dec:	68db      	ldr	r3, [r3, #12]
 8003dee:	61bb      	str	r3, [r7, #24]
        if((READ_BIT(pll_config, RCC_CFGR_PLLSRC) != RCC_OscInitStruct->PLL.PLLSource) ||
 8003df0:	69ba      	ldr	r2, [r7, #24]
 8003df2:	2380      	movs	r3, #128	; 0x80
 8003df4:	025b      	lsls	r3, r3, #9
 8003df6:	401a      	ands	r2, r3
 8003df8:	687b      	ldr	r3, [r7, #4]
 8003dfa:	6adb      	ldr	r3, [r3, #44]	; 0x2c
 8003dfc:	429a      	cmp	r2, r3
 8003dfe:	d10f      	bne.n	8003e20 <HAL_RCC_OscConfig+0x78c>
           (READ_BIT(pll_config, RCC_CFGR_PLLMUL) != RCC_OscInitStruct->PLL.PLLMUL) ||
 8003e00:	69ba      	ldr	r2, [r7, #24]
 8003e02:	23f0      	movs	r3, #240	; 0xf0
 8003e04:	039b      	lsls	r3, r3, #14
 8003e06:	401a      	ands	r2, r3
 8003e08:	687b      	ldr	r3, [r7, #4]
 8003e0a:	6b1b      	ldr	r3, [r3, #48]	; 0x30
        if((READ_BIT(pll_config, RCC_CFGR_PLLSRC) != RCC_OscInitStruct->PLL.PLLSource) ||
 8003e0c:	429a      	cmp	r2, r3
 8003e0e:	d107      	bne.n	8003e20 <HAL_RCC_OscConfig+0x78c>
           (READ_BIT(pll_config, RCC_CFGR_PLLDIV) != RCC_OscInitStruct->PLL.PLLDIV))
 8003e10:	69ba      	ldr	r2, [r7, #24]
 8003e12:	23c0      	movs	r3, #192	; 0xc0
 8003e14:	041b      	lsls	r3, r3, #16
 8003e16:	401a      	ands	r2, r3
 8003e18:	687b      	ldr	r3, [r7, #4]
 8003e1a:	6b5b      	ldr	r3, [r3, #52]	; 0x34
           (READ_BIT(pll_config, RCC_CFGR_PLLMUL) != RCC_OscInitStruct->PLL.PLLMUL) ||
 8003e1c:	429a      	cmp	r2, r3
 8003e1e:	d001      	beq.n	8003e24 <HAL_RCC_OscConfig+0x790>
        {
          return HAL_ERROR;
 8003e20:	2301      	movs	r3, #1
 8003e22:	e000      	b.n	8003e26 <HAL_RCC_OscConfig+0x792>
        }
      }
    }
  }
  return HAL_OK;
 8003e24:	2300      	movs	r3, #0
}
 8003e26:	0018      	movs	r0, r3
 8003e28:	46bd      	mov	sp, r7
 8003e2a:	b00a      	add	sp, #40	; 0x28
 8003e2c:	bdb0      	pop	{r4, r5, r7, pc}
 8003e2e:	46c0      	nop			; (mov r8, r8)
 8003e30:	40021000 	.word	0x40021000
 8003e34:	ff02ffff 	.word	0xff02ffff
 8003e38:	feffffff 	.word	0xfeffffff

08003e3c <HAL_RCC_ClockConfig>:
  *         HPRE[3:0] bits to ensure that HCLK not exceed the maximum allowed frequency
  *         (for more details refer to section above "Initialization/de-initialization functions")
  * @retval HAL status
  */
HAL_StatusTypeDef HAL_RCC_ClockConfig(RCC_ClkInitTypeDef  *RCC_ClkInitStruct, uint32_t FLatency)
{
 8003e3c:	b5b0      	push	{r4, r5, r7, lr}
 8003e3e:	b084      	sub	sp, #16
 8003e40:	af00      	add	r7, sp, #0
 8003e42:	6078      	str	r0, [r7, #4]
 8003e44:	6039      	str	r1, [r7, #0]
  uint32_t tickstart;
  HAL_StatusTypeDef status;

  /* Check Null pointer */
  if(RCC_ClkInitStruct == NULL)
 8003e46:	687b      	ldr	r3, [r7, #4]
 8003e48:	2b00      	cmp	r3, #0
 8003e4a:	d101      	bne.n	8003e50 <HAL_RCC_ClockConfig+0x14>
  {
    return HAL_ERROR;
 8003e4c:	2301      	movs	r3, #1
 8003e4e:	e128      	b.n	80040a2 <HAL_RCC_ClockConfig+0x266>
  /* To correctly read data from FLASH memory, the number of wait states (LATENCY)
  must be correctly programmed according to the frequency of the CPU clock
  (HCLK) and the supply voltage of the device. */

  /* Increasing the number of wait states because of higher CPU frequency */
  if(FLatency > __HAL_FLASH_GET_LATENCY())
 8003e50:	4b96      	ldr	r3, [pc, #600]	; (80040ac <HAL_RCC_ClockConfig+0x270>)
 8003e52:	681b      	ldr	r3, [r3, #0]
 8003e54:	2201      	movs	r2, #1
 8003e56:	4013      	ands	r3, r2
 8003e58:	683a      	ldr	r2, [r7, #0]
 8003e5a:	429a      	cmp	r2, r3
 8003e5c:	d91e      	bls.n	8003e9c <HAL_RCC_ClockConfig+0x60>
  {
    /* Program the new number of wait states to the LATENCY bits in the FLASH_ACR register */
    __HAL_FLASH_SET_LATENCY(FLatency);
 8003e5e:	4b93      	ldr	r3, [pc, #588]	; (80040ac <HAL_RCC_ClockConfig+0x270>)
 8003e60:	681b      	ldr	r3, [r3, #0]
 8003e62:	2201      	movs	r2, #1
 8003e64:	4393      	bics	r3, r2
 8003e66:	0019      	movs	r1, r3
 8003e68:	4b90      	ldr	r3, [pc, #576]	; (80040ac <HAL_RCC_ClockConfig+0x270>)
 8003e6a:	683a      	ldr	r2, [r7, #0]
 8003e6c:	430a      	orrs	r2, r1
 8003e6e:	601a      	str	r2, [r3, #0]

    /* Check that the new number of wait states is taken into account to access the Flash
    memory by polling the FLASH_ACR register */
    tickstart = HAL_GetTick();
 8003e70:	f7fe fdfa 	bl	8002a68 <HAL_GetTick>
 8003e74:	0003      	movs	r3, r0
 8003e76:	60fb      	str	r3, [r7, #12]

    while (__HAL_FLASH_GET_LATENCY() != FLatency)
 8003e78:	e009      	b.n	8003e8e <HAL_RCC_ClockConfig+0x52>
    {
      if ((HAL_GetTick() - tickstart) > CLOCKSWITCH_TIMEOUT_VALUE)
 8003e7a:	f7fe fdf5 	bl	8002a68 <HAL_GetTick>
 8003e7e:	0002      	movs	r2, r0
 8003e80:	68fb      	ldr	r3, [r7, #12]
 8003e82:	1ad3      	subs	r3, r2, r3
 8003e84:	4a8a      	ldr	r2, [pc, #552]	; (80040b0 <HAL_RCC_ClockConfig+0x274>)
 8003e86:	4293      	cmp	r3, r2
 8003e88:	d901      	bls.n	8003e8e <HAL_RCC_ClockConfig+0x52>
      {
        return HAL_TIMEOUT;
 8003e8a:	2303      	movs	r3, #3
 8003e8c:	e109      	b.n	80040a2 <HAL_RCC_ClockConfig+0x266>
    while (__HAL_FLASH_GET_LATENCY() != FLatency)
 8003e8e:	4b87      	ldr	r3, [pc, #540]	; (80040ac <HAL_RCC_ClockConfig+0x270>)
 8003e90:	681b      	ldr	r3, [r3, #0]
 8003e92:	2201      	movs	r2, #1
 8003e94:	4013      	ands	r3, r2
 8003e96:	683a      	ldr	r2, [r7, #0]
 8003e98:	429a      	cmp	r2, r3
 8003e9a:	d1ee      	bne.n	8003e7a <HAL_RCC_ClockConfig+0x3e>
      }
    }
  }

  /*-------------------------- HCLK Configuration --------------------------*/
  if(((RCC_ClkInitStruct->ClockType) & RCC_CLOCKTYPE_HCLK) == RCC_CLOCKTYPE_HCLK)
 8003e9c:	687b      	ldr	r3, [r7, #4]
 8003e9e:	681b      	ldr	r3, [r3, #0]
 8003ea0:	2202      	movs	r2, #2
 8003ea2:	4013      	ands	r3, r2
 8003ea4:	d009      	beq.n	8003eba <HAL_RCC_ClockConfig+0x7e>
  {
    assert_param(IS_RCC_HCLK(RCC_ClkInitStruct->AHBCLKDivider));
    MODIFY_REG(RCC->CFGR, RCC_CFGR_HPRE, RCC_ClkInitStruct->AHBCLKDivider);
 8003ea6:	4b83      	ldr	r3, [pc, #524]	; (80040b4 <HAL_RCC_ClockConfig+0x278>)
 8003ea8:	68db      	ldr	r3, [r3, #12]
 8003eaa:	22f0      	movs	r2, #240	; 0xf0
 8003eac:	4393      	bics	r3, r2
 8003eae:	0019      	movs	r1, r3
 8003eb0:	687b      	ldr	r3, [r7, #4]
 8003eb2:	689a      	ldr	r2, [r3, #8]
 8003eb4:	4b7f      	ldr	r3, [pc, #508]	; (80040b4 <HAL_RCC_ClockConfig+0x278>)
 8003eb6:	430a      	orrs	r2, r1
 8003eb8:	60da      	str	r2, [r3, #12]
  }

  /*------------------------- SYSCLK Configuration ---------------------------*/
  if(((RCC_ClkInitStruct->ClockType) & RCC_CLOCKTYPE_SYSCLK) == RCC_CLOCKTYPE_SYSCLK)
 8003eba:	687b      	ldr	r3, [r7, #4]
 8003ebc:	681b      	ldr	r3, [r3, #0]
 8003ebe:	2201      	movs	r2, #1
 8003ec0:	4013      	ands	r3, r2
 8003ec2:	d100      	bne.n	8003ec6 <HAL_RCC_ClockConfig+0x8a>
 8003ec4:	e089      	b.n	8003fda <HAL_RCC_ClockConfig+0x19e>
  {
    assert_param(IS_RCC_SYSCLKSOURCE(RCC_ClkInitStruct->SYSCLKSource));

    /* HSE is selected as System Clock Source */
    if(RCC_ClkInitStruct->SYSCLKSource == RCC_SYSCLKSOURCE_HSE)
 8003ec6:	687b      	ldr	r3, [r7, #4]
 8003ec8:	685b      	ldr	r3, [r3, #4]
 8003eca:	2b02      	cmp	r3, #2
 8003ecc:	d107      	bne.n	8003ede <HAL_RCC_ClockConfig+0xa2>
    {
      /* Check the HSE ready flag */
      if(__HAL_RCC_GET_FLAG(RCC_FLAG_HSERDY) == 0U)
 8003ece:	4b79      	ldr	r3, [pc, #484]	; (80040b4 <HAL_RCC_ClockConfig+0x278>)
 8003ed0:	681a      	ldr	r2, [r3, #0]
 8003ed2:	2380      	movs	r3, #128	; 0x80
 8003ed4:	029b      	lsls	r3, r3, #10
 8003ed6:	4013      	ands	r3, r2
 8003ed8:	d120      	bne.n	8003f1c <HAL_RCC_ClockConfig+0xe0>
      {
        return HAL_ERROR;
 8003eda:	2301      	movs	r3, #1
 8003edc:	e0e1      	b.n	80040a2 <HAL_RCC_ClockConfig+0x266>
      }
    }
    /* PLL is selected as System Clock Source */
    else if(RCC_ClkInitStruct->SYSCLKSource == RCC_SYSCLKSOURCE_PLLCLK)
 8003ede:	687b      	ldr	r3, [r7, #4]
 8003ee0:	685b      	ldr	r3, [r3, #4]
 8003ee2:	2b03      	cmp	r3, #3
 8003ee4:	d107      	bne.n	8003ef6 <HAL_RCC_ClockConfig+0xba>
    {
      /* Check the PLL ready flag */
      if(__HAL_RCC_GET_FLAG(RCC_FLAG_PLLRDY) == 0U)
 8003ee6:	4b73      	ldr	r3, [pc, #460]	; (80040b4 <HAL_RCC_ClockConfig+0x278>)
 8003ee8:	681a      	ldr	r2, [r3, #0]
 8003eea:	2380      	movs	r3, #128	; 0x80
 8003eec:	049b      	lsls	r3, r3, #18
 8003eee:	4013      	ands	r3, r2
 8003ef0:	d114      	bne.n	8003f1c <HAL_RCC_ClockConfig+0xe0>
      {
        return HAL_ERROR;
 8003ef2:	2301      	movs	r3, #1
 8003ef4:	e0d5      	b.n	80040a2 <HAL_RCC_ClockConfig+0x266>
      }
    }
    /* HSI is selected as System Clock Source */
    else if(RCC_ClkInitStruct->SYSCLKSource == RCC_SYSCLKSOURCE_HSI)
 8003ef6:	687b      	ldr	r3, [r7, #4]
 8003ef8:	685b      	ldr	r3, [r3, #4]
 8003efa:	2b01      	cmp	r3, #1
 8003efc:	d106      	bne.n	8003f0c <HAL_RCC_ClockConfig+0xd0>
    {
      /* Check the HSI ready flag */
      if(__HAL_RCC_GET_FLAG(RCC_FLAG_HSIRDY) == 0U)
 8003efe:	4b6d      	ldr	r3, [pc, #436]	; (80040b4 <HAL_RCC_ClockConfig+0x278>)
 8003f00:	681b      	ldr	r3, [r3, #0]
 8003f02:	2204      	movs	r2, #4
 8003f04:	4013      	ands	r3, r2
 8003f06:	d109      	bne.n	8003f1c <HAL_RCC_ClockConfig+0xe0>
      {
        return HAL_ERROR;
 8003f08:	2301      	movs	r3, #1
 8003f0a:	e0ca      	b.n	80040a2 <HAL_RCC_ClockConfig+0x266>
    }
    /* MSI is selected as System Clock Source */
    else
    {
      /* Check the MSI ready flag */
      if(__HAL_RCC_GET_FLAG(RCC_FLAG_MSIRDY) == 0U)
 8003f0c:	4b69      	ldr	r3, [pc, #420]	; (80040b4 <HAL_RCC_ClockConfig+0x278>)
 8003f0e:	681a      	ldr	r2, [r3, #0]
 8003f10:	2380      	movs	r3, #128	; 0x80
 8003f12:	009b      	lsls	r3, r3, #2
 8003f14:	4013      	ands	r3, r2
 8003f16:	d101      	bne.n	8003f1c <HAL_RCC_ClockConfig+0xe0>
      {
        return HAL_ERROR;
 8003f18:	2301      	movs	r3, #1
 8003f1a:	e0c2      	b.n	80040a2 <HAL_RCC_ClockConfig+0x266>
      }
    }
    __HAL_RCC_SYSCLK_CONFIG(RCC_ClkInitStruct->SYSCLKSource);
 8003f1c:	4b65      	ldr	r3, [pc, #404]	; (80040b4 <HAL_RCC_ClockConfig+0x278>)
 8003f1e:	68db      	ldr	r3, [r3, #12]
 8003f20:	2203      	movs	r2, #3
 8003f22:	4393      	bics	r3, r2
 8003f24:	0019      	movs	r1, r3
 8003f26:	687b      	ldr	r3, [r7, #4]
 8003f28:	685a      	ldr	r2, [r3, #4]
 8003f2a:	4b62      	ldr	r3, [pc, #392]	; (80040b4 <HAL_RCC_ClockConfig+0x278>)
 8003f2c:	430a      	orrs	r2, r1
 8003f2e:	60da      	str	r2, [r3, #12]

    /* Get Start Tick */
    tickstart = HAL_GetTick();
 8003f30:	f7fe fd9a 	bl	8002a68 <HAL_GetTick>
 8003f34:	0003      	movs	r3, r0
 8003f36:	60fb      	str	r3, [r7, #12]

    if(RCC_ClkInitStruct->SYSCLKSource == RCC_SYSCLKSOURCE_HSE)
 8003f38:	687b      	ldr	r3, [r7, #4]
 8003f3a:	685b      	ldr	r3, [r3, #4]
 8003f3c:	2b02      	cmp	r3, #2
 8003f3e:	d111      	bne.n	8003f64 <HAL_RCC_ClockConfig+0x128>
    {
      while (__HAL_RCC_GET_SYSCLK_SOURCE() != RCC_SYSCLKSOURCE_STATUS_HSE)
 8003f40:	e009      	b.n	8003f56 <HAL_RCC_ClockConfig+0x11a>
      {
        if((HAL_GetTick() - tickstart ) > CLOCKSWITCH_TIMEOUT_VALUE)
 8003f42:	f7fe fd91 	bl	8002a68 <HAL_GetTick>
 8003f46:	0002      	movs	r2, r0
 8003f48:	68fb      	ldr	r3, [r7, #12]
 8003f4a:	1ad3      	subs	r3, r2, r3
 8003f4c:	4a58      	ldr	r2, [pc, #352]	; (80040b0 <HAL_RCC_ClockConfig+0x274>)
 8003f4e:	4293      	cmp	r3, r2
 8003f50:	d901      	bls.n	8003f56 <HAL_RCC_ClockConfig+0x11a>
        {
          return HAL_TIMEOUT;
 8003f52:	2303      	movs	r3, #3
 8003f54:	e0a5      	b.n	80040a2 <HAL_RCC_ClockConfig+0x266>
      while (__HAL_RCC_GET_SYSCLK_SOURCE() != RCC_SYSCLKSOURCE_STATUS_HSE)
 8003f56:	4b57      	ldr	r3, [pc, #348]	; (80040b4 <HAL_RCC_ClockConfig+0x278>)
 8003f58:	68db      	ldr	r3, [r3, #12]
 8003f5a:	220c      	movs	r2, #12
 8003f5c:	4013      	ands	r3, r2
 8003f5e:	2b08      	cmp	r3, #8
 8003f60:	d1ef      	bne.n	8003f42 <HAL_RCC_ClockConfig+0x106>
 8003f62:	e03a      	b.n	8003fda <HAL_RCC_ClockConfig+0x19e>
        }
      }
    }
    else if(RCC_ClkInitStruct->SYSCLKSource == RCC_SYSCLKSOURCE_PLLCLK)
 8003f64:	687b      	ldr	r3, [r7, #4]
 8003f66:	685b      	ldr	r3, [r3, #4]
 8003f68:	2b03      	cmp	r3, #3
 8003f6a:	d111      	bne.n	8003f90 <HAL_RCC_ClockConfig+0x154>
    {
      while (__HAL_RCC_GET_SYSCLK_SOURCE() != RCC_SYSCLKSOURCE_STATUS_PLLCLK)
 8003f6c:	e009      	b.n	8003f82 <HAL_RCC_ClockConfig+0x146>
      {
        if((HAL_GetTick() - tickstart ) > CLOCKSWITCH_TIMEOUT_VALUE)
 8003f6e:	f7fe fd7b 	bl	8002a68 <HAL_GetTick>
 8003f72:	0002      	movs	r2, r0
 8003f74:	68fb      	ldr	r3, [r7, #12]
 8003f76:	1ad3      	subs	r3, r2, r3
 8003f78:	4a4d      	ldr	r2, [pc, #308]	; (80040b0 <HAL_RCC_ClockConfig+0x274>)
 8003f7a:	4293      	cmp	r3, r2
 8003f7c:	d901      	bls.n	8003f82 <HAL_RCC_ClockConfig+0x146>
        {
          return HAL_TIMEOUT;
 8003f7e:	2303      	movs	r3, #3
 8003f80:	e08f      	b.n	80040a2 <HAL_RCC_ClockConfig+0x266>
      while (__HAL_RCC_GET_SYSCLK_SOURCE() != RCC_SYSCLKSOURCE_STATUS_PLLCLK)
 8003f82:	4b4c      	ldr	r3, [pc, #304]	; (80040b4 <HAL_RCC_ClockConfig+0x278>)
 8003f84:	68db      	ldr	r3, [r3, #12]
 8003f86:	220c      	movs	r2, #12
 8003f88:	4013      	ands	r3, r2
 8003f8a:	2b0c      	cmp	r3, #12
 8003f8c:	d1ef      	bne.n	8003f6e <HAL_RCC_ClockConfig+0x132>
 8003f8e:	e024      	b.n	8003fda <HAL_RCC_ClockConfig+0x19e>
        }
      }
    }
    else if(RCC_ClkInitStruct->SYSCLKSource == RCC_SYSCLKSOURCE_HSI)
 8003f90:	687b      	ldr	r3, [r7, #4]
 8003f92:	685b      	ldr	r3, [r3, #4]
 8003f94:	2b01      	cmp	r3, #1
 8003f96:	d11b      	bne.n	8003fd0 <HAL_RCC_ClockConfig+0x194>
    {
      while (__HAL_RCC_GET_SYSCLK_SOURCE() != RCC_SYSCLKSOURCE_STATUS_HSI)
 8003f98:	e009      	b.n	8003fae <HAL_RCC_ClockConfig+0x172>
      {
        if((HAL_GetTick() - tickstart ) > CLOCKSWITCH_TIMEOUT_VALUE)
 8003f9a:	f7fe fd65 	bl	8002a68 <HAL_GetTick>
 8003f9e:	0002      	movs	r2, r0
 8003fa0:	68fb      	ldr	r3, [r7, #12]
 8003fa2:	1ad3      	subs	r3, r2, r3
 8003fa4:	4a42      	ldr	r2, [pc, #264]	; (80040b0 <HAL_RCC_ClockConfig+0x274>)
 8003fa6:	4293      	cmp	r3, r2
 8003fa8:	d901      	bls.n	8003fae <HAL_RCC_ClockConfig+0x172>
        {
          return HAL_TIMEOUT;
 8003faa:	2303      	movs	r3, #3
 8003fac:	e079      	b.n	80040a2 <HAL_RCC_ClockConfig+0x266>
      while (__HAL_RCC_GET_SYSCLK_SOURCE() != RCC_SYSCLKSOURCE_STATUS_HSI)
 8003fae:	4b41      	ldr	r3, [pc, #260]	; (80040b4 <HAL_RCC_ClockConfig+0x278>)
 8003fb0:	68db      	ldr	r3, [r3, #12]
 8003fb2:	220c      	movs	r2, #12
 8003fb4:	4013      	ands	r3, r2
 8003fb6:	2b04      	cmp	r3, #4
 8003fb8:	d1ef      	bne.n	8003f9a <HAL_RCC_ClockConfig+0x15e>
 8003fba:	e00e      	b.n	8003fda <HAL_RCC_ClockConfig+0x19e>
    }
    else
    {
      while(__HAL_RCC_GET_SYSCLK_SOURCE() != RCC_SYSCLKSOURCE_STATUS_MSI)
      {
        if((HAL_GetTick() - tickstart ) > CLOCKSWITCH_TIMEOUT_VALUE)
 8003fbc:	f7fe fd54 	bl	8002a68 <HAL_GetTick>
 8003fc0:	0002      	movs	r2, r0
 8003fc2:	68fb      	ldr	r3, [r7, #12]
 8003fc4:	1ad3      	subs	r3, r2, r3
 8003fc6:	4a3a      	ldr	r2, [pc, #232]	; (80040b0 <HAL_RCC_ClockConfig+0x274>)
 8003fc8:	4293      	cmp	r3, r2
 8003fca:	d901      	bls.n	8003fd0 <HAL_RCC_ClockConfig+0x194>
        {
          return HAL_TIMEOUT;
 8003fcc:	2303      	movs	r3, #3
 8003fce:	e068      	b.n	80040a2 <HAL_RCC_ClockConfig+0x266>
      while(__HAL_RCC_GET_SYSCLK_SOURCE() != RCC_SYSCLKSOURCE_STATUS_MSI)
 8003fd0:	4b38      	ldr	r3, [pc, #224]	; (80040b4 <HAL_RCC_ClockConfig+0x278>)
 8003fd2:	68db      	ldr	r3, [r3, #12]
 8003fd4:	220c      	movs	r2, #12
 8003fd6:	4013      	ands	r3, r2
 8003fd8:	d1f0      	bne.n	8003fbc <HAL_RCC_ClockConfig+0x180>
        }
      }
    }
  }
  /* Decreasing the number of wait states because of lower CPU frequency */
  if(FLatency < __HAL_FLASH_GET_LATENCY())
 8003fda:	4b34      	ldr	r3, [pc, #208]	; (80040ac <HAL_RCC_ClockConfig+0x270>)
 8003fdc:	681b      	ldr	r3, [r3, #0]
 8003fde:	2201      	movs	r2, #1
 8003fe0:	4013      	ands	r3, r2
 8003fe2:	683a      	ldr	r2, [r7, #0]
 8003fe4:	429a      	cmp	r2, r3
 8003fe6:	d21e      	bcs.n	8004026 <HAL_RCC_ClockConfig+0x1ea>
  {
    /* Program the new number of wait states to the LATENCY bits in the FLASH_ACR register */
    __HAL_FLASH_SET_LATENCY(FLatency);
 8003fe8:	4b30      	ldr	r3, [pc, #192]	; (80040ac <HAL_RCC_ClockConfig+0x270>)
 8003fea:	681b      	ldr	r3, [r3, #0]
 8003fec:	2201      	movs	r2, #1
 8003fee:	4393      	bics	r3, r2
 8003ff0:	0019      	movs	r1, r3
 8003ff2:	4b2e      	ldr	r3, [pc, #184]	; (80040ac <HAL_RCC_ClockConfig+0x270>)
 8003ff4:	683a      	ldr	r2, [r7, #0]
 8003ff6:	430a      	orrs	r2, r1
 8003ff8:	601a      	str	r2, [r3, #0]

    /* Check that the new number of wait states is taken into account to access the Flash
    memory by polling the FLASH_ACR register */
    tickstart = HAL_GetTick();
 8003ffa:	f7fe fd35 	bl	8002a68 <HAL_GetTick>
 8003ffe:	0003      	movs	r3, r0
 8004000:	60fb      	str	r3, [r7, #12]

    while (__HAL_FLASH_GET_LATENCY() != FLatency)
 8004002:	e009      	b.n	8004018 <HAL_RCC_ClockConfig+0x1dc>
    {
      if ((HAL_GetTick() - tickstart) > CLOCKSWITCH_TIMEOUT_VALUE)
 8004004:	f7fe fd30 	bl	8002a68 <HAL_GetTick>
 8004008:	0002      	movs	r2, r0
 800400a:	68fb      	ldr	r3, [r7, #12]
 800400c:	1ad3      	subs	r3, r2, r3
 800400e:	4a28      	ldr	r2, [pc, #160]	; (80040b0 <HAL_RCC_ClockConfig+0x274>)
 8004010:	4293      	cmp	r3, r2
 8004012:	d901      	bls.n	8004018 <HAL_RCC_ClockConfig+0x1dc>
      {
        return HAL_TIMEOUT;
 8004014:	2303      	movs	r3, #3
 8004016:	e044      	b.n	80040a2 <HAL_RCC_ClockConfig+0x266>
    while (__HAL_FLASH_GET_LATENCY() != FLatency)
 8004018:	4b24      	ldr	r3, [pc, #144]	; (80040ac <HAL_RCC_ClockConfig+0x270>)
 800401a:	681b      	ldr	r3, [r3, #0]
 800401c:	2201      	movs	r2, #1
 800401e:	4013      	ands	r3, r2
 8004020:	683a      	ldr	r2, [r7, #0]
 8004022:	429a      	cmp	r2, r3
 8004024:	d1ee      	bne.n	8004004 <HAL_RCC_ClockConfig+0x1c8>
      }
    }
  }

  /*-------------------------- PCLK1 Configuration ---------------------------*/
  if(((RCC_ClkInitStruct->ClockType) & RCC_CLOCKTYPE_PCLK1) == RCC_CLOCKTYPE_PCLK1)
 8004026:	687b      	ldr	r3, [r7, #4]
 8004028:	681b      	ldr	r3, [r3, #0]
 800402a:	2204      	movs	r2, #4
 800402c:	4013      	ands	r3, r2
 800402e:	d009      	beq.n	8004044 <HAL_RCC_ClockConfig+0x208>
  {
    assert_param(IS_RCC_PCLK(RCC_ClkInitStruct->APB1CLKDivider));
    MODIFY_REG(RCC->CFGR, RCC_CFGR_PPRE1, RCC_ClkInitStruct->APB1CLKDivider);
 8004030:	4b20      	ldr	r3, [pc, #128]	; (80040b4 <HAL_RCC_ClockConfig+0x278>)
 8004032:	68db      	ldr	r3, [r3, #12]
 8004034:	4a20      	ldr	r2, [pc, #128]	; (80040b8 <HAL_RCC_ClockConfig+0x27c>)
 8004036:	4013      	ands	r3, r2
 8004038:	0019      	movs	r1, r3
 800403a:	687b      	ldr	r3, [r7, #4]
 800403c:	68da      	ldr	r2, [r3, #12]
 800403e:	4b1d      	ldr	r3, [pc, #116]	; (80040b4 <HAL_RCC_ClockConfig+0x278>)
 8004040:	430a      	orrs	r2, r1
 8004042:	60da      	str	r2, [r3, #12]
  }

  /*-------------------------- PCLK2 Configuration ---------------------------*/
  if(((RCC_ClkInitStruct->ClockType) & RCC_CLOCKTYPE_PCLK2) == RCC_CLOCKTYPE_PCLK2)
 8004044:	687b      	ldr	r3, [r7, #4]
 8004046:	681b      	ldr	r3, [r3, #0]
 8004048:	2208      	movs	r2, #8
 800404a:	4013      	ands	r3, r2
 800404c:	d00a      	beq.n	8004064 <HAL_RCC_ClockConfig+0x228>
  {
    assert_param(IS_RCC_PCLK(RCC_ClkInitStruct->APB2CLKDivider));
    MODIFY_REG(RCC->CFGR, RCC_CFGR_PPRE2, ((RCC_ClkInitStruct->APB2CLKDivider) << 3));
 800404e:	4b19      	ldr	r3, [pc, #100]	; (80040b4 <HAL_RCC_ClockConfig+0x278>)
 8004050:	68db      	ldr	r3, [r3, #12]
 8004052:	4a1a      	ldr	r2, [pc, #104]	; (80040bc <HAL_RCC_ClockConfig+0x280>)
 8004054:	4013      	ands	r3, r2
 8004056:	0019      	movs	r1, r3
 8004058:	687b      	ldr	r3, [r7, #4]
 800405a:	691b      	ldr	r3, [r3, #16]
 800405c:	00da      	lsls	r2, r3, #3
 800405e:	4b15      	ldr	r3, [pc, #84]	; (80040b4 <HAL_RCC_ClockConfig+0x278>)
 8004060:	430a      	orrs	r2, r1
 8004062:	60da      	str	r2, [r3, #12]
  }

  /* Update the SystemCoreClock global variable */
  SystemCoreClock = HAL_RCC_GetSysClockFreq() >> AHBPrescTable[(RCC->CFGR & RCC_CFGR_HPRE)>> RCC_CFGR_HPRE_Pos];
 8004064:	f000 f832 	bl	80040cc <HAL_RCC_GetSysClockFreq>
 8004068:	0001      	movs	r1, r0
 800406a:	4b12      	ldr	r3, [pc, #72]	; (80040b4 <HAL_RCC_ClockConfig+0x278>)
 800406c:	68db      	ldr	r3, [r3, #12]
 800406e:	091b      	lsrs	r3, r3, #4
 8004070:	220f      	movs	r2, #15
 8004072:	4013      	ands	r3, r2
 8004074:	4a12      	ldr	r2, [pc, #72]	; (80040c0 <HAL_RCC_ClockConfig+0x284>)
 8004076:	5cd3      	ldrb	r3, [r2, r3]
 8004078:	000a      	movs	r2, r1
 800407a:	40da      	lsrs	r2, r3
 800407c:	4b11      	ldr	r3, [pc, #68]	; (80040c4 <HAL_RCC_ClockConfig+0x288>)
 800407e:	601a      	str	r2, [r3, #0]

  /* Configure the source of time base considering new system clocks settings*/
  status = HAL_InitTick(uwTickPrio);
 8004080:	4b11      	ldr	r3, [pc, #68]	; (80040c8 <HAL_RCC_ClockConfig+0x28c>)
 8004082:	681b      	ldr	r3, [r3, #0]
 8004084:	250b      	movs	r5, #11
 8004086:	197c      	adds	r4, r7, r5
 8004088:	0018      	movs	r0, r3
 800408a:	f7fe fca7 	bl	80029dc <HAL_InitTick>
 800408e:	0003      	movs	r3, r0
 8004090:	7023      	strb	r3, [r4, #0]
  if(status != HAL_OK)
 8004092:	197b      	adds	r3, r7, r5
 8004094:	781b      	ldrb	r3, [r3, #0]
 8004096:	2b00      	cmp	r3, #0
 8004098:	d002      	beq.n	80040a0 <HAL_RCC_ClockConfig+0x264>
  {
    return status;
 800409a:	197b      	adds	r3, r7, r5
 800409c:	781b      	ldrb	r3, [r3, #0]
 800409e:	e000      	b.n	80040a2 <HAL_RCC_ClockConfig+0x266>
  }

  return HAL_OK;
 80040a0:	2300      	movs	r3, #0
}
 80040a2:	0018      	movs	r0, r3
 80040a4:	46bd      	mov	sp, r7
 80040a6:	b004      	add	sp, #16
 80040a8:	bdb0      	pop	{r4, r5, r7, pc}
 80040aa:	46c0      	nop			; (mov r8, r8)
 80040ac:	40022000 	.word	0x40022000
 80040b0:	00001388 	.word	0x00001388
 80040b4:	40021000 	.word	0x40021000
 80040b8:	fffff8ff 	.word	0xfffff8ff
 80040bc:	ffffc7ff 	.word	0xffffc7ff
 80040c0:	08005f9c 	.word	0x08005f9c
 80040c4:	20000000 	.word	0x20000000
 80040c8:	20000004 	.word	0x20000004

080040cc <HAL_RCC_GetSysClockFreq>:
  *         right SYSCLK value. Otherwise, any configuration based on this function will be incorrect.
  *
  * @retval SYSCLK frequency
  */
uint32_t HAL_RCC_GetSysClockFreq(void)
{
 80040cc:	b5b0      	push	{r4, r5, r7, lr}
 80040ce:	b08e      	sub	sp, #56	; 0x38
 80040d0:	af00      	add	r7, sp, #0
  uint32_t tmpreg, pllm, plld, pllvco, msiclkrange;    /* no init needed */
  uint32_t sysclockfreq;

  tmpreg = RCC->CFGR;
 80040d2:	4b4c      	ldr	r3, [pc, #304]	; (8004204 <HAL_RCC_GetSysClockFreq+0x138>)
 80040d4:	68db      	ldr	r3, [r3, #12]
 80040d6:	62fb      	str	r3, [r7, #44]	; 0x2c

  /* Get SYSCLK source -------------------------------------------------------*/
  switch (tmpreg & RCC_CFGR_SWS)
 80040d8:	6afa      	ldr	r2, [r7, #44]	; 0x2c
 80040da:	230c      	movs	r3, #12
 80040dc:	4013      	ands	r3, r2
 80040de:	2b0c      	cmp	r3, #12
 80040e0:	d014      	beq.n	800410c <HAL_RCC_GetSysClockFreq+0x40>
 80040e2:	d900      	bls.n	80040e6 <HAL_RCC_GetSysClockFreq+0x1a>
 80040e4:	e07b      	b.n	80041de <HAL_RCC_GetSysClockFreq+0x112>
 80040e6:	2b04      	cmp	r3, #4
 80040e8:	d002      	beq.n	80040f0 <HAL_RCC_GetSysClockFreq+0x24>
 80040ea:	2b08      	cmp	r3, #8
 80040ec:	d00b      	beq.n	8004106 <HAL_RCC_GetSysClockFreq+0x3a>
 80040ee:	e076      	b.n	80041de <HAL_RCC_GetSysClockFreq+0x112>
  {
    case RCC_SYSCLKSOURCE_STATUS_HSI:  /* HSI used as system clock source */
    {
      if ((RCC->CR & RCC_CR_HSIDIVF) != 0U)
 80040f0:	4b44      	ldr	r3, [pc, #272]	; (8004204 <HAL_RCC_GetSysClockFreq+0x138>)
 80040f2:	681b      	ldr	r3, [r3, #0]
 80040f4:	2210      	movs	r2, #16
 80040f6:	4013      	ands	r3, r2
 80040f8:	d002      	beq.n	8004100 <HAL_RCC_GetSysClockFreq+0x34>
      {
        sysclockfreq =  (HSI_VALUE >> 2);
 80040fa:	4b43      	ldr	r3, [pc, #268]	; (8004208 <HAL_RCC_GetSysClockFreq+0x13c>)
 80040fc:	633b      	str	r3, [r7, #48]	; 0x30
      }
      else
      {
        sysclockfreq =  HSI_VALUE;
      }
      break;
 80040fe:	e07c      	b.n	80041fa <HAL_RCC_GetSysClockFreq+0x12e>
        sysclockfreq =  HSI_VALUE;
 8004100:	4b42      	ldr	r3, [pc, #264]	; (800420c <HAL_RCC_GetSysClockFreq+0x140>)
 8004102:	633b      	str	r3, [r7, #48]	; 0x30
      break;
 8004104:	e079      	b.n	80041fa <HAL_RCC_GetSysClockFreq+0x12e>
    }
    case RCC_SYSCLKSOURCE_STATUS_HSE:  /* HSE used as system clock */
    {
      sysclockfreq = HSE_VALUE;
 8004106:	4b42      	ldr	r3, [pc, #264]	; (8004210 <HAL_RCC_GetSysClockFreq+0x144>)
 8004108:	633b      	str	r3, [r7, #48]	; 0x30
      break;
 800410a:	e076      	b.n	80041fa <HAL_RCC_GetSysClockFreq+0x12e>
    }
    case RCC_SYSCLKSOURCE_STATUS_PLLCLK:  /* PLL used as system clock */
    {
      pllm = PLLMulTable[(uint32_t)(tmpreg & RCC_CFGR_PLLMUL) >> RCC_CFGR_PLLMUL_Pos];
 800410c:	6afb      	ldr	r3, [r7, #44]	; 0x2c
 800410e:	0c9a      	lsrs	r2, r3, #18
 8004110:	230f      	movs	r3, #15
 8004112:	401a      	ands	r2, r3
 8004114:	4b3f      	ldr	r3, [pc, #252]	; (8004214 <HAL_RCC_GetSysClockFreq+0x148>)
 8004116:	5c9b      	ldrb	r3, [r3, r2]
 8004118:	62bb      	str	r3, [r7, #40]	; 0x28
      plld = ((uint32_t)(tmpreg & RCC_CFGR_PLLDIV) >> RCC_CFGR_PLLDIV_Pos) + 1U;
 800411a:	6afb      	ldr	r3, [r7, #44]	; 0x2c
 800411c:	0d9a      	lsrs	r2, r3, #22
 800411e:	2303      	movs	r3, #3
 8004120:	4013      	ands	r3, r2
 8004122:	3301      	adds	r3, #1
 8004124:	627b      	str	r3, [r7, #36]	; 0x24
      if (__HAL_RCC_GET_PLL_OSCSOURCE() != RCC_PLLSOURCE_HSI)
 8004126:	4b37      	ldr	r3, [pc, #220]	; (8004204 <HAL_RCC_GetSysClockFreq+0x138>)
 8004128:	68da      	ldr	r2, [r3, #12]
 800412a:	2380      	movs	r3, #128	; 0x80
 800412c:	025b      	lsls	r3, r3, #9
 800412e:	4013      	ands	r3, r2
 8004130:	d01a      	beq.n	8004168 <HAL_RCC_GetSysClockFreq+0x9c>
      {
        /* HSE used as PLL clock source */
        pllvco = (uint32_t)(((uint64_t)HSE_VALUE * (uint64_t)pllm) / (uint64_t)plld);
 8004132:	6abb      	ldr	r3, [r7, #40]	; 0x28
 8004134:	61bb      	str	r3, [r7, #24]
 8004136:	2300      	movs	r3, #0
 8004138:	61fb      	str	r3, [r7, #28]
 800413a:	4a35      	ldr	r2, [pc, #212]	; (8004210 <HAL_RCC_GetSysClockFreq+0x144>)
 800413c:	2300      	movs	r3, #0
 800413e:	69b8      	ldr	r0, [r7, #24]
 8004140:	69f9      	ldr	r1, [r7, #28]
 8004142:	f7fc f981 	bl	8000448 <__aeabi_lmul>
 8004146:	0002      	movs	r2, r0
 8004148:	000b      	movs	r3, r1
 800414a:	0010      	movs	r0, r2
 800414c:	0019      	movs	r1, r3
 800414e:	6a7b      	ldr	r3, [r7, #36]	; 0x24
 8004150:	613b      	str	r3, [r7, #16]
 8004152:	2300      	movs	r3, #0
 8004154:	617b      	str	r3, [r7, #20]
 8004156:	693a      	ldr	r2, [r7, #16]
 8004158:	697b      	ldr	r3, [r7, #20]
 800415a:	f7fc f955 	bl	8000408 <__aeabi_uldivmod>
 800415e:	0002      	movs	r2, r0
 8004160:	000b      	movs	r3, r1
 8004162:	0013      	movs	r3, r2
 8004164:	637b      	str	r3, [r7, #52]	; 0x34
 8004166:	e037      	b.n	80041d8 <HAL_RCC_GetSysClockFreq+0x10c>
      }
      else
      {
        if ((RCC->CR & RCC_CR_HSIDIVF) != 0U)
 8004168:	4b26      	ldr	r3, [pc, #152]	; (8004204 <HAL_RCC_GetSysClockFreq+0x138>)
 800416a:	681b      	ldr	r3, [r3, #0]
 800416c:	2210      	movs	r2, #16
 800416e:	4013      	ands	r3, r2
 8004170:	d01a      	beq.n	80041a8 <HAL_RCC_GetSysClockFreq+0xdc>
        {
          pllvco = (uint32_t)((((uint64_t)(HSI_VALUE >> 2)) * (uint64_t)pllm) / (uint64_t)plld);
 8004172:	6abb      	ldr	r3, [r7, #40]	; 0x28
 8004174:	60bb      	str	r3, [r7, #8]
 8004176:	2300      	movs	r3, #0
 8004178:	60fb      	str	r3, [r7, #12]
 800417a:	4a23      	ldr	r2, [pc, #140]	; (8004208 <HAL_RCC_GetSysClockFreq+0x13c>)
 800417c:	2300      	movs	r3, #0
 800417e:	68b8      	ldr	r0, [r7, #8]
 8004180:	68f9      	ldr	r1, [r7, #12]
 8004182:	f7fc f961 	bl	8000448 <__aeabi_lmul>
 8004186:	0002      	movs	r2, r0
 8004188:	000b      	movs	r3, r1
 800418a:	0010      	movs	r0, r2
 800418c:	0019      	movs	r1, r3
 800418e:	6a7b      	ldr	r3, [r7, #36]	; 0x24
 8004190:	603b      	str	r3, [r7, #0]
 8004192:	2300      	movs	r3, #0
 8004194:	607b      	str	r3, [r7, #4]
 8004196:	683a      	ldr	r2, [r7, #0]
 8004198:	687b      	ldr	r3, [r7, #4]
 800419a:	f7fc f935 	bl	8000408 <__aeabi_uldivmod>
 800419e:	0002      	movs	r2, r0
 80041a0:	000b      	movs	r3, r1
 80041a2:	0013      	movs	r3, r2
 80041a4:	637b      	str	r3, [r7, #52]	; 0x34
 80041a6:	e017      	b.n	80041d8 <HAL_RCC_GetSysClockFreq+0x10c>
        }
        else
        {
         pllvco = (uint32_t)(((uint64_t)HSI_VALUE * (uint64_t)pllm) / (uint64_t)plld);
 80041a8:	6abb      	ldr	r3, [r7, #40]	; 0x28
 80041aa:	0018      	movs	r0, r3
 80041ac:	2300      	movs	r3, #0
 80041ae:	0019      	movs	r1, r3
 80041b0:	4a16      	ldr	r2, [pc, #88]	; (800420c <HAL_RCC_GetSysClockFreq+0x140>)
 80041b2:	2300      	movs	r3, #0
 80041b4:	f7fc f948 	bl	8000448 <__aeabi_lmul>
 80041b8:	0002      	movs	r2, r0
 80041ba:	000b      	movs	r3, r1
 80041bc:	0010      	movs	r0, r2
 80041be:	0019      	movs	r1, r3
 80041c0:	6a7b      	ldr	r3, [r7, #36]	; 0x24
 80041c2:	001c      	movs	r4, r3
 80041c4:	2300      	movs	r3, #0
 80041c6:	001d      	movs	r5, r3
 80041c8:	0022      	movs	r2, r4
 80041ca:	002b      	movs	r3, r5
 80041cc:	f7fc f91c 	bl	8000408 <__aeabi_uldivmod>
 80041d0:	0002      	movs	r2, r0
 80041d2:	000b      	movs	r3, r1
 80041d4:	0013      	movs	r3, r2
 80041d6:	637b      	str	r3, [r7, #52]	; 0x34
        }
      }
      sysclockfreq = pllvco;
 80041d8:	6b7b      	ldr	r3, [r7, #52]	; 0x34
 80041da:	633b      	str	r3, [r7, #48]	; 0x30
      break;
 80041dc:	e00d      	b.n	80041fa <HAL_RCC_GetSysClockFreq+0x12e>
    }
    case RCC_SYSCLKSOURCE_STATUS_MSI:  /* MSI used as system clock source */
    default: /* MSI used as system clock */
    {
      msiclkrange = (RCC->ICSCR & RCC_ICSCR_MSIRANGE ) >> RCC_ICSCR_MSIRANGE_Pos;
 80041de:	4b09      	ldr	r3, [pc, #36]	; (8004204 <HAL_RCC_GetSysClockFreq+0x138>)
 80041e0:	685b      	ldr	r3, [r3, #4]
 80041e2:	0b5b      	lsrs	r3, r3, #13
 80041e4:	2207      	movs	r2, #7
 80041e6:	4013      	ands	r3, r2
 80041e8:	623b      	str	r3, [r7, #32]
      sysclockfreq = (32768U * (1UL << (msiclkrange + 1U)));
 80041ea:	6a3b      	ldr	r3, [r7, #32]
 80041ec:	3301      	adds	r3, #1
 80041ee:	2280      	movs	r2, #128	; 0x80
 80041f0:	0212      	lsls	r2, r2, #8
 80041f2:	409a      	lsls	r2, r3
 80041f4:	0013      	movs	r3, r2
 80041f6:	633b      	str	r3, [r7, #48]	; 0x30
      break;
 80041f8:	46c0      	nop			; (mov r8, r8)
    }
  }
  return sysclockfreq;
 80041fa:	6b3b      	ldr	r3, [r7, #48]	; 0x30
}
 80041fc:	0018      	movs	r0, r3
 80041fe:	46bd      	mov	sp, r7
 8004200:	b00e      	add	sp, #56	; 0x38
 8004202:	bdb0      	pop	{r4, r5, r7, pc}
 8004204:	40021000 	.word	0x40021000
 8004208:	003d0900 	.word	0x003d0900
 800420c:	00f42400 	.word	0x00f42400
 8004210:	007a1200 	.word	0x007a1200
 8004214:	08005fb4 	.word	0x08005fb4

08004218 <HAL_RCC_GetHCLKFreq>:
  * @note   The SystemCoreClock CMSIS variable is used to store System Clock Frequency
  *         and updated within this function
  * @retval HCLK frequency
  */
uint32_t HAL_RCC_GetHCLKFreq(void)
{
 8004218:	b580      	push	{r7, lr}
 800421a:	af00      	add	r7, sp, #0
  return SystemCoreClock;
 800421c:	4b02      	ldr	r3, [pc, #8]	; (8004228 <HAL_RCC_GetHCLKFreq+0x10>)
 800421e:	681b      	ldr	r3, [r3, #0]
}
 8004220:	0018      	movs	r0, r3
 8004222:	46bd      	mov	sp, r7
 8004224:	bd80      	pop	{r7, pc}
 8004226:	46c0      	nop			; (mov r8, r8)
 8004228:	20000000 	.word	0x20000000

0800422c <HAL_RCC_GetPCLK1Freq>:
  * @note   Each time PCLK1 changes, this function must be called to update the
  *         right PCLK1 value. Otherwise, any configuration based on this function will be incorrect.
  * @retval PCLK1 frequency
  */
uint32_t HAL_RCC_GetPCLK1Freq(void)
{
 800422c:	b580      	push	{r7, lr}
 800422e:	af00      	add	r7, sp, #0
  /* Get HCLK source and Compute PCLK1 frequency ---------------------------*/
  return (HAL_RCC_GetHCLKFreq() >> APBPrescTable[(RCC->CFGR & RCC_CFGR_PPRE1) >> RCC_CFGR_PPRE1_Pos]);
 8004230:	f7ff fff2 	bl	8004218 <HAL_RCC_GetHCLKFreq>
 8004234:	0001      	movs	r1, r0
 8004236:	4b06      	ldr	r3, [pc, #24]	; (8004250 <HAL_RCC_GetPCLK1Freq+0x24>)
 8004238:	68db      	ldr	r3, [r3, #12]
 800423a:	0a1b      	lsrs	r3, r3, #8
 800423c:	2207      	movs	r2, #7
 800423e:	4013      	ands	r3, r2
 8004240:	4a04      	ldr	r2, [pc, #16]	; (8004254 <HAL_RCC_GetPCLK1Freq+0x28>)
 8004242:	5cd3      	ldrb	r3, [r2, r3]
 8004244:	40d9      	lsrs	r1, r3
 8004246:	000b      	movs	r3, r1
}
 8004248:	0018      	movs	r0, r3
 800424a:	46bd      	mov	sp, r7
 800424c:	bd80      	pop	{r7, pc}
 800424e:	46c0      	nop			; (mov r8, r8)
 8004250:	40021000 	.word	0x40021000
 8004254:	08005fac 	.word	0x08005fac

08004258 <HAL_RCC_GetPCLK2Freq>:
  * @note   Each time PCLK2 changes, this function must be called to update the
  *         right PCLK2 value. Otherwise, any configuration based on this function will be incorrect.
  * @retval PCLK2 frequency
  */
uint32_t HAL_RCC_GetPCLK2Freq(void)
{
 8004258:	b580      	push	{r7, lr}
 800425a:	af00      	add	r7, sp, #0
  /* Get HCLK source and Compute PCLK2 frequency ---------------------------*/
  return (HAL_RCC_GetHCLKFreq()>> APBPrescTable[(RCC->CFGR & RCC_CFGR_PPRE2) >> RCC_CFGR_PPRE2_Pos]);
 800425c:	f7ff ffdc 	bl	8004218 <HAL_RCC_GetHCLKFreq>
 8004260:	0001      	movs	r1, r0
 8004262:	4b06      	ldr	r3, [pc, #24]	; (800427c <HAL_RCC_GetPCLK2Freq+0x24>)
 8004264:	68db      	ldr	r3, [r3, #12]
 8004266:	0adb      	lsrs	r3, r3, #11
 8004268:	2207      	movs	r2, #7
 800426a:	4013      	ands	r3, r2
 800426c:	4a04      	ldr	r2, [pc, #16]	; (8004280 <HAL_RCC_GetPCLK2Freq+0x28>)
 800426e:	5cd3      	ldrb	r3, [r2, r3]
 8004270:	40d9      	lsrs	r1, r3
 8004272:	000b      	movs	r3, r1
}
 8004274:	0018      	movs	r0, r3
 8004276:	46bd      	mov	sp, r7
 8004278:	bd80      	pop	{r7, pc}
 800427a:	46c0      	nop			; (mov r8, r8)
 800427c:	40021000 	.word	0x40021000
 8004280:	08005fac 	.word	0x08005fac

08004284 <HAL_RCCEx_PeriphCLKConfig>:
  * @retval HAL status
  * @note   If HAL_ERROR returned, first switch-OFF HSE clock oscillator with @ref HAL_RCC_OscConfig()
  *         to possibly update HSE divider.
  */
HAL_StatusTypeDef HAL_RCCEx_PeriphCLKConfig(RCC_PeriphCLKInitTypeDef  *PeriphClkInit)
{
 8004284:	b580      	push	{r7, lr}
 8004286:	b086      	sub	sp, #24
 8004288:	af00      	add	r7, sp, #0
 800428a:	6078      	str	r0, [r7, #4]
  uint32_t tickstart;
  uint32_t temp_reg;
  FlagStatus       pwrclkchanged = RESET;
 800428c:	2317      	movs	r3, #23
 800428e:	18fb      	adds	r3, r7, r3
 8004290:	2200      	movs	r2, #0
 8004292:	701a      	strb	r2, [r3, #0]

  /* Check the parameters */
  assert_param(IS_RCC_PERIPHCLOCK(PeriphClkInit->PeriphClockSelection));

  /*------------------------------- RTC/LCD Configuration ------------------------*/
  if ((((PeriphClkInit->PeriphClockSelection) & RCC_PERIPHCLK_RTC) == RCC_PERIPHCLK_RTC)
 8004294:	687b      	ldr	r3, [r7, #4]
 8004296:	681b      	ldr	r3, [r3, #0]
 8004298:	2220      	movs	r2, #32
 800429a:	4013      	ands	r3, r2
 800429c:	d106      	bne.n	80042ac <HAL_RCCEx_PeriphCLKConfig+0x28>
#if defined(LCD)
   || (((PeriphClkInit->PeriphClockSelection) & RCC_PERIPHCLK_LCD) == RCC_PERIPHCLK_LCD)
 800429e:	687b      	ldr	r3, [r7, #4]
 80042a0:	681a      	ldr	r2, [r3, #0]
 80042a2:	2380      	movs	r3, #128	; 0x80
 80042a4:	011b      	lsls	r3, r3, #4
 80042a6:	4013      	ands	r3, r2
 80042a8:	d100      	bne.n	80042ac <HAL_RCCEx_PeriphCLKConfig+0x28>
 80042aa:	e0d9      	b.n	8004460 <HAL_RCCEx_PeriphCLKConfig+0x1dc>
#endif /* LCD */

    /* As soon as function is called to change RTC clock source, activation of the
       power domain is done. */
    /* Requires to enable write access to Backup Domain of necessary */
    if(__HAL_RCC_PWR_IS_CLK_DISABLED())
 80042ac:	4ba4      	ldr	r3, [pc, #656]	; (8004540 <HAL_RCCEx_PeriphCLKConfig+0x2bc>)
 80042ae:	6b9a      	ldr	r2, [r3, #56]	; 0x38
 80042b0:	2380      	movs	r3, #128	; 0x80
 80042b2:	055b      	lsls	r3, r3, #21
 80042b4:	4013      	ands	r3, r2
 80042b6:	d10a      	bne.n	80042ce <HAL_RCCEx_PeriphCLKConfig+0x4a>
    {
      __HAL_RCC_PWR_CLK_ENABLE();
 80042b8:	4ba1      	ldr	r3, [pc, #644]	; (8004540 <HAL_RCCEx_PeriphCLKConfig+0x2bc>)
 80042ba:	6b9a      	ldr	r2, [r3, #56]	; 0x38
 80042bc:	4ba0      	ldr	r3, [pc, #640]	; (8004540 <HAL_RCCEx_PeriphCLKConfig+0x2bc>)
 80042be:	2180      	movs	r1, #128	; 0x80
 80042c0:	0549      	lsls	r1, r1, #21
 80042c2:	430a      	orrs	r2, r1
 80042c4:	639a      	str	r2, [r3, #56]	; 0x38
      pwrclkchanged = SET;
 80042c6:	2317      	movs	r3, #23
 80042c8:	18fb      	adds	r3, r7, r3
 80042ca:	2201      	movs	r2, #1
 80042cc:	701a      	strb	r2, [r3, #0]
    }

    if(HAL_IS_BIT_CLR(PWR->CR, PWR_CR_DBP))
 80042ce:	4b9d      	ldr	r3, [pc, #628]	; (8004544 <HAL_RCCEx_PeriphCLKConfig+0x2c0>)
 80042d0:	681a      	ldr	r2, [r3, #0]
 80042d2:	2380      	movs	r3, #128	; 0x80
 80042d4:	005b      	lsls	r3, r3, #1
 80042d6:	4013      	ands	r3, r2
 80042d8:	d11a      	bne.n	8004310 <HAL_RCCEx_PeriphCLKConfig+0x8c>
    {
      /* Enable write access to Backup domain */
      SET_BIT(PWR->CR, PWR_CR_DBP);
 80042da:	4b9a      	ldr	r3, [pc, #616]	; (8004544 <HAL_RCCEx_PeriphCLKConfig+0x2c0>)
 80042dc:	681a      	ldr	r2, [r3, #0]
 80042de:	4b99      	ldr	r3, [pc, #612]	; (8004544 <HAL_RCCEx_PeriphCLKConfig+0x2c0>)
 80042e0:	2180      	movs	r1, #128	; 0x80
 80042e2:	0049      	lsls	r1, r1, #1
 80042e4:	430a      	orrs	r2, r1
 80042e6:	601a      	str	r2, [r3, #0]

      /* Wait for Backup domain Write protection disable */
      tickstart = HAL_GetTick();
 80042e8:	f7fe fbbe 	bl	8002a68 <HAL_GetTick>
 80042ec:	0003      	movs	r3, r0
 80042ee:	613b      	str	r3, [r7, #16]

      while(HAL_IS_BIT_CLR(PWR->CR, PWR_CR_DBP))
 80042f0:	e008      	b.n	8004304 <HAL_RCCEx_PeriphCLKConfig+0x80>
      {
        if((HAL_GetTick() - tickstart) > RCC_DBP_TIMEOUT_VALUE)
 80042f2:	f7fe fbb9 	bl	8002a68 <HAL_GetTick>
 80042f6:	0002      	movs	r2, r0
 80042f8:	693b      	ldr	r3, [r7, #16]
 80042fa:	1ad3      	subs	r3, r2, r3
 80042fc:	2b64      	cmp	r3, #100	; 0x64
 80042fe:	d901      	bls.n	8004304 <HAL_RCCEx_PeriphCLKConfig+0x80>
        {
          return HAL_TIMEOUT;
 8004300:	2303      	movs	r3, #3
 8004302:	e118      	b.n	8004536 <HAL_RCCEx_PeriphCLKConfig+0x2b2>
      while(HAL_IS_BIT_CLR(PWR->CR, PWR_CR_DBP))
 8004304:	4b8f      	ldr	r3, [pc, #572]	; (8004544 <HAL_RCCEx_PeriphCLKConfig+0x2c0>)
 8004306:	681a      	ldr	r2, [r3, #0]
 8004308:	2380      	movs	r3, #128	; 0x80
 800430a:	005b      	lsls	r3, r3, #1
 800430c:	4013      	ands	r3, r2
 800430e:	d0f0      	beq.n	80042f2 <HAL_RCCEx_PeriphCLKConfig+0x6e>
        }
      }
    }

    /* Check if user wants to change HSE RTC prescaler whereas HSE is enabled */
    temp_reg = (RCC->CR & RCC_CR_RTCPRE);
 8004310:	4b8b      	ldr	r3, [pc, #556]	; (8004540 <HAL_RCCEx_PeriphCLKConfig+0x2bc>)
 8004312:	681a      	ldr	r2, [r3, #0]
 8004314:	23c0      	movs	r3, #192	; 0xc0
 8004316:	039b      	lsls	r3, r3, #14
 8004318:	4013      	ands	r3, r2
 800431a:	60fb      	str	r3, [r7, #12]
    if ((temp_reg != (PeriphClkInit->RTCClockSelection & RCC_CR_RTCPRE))
 800431c:	687b      	ldr	r3, [r7, #4]
 800431e:	685a      	ldr	r2, [r3, #4]
 8004320:	23c0      	movs	r3, #192	; 0xc0
 8004322:	039b      	lsls	r3, r3, #14
 8004324:	4013      	ands	r3, r2
 8004326:	68fa      	ldr	r2, [r7, #12]
 8004328:	429a      	cmp	r2, r3
 800432a:	d107      	bne.n	800433c <HAL_RCCEx_PeriphCLKConfig+0xb8>
#if defined (LCD)
     || (temp_reg != (PeriphClkInit->LCDClockSelection & RCC_CR_RTCPRE))
 800432c:	687b      	ldr	r3, [r7, #4]
 800432e:	689a      	ldr	r2, [r3, #8]
 8004330:	23c0      	movs	r3, #192	; 0xc0
 8004332:	039b      	lsls	r3, r3, #14
 8004334:	4013      	ands	r3, r2
 8004336:	68fa      	ldr	r2, [r7, #12]
 8004338:	429a      	cmp	r2, r3
 800433a:	d013      	beq.n	8004364 <HAL_RCCEx_PeriphCLKConfig+0xe0>
#endif /* LCD */
       )
    { /* Check HSE State */
      if ((PeriphClkInit->RTCClockSelection & RCC_CSR_RTCSEL) == RCC_CSR_RTCSEL_HSE)
 800433c:	687b      	ldr	r3, [r7, #4]
 800433e:	685a      	ldr	r2, [r3, #4]
 8004340:	23c0      	movs	r3, #192	; 0xc0
 8004342:	029b      	lsls	r3, r3, #10
 8004344:	401a      	ands	r2, r3
 8004346:	23c0      	movs	r3, #192	; 0xc0
 8004348:	029b      	lsls	r3, r3, #10
 800434a:	429a      	cmp	r2, r3
 800434c:	d10a      	bne.n	8004364 <HAL_RCCEx_PeriphCLKConfig+0xe0>
      {
        if (HAL_IS_BIT_SET(RCC->CR, RCC_CR_HSERDY))
 800434e:	4b7c      	ldr	r3, [pc, #496]	; (8004540 <HAL_RCCEx_PeriphCLKConfig+0x2bc>)
 8004350:	681a      	ldr	r2, [r3, #0]
 8004352:	2380      	movs	r3, #128	; 0x80
 8004354:	029b      	lsls	r3, r3, #10
 8004356:	401a      	ands	r2, r3
 8004358:	2380      	movs	r3, #128	; 0x80
 800435a:	029b      	lsls	r3, r3, #10
 800435c:	429a      	cmp	r2, r3
 800435e:	d101      	bne.n	8004364 <HAL_RCCEx_PeriphCLKConfig+0xe0>
        {
          /* To update HSE divider, first switch-OFF HSE clock oscillator*/
          return HAL_ERROR;
 8004360:	2301      	movs	r3, #1
 8004362:	e0e8      	b.n	8004536 <HAL_RCCEx_PeriphCLKConfig+0x2b2>
        }
      }
    }

    /* Reset the Backup domain only if the RTC Clock source selection is modified from reset value */
    temp_reg = (RCC->CSR & RCC_CSR_RTCSEL);
 8004364:	4b76      	ldr	r3, [pc, #472]	; (8004540 <HAL_RCCEx_PeriphCLKConfig+0x2bc>)
 8004366:	6d1a      	ldr	r2, [r3, #80]	; 0x50
 8004368:	23c0      	movs	r3, #192	; 0xc0
 800436a:	029b      	lsls	r3, r3, #10
 800436c:	4013      	ands	r3, r2
 800436e:	60fb      	str	r3, [r7, #12]

    if((temp_reg != 0x00000000U) && (((temp_reg != (PeriphClkInit->RTCClockSelection & RCC_CSR_RTCSEL)) \
 8004370:	68fb      	ldr	r3, [r7, #12]
 8004372:	2b00      	cmp	r3, #0
 8004374:	d049      	beq.n	800440a <HAL_RCCEx_PeriphCLKConfig+0x186>
 8004376:	687b      	ldr	r3, [r7, #4]
 8004378:	685a      	ldr	r2, [r3, #4]
 800437a:	23c0      	movs	r3, #192	; 0xc0
 800437c:	029b      	lsls	r3, r3, #10
 800437e:	4013      	ands	r3, r2
 8004380:	68fa      	ldr	r2, [r7, #12]
 8004382:	429a      	cmp	r2, r3
 8004384:	d004      	beq.n	8004390 <HAL_RCCEx_PeriphCLKConfig+0x10c>
      && (((PeriphClkInit->PeriphClockSelection) & RCC_PERIPHCLK_RTC) == RCC_PERIPHCLK_RTC))
 8004386:	687b      	ldr	r3, [r7, #4]
 8004388:	681b      	ldr	r3, [r3, #0]
 800438a:	2220      	movs	r2, #32
 800438c:	4013      	ands	r3, r2
 800438e:	d10d      	bne.n	80043ac <HAL_RCCEx_PeriphCLKConfig+0x128>
#if defined(LCD)
      || ((temp_reg != (PeriphClkInit->LCDClockSelection & RCC_CSR_RTCSEL)) \
 8004390:	687b      	ldr	r3, [r7, #4]
 8004392:	689a      	ldr	r2, [r3, #8]
 8004394:	23c0      	movs	r3, #192	; 0xc0
 8004396:	029b      	lsls	r3, r3, #10
 8004398:	4013      	ands	r3, r2
 800439a:	68fa      	ldr	r2, [r7, #12]
 800439c:	429a      	cmp	r2, r3
 800439e:	d034      	beq.n	800440a <HAL_RCCEx_PeriphCLKConfig+0x186>
       && (((PeriphClkInit->PeriphClockSelection) & RCC_PERIPHCLK_LCD) == RCC_PERIPHCLK_LCD))
 80043a0:	687b      	ldr	r3, [r7, #4]
 80043a2:	681a      	ldr	r2, [r3, #0]
 80043a4:	2380      	movs	r3, #128	; 0x80
 80043a6:	011b      	lsls	r3, r3, #4
 80043a8:	4013      	ands	r3, r2
 80043aa:	d02e      	beq.n	800440a <HAL_RCCEx_PeriphCLKConfig+0x186>
#endif /* LCD */
     ))
    {
      /* Store the content of CSR register before the reset of Backup Domain */
      temp_reg = (RCC->CSR & ~(RCC_CSR_RTCSEL));
 80043ac:	4b64      	ldr	r3, [pc, #400]	; (8004540 <HAL_RCCEx_PeriphCLKConfig+0x2bc>)
 80043ae:	6d1b      	ldr	r3, [r3, #80]	; 0x50
 80043b0:	4a65      	ldr	r2, [pc, #404]	; (8004548 <HAL_RCCEx_PeriphCLKConfig+0x2c4>)
 80043b2:	4013      	ands	r3, r2
 80043b4:	60fb      	str	r3, [r7, #12]

      /* RTC Clock selection can be changed only if the Backup Domain is reset */
      __HAL_RCC_BACKUPRESET_FORCE();
 80043b6:	4b62      	ldr	r3, [pc, #392]	; (8004540 <HAL_RCCEx_PeriphCLKConfig+0x2bc>)
 80043b8:	6d1a      	ldr	r2, [r3, #80]	; 0x50
 80043ba:	4b61      	ldr	r3, [pc, #388]	; (8004540 <HAL_RCCEx_PeriphCLKConfig+0x2bc>)
 80043bc:	2180      	movs	r1, #128	; 0x80
 80043be:	0309      	lsls	r1, r1, #12
 80043c0:	430a      	orrs	r2, r1
 80043c2:	651a      	str	r2, [r3, #80]	; 0x50
      __HAL_RCC_BACKUPRESET_RELEASE();
 80043c4:	4b5e      	ldr	r3, [pc, #376]	; (8004540 <HAL_RCCEx_PeriphCLKConfig+0x2bc>)
 80043c6:	6d1a      	ldr	r2, [r3, #80]	; 0x50
 80043c8:	4b5d      	ldr	r3, [pc, #372]	; (8004540 <HAL_RCCEx_PeriphCLKConfig+0x2bc>)
 80043ca:	4960      	ldr	r1, [pc, #384]	; (800454c <HAL_RCCEx_PeriphCLKConfig+0x2c8>)
 80043cc:	400a      	ands	r2, r1
 80043ce:	651a      	str	r2, [r3, #80]	; 0x50

      /* Restore the Content of CSR register */
      RCC->CSR = temp_reg;
 80043d0:	4b5b      	ldr	r3, [pc, #364]	; (8004540 <HAL_RCCEx_PeriphCLKConfig+0x2bc>)
 80043d2:	68fa      	ldr	r2, [r7, #12]
 80043d4:	651a      	str	r2, [r3, #80]	; 0x50

       /* Wait for LSERDY if LSE was enabled */
      if (HAL_IS_BIT_SET(temp_reg, RCC_CSR_LSEON))
 80043d6:	68fa      	ldr	r2, [r7, #12]
 80043d8:	2380      	movs	r3, #128	; 0x80
 80043da:	005b      	lsls	r3, r3, #1
 80043dc:	4013      	ands	r3, r2
 80043de:	d014      	beq.n	800440a <HAL_RCCEx_PeriphCLKConfig+0x186>
      {
        /* Get Start Tick */
        tickstart = HAL_GetTick();
 80043e0:	f7fe fb42 	bl	8002a68 <HAL_GetTick>
 80043e4:	0003      	movs	r3, r0
 80043e6:	613b      	str	r3, [r7, #16]

        /* Wait till LSE is ready */
        while(__HAL_RCC_GET_FLAG(RCC_FLAG_LSERDY) == 0U)
 80043e8:	e009      	b.n	80043fe <HAL_RCCEx_PeriphCLKConfig+0x17a>
        {
          if((HAL_GetTick() - tickstart ) > RCC_LSE_TIMEOUT_VALUE)
 80043ea:	f7fe fb3d 	bl	8002a68 <HAL_GetTick>
 80043ee:	0002      	movs	r2, r0
 80043f0:	693b      	ldr	r3, [r7, #16]
 80043f2:	1ad3      	subs	r3, r2, r3
 80043f4:	4a56      	ldr	r2, [pc, #344]	; (8004550 <HAL_RCCEx_PeriphCLKConfig+0x2cc>)
 80043f6:	4293      	cmp	r3, r2
 80043f8:	d901      	bls.n	80043fe <HAL_RCCEx_PeriphCLKConfig+0x17a>
          {
            return HAL_TIMEOUT;
 80043fa:	2303      	movs	r3, #3
 80043fc:	e09b      	b.n	8004536 <HAL_RCCEx_PeriphCLKConfig+0x2b2>
        while(__HAL_RCC_GET_FLAG(RCC_FLAG_LSERDY) == 0U)
 80043fe:	4b50      	ldr	r3, [pc, #320]	; (8004540 <HAL_RCCEx_PeriphCLKConfig+0x2bc>)
 8004400:	6d1a      	ldr	r2, [r3, #80]	; 0x50
 8004402:	2380      	movs	r3, #128	; 0x80
 8004404:	009b      	lsls	r3, r3, #2
 8004406:	4013      	ands	r3, r2
 8004408:	d0ef      	beq.n	80043ea <HAL_RCCEx_PeriphCLKConfig+0x166>
          }
        }
      }
    }
    __HAL_RCC_RTC_CONFIG(PeriphClkInit->RTCClockSelection);
 800440a:	687b      	ldr	r3, [r7, #4]
 800440c:	685a      	ldr	r2, [r3, #4]
 800440e:	23c0      	movs	r3, #192	; 0xc0
 8004410:	029b      	lsls	r3, r3, #10
 8004412:	401a      	ands	r2, r3
 8004414:	23c0      	movs	r3, #192	; 0xc0
 8004416:	029b      	lsls	r3, r3, #10
 8004418:	429a      	cmp	r2, r3
 800441a:	d10c      	bne.n	8004436 <HAL_RCCEx_PeriphCLKConfig+0x1b2>
 800441c:	4b48      	ldr	r3, [pc, #288]	; (8004540 <HAL_RCCEx_PeriphCLKConfig+0x2bc>)
 800441e:	681b      	ldr	r3, [r3, #0]
 8004420:	4a4c      	ldr	r2, [pc, #304]	; (8004554 <HAL_RCCEx_PeriphCLKConfig+0x2d0>)
 8004422:	4013      	ands	r3, r2
 8004424:	0019      	movs	r1, r3
 8004426:	687b      	ldr	r3, [r7, #4]
 8004428:	685a      	ldr	r2, [r3, #4]
 800442a:	23c0      	movs	r3, #192	; 0xc0
 800442c:	039b      	lsls	r3, r3, #14
 800442e:	401a      	ands	r2, r3
 8004430:	4b43      	ldr	r3, [pc, #268]	; (8004540 <HAL_RCCEx_PeriphCLKConfig+0x2bc>)
 8004432:	430a      	orrs	r2, r1
 8004434:	601a      	str	r2, [r3, #0]
 8004436:	4b42      	ldr	r3, [pc, #264]	; (8004540 <HAL_RCCEx_PeriphCLKConfig+0x2bc>)
 8004438:	6d19      	ldr	r1, [r3, #80]	; 0x50
 800443a:	687b      	ldr	r3, [r7, #4]
 800443c:	685a      	ldr	r2, [r3, #4]
 800443e:	23c0      	movs	r3, #192	; 0xc0
 8004440:	029b      	lsls	r3, r3, #10
 8004442:	401a      	ands	r2, r3
 8004444:	4b3e      	ldr	r3, [pc, #248]	; (8004540 <HAL_RCCEx_PeriphCLKConfig+0x2bc>)
 8004446:	430a      	orrs	r2, r1
 8004448:	651a      	str	r2, [r3, #80]	; 0x50

    /* Require to disable power clock if necessary */
    if(pwrclkchanged == SET)
 800444a:	2317      	movs	r3, #23
 800444c:	18fb      	adds	r3, r7, r3
 800444e:	781b      	ldrb	r3, [r3, #0]
 8004450:	2b01      	cmp	r3, #1
 8004452:	d105      	bne.n	8004460 <HAL_RCCEx_PeriphCLKConfig+0x1dc>
    {
      __HAL_RCC_PWR_CLK_DISABLE();
 8004454:	4b3a      	ldr	r3, [pc, #232]	; (8004540 <HAL_RCCEx_PeriphCLKConfig+0x2bc>)
 8004456:	6b9a      	ldr	r2, [r3, #56]	; 0x38
 8004458:	4b39      	ldr	r3, [pc, #228]	; (8004540 <HAL_RCCEx_PeriphCLKConfig+0x2bc>)
 800445a:	493f      	ldr	r1, [pc, #252]	; (8004558 <HAL_RCCEx_PeriphCLKConfig+0x2d4>)
 800445c:	400a      	ands	r2, r1
 800445e:	639a      	str	r2, [r3, #56]	; 0x38
    }
  }

#if defined (RCC_CCIPR_USART1SEL)
  /*------------------------------- USART1 Configuration ------------------------*/
  if(((PeriphClkInit->PeriphClockSelection) & RCC_PERIPHCLK_USART1) == RCC_PERIPHCLK_USART1)
 8004460:	687b      	ldr	r3, [r7, #4]
 8004462:	681b      	ldr	r3, [r3, #0]
 8004464:	2201      	movs	r2, #1
 8004466:	4013      	ands	r3, r2
 8004468:	d009      	beq.n	800447e <HAL_RCCEx_PeriphCLKConfig+0x1fa>
  {
    /* Check the parameters */
    assert_param(IS_RCC_USART1CLKSOURCE(PeriphClkInit->Usart1ClockSelection));

    /* Configure the USART1 clock source */
    __HAL_RCC_USART1_CONFIG(PeriphClkInit->Usart1ClockSelection);
 800446a:	4b35      	ldr	r3, [pc, #212]	; (8004540 <HAL_RCCEx_PeriphCLKConfig+0x2bc>)
 800446c:	6cdb      	ldr	r3, [r3, #76]	; 0x4c
 800446e:	2203      	movs	r2, #3
 8004470:	4393      	bics	r3, r2
 8004472:	0019      	movs	r1, r3
 8004474:	687b      	ldr	r3, [r7, #4]
 8004476:	68da      	ldr	r2, [r3, #12]
 8004478:	4b31      	ldr	r3, [pc, #196]	; (8004540 <HAL_RCCEx_PeriphCLKConfig+0x2bc>)
 800447a:	430a      	orrs	r2, r1
 800447c:	64da      	str	r2, [r3, #76]	; 0x4c
  }
#endif /* RCC_CCIPR_USART1SEL */

  /*----------------------------- USART2 Configuration --------------------------*/
  if(((PeriphClkInit->PeriphClockSelection) & RCC_PERIPHCLK_USART2) == RCC_PERIPHCLK_USART2)
 800447e:	687b      	ldr	r3, [r7, #4]
 8004480:	681b      	ldr	r3, [r3, #0]
 8004482:	2202      	movs	r2, #2
 8004484:	4013      	ands	r3, r2
 8004486:	d009      	beq.n	800449c <HAL_RCCEx_PeriphCLKConfig+0x218>
  {
    /* Check the parameters */
    assert_param(IS_RCC_USART2CLKSOURCE(PeriphClkInit->Usart2ClockSelection));

    /* Configure the USART2 clock source */
    __HAL_RCC_USART2_CONFIG(PeriphClkInit->Usart2ClockSelection);
 8004488:	4b2d      	ldr	r3, [pc, #180]	; (8004540 <HAL_RCCEx_PeriphCLKConfig+0x2bc>)
 800448a:	6cdb      	ldr	r3, [r3, #76]	; 0x4c
 800448c:	220c      	movs	r2, #12
 800448e:	4393      	bics	r3, r2
 8004490:	0019      	movs	r1, r3
 8004492:	687b      	ldr	r3, [r7, #4]
 8004494:	691a      	ldr	r2, [r3, #16]
 8004496:	4b2a      	ldr	r3, [pc, #168]	; (8004540 <HAL_RCCEx_PeriphCLKConfig+0x2bc>)
 8004498:	430a      	orrs	r2, r1
 800449a:	64da      	str	r2, [r3, #76]	; 0x4c
  }

  /*------------------------------ LPUART1 Configuration ------------------------*/
  if(((PeriphClkInit->PeriphClockSelection) & RCC_PERIPHCLK_LPUART1) == RCC_PERIPHCLK_LPUART1)
 800449c:	687b      	ldr	r3, [r7, #4]
 800449e:	681b      	ldr	r3, [r3, #0]
 80044a0:	2204      	movs	r2, #4
 80044a2:	4013      	ands	r3, r2
 80044a4:	d009      	beq.n	80044ba <HAL_RCCEx_PeriphCLKConfig+0x236>
  {
    /* Check the parameters */
    assert_param(IS_RCC_LPUART1CLKSOURCE(PeriphClkInit->Lpuart1ClockSelection));

    /* Configure the LPUAR1 clock source */
    __HAL_RCC_LPUART1_CONFIG(PeriphClkInit->Lpuart1ClockSelection);
 80044a6:	4b26      	ldr	r3, [pc, #152]	; (8004540 <HAL_RCCEx_PeriphCLKConfig+0x2bc>)
 80044a8:	6cdb      	ldr	r3, [r3, #76]	; 0x4c
 80044aa:	4a2c      	ldr	r2, [pc, #176]	; (800455c <HAL_RCCEx_PeriphCLKConfig+0x2d8>)
 80044ac:	4013      	ands	r3, r2
 80044ae:	0019      	movs	r1, r3
 80044b0:	687b      	ldr	r3, [r7, #4]
 80044b2:	695a      	ldr	r2, [r3, #20]
 80044b4:	4b22      	ldr	r3, [pc, #136]	; (8004540 <HAL_RCCEx_PeriphCLKConfig+0x2bc>)
 80044b6:	430a      	orrs	r2, r1
 80044b8:	64da      	str	r2, [r3, #76]	; 0x4c
  }

  /*------------------------------ I2C1 Configuration ------------------------*/
  if(((PeriphClkInit->PeriphClockSelection) & RCC_PERIPHCLK_I2C1) == RCC_PERIPHCLK_I2C1)
 80044ba:	687b      	ldr	r3, [r7, #4]
 80044bc:	681b      	ldr	r3, [r3, #0]
 80044be:	2208      	movs	r2, #8
 80044c0:	4013      	ands	r3, r2
 80044c2:	d009      	beq.n	80044d8 <HAL_RCCEx_PeriphCLKConfig+0x254>
  {
    /* Check the parameters */
    assert_param(IS_RCC_I2C1CLKSOURCE(PeriphClkInit->I2c1ClockSelection));

    /* Configure the I2C1 clock source */
    __HAL_RCC_I2C1_CONFIG(PeriphClkInit->I2c1ClockSelection);
 80044c4:	4b1e      	ldr	r3, [pc, #120]	; (8004540 <HAL_RCCEx_PeriphCLKConfig+0x2bc>)
 80044c6:	6cdb      	ldr	r3, [r3, #76]	; 0x4c
 80044c8:	4a25      	ldr	r2, [pc, #148]	; (8004560 <HAL_RCCEx_PeriphCLKConfig+0x2dc>)
 80044ca:	4013      	ands	r3, r2
 80044cc:	0019      	movs	r1, r3
 80044ce:	687b      	ldr	r3, [r7, #4]
 80044d0:	699a      	ldr	r2, [r3, #24]
 80044d2:	4b1b      	ldr	r3, [pc, #108]	; (8004540 <HAL_RCCEx_PeriphCLKConfig+0x2bc>)
 80044d4:	430a      	orrs	r2, r1
 80044d6:	64da      	str	r2, [r3, #76]	; 0x4c
  }

#if defined (RCC_CCIPR_I2C3SEL)
    /*------------------------------ I2C3 Configuration ------------------------*/
  if(((PeriphClkInit->PeriphClockSelection) & RCC_PERIPHCLK_I2C3) == RCC_PERIPHCLK_I2C3)
 80044d8:	687b      	ldr	r3, [r7, #4]
 80044da:	681a      	ldr	r2, [r3, #0]
 80044dc:	2380      	movs	r3, #128	; 0x80
 80044de:	005b      	lsls	r3, r3, #1
 80044e0:	4013      	ands	r3, r2
 80044e2:	d009      	beq.n	80044f8 <HAL_RCCEx_PeriphCLKConfig+0x274>
  {
    /* Check the parameters */
    assert_param(IS_RCC_I2C3CLKSOURCE(PeriphClkInit->I2c3ClockSelection));

    /* Configure the I2C3 clock source */
    __HAL_RCC_I2C3_CONFIG(PeriphClkInit->I2c3ClockSelection);
 80044e4:	4b16      	ldr	r3, [pc, #88]	; (8004540 <HAL_RCCEx_PeriphCLKConfig+0x2bc>)
 80044e6:	6cdb      	ldr	r3, [r3, #76]	; 0x4c
 80044e8:	4a17      	ldr	r2, [pc, #92]	; (8004548 <HAL_RCCEx_PeriphCLKConfig+0x2c4>)
 80044ea:	4013      	ands	r3, r2
 80044ec:	0019      	movs	r1, r3
 80044ee:	687b      	ldr	r3, [r7, #4]
 80044f0:	69da      	ldr	r2, [r3, #28]
 80044f2:	4b13      	ldr	r3, [pc, #76]	; (8004540 <HAL_RCCEx_PeriphCLKConfig+0x2bc>)
 80044f4:	430a      	orrs	r2, r1
 80044f6:	64da      	str	r2, [r3, #76]	; 0x4c
  }
#endif /* RCC_CCIPR_I2C3SEL */

#if defined(USB)
 /*---------------------------- USB and RNG configuration --------------------*/
  if(((PeriphClkInit->PeriphClockSelection) & RCC_PERIPHCLK_USB) == (RCC_PERIPHCLK_USB))
 80044f8:	687b      	ldr	r3, [r7, #4]
 80044fa:	681b      	ldr	r3, [r3, #0]
 80044fc:	2240      	movs	r2, #64	; 0x40
 80044fe:	4013      	ands	r3, r2
 8004500:	d009      	beq.n	8004516 <HAL_RCCEx_PeriphCLKConfig+0x292>
  {
    assert_param(IS_RCC_USBCLKSOURCE(PeriphClkInit->UsbClockSelection));
    __HAL_RCC_USB_CONFIG(PeriphClkInit->UsbClockSelection);
 8004502:	4b0f      	ldr	r3, [pc, #60]	; (8004540 <HAL_RCCEx_PeriphCLKConfig+0x2bc>)
 8004504:	6cdb      	ldr	r3, [r3, #76]	; 0x4c
 8004506:	4a17      	ldr	r2, [pc, #92]	; (8004564 <HAL_RCCEx_PeriphCLKConfig+0x2e0>)
 8004508:	4013      	ands	r3, r2
 800450a:	0019      	movs	r1, r3
 800450c:	687b      	ldr	r3, [r7, #4]
 800450e:	6a5a      	ldr	r2, [r3, #36]	; 0x24
 8004510:	4b0b      	ldr	r3, [pc, #44]	; (8004540 <HAL_RCCEx_PeriphCLKConfig+0x2bc>)
 8004512:	430a      	orrs	r2, r1
 8004514:	64da      	str	r2, [r3, #76]	; 0x4c
  }
#endif /* USB */

  /*---------------------------- LPTIM1 configuration ------------------------*/
  if(((PeriphClkInit->PeriphClockSelection) & RCC_PERIPHCLK_LPTIM1) == (RCC_PERIPHCLK_LPTIM1))
 8004516:	687b      	ldr	r3, [r7, #4]
 8004518:	681b      	ldr	r3, [r3, #0]
 800451a:	2280      	movs	r2, #128	; 0x80
 800451c:	4013      	ands	r3, r2
 800451e:	d009      	beq.n	8004534 <HAL_RCCEx_PeriphCLKConfig+0x2b0>
  {
    assert_param(IS_RCC_LPTIMCLK(PeriphClkInit->LptimClockSelection));
    __HAL_RCC_LPTIM1_CONFIG(PeriphClkInit->LptimClockSelection);
 8004520:	4b07      	ldr	r3, [pc, #28]	; (8004540 <HAL_RCCEx_PeriphCLKConfig+0x2bc>)
 8004522:	6cdb      	ldr	r3, [r3, #76]	; 0x4c
 8004524:	4a10      	ldr	r2, [pc, #64]	; (8004568 <HAL_RCCEx_PeriphCLKConfig+0x2e4>)
 8004526:	4013      	ands	r3, r2
 8004528:	0019      	movs	r1, r3
 800452a:	687b      	ldr	r3, [r7, #4]
 800452c:	6a1a      	ldr	r2, [r3, #32]
 800452e:	4b04      	ldr	r3, [pc, #16]	; (8004540 <HAL_RCCEx_PeriphCLKConfig+0x2bc>)
 8004530:	430a      	orrs	r2, r1
 8004532:	64da      	str	r2, [r3, #76]	; 0x4c
  }

  return HAL_OK;
 8004534:	2300      	movs	r3, #0
}
 8004536:	0018      	movs	r0, r3
 8004538:	46bd      	mov	sp, r7
 800453a:	b006      	add	sp, #24
 800453c:	bd80      	pop	{r7, pc}
 800453e:	46c0      	nop			; (mov r8, r8)
 8004540:	40021000 	.word	0x40021000
 8004544:	40007000 	.word	0x40007000
 8004548:	fffcffff 	.word	0xfffcffff
 800454c:	fff7ffff 	.word	0xfff7ffff
 8004550:	00001388 	.word	0x00001388
 8004554:	ffcfffff 	.word	0xffcfffff
 8004558:	efffffff 	.word	0xefffffff
 800455c:	fffff3ff 	.word	0xfffff3ff
 8004560:	ffffcfff 	.word	0xffffcfff
 8004564:	fbffffff 	.word	0xfbffffff
 8004568:	fff3ffff 	.word	0xfff3ffff

0800456c <HAL_SPI_Init>:
  * @param  hspi pointer to a SPI_HandleTypeDef structure that contains
  *               the configuration information for SPI module.
  * @retval HAL status
  */
HAL_StatusTypeDef HAL_SPI_Init(SPI_HandleTypeDef *hspi)
{
 800456c:	b580      	push	{r7, lr}
 800456e:	b082      	sub	sp, #8
 8004570:	af00      	add	r7, sp, #0
 8004572:	6078      	str	r0, [r7, #4]
  /* Check the SPI handle allocation */
  if (hspi == NULL)
 8004574:	687b      	ldr	r3, [r7, #4]
 8004576:	2b00      	cmp	r3, #0
 8004578:	d101      	bne.n	800457e <HAL_SPI_Init+0x12>
  {
    return HAL_ERROR;
 800457a:	2301      	movs	r3, #1
 800457c:	e083      	b.n	8004686 <HAL_SPI_Init+0x11a>
  assert_param(IS_SPI_DATASIZE(hspi->Init.DataSize));
  assert_param(IS_SPI_NSS(hspi->Init.NSS));
  assert_param(IS_SPI_BAUDRATE_PRESCALER(hspi->Init.BaudRatePrescaler));
  assert_param(IS_SPI_FIRST_BIT(hspi->Init.FirstBit));
  assert_param(IS_SPI_TIMODE(hspi->Init.TIMode));
  if (hspi->Init.TIMode == SPI_TIMODE_DISABLE)
 800457e:	687b      	ldr	r3, [r7, #4]
 8004580:	6a5b      	ldr	r3, [r3, #36]	; 0x24
 8004582:	2b00      	cmp	r3, #0
 8004584:	d109      	bne.n	800459a <HAL_SPI_Init+0x2e>
  {
    assert_param(IS_SPI_CPOL(hspi->Init.CLKPolarity));
    assert_param(IS_SPI_CPHA(hspi->Init.CLKPhase));

    if (hspi->Init.Mode == SPI_MODE_MASTER)
 8004586:	687b      	ldr	r3, [r7, #4]
 8004588:	685a      	ldr	r2, [r3, #4]
 800458a:	2382      	movs	r3, #130	; 0x82
 800458c:	005b      	lsls	r3, r3, #1
 800458e:	429a      	cmp	r2, r3
 8004590:	d009      	beq.n	80045a6 <HAL_SPI_Init+0x3a>
      assert_param(IS_SPI_BAUDRATE_PRESCALER(hspi->Init.BaudRatePrescaler));
    }
    else
    {
      /* Baudrate prescaler not use in Motoraola Slave mode. force to default value */
      hspi->Init.BaudRatePrescaler = SPI_BAUDRATEPRESCALER_2;
 8004592:	687b      	ldr	r3, [r7, #4]
 8004594:	2200      	movs	r2, #0
 8004596:	61da      	str	r2, [r3, #28]
 8004598:	e005      	b.n	80045a6 <HAL_SPI_Init+0x3a>
  else
  {
    assert_param(IS_SPI_BAUDRATE_PRESCALER(hspi->Init.BaudRatePrescaler));

    /* Force polarity and phase to TI protocaol requirements */
    hspi->Init.CLKPolarity = SPI_POLARITY_LOW;
 800459a:	687b      	ldr	r3, [r7, #4]
 800459c:	2200      	movs	r2, #0
 800459e:	611a      	str	r2, [r3, #16]
    hspi->Init.CLKPhase    = SPI_PHASE_1EDGE;
 80045a0:	687b      	ldr	r3, [r7, #4]
 80045a2:	2200      	movs	r2, #0
 80045a4:	615a      	str	r2, [r3, #20]
  if (hspi->Init.CRCCalculation == SPI_CRCCALCULATION_ENABLE)
  {
    assert_param(IS_SPI_CRC_POLYNOMIAL(hspi->Init.CRCPolynomial));
  }
#else
  hspi->Init.CRCCalculation = SPI_CRCCALCULATION_DISABLE;
 80045a6:	687b      	ldr	r3, [r7, #4]
 80045a8:	2200      	movs	r2, #0
 80045aa:	629a      	str	r2, [r3, #40]	; 0x28
#endif /* USE_SPI_CRC */

  if (hspi->State == HAL_SPI_STATE_RESET)
 80045ac:	687b      	ldr	r3, [r7, #4]
 80045ae:	2251      	movs	r2, #81	; 0x51
 80045b0:	5c9b      	ldrb	r3, [r3, r2]
 80045b2:	b2db      	uxtb	r3, r3
 80045b4:	2b00      	cmp	r3, #0
 80045b6:	d107      	bne.n	80045c8 <HAL_SPI_Init+0x5c>
  {
    /* Allocate lock resource and initialize it */
    hspi->Lock = HAL_UNLOCKED;
 80045b8:	687b      	ldr	r3, [r7, #4]
 80045ba:	2250      	movs	r2, #80	; 0x50
 80045bc:	2100      	movs	r1, #0
 80045be:	5499      	strb	r1, [r3, r2]

    /* Init the low level hardware : GPIO, CLOCK, NVIC... */
    hspi->MspInitCallback(hspi);
#else
    /* Init the low level hardware : GPIO, CLOCK, NVIC... */
    HAL_SPI_MspInit(hspi);
 80045c0:	687b      	ldr	r3, [r7, #4]
 80045c2:	0018      	movs	r0, r3
 80045c4:	f7fe f8e4 	bl	8002790 <HAL_SPI_MspInit>
#endif /* USE_HAL_SPI_REGISTER_CALLBACKS */
  }

  hspi->State = HAL_SPI_STATE_BUSY;
 80045c8:	687b      	ldr	r3, [r7, #4]
 80045ca:	2251      	movs	r2, #81	; 0x51
 80045cc:	2102      	movs	r1, #2
 80045ce:	5499      	strb	r1, [r3, r2]

  /* Disable the selected SPI peripheral */
  __HAL_SPI_DISABLE(hspi);
 80045d0:	687b      	ldr	r3, [r7, #4]
 80045d2:	681b      	ldr	r3, [r3, #0]
 80045d4:	681a      	ldr	r2, [r3, #0]
 80045d6:	687b      	ldr	r3, [r7, #4]
 80045d8:	681b      	ldr	r3, [r3, #0]
 80045da:	2140      	movs	r1, #64	; 0x40
 80045dc:	438a      	bics	r2, r1
 80045de:	601a      	str	r2, [r3, #0]

  /*----------------------- SPIx CR1 & CR2 Configuration ---------------------*/
  /* Configure : SPI Mode, Communication Mode, Data size, Clock polarity and phase, NSS management,
  Communication speed, First bit and CRC calculation state */
  WRITE_REG(hspi->Instance->CR1, ((hspi->Init.Mode & (SPI_CR1_MSTR | SPI_CR1_SSI)) |
 80045e0:	687b      	ldr	r3, [r7, #4]
 80045e2:	685a      	ldr	r2, [r3, #4]
 80045e4:	2382      	movs	r3, #130	; 0x82
 80045e6:	005b      	lsls	r3, r3, #1
 80045e8:	401a      	ands	r2, r3
 80045ea:	687b      	ldr	r3, [r7, #4]
 80045ec:	6899      	ldr	r1, [r3, #8]
 80045ee:	2384      	movs	r3, #132	; 0x84
 80045f0:	021b      	lsls	r3, r3, #8
 80045f2:	400b      	ands	r3, r1
 80045f4:	431a      	orrs	r2, r3
 80045f6:	687b      	ldr	r3, [r7, #4]
 80045f8:	68d9      	ldr	r1, [r3, #12]
 80045fa:	2380      	movs	r3, #128	; 0x80
 80045fc:	011b      	lsls	r3, r3, #4
 80045fe:	400b      	ands	r3, r1
 8004600:	431a      	orrs	r2, r3
 8004602:	687b      	ldr	r3, [r7, #4]
 8004604:	691b      	ldr	r3, [r3, #16]
 8004606:	2102      	movs	r1, #2
 8004608:	400b      	ands	r3, r1
 800460a:	431a      	orrs	r2, r3
 800460c:	687b      	ldr	r3, [r7, #4]
 800460e:	695b      	ldr	r3, [r3, #20]
 8004610:	2101      	movs	r1, #1
 8004612:	400b      	ands	r3, r1
 8004614:	431a      	orrs	r2, r3
 8004616:	687b      	ldr	r3, [r7, #4]
 8004618:	6999      	ldr	r1, [r3, #24]
 800461a:	2380      	movs	r3, #128	; 0x80
 800461c:	009b      	lsls	r3, r3, #2
 800461e:	400b      	ands	r3, r1
 8004620:	431a      	orrs	r2, r3
 8004622:	687b      	ldr	r3, [r7, #4]
 8004624:	69db      	ldr	r3, [r3, #28]
 8004626:	2138      	movs	r1, #56	; 0x38
 8004628:	400b      	ands	r3, r1
 800462a:	431a      	orrs	r2, r3
 800462c:	687b      	ldr	r3, [r7, #4]
 800462e:	6a1b      	ldr	r3, [r3, #32]
 8004630:	2180      	movs	r1, #128	; 0x80
 8004632:	400b      	ands	r3, r1
 8004634:	431a      	orrs	r2, r3
 8004636:	0011      	movs	r1, r2
 8004638:	687b      	ldr	r3, [r7, #4]
 800463a:	6a9a      	ldr	r2, [r3, #40]	; 0x28
 800463c:	2380      	movs	r3, #128	; 0x80
 800463e:	019b      	lsls	r3, r3, #6
 8004640:	401a      	ands	r2, r3
 8004642:	687b      	ldr	r3, [r7, #4]
 8004644:	681b      	ldr	r3, [r3, #0]
 8004646:	430a      	orrs	r2, r1
 8004648:	601a      	str	r2, [r3, #0]
                                  (hspi->Init.BaudRatePrescaler & SPI_CR1_BR_Msk) |
                                  (hspi->Init.FirstBit  & SPI_CR1_LSBFIRST) |
                                  (hspi->Init.CRCCalculation & SPI_CR1_CRCEN)));

  /* Configure : NSS management, TI Mode */
  WRITE_REG(hspi->Instance->CR2, (((hspi->Init.NSS >> 16U) & SPI_CR2_SSOE) | (hspi->Init.TIMode & SPI_CR2_FRF)));
 800464a:	687b      	ldr	r3, [r7, #4]
 800464c:	699b      	ldr	r3, [r3, #24]
 800464e:	0c1b      	lsrs	r3, r3, #16
 8004650:	2204      	movs	r2, #4
 8004652:	4013      	ands	r3, r2
 8004654:	0019      	movs	r1, r3
 8004656:	687b      	ldr	r3, [r7, #4]
 8004658:	6a5b      	ldr	r3, [r3, #36]	; 0x24
 800465a:	2210      	movs	r2, #16
 800465c:	401a      	ands	r2, r3
 800465e:	687b      	ldr	r3, [r7, #4]
 8004660:	681b      	ldr	r3, [r3, #0]
 8004662:	430a      	orrs	r2, r1
 8004664:	605a      	str	r2, [r3, #4]
  }
#endif /* USE_SPI_CRC */

#if defined(SPI_I2SCFGR_I2SMOD)
  /* Activate the SPI mode (Make sure that I2SMOD bit in I2SCFGR register is reset) */
  CLEAR_BIT(hspi->Instance->I2SCFGR, SPI_I2SCFGR_I2SMOD);
 8004666:	687b      	ldr	r3, [r7, #4]
 8004668:	681b      	ldr	r3, [r3, #0]
 800466a:	69da      	ldr	r2, [r3, #28]
 800466c:	687b      	ldr	r3, [r7, #4]
 800466e:	681b      	ldr	r3, [r3, #0]
 8004670:	4907      	ldr	r1, [pc, #28]	; (8004690 <HAL_SPI_Init+0x124>)
 8004672:	400a      	ands	r2, r1
 8004674:	61da      	str	r2, [r3, #28]
#endif /* SPI_I2SCFGR_I2SMOD */

  hspi->ErrorCode = HAL_SPI_ERROR_NONE;
 8004676:	687b      	ldr	r3, [r7, #4]
 8004678:	2200      	movs	r2, #0
 800467a:	655a      	str	r2, [r3, #84]	; 0x54
  hspi->State     = HAL_SPI_STATE_READY;
 800467c:	687b      	ldr	r3, [r7, #4]
 800467e:	2251      	movs	r2, #81	; 0x51
 8004680:	2101      	movs	r1, #1
 8004682:	5499      	strb	r1, [r3, r2]

  return HAL_OK;
 8004684:	2300      	movs	r3, #0
}
 8004686:	0018      	movs	r0, r3
 8004688:	46bd      	mov	sp, r7
 800468a:	b002      	add	sp, #8
 800468c:	bd80      	pop	{r7, pc}
 800468e:	46c0      	nop			; (mov r8, r8)
 8004690:	fffff7ff 	.word	0xfffff7ff

08004694 <HAL_SPI_Transmit>:
  * @param  Size amount of data to be sent
  * @param  Timeout Timeout duration
  * @retval HAL status
  */
HAL_StatusTypeDef HAL_SPI_Transmit(SPI_HandleTypeDef *hspi, uint8_t *pData, uint16_t Size, uint32_t Timeout)
{
 8004694:	b580      	push	{r7, lr}
 8004696:	b088      	sub	sp, #32
 8004698:	af00      	add	r7, sp, #0
 800469a:	60f8      	str	r0, [r7, #12]
 800469c:	60b9      	str	r1, [r7, #8]
 800469e:	603b      	str	r3, [r7, #0]
 80046a0:	1dbb      	adds	r3, r7, #6
 80046a2:	801a      	strh	r2, [r3, #0]
  uint32_t tickstart;
  HAL_StatusTypeDef errorcode = HAL_OK;
 80046a4:	231f      	movs	r3, #31
 80046a6:	18fb      	adds	r3, r7, r3
 80046a8:	2200      	movs	r2, #0
 80046aa:	701a      	strb	r2, [r3, #0]

  /* Check Direction parameter */
  assert_param(IS_SPI_DIRECTION_2LINES_OR_1LINE(hspi->Init.Direction));

  /* Process Locked */
  __HAL_LOCK(hspi);
 80046ac:	68fb      	ldr	r3, [r7, #12]
 80046ae:	2250      	movs	r2, #80	; 0x50
 80046b0:	5c9b      	ldrb	r3, [r3, r2]
 80046b2:	2b01      	cmp	r3, #1
 80046b4:	d101      	bne.n	80046ba <HAL_SPI_Transmit+0x26>
 80046b6:	2302      	movs	r3, #2
 80046b8:	e13e      	b.n	8004938 <HAL_SPI_Transmit+0x2a4>
 80046ba:	68fb      	ldr	r3, [r7, #12]
 80046bc:	2250      	movs	r2, #80	; 0x50
 80046be:	2101      	movs	r1, #1
 80046c0:	5499      	strb	r1, [r3, r2]

  /* Init tickstart for timeout management*/
  tickstart = HAL_GetTick();
 80046c2:	f7fe f9d1 	bl	8002a68 <HAL_GetTick>
 80046c6:	0003      	movs	r3, r0
 80046c8:	61bb      	str	r3, [r7, #24]
  initial_TxXferCount = Size;
 80046ca:	2316      	movs	r3, #22
 80046cc:	18fb      	adds	r3, r7, r3
 80046ce:	1dba      	adds	r2, r7, #6
 80046d0:	8812      	ldrh	r2, [r2, #0]
 80046d2:	801a      	strh	r2, [r3, #0]

  if (hspi->State != HAL_SPI_STATE_READY)
 80046d4:	68fb      	ldr	r3, [r7, #12]
 80046d6:	2251      	movs	r2, #81	; 0x51
 80046d8:	5c9b      	ldrb	r3, [r3, r2]
 80046da:	b2db      	uxtb	r3, r3
 80046dc:	2b01      	cmp	r3, #1
 80046de:	d004      	beq.n	80046ea <HAL_SPI_Transmit+0x56>
  {
    errorcode = HAL_BUSY;
 80046e0:	231f      	movs	r3, #31
 80046e2:	18fb      	adds	r3, r7, r3
 80046e4:	2202      	movs	r2, #2
 80046e6:	701a      	strb	r2, [r3, #0]
    goto error;
 80046e8:	e11b      	b.n	8004922 <HAL_SPI_Transmit+0x28e>
  }

  if ((pData == NULL) || (Size == 0U))
 80046ea:	68bb      	ldr	r3, [r7, #8]
 80046ec:	2b00      	cmp	r3, #0
 80046ee:	d003      	beq.n	80046f8 <HAL_SPI_Transmit+0x64>
 80046f0:	1dbb      	adds	r3, r7, #6
 80046f2:	881b      	ldrh	r3, [r3, #0]
 80046f4:	2b00      	cmp	r3, #0
 80046f6:	d104      	bne.n	8004702 <HAL_SPI_Transmit+0x6e>
  {
    errorcode = HAL_ERROR;
 80046f8:	231f      	movs	r3, #31
 80046fa:	18fb      	adds	r3, r7, r3
 80046fc:	2201      	movs	r2, #1
 80046fe:	701a      	strb	r2, [r3, #0]
    goto error;
 8004700:	e10f      	b.n	8004922 <HAL_SPI_Transmit+0x28e>
  }

  /* Set the transaction information */
  hspi->State       = HAL_SPI_STATE_BUSY_TX;
 8004702:	68fb      	ldr	r3, [r7, #12]
 8004704:	2251      	movs	r2, #81	; 0x51
 8004706:	2103      	movs	r1, #3
 8004708:	5499      	strb	r1, [r3, r2]
  hspi->ErrorCode   = HAL_SPI_ERROR_NONE;
 800470a:	68fb      	ldr	r3, [r7, #12]
 800470c:	2200      	movs	r2, #0
 800470e:	655a      	str	r2, [r3, #84]	; 0x54
  hspi->pTxBuffPtr  = (uint8_t *)pData;
 8004710:	68fb      	ldr	r3, [r7, #12]
 8004712:	68ba      	ldr	r2, [r7, #8]
 8004714:	631a      	str	r2, [r3, #48]	; 0x30
  hspi->TxXferSize  = Size;
 8004716:	68fb      	ldr	r3, [r7, #12]
 8004718:	1dba      	adds	r2, r7, #6
 800471a:	8812      	ldrh	r2, [r2, #0]
 800471c:	869a      	strh	r2, [r3, #52]	; 0x34
  hspi->TxXferCount = Size;
 800471e:	68fb      	ldr	r3, [r7, #12]
 8004720:	1dba      	adds	r2, r7, #6
 8004722:	8812      	ldrh	r2, [r2, #0]
 8004724:	86da      	strh	r2, [r3, #54]	; 0x36

  /*Init field not used in handle to zero */
  hspi->pRxBuffPtr  = (uint8_t *)NULL;
 8004726:	68fb      	ldr	r3, [r7, #12]
 8004728:	2200      	movs	r2, #0
 800472a:	639a      	str	r2, [r3, #56]	; 0x38
  hspi->RxXferSize  = 0U;
 800472c:	68fb      	ldr	r3, [r7, #12]
 800472e:	2200      	movs	r2, #0
 8004730:	879a      	strh	r2, [r3, #60]	; 0x3c
  hspi->RxXferCount = 0U;
 8004732:	68fb      	ldr	r3, [r7, #12]
 8004734:	2200      	movs	r2, #0
 8004736:	87da      	strh	r2, [r3, #62]	; 0x3e
  hspi->TxISR       = NULL;
 8004738:	68fb      	ldr	r3, [r7, #12]
 800473a:	2200      	movs	r2, #0
 800473c:	645a      	str	r2, [r3, #68]	; 0x44
  hspi->RxISR       = NULL;
 800473e:	68fb      	ldr	r3, [r7, #12]
 8004740:	2200      	movs	r2, #0
 8004742:	641a      	str	r2, [r3, #64]	; 0x40

  /* Configure communication direction : 1Line */
  if (hspi->Init.Direction == SPI_DIRECTION_1LINE)
 8004744:	68fb      	ldr	r3, [r7, #12]
 8004746:	689a      	ldr	r2, [r3, #8]
 8004748:	2380      	movs	r3, #128	; 0x80
 800474a:	021b      	lsls	r3, r3, #8
 800474c:	429a      	cmp	r2, r3
 800474e:	d110      	bne.n	8004772 <HAL_SPI_Transmit+0xde>
  {
    /* Disable SPI Peripheral before set 1Line direction (BIDIOE bit) */
    __HAL_SPI_DISABLE(hspi);
 8004750:	68fb      	ldr	r3, [r7, #12]
 8004752:	681b      	ldr	r3, [r3, #0]
 8004754:	681a      	ldr	r2, [r3, #0]
 8004756:	68fb      	ldr	r3, [r7, #12]
 8004758:	681b      	ldr	r3, [r3, #0]
 800475a:	2140      	movs	r1, #64	; 0x40
 800475c:	438a      	bics	r2, r1
 800475e:	601a      	str	r2, [r3, #0]
    SPI_1LINE_TX(hspi);
 8004760:	68fb      	ldr	r3, [r7, #12]
 8004762:	681b      	ldr	r3, [r3, #0]
 8004764:	681a      	ldr	r2, [r3, #0]
 8004766:	68fb      	ldr	r3, [r7, #12]
 8004768:	681b      	ldr	r3, [r3, #0]
 800476a:	2180      	movs	r1, #128	; 0x80
 800476c:	01c9      	lsls	r1, r1, #7
 800476e:	430a      	orrs	r2, r1
 8004770:	601a      	str	r2, [r3, #0]
    SPI_RESET_CRC(hspi);
  }
#endif /* USE_SPI_CRC */

  /* Check if the SPI is already enabled */
  if ((hspi->Instance->CR1 & SPI_CR1_SPE) != SPI_CR1_SPE)
 8004772:	68fb      	ldr	r3, [r7, #12]
 8004774:	681b      	ldr	r3, [r3, #0]
 8004776:	681b      	ldr	r3, [r3, #0]
 8004778:	2240      	movs	r2, #64	; 0x40
 800477a:	4013      	ands	r3, r2
 800477c:	2b40      	cmp	r3, #64	; 0x40
 800477e:	d007      	beq.n	8004790 <HAL_SPI_Transmit+0xfc>
  {
    /* Enable SPI peripheral */
    __HAL_SPI_ENABLE(hspi);
 8004780:	68fb      	ldr	r3, [r7, #12]
 8004782:	681b      	ldr	r3, [r3, #0]
 8004784:	681a      	ldr	r2, [r3, #0]
 8004786:	68fb      	ldr	r3, [r7, #12]
 8004788:	681b      	ldr	r3, [r3, #0]
 800478a:	2140      	movs	r1, #64	; 0x40
 800478c:	430a      	orrs	r2, r1
 800478e:	601a      	str	r2, [r3, #0]
  }

  /* Transmit data in 16 Bit mode */
  if (hspi->Init.DataSize == SPI_DATASIZE_16BIT)
 8004790:	68fb      	ldr	r3, [r7, #12]
 8004792:	68da      	ldr	r2, [r3, #12]
 8004794:	2380      	movs	r3, #128	; 0x80
 8004796:	011b      	lsls	r3, r3, #4
 8004798:	429a      	cmp	r2, r3
 800479a:	d14e      	bne.n	800483a <HAL_SPI_Transmit+0x1a6>
  {
    if ((hspi->Init.Mode == SPI_MODE_SLAVE) || (initial_TxXferCount == 0x01U))
 800479c:	68fb      	ldr	r3, [r7, #12]
 800479e:	685b      	ldr	r3, [r3, #4]
 80047a0:	2b00      	cmp	r3, #0
 80047a2:	d004      	beq.n	80047ae <HAL_SPI_Transmit+0x11a>
 80047a4:	2316      	movs	r3, #22
 80047a6:	18fb      	adds	r3, r7, r3
 80047a8:	881b      	ldrh	r3, [r3, #0]
 80047aa:	2b01      	cmp	r3, #1
 80047ac:	d13f      	bne.n	800482e <HAL_SPI_Transmit+0x19a>
    {
      hspi->Instance->DR = *((uint16_t *)hspi->pTxBuffPtr);
 80047ae:	68fb      	ldr	r3, [r7, #12]
 80047b0:	6b1b      	ldr	r3, [r3, #48]	; 0x30
 80047b2:	881a      	ldrh	r2, [r3, #0]
 80047b4:	68fb      	ldr	r3, [r7, #12]
 80047b6:	681b      	ldr	r3, [r3, #0]
 80047b8:	60da      	str	r2, [r3, #12]
      hspi->pTxBuffPtr += sizeof(uint16_t);
 80047ba:	68fb      	ldr	r3, [r7, #12]
 80047bc:	6b1b      	ldr	r3, [r3, #48]	; 0x30
 80047be:	1c9a      	adds	r2, r3, #2
 80047c0:	68fb      	ldr	r3, [r7, #12]
 80047c2:	631a      	str	r2, [r3, #48]	; 0x30
      hspi->TxXferCount--;
 80047c4:	68fb      	ldr	r3, [r7, #12]
 80047c6:	8edb      	ldrh	r3, [r3, #54]	; 0x36
 80047c8:	b29b      	uxth	r3, r3
 80047ca:	3b01      	subs	r3, #1
 80047cc:	b29a      	uxth	r2, r3
 80047ce:	68fb      	ldr	r3, [r7, #12]
 80047d0:	86da      	strh	r2, [r3, #54]	; 0x36
    }
    /* Transmit data in 16 Bit mode */
    while (hspi->TxXferCount > 0U)
 80047d2:	e02c      	b.n	800482e <HAL_SPI_Transmit+0x19a>
    {
      /* Wait until TXE flag is set to send data */
      if (__HAL_SPI_GET_FLAG(hspi, SPI_FLAG_TXE))
 80047d4:	68fb      	ldr	r3, [r7, #12]
 80047d6:	681b      	ldr	r3, [r3, #0]
 80047d8:	689b      	ldr	r3, [r3, #8]
 80047da:	2202      	movs	r2, #2
 80047dc:	4013      	ands	r3, r2
 80047de:	2b02      	cmp	r3, #2
 80047e0:	d112      	bne.n	8004808 <HAL_SPI_Transmit+0x174>
      {
        hspi->Instance->DR = *((uint16_t *)hspi->pTxBuffPtr);
 80047e2:	68fb      	ldr	r3, [r7, #12]
 80047e4:	6b1b      	ldr	r3, [r3, #48]	; 0x30
 80047e6:	881a      	ldrh	r2, [r3, #0]
 80047e8:	68fb      	ldr	r3, [r7, #12]
 80047ea:	681b      	ldr	r3, [r3, #0]
 80047ec:	60da      	str	r2, [r3, #12]
        hspi->pTxBuffPtr += sizeof(uint16_t);
 80047ee:	68fb      	ldr	r3, [r7, #12]
 80047f0:	6b1b      	ldr	r3, [r3, #48]	; 0x30
 80047f2:	1c9a      	adds	r2, r3, #2
 80047f4:	68fb      	ldr	r3, [r7, #12]
 80047f6:	631a      	str	r2, [r3, #48]	; 0x30
        hspi->TxXferCount--;
 80047f8:	68fb      	ldr	r3, [r7, #12]
 80047fa:	8edb      	ldrh	r3, [r3, #54]	; 0x36
 80047fc:	b29b      	uxth	r3, r3
 80047fe:	3b01      	subs	r3, #1
 8004800:	b29a      	uxth	r2, r3
 8004802:	68fb      	ldr	r3, [r7, #12]
 8004804:	86da      	strh	r2, [r3, #54]	; 0x36
 8004806:	e012      	b.n	800482e <HAL_SPI_Transmit+0x19a>
      }
      else
      {
        /* Timeout management */
        if ((((HAL_GetTick() - tickstart) >=  Timeout) && (Timeout != HAL_MAX_DELAY)) || (Timeout == 0U))
 8004808:	f7fe f92e 	bl	8002a68 <HAL_GetTick>
 800480c:	0002      	movs	r2, r0
 800480e:	69bb      	ldr	r3, [r7, #24]
 8004810:	1ad3      	subs	r3, r2, r3
 8004812:	683a      	ldr	r2, [r7, #0]
 8004814:	429a      	cmp	r2, r3
 8004816:	d802      	bhi.n	800481e <HAL_SPI_Transmit+0x18a>
 8004818:	683b      	ldr	r3, [r7, #0]
 800481a:	3301      	adds	r3, #1
 800481c:	d102      	bne.n	8004824 <HAL_SPI_Transmit+0x190>
 800481e:	683b      	ldr	r3, [r7, #0]
 8004820:	2b00      	cmp	r3, #0
 8004822:	d104      	bne.n	800482e <HAL_SPI_Transmit+0x19a>
        {
          errorcode = HAL_TIMEOUT;
 8004824:	231f      	movs	r3, #31
 8004826:	18fb      	adds	r3, r7, r3
 8004828:	2203      	movs	r2, #3
 800482a:	701a      	strb	r2, [r3, #0]
          goto error;
 800482c:	e079      	b.n	8004922 <HAL_SPI_Transmit+0x28e>
    while (hspi->TxXferCount > 0U)
 800482e:	68fb      	ldr	r3, [r7, #12]
 8004830:	8edb      	ldrh	r3, [r3, #54]	; 0x36
 8004832:	b29b      	uxth	r3, r3
 8004834:	2b00      	cmp	r3, #0
 8004836:	d1cd      	bne.n	80047d4 <HAL_SPI_Transmit+0x140>
 8004838:	e04f      	b.n	80048da <HAL_SPI_Transmit+0x246>
    }
  }
  /* Transmit data in 8 Bit mode */
  else
  {
    if ((hspi->Init.Mode == SPI_MODE_SLAVE) || (initial_TxXferCount == 0x01U))
 800483a:	68fb      	ldr	r3, [r7, #12]
 800483c:	685b      	ldr	r3, [r3, #4]
 800483e:	2b00      	cmp	r3, #0
 8004840:	d004      	beq.n	800484c <HAL_SPI_Transmit+0x1b8>
 8004842:	2316      	movs	r3, #22
 8004844:	18fb      	adds	r3, r7, r3
 8004846:	881b      	ldrh	r3, [r3, #0]
 8004848:	2b01      	cmp	r3, #1
 800484a:	d141      	bne.n	80048d0 <HAL_SPI_Transmit+0x23c>
    {
      *((__IO uint8_t *)&hspi->Instance->DR) = (*hspi->pTxBuffPtr);
 800484c:	68fb      	ldr	r3, [r7, #12]
 800484e:	6b1a      	ldr	r2, [r3, #48]	; 0x30
 8004850:	68fb      	ldr	r3, [r7, #12]
 8004852:	681b      	ldr	r3, [r3, #0]
 8004854:	330c      	adds	r3, #12
 8004856:	7812      	ldrb	r2, [r2, #0]
 8004858:	701a      	strb	r2, [r3, #0]
      hspi->pTxBuffPtr += sizeof(uint8_t);
 800485a:	68fb      	ldr	r3, [r7, #12]
 800485c:	6b1b      	ldr	r3, [r3, #48]	; 0x30
 800485e:	1c5a      	adds	r2, r3, #1
 8004860:	68fb      	ldr	r3, [r7, #12]
 8004862:	631a      	str	r2, [r3, #48]	; 0x30
      hspi->TxXferCount--;
 8004864:	68fb      	ldr	r3, [r7, #12]
 8004866:	8edb      	ldrh	r3, [r3, #54]	; 0x36
 8004868:	b29b      	uxth	r3, r3
 800486a:	3b01      	subs	r3, #1
 800486c:	b29a      	uxth	r2, r3
 800486e:	68fb      	ldr	r3, [r7, #12]
 8004870:	86da      	strh	r2, [r3, #54]	; 0x36
    }
    while (hspi->TxXferCount > 0U)
 8004872:	e02d      	b.n	80048d0 <HAL_SPI_Transmit+0x23c>
    {
      /* Wait until TXE flag is set to send data */
      if (__HAL_SPI_GET_FLAG(hspi, SPI_FLAG_TXE))
 8004874:	68fb      	ldr	r3, [r7, #12]
 8004876:	681b      	ldr	r3, [r3, #0]
 8004878:	689b      	ldr	r3, [r3, #8]
 800487a:	2202      	movs	r2, #2
 800487c:	4013      	ands	r3, r2
 800487e:	2b02      	cmp	r3, #2
 8004880:	d113      	bne.n	80048aa <HAL_SPI_Transmit+0x216>
      {
        *((__IO uint8_t *)&hspi->Instance->DR) = (*hspi->pTxBuffPtr);
 8004882:	68fb      	ldr	r3, [r7, #12]
 8004884:	6b1a      	ldr	r2, [r3, #48]	; 0x30
 8004886:	68fb      	ldr	r3, [r7, #12]
 8004888:	681b      	ldr	r3, [r3, #0]
 800488a:	330c      	adds	r3, #12
 800488c:	7812      	ldrb	r2, [r2, #0]
 800488e:	701a      	strb	r2, [r3, #0]
        hspi->pTxBuffPtr += sizeof(uint8_t);
 8004890:	68fb      	ldr	r3, [r7, #12]
 8004892:	6b1b      	ldr	r3, [r3, #48]	; 0x30
 8004894:	1c5a      	adds	r2, r3, #1
 8004896:	68fb      	ldr	r3, [r7, #12]
 8004898:	631a      	str	r2, [r3, #48]	; 0x30
        hspi->TxXferCount--;
 800489a:	68fb      	ldr	r3, [r7, #12]
 800489c:	8edb      	ldrh	r3, [r3, #54]	; 0x36
 800489e:	b29b      	uxth	r3, r3
 80048a0:	3b01      	subs	r3, #1
 80048a2:	b29a      	uxth	r2, r3
 80048a4:	68fb      	ldr	r3, [r7, #12]
 80048a6:	86da      	strh	r2, [r3, #54]	; 0x36
 80048a8:	e012      	b.n	80048d0 <HAL_SPI_Transmit+0x23c>
      }
      else
      {
        /* Timeout management */
        if ((((HAL_GetTick() - tickstart) >=  Timeout) && (Timeout != HAL_MAX_DELAY)) || (Timeout == 0U))
 80048aa:	f7fe f8dd 	bl	8002a68 <HAL_GetTick>
 80048ae:	0002      	movs	r2, r0
 80048b0:	69bb      	ldr	r3, [r7, #24]
 80048b2:	1ad3      	subs	r3, r2, r3
 80048b4:	683a      	ldr	r2, [r7, #0]
 80048b6:	429a      	cmp	r2, r3
 80048b8:	d802      	bhi.n	80048c0 <HAL_SPI_Transmit+0x22c>
 80048ba:	683b      	ldr	r3, [r7, #0]
 80048bc:	3301      	adds	r3, #1
 80048be:	d102      	bne.n	80048c6 <HAL_SPI_Transmit+0x232>
 80048c0:	683b      	ldr	r3, [r7, #0]
 80048c2:	2b00      	cmp	r3, #0
 80048c4:	d104      	bne.n	80048d0 <HAL_SPI_Transmit+0x23c>
        {
          errorcode = HAL_TIMEOUT;
 80048c6:	231f      	movs	r3, #31
 80048c8:	18fb      	adds	r3, r7, r3
 80048ca:	2203      	movs	r2, #3
 80048cc:	701a      	strb	r2, [r3, #0]
          goto error;
 80048ce:	e028      	b.n	8004922 <HAL_SPI_Transmit+0x28e>
    while (hspi->TxXferCount > 0U)
 80048d0:	68fb      	ldr	r3, [r7, #12]
 80048d2:	8edb      	ldrh	r3, [r3, #54]	; 0x36
 80048d4:	b29b      	uxth	r3, r3
 80048d6:	2b00      	cmp	r3, #0
 80048d8:	d1cc      	bne.n	8004874 <HAL_SPI_Transmit+0x1e0>
    SET_BIT(hspi->Instance->CR1, SPI_CR1_CRCNEXT);
  }
#endif /* USE_SPI_CRC */

  /* Check the end of the transaction */
  if (SPI_EndRxTxTransaction(hspi, Timeout, tickstart) != HAL_OK)
 80048da:	69ba      	ldr	r2, [r7, #24]
 80048dc:	6839      	ldr	r1, [r7, #0]
 80048de:	68fb      	ldr	r3, [r7, #12]
 80048e0:	0018      	movs	r0, r3
 80048e2:	f000 f8bb 	bl	8004a5c <SPI_EndRxTxTransaction>
 80048e6:	1e03      	subs	r3, r0, #0
 80048e8:	d002      	beq.n	80048f0 <HAL_SPI_Transmit+0x25c>
  {
    hspi->ErrorCode = HAL_SPI_ERROR_FLAG;
 80048ea:	68fb      	ldr	r3, [r7, #12]
 80048ec:	2220      	movs	r2, #32
 80048ee:	655a      	str	r2, [r3, #84]	; 0x54
  }

  /* Clear overrun flag in 2 Lines communication mode because received is not read */
  if (hspi->Init.Direction == SPI_DIRECTION_2LINES)
 80048f0:	68fb      	ldr	r3, [r7, #12]
 80048f2:	689b      	ldr	r3, [r3, #8]
 80048f4:	2b00      	cmp	r3, #0
 80048f6:	d10a      	bne.n	800490e <HAL_SPI_Transmit+0x27a>
  {
    __HAL_SPI_CLEAR_OVRFLAG(hspi);
 80048f8:	2300      	movs	r3, #0
 80048fa:	613b      	str	r3, [r7, #16]
 80048fc:	68fb      	ldr	r3, [r7, #12]
 80048fe:	681b      	ldr	r3, [r3, #0]
 8004900:	68db      	ldr	r3, [r3, #12]
 8004902:	613b      	str	r3, [r7, #16]
 8004904:	68fb      	ldr	r3, [r7, #12]
 8004906:	681b      	ldr	r3, [r3, #0]
 8004908:	689b      	ldr	r3, [r3, #8]
 800490a:	613b      	str	r3, [r7, #16]
 800490c:	693b      	ldr	r3, [r7, #16]
  }

  if (hspi->ErrorCode != HAL_SPI_ERROR_NONE)
 800490e:	68fb      	ldr	r3, [r7, #12]
 8004910:	6d5b      	ldr	r3, [r3, #84]	; 0x54
 8004912:	2b00      	cmp	r3, #0
 8004914:	d004      	beq.n	8004920 <HAL_SPI_Transmit+0x28c>
  {
    errorcode = HAL_ERROR;
 8004916:	231f      	movs	r3, #31
 8004918:	18fb      	adds	r3, r7, r3
 800491a:	2201      	movs	r2, #1
 800491c:	701a      	strb	r2, [r3, #0]
 800491e:	e000      	b.n	8004922 <HAL_SPI_Transmit+0x28e>
  }

error:
 8004920:	46c0      	nop			; (mov r8, r8)
  hspi->State = HAL_SPI_STATE_READY;
 8004922:	68fb      	ldr	r3, [r7, #12]
 8004924:	2251      	movs	r2, #81	; 0x51
 8004926:	2101      	movs	r1, #1
 8004928:	5499      	strb	r1, [r3, r2]
  /* Process Unlocked */
  __HAL_UNLOCK(hspi);
 800492a:	68fb      	ldr	r3, [r7, #12]
 800492c:	2250      	movs	r2, #80	; 0x50
 800492e:	2100      	movs	r1, #0
 8004930:	5499      	strb	r1, [r3, r2]
  return errorcode;
 8004932:	231f      	movs	r3, #31
 8004934:	18fb      	adds	r3, r7, r3
 8004936:	781b      	ldrb	r3, [r3, #0]
}
 8004938:	0018      	movs	r0, r3
 800493a:	46bd      	mov	sp, r7
 800493c:	b008      	add	sp, #32
 800493e:	bd80      	pop	{r7, pc}

08004940 <SPI_WaitFlagStateUntilTimeout>:
  * @param  Tickstart tick start value
  * @retval HAL status
  */
static HAL_StatusTypeDef SPI_WaitFlagStateUntilTimeout(SPI_HandleTypeDef *hspi, uint32_t Flag, FlagStatus State,
                                                       uint32_t Timeout, uint32_t Tickstart)
{
 8004940:	b580      	push	{r7, lr}
 8004942:	b088      	sub	sp, #32
 8004944:	af00      	add	r7, sp, #0
 8004946:	60f8      	str	r0, [r7, #12]
 8004948:	60b9      	str	r1, [r7, #8]
 800494a:	603b      	str	r3, [r7, #0]
 800494c:	1dfb      	adds	r3, r7, #7
 800494e:	701a      	strb	r2, [r3, #0]
  __IO uint32_t count;
  uint32_t tmp_timeout;
  uint32_t tmp_tickstart;

  /* Adjust Timeout value  in case of end of transfer */
  tmp_timeout   = Timeout - (HAL_GetTick() - Tickstart);
 8004950:	f7fe f88a 	bl	8002a68 <HAL_GetTick>
 8004954:	0002      	movs	r2, r0
 8004956:	6abb      	ldr	r3, [r7, #40]	; 0x28
 8004958:	1a9b      	subs	r3, r3, r2
 800495a:	683a      	ldr	r2, [r7, #0]
 800495c:	18d3      	adds	r3, r2, r3
 800495e:	61fb      	str	r3, [r7, #28]
  tmp_tickstart = HAL_GetTick();
 8004960:	f7fe f882 	bl	8002a68 <HAL_GetTick>
 8004964:	0003      	movs	r3, r0
 8004966:	61bb      	str	r3, [r7, #24]

  /* Calculate Timeout based on a software loop to avoid blocking issue if Systick is disabled */
  count = tmp_timeout * ((SystemCoreClock * 32U) >> 20U);
 8004968:	4b3a      	ldr	r3, [pc, #232]	; (8004a54 <SPI_WaitFlagStateUntilTimeout+0x114>)
 800496a:	681b      	ldr	r3, [r3, #0]
 800496c:	015b      	lsls	r3, r3, #5
 800496e:	0d1b      	lsrs	r3, r3, #20
 8004970:	69fa      	ldr	r2, [r7, #28]
 8004972:	4353      	muls	r3, r2
 8004974:	617b      	str	r3, [r7, #20]

  while ((__HAL_SPI_GET_FLAG(hspi, Flag) ? SET : RESET) != State)
 8004976:	e058      	b.n	8004a2a <SPI_WaitFlagStateUntilTimeout+0xea>
  {
    if (Timeout != HAL_MAX_DELAY)
 8004978:	683b      	ldr	r3, [r7, #0]
 800497a:	3301      	adds	r3, #1
 800497c:	d055      	beq.n	8004a2a <SPI_WaitFlagStateUntilTimeout+0xea>
    {
      if (((HAL_GetTick() - tmp_tickstart) >= tmp_timeout) || (tmp_timeout == 0U))
 800497e:	f7fe f873 	bl	8002a68 <HAL_GetTick>
 8004982:	0002      	movs	r2, r0
 8004984:	69bb      	ldr	r3, [r7, #24]
 8004986:	1ad3      	subs	r3, r2, r3
 8004988:	69fa      	ldr	r2, [r7, #28]
 800498a:	429a      	cmp	r2, r3
 800498c:	d902      	bls.n	8004994 <SPI_WaitFlagStateUntilTimeout+0x54>
 800498e:	69fb      	ldr	r3, [r7, #28]
 8004990:	2b00      	cmp	r3, #0
 8004992:	d142      	bne.n	8004a1a <SPI_WaitFlagStateUntilTimeout+0xda>
        /* Disable the SPI and reset the CRC: the CRC value should be cleared
           on both master and slave sides in order to resynchronize the master
           and slave for their respective CRC calculation */

        /* Disable TXE, RXNE and ERR interrupts for the interrupt process */
        __HAL_SPI_DISABLE_IT(hspi, (SPI_IT_TXE | SPI_IT_RXNE | SPI_IT_ERR));
 8004994:	68fb      	ldr	r3, [r7, #12]
 8004996:	681b      	ldr	r3, [r3, #0]
 8004998:	685a      	ldr	r2, [r3, #4]
 800499a:	68fb      	ldr	r3, [r7, #12]
 800499c:	681b      	ldr	r3, [r3, #0]
 800499e:	21e0      	movs	r1, #224	; 0xe0
 80049a0:	438a      	bics	r2, r1
 80049a2:	605a      	str	r2, [r3, #4]

        if ((hspi->Init.Mode == SPI_MODE_MASTER) && ((hspi->Init.Direction == SPI_DIRECTION_1LINE)
 80049a4:	68fb      	ldr	r3, [r7, #12]
 80049a6:	685a      	ldr	r2, [r3, #4]
 80049a8:	2382      	movs	r3, #130	; 0x82
 80049aa:	005b      	lsls	r3, r3, #1
 80049ac:	429a      	cmp	r2, r3
 80049ae:	d113      	bne.n	80049d8 <SPI_WaitFlagStateUntilTimeout+0x98>
 80049b0:	68fb      	ldr	r3, [r7, #12]
 80049b2:	689a      	ldr	r2, [r3, #8]
 80049b4:	2380      	movs	r3, #128	; 0x80
 80049b6:	021b      	lsls	r3, r3, #8
 80049b8:	429a      	cmp	r2, r3
 80049ba:	d005      	beq.n	80049c8 <SPI_WaitFlagStateUntilTimeout+0x88>
                                                     || (hspi->Init.Direction == SPI_DIRECTION_2LINES_RXONLY)))
 80049bc:	68fb      	ldr	r3, [r7, #12]
 80049be:	689a      	ldr	r2, [r3, #8]
 80049c0:	2380      	movs	r3, #128	; 0x80
 80049c2:	00db      	lsls	r3, r3, #3
 80049c4:	429a      	cmp	r2, r3
 80049c6:	d107      	bne.n	80049d8 <SPI_WaitFlagStateUntilTimeout+0x98>
        {
          /* Disable SPI peripheral */
          __HAL_SPI_DISABLE(hspi);
 80049c8:	68fb      	ldr	r3, [r7, #12]
 80049ca:	681b      	ldr	r3, [r3, #0]
 80049cc:	681a      	ldr	r2, [r3, #0]
 80049ce:	68fb      	ldr	r3, [r7, #12]
 80049d0:	681b      	ldr	r3, [r3, #0]
 80049d2:	2140      	movs	r1, #64	; 0x40
 80049d4:	438a      	bics	r2, r1
 80049d6:	601a      	str	r2, [r3, #0]
        }

        /* Reset CRC Calculation */
        if (hspi->Init.CRCCalculation == SPI_CRCCALCULATION_ENABLE)
 80049d8:	68fb      	ldr	r3, [r7, #12]
 80049da:	6a9a      	ldr	r2, [r3, #40]	; 0x28
 80049dc:	2380      	movs	r3, #128	; 0x80
 80049de:	019b      	lsls	r3, r3, #6
 80049e0:	429a      	cmp	r2, r3
 80049e2:	d110      	bne.n	8004a06 <SPI_WaitFlagStateUntilTimeout+0xc6>
        {
          SPI_RESET_CRC(hspi);
 80049e4:	68fb      	ldr	r3, [r7, #12]
 80049e6:	681b      	ldr	r3, [r3, #0]
 80049e8:	681a      	ldr	r2, [r3, #0]
 80049ea:	68fb      	ldr	r3, [r7, #12]
 80049ec:	681b      	ldr	r3, [r3, #0]
 80049ee:	491a      	ldr	r1, [pc, #104]	; (8004a58 <SPI_WaitFlagStateUntilTimeout+0x118>)
 80049f0:	400a      	ands	r2, r1
 80049f2:	601a      	str	r2, [r3, #0]
 80049f4:	68fb      	ldr	r3, [r7, #12]
 80049f6:	681b      	ldr	r3, [r3, #0]
 80049f8:	681a      	ldr	r2, [r3, #0]
 80049fa:	68fb      	ldr	r3, [r7, #12]
 80049fc:	681b      	ldr	r3, [r3, #0]
 80049fe:	2180      	movs	r1, #128	; 0x80
 8004a00:	0189      	lsls	r1, r1, #6
 8004a02:	430a      	orrs	r2, r1
 8004a04:	601a      	str	r2, [r3, #0]
        }

        hspi->State = HAL_SPI_STATE_READY;
 8004a06:	68fb      	ldr	r3, [r7, #12]
 8004a08:	2251      	movs	r2, #81	; 0x51
 8004a0a:	2101      	movs	r1, #1
 8004a0c:	5499      	strb	r1, [r3, r2]

        /* Process Unlocked */
        __HAL_UNLOCK(hspi);
 8004a0e:	68fb      	ldr	r3, [r7, #12]
 8004a10:	2250      	movs	r2, #80	; 0x50
 8004a12:	2100      	movs	r1, #0
 8004a14:	5499      	strb	r1, [r3, r2]

        return HAL_TIMEOUT;
 8004a16:	2303      	movs	r3, #3
 8004a18:	e017      	b.n	8004a4a <SPI_WaitFlagStateUntilTimeout+0x10a>
      }
      /* If Systick is disabled or not incremented, deactivate timeout to go in disable loop procedure */
      if(count == 0U)
 8004a1a:	697b      	ldr	r3, [r7, #20]
 8004a1c:	2b00      	cmp	r3, #0
 8004a1e:	d101      	bne.n	8004a24 <SPI_WaitFlagStateUntilTimeout+0xe4>
      {
        tmp_timeout = 0U;
 8004a20:	2300      	movs	r3, #0
 8004a22:	61fb      	str	r3, [r7, #28]
      }
      count--;
 8004a24:	697b      	ldr	r3, [r7, #20]
 8004a26:	3b01      	subs	r3, #1
 8004a28:	617b      	str	r3, [r7, #20]
  while ((__HAL_SPI_GET_FLAG(hspi, Flag) ? SET : RESET) != State)
 8004a2a:	68fb      	ldr	r3, [r7, #12]
 8004a2c:	681b      	ldr	r3, [r3, #0]
 8004a2e:	689b      	ldr	r3, [r3, #8]
 8004a30:	68ba      	ldr	r2, [r7, #8]
 8004a32:	4013      	ands	r3, r2
 8004a34:	68ba      	ldr	r2, [r7, #8]
 8004a36:	1ad3      	subs	r3, r2, r3
 8004a38:	425a      	negs	r2, r3
 8004a3a:	4153      	adcs	r3, r2
 8004a3c:	b2db      	uxtb	r3, r3
 8004a3e:	001a      	movs	r2, r3
 8004a40:	1dfb      	adds	r3, r7, #7
 8004a42:	781b      	ldrb	r3, [r3, #0]
 8004a44:	429a      	cmp	r2, r3
 8004a46:	d197      	bne.n	8004978 <SPI_WaitFlagStateUntilTimeout+0x38>
    }
  }

  return HAL_OK;
 8004a48:	2300      	movs	r3, #0
}
 8004a4a:	0018      	movs	r0, r3
 8004a4c:	46bd      	mov	sp, r7
 8004a4e:	b008      	add	sp, #32
 8004a50:	bd80      	pop	{r7, pc}
 8004a52:	46c0      	nop			; (mov r8, r8)
 8004a54:	20000000 	.word	0x20000000
 8004a58:	ffffdfff 	.word	0xffffdfff

08004a5c <SPI_EndRxTxTransaction>:
  * @param  Timeout Timeout duration
  * @param  Tickstart tick start value
  * @retval HAL status
  */
static HAL_StatusTypeDef SPI_EndRxTxTransaction(SPI_HandleTypeDef *hspi, uint32_t Timeout, uint32_t Tickstart)
{
 8004a5c:	b580      	push	{r7, lr}
 8004a5e:	b088      	sub	sp, #32
 8004a60:	af02      	add	r7, sp, #8
 8004a62:	60f8      	str	r0, [r7, #12]
 8004a64:	60b9      	str	r1, [r7, #8]
 8004a66:	607a      	str	r2, [r7, #4]
  /* Timeout in s */
  __IO uint32_t count = SPI_BSY_FLAG_WORKAROUND_TIMEOUT * (SystemCoreClock / 24U / 1000000U);
 8004a68:	4b1d      	ldr	r3, [pc, #116]	; (8004ae0 <SPI_EndRxTxTransaction+0x84>)
 8004a6a:	681b      	ldr	r3, [r3, #0]
 8004a6c:	491d      	ldr	r1, [pc, #116]	; (8004ae4 <SPI_EndRxTxTransaction+0x88>)
 8004a6e:	0018      	movs	r0, r3
 8004a70:	f7fb fb54 	bl	800011c <__udivsi3>
 8004a74:	0003      	movs	r3, r0
 8004a76:	001a      	movs	r2, r3
 8004a78:	0013      	movs	r3, r2
 8004a7a:	015b      	lsls	r3, r3, #5
 8004a7c:	1a9b      	subs	r3, r3, r2
 8004a7e:	009b      	lsls	r3, r3, #2
 8004a80:	189b      	adds	r3, r3, r2
 8004a82:	00db      	lsls	r3, r3, #3
 8004a84:	617b      	str	r3, [r7, #20]
  /* Erratasheet: BSY bit may stay high at the end of a data transfer in Slave mode */
  if (hspi->Init.Mode == SPI_MODE_MASTER)
 8004a86:	68fb      	ldr	r3, [r7, #12]
 8004a88:	685a      	ldr	r2, [r3, #4]
 8004a8a:	2382      	movs	r3, #130	; 0x82
 8004a8c:	005b      	lsls	r3, r3, #1
 8004a8e:	429a      	cmp	r2, r3
 8004a90:	d112      	bne.n	8004ab8 <SPI_EndRxTxTransaction+0x5c>
  {
    /* Control the BSY flag */
    if (SPI_WaitFlagStateUntilTimeout(hspi, SPI_FLAG_BSY, RESET, Timeout, Tickstart) != HAL_OK)
 8004a92:	68ba      	ldr	r2, [r7, #8]
 8004a94:	68f8      	ldr	r0, [r7, #12]
 8004a96:	687b      	ldr	r3, [r7, #4]
 8004a98:	9300      	str	r3, [sp, #0]
 8004a9a:	0013      	movs	r3, r2
 8004a9c:	2200      	movs	r2, #0
 8004a9e:	2180      	movs	r1, #128	; 0x80
 8004aa0:	f7ff ff4e 	bl	8004940 <SPI_WaitFlagStateUntilTimeout>
 8004aa4:	1e03      	subs	r3, r0, #0
 8004aa6:	d016      	beq.n	8004ad6 <SPI_EndRxTxTransaction+0x7a>
    {
      SET_BIT(hspi->ErrorCode, HAL_SPI_ERROR_FLAG);
 8004aa8:	68fb      	ldr	r3, [r7, #12]
 8004aaa:	6d5b      	ldr	r3, [r3, #84]	; 0x54
 8004aac:	2220      	movs	r2, #32
 8004aae:	431a      	orrs	r2, r3
 8004ab0:	68fb      	ldr	r3, [r7, #12]
 8004ab2:	655a      	str	r2, [r3, #84]	; 0x54
      return HAL_TIMEOUT;
 8004ab4:	2303      	movs	r3, #3
 8004ab6:	e00f      	b.n	8004ad8 <SPI_EndRxTxTransaction+0x7c>
    * User have to calculate the timeout value to fit with the time of 1 byte transfer.
    * This time is directly link with the SPI clock from Master device.
    */
    do
    {
      if (count == 0U)
 8004ab8:	697b      	ldr	r3, [r7, #20]
 8004aba:	2b00      	cmp	r3, #0
 8004abc:	d00a      	beq.n	8004ad4 <SPI_EndRxTxTransaction+0x78>
      {
        break;
      }
      count--;
 8004abe:	697b      	ldr	r3, [r7, #20]
 8004ac0:	3b01      	subs	r3, #1
 8004ac2:	617b      	str	r3, [r7, #20]
    } while (__HAL_SPI_GET_FLAG(hspi, SPI_FLAG_BSY) != RESET);
 8004ac4:	68fb      	ldr	r3, [r7, #12]
 8004ac6:	681b      	ldr	r3, [r3, #0]
 8004ac8:	689b      	ldr	r3, [r3, #8]
 8004aca:	2280      	movs	r2, #128	; 0x80
 8004acc:	4013      	ands	r3, r2
 8004ace:	2b80      	cmp	r3, #128	; 0x80
 8004ad0:	d0f2      	beq.n	8004ab8 <SPI_EndRxTxTransaction+0x5c>
 8004ad2:	e000      	b.n	8004ad6 <SPI_EndRxTxTransaction+0x7a>
        break;
 8004ad4:	46c0      	nop			; (mov r8, r8)
  }

  return HAL_OK;
 8004ad6:	2300      	movs	r3, #0
}
 8004ad8:	0018      	movs	r0, r3
 8004ada:	46bd      	mov	sp, r7
 8004adc:	b006      	add	sp, #24
 8004ade:	bd80      	pop	{r7, pc}
 8004ae0:	20000000 	.word	0x20000000
 8004ae4:	016e3600 	.word	0x016e3600

08004ae8 <HAL_UART_Init>:
  *        parameters in the UART_InitTypeDef and initialize the associated handle.
  * @param huart UART handle.
  * @retval HAL status
  */
HAL_StatusTypeDef HAL_UART_Init(UART_HandleTypeDef *huart)
{
 8004ae8:	b580      	push	{r7, lr}
 8004aea:	b082      	sub	sp, #8
 8004aec:	af00      	add	r7, sp, #0
 8004aee:	6078      	str	r0, [r7, #4]
  /* Check the UART handle allocation */
  if (huart == NULL)
 8004af0:	687b      	ldr	r3, [r7, #4]
 8004af2:	2b00      	cmp	r3, #0
 8004af4:	d101      	bne.n	8004afa <HAL_UART_Init+0x12>
  {
    return HAL_ERROR;
 8004af6:	2301      	movs	r3, #1
 8004af8:	e044      	b.n	8004b84 <HAL_UART_Init+0x9c>
  {
    /* Check the parameters */
    assert_param((IS_UART_INSTANCE(huart->Instance)) || (IS_LPUART_INSTANCE(huart->Instance)));
  }

  if (huart->gState == HAL_UART_STATE_RESET)
 8004afa:	687b      	ldr	r3, [r7, #4]
 8004afc:	6f9b      	ldr	r3, [r3, #120]	; 0x78
 8004afe:	2b00      	cmp	r3, #0
 8004b00:	d107      	bne.n	8004b12 <HAL_UART_Init+0x2a>
  {
    /* Allocate lock resource and initialize it */
    huart->Lock = HAL_UNLOCKED;
 8004b02:	687b      	ldr	r3, [r7, #4]
 8004b04:	2274      	movs	r2, #116	; 0x74
 8004b06:	2100      	movs	r1, #0
 8004b08:	5499      	strb	r1, [r3, r2]

    /* Init the low level hardware */
    huart->MspInitCallback(huart);
#else
    /* Init the low level hardware : GPIO, CLOCK */
    HAL_UART_MspInit(huart);
 8004b0a:	687b      	ldr	r3, [r7, #4]
 8004b0c:	0018      	movs	r0, r3
 8004b0e:	f7fd fe83 	bl	8002818 <HAL_UART_MspInit>
#endif /* (USE_HAL_UART_REGISTER_CALLBACKS) */
  }

  huart->gState = HAL_UART_STATE_BUSY;
 8004b12:	687b      	ldr	r3, [r7, #4]
 8004b14:	2224      	movs	r2, #36	; 0x24
 8004b16:	679a      	str	r2, [r3, #120]	; 0x78

  __HAL_UART_DISABLE(huart);
 8004b18:	687b      	ldr	r3, [r7, #4]
 8004b1a:	681b      	ldr	r3, [r3, #0]
 8004b1c:	681a      	ldr	r2, [r3, #0]
 8004b1e:	687b      	ldr	r3, [r7, #4]
 8004b20:	681b      	ldr	r3, [r3, #0]
 8004b22:	2101      	movs	r1, #1
 8004b24:	438a      	bics	r2, r1
 8004b26:	601a      	str	r2, [r3, #0]

  /* Set the UART Communication parameters */
  if (UART_SetConfig(huart) == HAL_ERROR)
 8004b28:	687b      	ldr	r3, [r7, #4]
 8004b2a:	0018      	movs	r0, r3
 8004b2c:	f000 f8d8 	bl	8004ce0 <UART_SetConfig>
 8004b30:	0003      	movs	r3, r0
 8004b32:	2b01      	cmp	r3, #1
 8004b34:	d101      	bne.n	8004b3a <HAL_UART_Init+0x52>
  {
    return HAL_ERROR;
 8004b36:	2301      	movs	r3, #1
 8004b38:	e024      	b.n	8004b84 <HAL_UART_Init+0x9c>
  }

  if (huart->AdvancedInit.AdvFeatureInit != UART_ADVFEATURE_NO_INIT)
 8004b3a:	687b      	ldr	r3, [r7, #4]
 8004b3c:	6a5b      	ldr	r3, [r3, #36]	; 0x24
 8004b3e:	2b00      	cmp	r3, #0
 8004b40:	d003      	beq.n	8004b4a <HAL_UART_Init+0x62>
  {
    UART_AdvFeatureConfig(huart);
 8004b42:	687b      	ldr	r3, [r7, #4]
 8004b44:	0018      	movs	r0, r3
 8004b46:	f000 fb6b 	bl	8005220 <UART_AdvFeatureConfig>
  }

  /* In asynchronous mode, the following bits must be kept cleared:
  - LINEN and CLKEN bits in the USART_CR2 register,
  - SCEN, HDSEL and IREN  bits in the USART_CR3 register.*/
  CLEAR_BIT(huart->Instance->CR2, (USART_CR2_LINEN | USART_CR2_CLKEN));
 8004b4a:	687b      	ldr	r3, [r7, #4]
 8004b4c:	681b      	ldr	r3, [r3, #0]
 8004b4e:	685a      	ldr	r2, [r3, #4]
 8004b50:	687b      	ldr	r3, [r7, #4]
 8004b52:	681b      	ldr	r3, [r3, #0]
 8004b54:	490d      	ldr	r1, [pc, #52]	; (8004b8c <HAL_UART_Init+0xa4>)
 8004b56:	400a      	ands	r2, r1
 8004b58:	605a      	str	r2, [r3, #4]
  CLEAR_BIT(huart->Instance->CR3, (USART_CR3_SCEN | USART_CR3_HDSEL | USART_CR3_IREN));
 8004b5a:	687b      	ldr	r3, [r7, #4]
 8004b5c:	681b      	ldr	r3, [r3, #0]
 8004b5e:	689a      	ldr	r2, [r3, #8]
 8004b60:	687b      	ldr	r3, [r7, #4]
 8004b62:	681b      	ldr	r3, [r3, #0]
 8004b64:	212a      	movs	r1, #42	; 0x2a
 8004b66:	438a      	bics	r2, r1
 8004b68:	609a      	str	r2, [r3, #8]

  __HAL_UART_ENABLE(huart);
 8004b6a:	687b      	ldr	r3, [r7, #4]
 8004b6c:	681b      	ldr	r3, [r3, #0]
 8004b6e:	681a      	ldr	r2, [r3, #0]
 8004b70:	687b      	ldr	r3, [r7, #4]
 8004b72:	681b      	ldr	r3, [r3, #0]
 8004b74:	2101      	movs	r1, #1
 8004b76:	430a      	orrs	r2, r1
 8004b78:	601a      	str	r2, [r3, #0]

  /* TEACK and/or REACK to check before moving huart->gState and huart->RxState to Ready */
  return (UART_CheckIdleState(huart));
 8004b7a:	687b      	ldr	r3, [r7, #4]
 8004b7c:	0018      	movs	r0, r3
 8004b7e:	f000 fc03 	bl	8005388 <UART_CheckIdleState>
 8004b82:	0003      	movs	r3, r0
}
 8004b84:	0018      	movs	r0, r3
 8004b86:	46bd      	mov	sp, r7
 8004b88:	b002      	add	sp, #8
 8004b8a:	bd80      	pop	{r7, pc}
 8004b8c:	ffffb7ff 	.word	0xffffb7ff

08004b90 <HAL_UART_Transmit>:
  * @param Size    Amount of data elements (u8 or u16) to be sent.
  * @param Timeout Timeout duration.
  * @retval HAL status
  */
HAL_StatusTypeDef HAL_UART_Transmit(UART_HandleTypeDef *huart, uint8_t *pData, uint16_t Size, uint32_t Timeout)
{
 8004b90:	b580      	push	{r7, lr}
 8004b92:	b08a      	sub	sp, #40	; 0x28
 8004b94:	af02      	add	r7, sp, #8
 8004b96:	60f8      	str	r0, [r7, #12]
 8004b98:	60b9      	str	r1, [r7, #8]
 8004b9a:	603b      	str	r3, [r7, #0]
 8004b9c:	1dbb      	adds	r3, r7, #6
 8004b9e:	801a      	strh	r2, [r3, #0]
  uint8_t  *pdata8bits;
  uint16_t *pdata16bits;
  uint32_t tickstart;

  /* Check that a Tx process is not already ongoing */
  if (huart->gState == HAL_UART_STATE_READY)
 8004ba0:	68fb      	ldr	r3, [r7, #12]
 8004ba2:	6f9b      	ldr	r3, [r3, #120]	; 0x78
 8004ba4:	2b20      	cmp	r3, #32
 8004ba6:	d000      	beq.n	8004baa <HAL_UART_Transmit+0x1a>
 8004ba8:	e095      	b.n	8004cd6 <HAL_UART_Transmit+0x146>
  {
    if ((pData == NULL) || (Size == 0U))
 8004baa:	68bb      	ldr	r3, [r7, #8]
 8004bac:	2b00      	cmp	r3, #0
 8004bae:	d003      	beq.n	8004bb8 <HAL_UART_Transmit+0x28>
 8004bb0:	1dbb      	adds	r3, r7, #6
 8004bb2:	881b      	ldrh	r3, [r3, #0]
 8004bb4:	2b00      	cmp	r3, #0
 8004bb6:	d101      	bne.n	8004bbc <HAL_UART_Transmit+0x2c>
    {
      return  HAL_ERROR;
 8004bb8:	2301      	movs	r3, #1
 8004bba:	e08d      	b.n	8004cd8 <HAL_UART_Transmit+0x148>
    }

    /* In case of 9bits/No Parity transfer, pData buffer provided as input parameter
       should be aligned on a u16 frontier, as data to be filled into TDR will be
       handled through a u16 cast. */
    if ((huart->Init.WordLength == UART_WORDLENGTH_9B) && (huart->Init.Parity == UART_PARITY_NONE))
 8004bbc:	68fb      	ldr	r3, [r7, #12]
 8004bbe:	689a      	ldr	r2, [r3, #8]
 8004bc0:	2380      	movs	r3, #128	; 0x80
 8004bc2:	015b      	lsls	r3, r3, #5
 8004bc4:	429a      	cmp	r2, r3
 8004bc6:	d109      	bne.n	8004bdc <HAL_UART_Transmit+0x4c>
 8004bc8:	68fb      	ldr	r3, [r7, #12]
 8004bca:	691b      	ldr	r3, [r3, #16]
 8004bcc:	2b00      	cmp	r3, #0
 8004bce:	d105      	bne.n	8004bdc <HAL_UART_Transmit+0x4c>
    {
      if ((((uint32_t)pData) & 1U) != 0U)
 8004bd0:	68bb      	ldr	r3, [r7, #8]
 8004bd2:	2201      	movs	r2, #1
 8004bd4:	4013      	ands	r3, r2
 8004bd6:	d001      	beq.n	8004bdc <HAL_UART_Transmit+0x4c>
      {
        return  HAL_ERROR;
 8004bd8:	2301      	movs	r3, #1
 8004bda:	e07d      	b.n	8004cd8 <HAL_UART_Transmit+0x148>
      }
    }

    __HAL_LOCK(huart);
 8004bdc:	68fb      	ldr	r3, [r7, #12]
 8004bde:	2274      	movs	r2, #116	; 0x74
 8004be0:	5c9b      	ldrb	r3, [r3, r2]
 8004be2:	2b01      	cmp	r3, #1
 8004be4:	d101      	bne.n	8004bea <HAL_UART_Transmit+0x5a>
 8004be6:	2302      	movs	r3, #2
 8004be8:	e076      	b.n	8004cd8 <HAL_UART_Transmit+0x148>
 8004bea:	68fb      	ldr	r3, [r7, #12]
 8004bec:	2274      	movs	r2, #116	; 0x74
 8004bee:	2101      	movs	r1, #1
 8004bf0:	5499      	strb	r1, [r3, r2]

    huart->ErrorCode = HAL_UART_ERROR_NONE;
 8004bf2:	68fb      	ldr	r3, [r7, #12]
 8004bf4:	2280      	movs	r2, #128	; 0x80
 8004bf6:	2100      	movs	r1, #0
 8004bf8:	5099      	str	r1, [r3, r2]
    huart->gState = HAL_UART_STATE_BUSY_TX;
 8004bfa:	68fb      	ldr	r3, [r7, #12]
 8004bfc:	2221      	movs	r2, #33	; 0x21
 8004bfe:	679a      	str	r2, [r3, #120]	; 0x78

    /* Init tickstart for timeout management */
    tickstart = HAL_GetTick();
 8004c00:	f7fd ff32 	bl	8002a68 <HAL_GetTick>
 8004c04:	0003      	movs	r3, r0
 8004c06:	617b      	str	r3, [r7, #20]

    huart->TxXferSize  = Size;
 8004c08:	68fb      	ldr	r3, [r7, #12]
 8004c0a:	1dba      	adds	r2, r7, #6
 8004c0c:	2150      	movs	r1, #80	; 0x50
 8004c0e:	8812      	ldrh	r2, [r2, #0]
 8004c10:	525a      	strh	r2, [r3, r1]
    huart->TxXferCount = Size;
 8004c12:	68fb      	ldr	r3, [r7, #12]
 8004c14:	1dba      	adds	r2, r7, #6
 8004c16:	2152      	movs	r1, #82	; 0x52
 8004c18:	8812      	ldrh	r2, [r2, #0]
 8004c1a:	525a      	strh	r2, [r3, r1]

    /* In case of 9bits/No Parity transfer, pData needs to be handled as a uint16_t pointer */
    if ((huart->Init.WordLength == UART_WORDLENGTH_9B) && (huart->Init.Parity == UART_PARITY_NONE))
 8004c1c:	68fb      	ldr	r3, [r7, #12]
 8004c1e:	689a      	ldr	r2, [r3, #8]
 8004c20:	2380      	movs	r3, #128	; 0x80
 8004c22:	015b      	lsls	r3, r3, #5
 8004c24:	429a      	cmp	r2, r3
 8004c26:	d108      	bne.n	8004c3a <HAL_UART_Transmit+0xaa>
 8004c28:	68fb      	ldr	r3, [r7, #12]
 8004c2a:	691b      	ldr	r3, [r3, #16]
 8004c2c:	2b00      	cmp	r3, #0
 8004c2e:	d104      	bne.n	8004c3a <HAL_UART_Transmit+0xaa>
    {
      pdata8bits  = NULL;
 8004c30:	2300      	movs	r3, #0
 8004c32:	61fb      	str	r3, [r7, #28]
      pdata16bits = (uint16_t *) pData;
 8004c34:	68bb      	ldr	r3, [r7, #8]
 8004c36:	61bb      	str	r3, [r7, #24]
 8004c38:	e003      	b.n	8004c42 <HAL_UART_Transmit+0xb2>
    }
    else
    {
      pdata8bits  = pData;
 8004c3a:	68bb      	ldr	r3, [r7, #8]
 8004c3c:	61fb      	str	r3, [r7, #28]
      pdata16bits = NULL;
 8004c3e:	2300      	movs	r3, #0
 8004c40:	61bb      	str	r3, [r7, #24]
    }

    __HAL_UNLOCK(huart);
 8004c42:	68fb      	ldr	r3, [r7, #12]
 8004c44:	2274      	movs	r2, #116	; 0x74
 8004c46:	2100      	movs	r1, #0
 8004c48:	5499      	strb	r1, [r3, r2]

    while (huart->TxXferCount > 0U)
 8004c4a:	e02c      	b.n	8004ca6 <HAL_UART_Transmit+0x116>
    {
      if (UART_WaitOnFlagUntilTimeout(huart, UART_FLAG_TXE, RESET, tickstart, Timeout) != HAL_OK)
 8004c4c:	697a      	ldr	r2, [r7, #20]
 8004c4e:	68f8      	ldr	r0, [r7, #12]
 8004c50:	683b      	ldr	r3, [r7, #0]
 8004c52:	9300      	str	r3, [sp, #0]
 8004c54:	0013      	movs	r3, r2
 8004c56:	2200      	movs	r2, #0
 8004c58:	2180      	movs	r1, #128	; 0x80
 8004c5a:	f000 fbdd 	bl	8005418 <UART_WaitOnFlagUntilTimeout>
 8004c5e:	1e03      	subs	r3, r0, #0
 8004c60:	d001      	beq.n	8004c66 <HAL_UART_Transmit+0xd6>
      {
        return HAL_TIMEOUT;
 8004c62:	2303      	movs	r3, #3
 8004c64:	e038      	b.n	8004cd8 <HAL_UART_Transmit+0x148>
      }
      if (pdata8bits == NULL)
 8004c66:	69fb      	ldr	r3, [r7, #28]
 8004c68:	2b00      	cmp	r3, #0
 8004c6a:	d10b      	bne.n	8004c84 <HAL_UART_Transmit+0xf4>
      {
        huart->Instance->TDR = (uint16_t)(*pdata16bits & 0x01FFU);
 8004c6c:	69bb      	ldr	r3, [r7, #24]
 8004c6e:	881b      	ldrh	r3, [r3, #0]
 8004c70:	001a      	movs	r2, r3
 8004c72:	68fb      	ldr	r3, [r7, #12]
 8004c74:	681b      	ldr	r3, [r3, #0]
 8004c76:	05d2      	lsls	r2, r2, #23
 8004c78:	0dd2      	lsrs	r2, r2, #23
 8004c7a:	629a      	str	r2, [r3, #40]	; 0x28
        pdata16bits++;
 8004c7c:	69bb      	ldr	r3, [r7, #24]
 8004c7e:	3302      	adds	r3, #2
 8004c80:	61bb      	str	r3, [r7, #24]
 8004c82:	e007      	b.n	8004c94 <HAL_UART_Transmit+0x104>
      }
      else
      {
        huart->Instance->TDR = (uint8_t)(*pdata8bits & 0xFFU);
 8004c84:	69fb      	ldr	r3, [r7, #28]
 8004c86:	781a      	ldrb	r2, [r3, #0]
 8004c88:	68fb      	ldr	r3, [r7, #12]
 8004c8a:	681b      	ldr	r3, [r3, #0]
 8004c8c:	629a      	str	r2, [r3, #40]	; 0x28
        pdata8bits++;
 8004c8e:	69fb      	ldr	r3, [r7, #28]
 8004c90:	3301      	adds	r3, #1
 8004c92:	61fb      	str	r3, [r7, #28]
      }
      huart->TxXferCount--;
 8004c94:	68fb      	ldr	r3, [r7, #12]
 8004c96:	2252      	movs	r2, #82	; 0x52
 8004c98:	5a9b      	ldrh	r3, [r3, r2]
 8004c9a:	b29b      	uxth	r3, r3
 8004c9c:	3b01      	subs	r3, #1
 8004c9e:	b299      	uxth	r1, r3
 8004ca0:	68fb      	ldr	r3, [r7, #12]
 8004ca2:	2252      	movs	r2, #82	; 0x52
 8004ca4:	5299      	strh	r1, [r3, r2]
    while (huart->TxXferCount > 0U)
 8004ca6:	68fb      	ldr	r3, [r7, #12]
 8004ca8:	2252      	movs	r2, #82	; 0x52
 8004caa:	5a9b      	ldrh	r3, [r3, r2]
 8004cac:	b29b      	uxth	r3, r3
 8004cae:	2b00      	cmp	r3, #0
 8004cb0:	d1cc      	bne.n	8004c4c <HAL_UART_Transmit+0xbc>
    }

    if (UART_WaitOnFlagUntilTimeout(huart, UART_FLAG_TC, RESET, tickstart, Timeout) != HAL_OK)
 8004cb2:	697a      	ldr	r2, [r7, #20]
 8004cb4:	68f8      	ldr	r0, [r7, #12]
 8004cb6:	683b      	ldr	r3, [r7, #0]
 8004cb8:	9300      	str	r3, [sp, #0]
 8004cba:	0013      	movs	r3, r2
 8004cbc:	2200      	movs	r2, #0
 8004cbe:	2140      	movs	r1, #64	; 0x40
 8004cc0:	f000 fbaa 	bl	8005418 <UART_WaitOnFlagUntilTimeout>
 8004cc4:	1e03      	subs	r3, r0, #0
 8004cc6:	d001      	beq.n	8004ccc <HAL_UART_Transmit+0x13c>
    {
      return HAL_TIMEOUT;
 8004cc8:	2303      	movs	r3, #3
 8004cca:	e005      	b.n	8004cd8 <HAL_UART_Transmit+0x148>
    }

    /* At end of Tx process, restore huart->gState to Ready */
    huart->gState = HAL_UART_STATE_READY;
 8004ccc:	68fb      	ldr	r3, [r7, #12]
 8004cce:	2220      	movs	r2, #32
 8004cd0:	679a      	str	r2, [r3, #120]	; 0x78

    return HAL_OK;
 8004cd2:	2300      	movs	r3, #0
 8004cd4:	e000      	b.n	8004cd8 <HAL_UART_Transmit+0x148>
  }
  else
  {
    return HAL_BUSY;
 8004cd6:	2302      	movs	r3, #2
  }
}
 8004cd8:	0018      	movs	r0, r3
 8004cda:	46bd      	mov	sp, r7
 8004cdc:	b008      	add	sp, #32
 8004cde:	bd80      	pop	{r7, pc}

08004ce0 <UART_SetConfig>:
  * @brief Configure the UART peripheral.
  * @param huart UART handle.
  * @retval HAL status
  */
HAL_StatusTypeDef UART_SetConfig(UART_HandleTypeDef *huart)
{
 8004ce0:	b5b0      	push	{r4, r5, r7, lr}
 8004ce2:	b08e      	sub	sp, #56	; 0x38
 8004ce4:	af00      	add	r7, sp, #0
 8004ce6:	61f8      	str	r0, [r7, #28]
  uint32_t tmpreg;
  uint16_t brrtemp;
  UART_ClockSourceTypeDef clocksource;
  uint32_t usartdiv;
  HAL_StatusTypeDef ret               = HAL_OK;
 8004ce8:	231a      	movs	r3, #26
 8004cea:	2218      	movs	r2, #24
 8004cec:	189b      	adds	r3, r3, r2
 8004cee:	19db      	adds	r3, r3, r7
 8004cf0:	2200      	movs	r2, #0
 8004cf2:	701a      	strb	r2, [r3, #0]
  *  the UART Word Length, Parity, Mode and oversampling:
  *  set the M bits according to huart->Init.WordLength value
  *  set PCE and PS bits according to huart->Init.Parity value
  *  set TE and RE bits according to huart->Init.Mode value
  *  set OVER8 bit according to huart->Init.OverSampling value */
  tmpreg = (uint32_t)huart->Init.WordLength | huart->Init.Parity | huart->Init.Mode | huart->Init.OverSampling ;
 8004cf4:	69fb      	ldr	r3, [r7, #28]
 8004cf6:	689a      	ldr	r2, [r3, #8]
 8004cf8:	69fb      	ldr	r3, [r7, #28]
 8004cfa:	691b      	ldr	r3, [r3, #16]
 8004cfc:	431a      	orrs	r2, r3
 8004cfe:	69fb      	ldr	r3, [r7, #28]
 8004d00:	695b      	ldr	r3, [r3, #20]
 8004d02:	431a      	orrs	r2, r3
 8004d04:	69fb      	ldr	r3, [r7, #28]
 8004d06:	69db      	ldr	r3, [r3, #28]
 8004d08:	4313      	orrs	r3, r2
 8004d0a:	637b      	str	r3, [r7, #52]	; 0x34
  MODIFY_REG(huart->Instance->CR1, USART_CR1_FIELDS, tmpreg);
 8004d0c:	69fb      	ldr	r3, [r7, #28]
 8004d0e:	681b      	ldr	r3, [r3, #0]
 8004d10:	681b      	ldr	r3, [r3, #0]
 8004d12:	4ac3      	ldr	r2, [pc, #780]	; (8005020 <UART_SetConfig+0x340>)
 8004d14:	4013      	ands	r3, r2
 8004d16:	0019      	movs	r1, r3
 8004d18:	69fb      	ldr	r3, [r7, #28]
 8004d1a:	681b      	ldr	r3, [r3, #0]
 8004d1c:	6b7a      	ldr	r2, [r7, #52]	; 0x34
 8004d1e:	430a      	orrs	r2, r1
 8004d20:	601a      	str	r2, [r3, #0]

  /*-------------------------- USART CR2 Configuration -----------------------*/
  /* Configure the UART Stop Bits: Set STOP[13:12] bits according
  * to huart->Init.StopBits value */
  MODIFY_REG(huart->Instance->CR2, USART_CR2_STOP, huart->Init.StopBits);
 8004d22:	69fb      	ldr	r3, [r7, #28]
 8004d24:	681b      	ldr	r3, [r3, #0]
 8004d26:	685b      	ldr	r3, [r3, #4]
 8004d28:	4abe      	ldr	r2, [pc, #760]	; (8005024 <UART_SetConfig+0x344>)
 8004d2a:	4013      	ands	r3, r2
 8004d2c:	0019      	movs	r1, r3
 8004d2e:	69fb      	ldr	r3, [r7, #28]
 8004d30:	68da      	ldr	r2, [r3, #12]
 8004d32:	69fb      	ldr	r3, [r7, #28]
 8004d34:	681b      	ldr	r3, [r3, #0]
 8004d36:	430a      	orrs	r2, r1
 8004d38:	605a      	str	r2, [r3, #4]
  /* Configure
  * - UART HardWare Flow Control: set CTSE and RTSE bits according
  *   to huart->Init.HwFlowCtl value
  * - one-bit sampling method versus three samples' majority rule according
  *   to huart->Init.OneBitSampling (not applicable to LPUART) */
  tmpreg = (uint32_t)huart->Init.HwFlowCtl;
 8004d3a:	69fb      	ldr	r3, [r7, #28]
 8004d3c:	699b      	ldr	r3, [r3, #24]
 8004d3e:	637b      	str	r3, [r7, #52]	; 0x34

  if (!(UART_INSTANCE_LOWPOWER(huart)))
 8004d40:	69fb      	ldr	r3, [r7, #28]
 8004d42:	681b      	ldr	r3, [r3, #0]
 8004d44:	4ab8      	ldr	r2, [pc, #736]	; (8005028 <UART_SetConfig+0x348>)
 8004d46:	4293      	cmp	r3, r2
 8004d48:	d004      	beq.n	8004d54 <UART_SetConfig+0x74>
  {
    tmpreg |= huart->Init.OneBitSampling;
 8004d4a:	69fb      	ldr	r3, [r7, #28]
 8004d4c:	6a1b      	ldr	r3, [r3, #32]
 8004d4e:	6b7a      	ldr	r2, [r7, #52]	; 0x34
 8004d50:	4313      	orrs	r3, r2
 8004d52:	637b      	str	r3, [r7, #52]	; 0x34
  }
  MODIFY_REG(huart->Instance->CR3, USART_CR3_FIELDS, tmpreg);
 8004d54:	69fb      	ldr	r3, [r7, #28]
 8004d56:	681b      	ldr	r3, [r3, #0]
 8004d58:	689b      	ldr	r3, [r3, #8]
 8004d5a:	4ab4      	ldr	r2, [pc, #720]	; (800502c <UART_SetConfig+0x34c>)
 8004d5c:	4013      	ands	r3, r2
 8004d5e:	0019      	movs	r1, r3
 8004d60:	69fb      	ldr	r3, [r7, #28]
 8004d62:	681b      	ldr	r3, [r3, #0]
 8004d64:	6b7a      	ldr	r2, [r7, #52]	; 0x34
 8004d66:	430a      	orrs	r2, r1
 8004d68:	609a      	str	r2, [r3, #8]


  /*-------------------------- USART BRR Configuration -----------------------*/
  UART_GETCLOCKSOURCE(huart, clocksource);
 8004d6a:	69fb      	ldr	r3, [r7, #28]
 8004d6c:	681b      	ldr	r3, [r3, #0]
 8004d6e:	4ab0      	ldr	r2, [pc, #704]	; (8005030 <UART_SetConfig+0x350>)
 8004d70:	4293      	cmp	r3, r2
 8004d72:	d131      	bne.n	8004dd8 <UART_SetConfig+0xf8>
 8004d74:	4baf      	ldr	r3, [pc, #700]	; (8005034 <UART_SetConfig+0x354>)
 8004d76:	6cdb      	ldr	r3, [r3, #76]	; 0x4c
 8004d78:	2203      	movs	r2, #3
 8004d7a:	4013      	ands	r3, r2
 8004d7c:	2b03      	cmp	r3, #3
 8004d7e:	d01d      	beq.n	8004dbc <UART_SetConfig+0xdc>
 8004d80:	d823      	bhi.n	8004dca <UART_SetConfig+0xea>
 8004d82:	2b02      	cmp	r3, #2
 8004d84:	d00c      	beq.n	8004da0 <UART_SetConfig+0xc0>
 8004d86:	d820      	bhi.n	8004dca <UART_SetConfig+0xea>
 8004d88:	2b00      	cmp	r3, #0
 8004d8a:	d002      	beq.n	8004d92 <UART_SetConfig+0xb2>
 8004d8c:	2b01      	cmp	r3, #1
 8004d8e:	d00e      	beq.n	8004dae <UART_SetConfig+0xce>
 8004d90:	e01b      	b.n	8004dca <UART_SetConfig+0xea>
 8004d92:	231b      	movs	r3, #27
 8004d94:	2218      	movs	r2, #24
 8004d96:	189b      	adds	r3, r3, r2
 8004d98:	19db      	adds	r3, r3, r7
 8004d9a:	2201      	movs	r2, #1
 8004d9c:	701a      	strb	r2, [r3, #0]
 8004d9e:	e0b4      	b.n	8004f0a <UART_SetConfig+0x22a>
 8004da0:	231b      	movs	r3, #27
 8004da2:	2218      	movs	r2, #24
 8004da4:	189b      	adds	r3, r3, r2
 8004da6:	19db      	adds	r3, r3, r7
 8004da8:	2202      	movs	r2, #2
 8004daa:	701a      	strb	r2, [r3, #0]
 8004dac:	e0ad      	b.n	8004f0a <UART_SetConfig+0x22a>
 8004dae:	231b      	movs	r3, #27
 8004db0:	2218      	movs	r2, #24
 8004db2:	189b      	adds	r3, r3, r2
 8004db4:	19db      	adds	r3, r3, r7
 8004db6:	2204      	movs	r2, #4
 8004db8:	701a      	strb	r2, [r3, #0]
 8004dba:	e0a6      	b.n	8004f0a <UART_SetConfig+0x22a>
 8004dbc:	231b      	movs	r3, #27
 8004dbe:	2218      	movs	r2, #24
 8004dc0:	189b      	adds	r3, r3, r2
 8004dc2:	19db      	adds	r3, r3, r7
 8004dc4:	2208      	movs	r2, #8
 8004dc6:	701a      	strb	r2, [r3, #0]
 8004dc8:	e09f      	b.n	8004f0a <UART_SetConfig+0x22a>
 8004dca:	231b      	movs	r3, #27
 8004dcc:	2218      	movs	r2, #24
 8004dce:	189b      	adds	r3, r3, r2
 8004dd0:	19db      	adds	r3, r3, r7
 8004dd2:	2210      	movs	r2, #16
 8004dd4:	701a      	strb	r2, [r3, #0]
 8004dd6:	e098      	b.n	8004f0a <UART_SetConfig+0x22a>
 8004dd8:	69fb      	ldr	r3, [r7, #28]
 8004dda:	681b      	ldr	r3, [r3, #0]
 8004ddc:	4a96      	ldr	r2, [pc, #600]	; (8005038 <UART_SetConfig+0x358>)
 8004dde:	4293      	cmp	r3, r2
 8004de0:	d131      	bne.n	8004e46 <UART_SetConfig+0x166>
 8004de2:	4b94      	ldr	r3, [pc, #592]	; (8005034 <UART_SetConfig+0x354>)
 8004de4:	6cdb      	ldr	r3, [r3, #76]	; 0x4c
 8004de6:	220c      	movs	r2, #12
 8004de8:	4013      	ands	r3, r2
 8004dea:	2b0c      	cmp	r3, #12
 8004dec:	d01d      	beq.n	8004e2a <UART_SetConfig+0x14a>
 8004dee:	d823      	bhi.n	8004e38 <UART_SetConfig+0x158>
 8004df0:	2b08      	cmp	r3, #8
 8004df2:	d00c      	beq.n	8004e0e <UART_SetConfig+0x12e>
 8004df4:	d820      	bhi.n	8004e38 <UART_SetConfig+0x158>
 8004df6:	2b00      	cmp	r3, #0
 8004df8:	d002      	beq.n	8004e00 <UART_SetConfig+0x120>
 8004dfa:	2b04      	cmp	r3, #4
 8004dfc:	d00e      	beq.n	8004e1c <UART_SetConfig+0x13c>
 8004dfe:	e01b      	b.n	8004e38 <UART_SetConfig+0x158>
 8004e00:	231b      	movs	r3, #27
 8004e02:	2218      	movs	r2, #24
 8004e04:	189b      	adds	r3, r3, r2
 8004e06:	19db      	adds	r3, r3, r7
 8004e08:	2200      	movs	r2, #0
 8004e0a:	701a      	strb	r2, [r3, #0]
 8004e0c:	e07d      	b.n	8004f0a <UART_SetConfig+0x22a>
 8004e0e:	231b      	movs	r3, #27
 8004e10:	2218      	movs	r2, #24
 8004e12:	189b      	adds	r3, r3, r2
 8004e14:	19db      	adds	r3, r3, r7
 8004e16:	2202      	movs	r2, #2
 8004e18:	701a      	strb	r2, [r3, #0]
 8004e1a:	e076      	b.n	8004f0a <UART_SetConfig+0x22a>
 8004e1c:	231b      	movs	r3, #27
 8004e1e:	2218      	movs	r2, #24
 8004e20:	189b      	adds	r3, r3, r2
 8004e22:	19db      	adds	r3, r3, r7
 8004e24:	2204      	movs	r2, #4
 8004e26:	701a      	strb	r2, [r3, #0]
 8004e28:	e06f      	b.n	8004f0a <UART_SetConfig+0x22a>
 8004e2a:	231b      	movs	r3, #27
 8004e2c:	2218      	movs	r2, #24
 8004e2e:	189b      	adds	r3, r3, r2
 8004e30:	19db      	adds	r3, r3, r7
 8004e32:	2208      	movs	r2, #8
 8004e34:	701a      	strb	r2, [r3, #0]
 8004e36:	e068      	b.n	8004f0a <UART_SetConfig+0x22a>
 8004e38:	231b      	movs	r3, #27
 8004e3a:	2218      	movs	r2, #24
 8004e3c:	189b      	adds	r3, r3, r2
 8004e3e:	19db      	adds	r3, r3, r7
 8004e40:	2210      	movs	r2, #16
 8004e42:	701a      	strb	r2, [r3, #0]
 8004e44:	e061      	b.n	8004f0a <UART_SetConfig+0x22a>
 8004e46:	69fb      	ldr	r3, [r7, #28]
 8004e48:	681b      	ldr	r3, [r3, #0]
 8004e4a:	4a7c      	ldr	r2, [pc, #496]	; (800503c <UART_SetConfig+0x35c>)
 8004e4c:	4293      	cmp	r3, r2
 8004e4e:	d106      	bne.n	8004e5e <UART_SetConfig+0x17e>
 8004e50:	231b      	movs	r3, #27
 8004e52:	2218      	movs	r2, #24
 8004e54:	189b      	adds	r3, r3, r2
 8004e56:	19db      	adds	r3, r3, r7
 8004e58:	2200      	movs	r2, #0
 8004e5a:	701a      	strb	r2, [r3, #0]
 8004e5c:	e055      	b.n	8004f0a <UART_SetConfig+0x22a>
 8004e5e:	69fb      	ldr	r3, [r7, #28]
 8004e60:	681b      	ldr	r3, [r3, #0]
 8004e62:	4a77      	ldr	r2, [pc, #476]	; (8005040 <UART_SetConfig+0x360>)
 8004e64:	4293      	cmp	r3, r2
 8004e66:	d106      	bne.n	8004e76 <UART_SetConfig+0x196>
 8004e68:	231b      	movs	r3, #27
 8004e6a:	2218      	movs	r2, #24
 8004e6c:	189b      	adds	r3, r3, r2
 8004e6e:	19db      	adds	r3, r3, r7
 8004e70:	2200      	movs	r2, #0
 8004e72:	701a      	strb	r2, [r3, #0]
 8004e74:	e049      	b.n	8004f0a <UART_SetConfig+0x22a>
 8004e76:	69fb      	ldr	r3, [r7, #28]
 8004e78:	681b      	ldr	r3, [r3, #0]
 8004e7a:	4a6b      	ldr	r2, [pc, #428]	; (8005028 <UART_SetConfig+0x348>)
 8004e7c:	4293      	cmp	r3, r2
 8004e7e:	d13e      	bne.n	8004efe <UART_SetConfig+0x21e>
 8004e80:	4b6c      	ldr	r3, [pc, #432]	; (8005034 <UART_SetConfig+0x354>)
 8004e82:	6cda      	ldr	r2, [r3, #76]	; 0x4c
 8004e84:	23c0      	movs	r3, #192	; 0xc0
 8004e86:	011b      	lsls	r3, r3, #4
 8004e88:	4013      	ands	r3, r2
 8004e8a:	22c0      	movs	r2, #192	; 0xc0
 8004e8c:	0112      	lsls	r2, r2, #4
 8004e8e:	4293      	cmp	r3, r2
 8004e90:	d027      	beq.n	8004ee2 <UART_SetConfig+0x202>
 8004e92:	22c0      	movs	r2, #192	; 0xc0
 8004e94:	0112      	lsls	r2, r2, #4
 8004e96:	4293      	cmp	r3, r2
 8004e98:	d82a      	bhi.n	8004ef0 <UART_SetConfig+0x210>
 8004e9a:	2280      	movs	r2, #128	; 0x80
 8004e9c:	0112      	lsls	r2, r2, #4
 8004e9e:	4293      	cmp	r3, r2
 8004ea0:	d011      	beq.n	8004ec6 <UART_SetConfig+0x1e6>
 8004ea2:	2280      	movs	r2, #128	; 0x80
 8004ea4:	0112      	lsls	r2, r2, #4
 8004ea6:	4293      	cmp	r3, r2
 8004ea8:	d822      	bhi.n	8004ef0 <UART_SetConfig+0x210>
 8004eaa:	2b00      	cmp	r3, #0
 8004eac:	d004      	beq.n	8004eb8 <UART_SetConfig+0x1d8>
 8004eae:	2280      	movs	r2, #128	; 0x80
 8004eb0:	00d2      	lsls	r2, r2, #3
 8004eb2:	4293      	cmp	r3, r2
 8004eb4:	d00e      	beq.n	8004ed4 <UART_SetConfig+0x1f4>
 8004eb6:	e01b      	b.n	8004ef0 <UART_SetConfig+0x210>
 8004eb8:	231b      	movs	r3, #27
 8004eba:	2218      	movs	r2, #24
 8004ebc:	189b      	adds	r3, r3, r2
 8004ebe:	19db      	adds	r3, r3, r7
 8004ec0:	2200      	movs	r2, #0
 8004ec2:	701a      	strb	r2, [r3, #0]
 8004ec4:	e021      	b.n	8004f0a <UART_SetConfig+0x22a>
 8004ec6:	231b      	movs	r3, #27
 8004ec8:	2218      	movs	r2, #24
 8004eca:	189b      	adds	r3, r3, r2
 8004ecc:	19db      	adds	r3, r3, r7
 8004ece:	2202      	movs	r2, #2
 8004ed0:	701a      	strb	r2, [r3, #0]
 8004ed2:	e01a      	b.n	8004f0a <UART_SetConfig+0x22a>
 8004ed4:	231b      	movs	r3, #27
 8004ed6:	2218      	movs	r2, #24
 8004ed8:	189b      	adds	r3, r3, r2
 8004eda:	19db      	adds	r3, r3, r7
 8004edc:	2204      	movs	r2, #4
 8004ede:	701a      	strb	r2, [r3, #0]
 8004ee0:	e013      	b.n	8004f0a <UART_SetConfig+0x22a>
 8004ee2:	231b      	movs	r3, #27
 8004ee4:	2218      	movs	r2, #24
 8004ee6:	189b      	adds	r3, r3, r2
 8004ee8:	19db      	adds	r3, r3, r7
 8004eea:	2208      	movs	r2, #8
 8004eec:	701a      	strb	r2, [r3, #0]
 8004eee:	e00c      	b.n	8004f0a <UART_SetConfig+0x22a>
 8004ef0:	231b      	movs	r3, #27
 8004ef2:	2218      	movs	r2, #24
 8004ef4:	189b      	adds	r3, r3, r2
 8004ef6:	19db      	adds	r3, r3, r7
 8004ef8:	2210      	movs	r2, #16
 8004efa:	701a      	strb	r2, [r3, #0]
 8004efc:	e005      	b.n	8004f0a <UART_SetConfig+0x22a>
 8004efe:	231b      	movs	r3, #27
 8004f00:	2218      	movs	r2, #24
 8004f02:	189b      	adds	r3, r3, r2
 8004f04:	19db      	adds	r3, r3, r7
 8004f06:	2210      	movs	r2, #16
 8004f08:	701a      	strb	r2, [r3, #0]

  /* Check LPUART instance */
  if (UART_INSTANCE_LOWPOWER(huart))
 8004f0a:	69fb      	ldr	r3, [r7, #28]
 8004f0c:	681b      	ldr	r3, [r3, #0]
 8004f0e:	4a46      	ldr	r2, [pc, #280]	; (8005028 <UART_SetConfig+0x348>)
 8004f10:	4293      	cmp	r3, r2
 8004f12:	d000      	beq.n	8004f16 <UART_SetConfig+0x236>
 8004f14:	e09a      	b.n	800504c <UART_SetConfig+0x36c>
  {
    /* Retrieve frequency clock */
    switch (clocksource)
 8004f16:	231b      	movs	r3, #27
 8004f18:	2218      	movs	r2, #24
 8004f1a:	189b      	adds	r3, r3, r2
 8004f1c:	19db      	adds	r3, r3, r7
 8004f1e:	781b      	ldrb	r3, [r3, #0]
 8004f20:	2b08      	cmp	r3, #8
 8004f22:	d01d      	beq.n	8004f60 <UART_SetConfig+0x280>
 8004f24:	dc20      	bgt.n	8004f68 <UART_SetConfig+0x288>
 8004f26:	2b04      	cmp	r3, #4
 8004f28:	d015      	beq.n	8004f56 <UART_SetConfig+0x276>
 8004f2a:	dc1d      	bgt.n	8004f68 <UART_SetConfig+0x288>
 8004f2c:	2b00      	cmp	r3, #0
 8004f2e:	d002      	beq.n	8004f36 <UART_SetConfig+0x256>
 8004f30:	2b02      	cmp	r3, #2
 8004f32:	d005      	beq.n	8004f40 <UART_SetConfig+0x260>
 8004f34:	e018      	b.n	8004f68 <UART_SetConfig+0x288>
    {
      case UART_CLOCKSOURCE_PCLK1:
        pclk = HAL_RCC_GetPCLK1Freq();
 8004f36:	f7ff f979 	bl	800422c <HAL_RCC_GetPCLK1Freq>
 8004f3a:	0003      	movs	r3, r0
 8004f3c:	62fb      	str	r3, [r7, #44]	; 0x2c
        break;
 8004f3e:	e01c      	b.n	8004f7a <UART_SetConfig+0x29a>
      case UART_CLOCKSOURCE_HSI:
        if (__HAL_RCC_GET_FLAG(RCC_FLAG_HSIDIV) != 0U)
 8004f40:	4b3c      	ldr	r3, [pc, #240]	; (8005034 <UART_SetConfig+0x354>)
 8004f42:	681b      	ldr	r3, [r3, #0]
 8004f44:	2210      	movs	r2, #16
 8004f46:	4013      	ands	r3, r2
 8004f48:	d002      	beq.n	8004f50 <UART_SetConfig+0x270>
        {
          pclk = (uint32_t)(HSI_VALUE >> 2U);
 8004f4a:	4b3e      	ldr	r3, [pc, #248]	; (8005044 <UART_SetConfig+0x364>)
 8004f4c:	62fb      	str	r3, [r7, #44]	; 0x2c
        }
        else
        {
          pclk = (uint32_t) HSI_VALUE;
        }
        break;
 8004f4e:	e014      	b.n	8004f7a <UART_SetConfig+0x29a>
          pclk = (uint32_t) HSI_VALUE;
 8004f50:	4b3d      	ldr	r3, [pc, #244]	; (8005048 <UART_SetConfig+0x368>)
 8004f52:	62fb      	str	r3, [r7, #44]	; 0x2c
        break;
 8004f54:	e011      	b.n	8004f7a <UART_SetConfig+0x29a>
      case UART_CLOCKSOURCE_SYSCLK:
        pclk = HAL_RCC_GetSysClockFreq();
 8004f56:	f7ff f8b9 	bl	80040cc <HAL_RCC_GetSysClockFreq>
 8004f5a:	0003      	movs	r3, r0
 8004f5c:	62fb      	str	r3, [r7, #44]	; 0x2c
        break;
 8004f5e:	e00c      	b.n	8004f7a <UART_SetConfig+0x29a>
      case UART_CLOCKSOURCE_LSE:
        pclk = (uint32_t) LSE_VALUE;
 8004f60:	2380      	movs	r3, #128	; 0x80
 8004f62:	021b      	lsls	r3, r3, #8
 8004f64:	62fb      	str	r3, [r7, #44]	; 0x2c
        break;
 8004f66:	e008      	b.n	8004f7a <UART_SetConfig+0x29a>
      default:
        pclk = 0U;
 8004f68:	2300      	movs	r3, #0
 8004f6a:	62fb      	str	r3, [r7, #44]	; 0x2c
        ret = HAL_ERROR;
 8004f6c:	231a      	movs	r3, #26
 8004f6e:	2218      	movs	r2, #24
 8004f70:	189b      	adds	r3, r3, r2
 8004f72:	19db      	adds	r3, r3, r7
 8004f74:	2201      	movs	r2, #1
 8004f76:	701a      	strb	r2, [r3, #0]
        break;
 8004f78:	46c0      	nop			; (mov r8, r8)
    }

    /* If proper clock source reported */
    if (pclk != 0U)
 8004f7a:	6afb      	ldr	r3, [r7, #44]	; 0x2c
 8004f7c:	2b00      	cmp	r3, #0
 8004f7e:	d100      	bne.n	8004f82 <UART_SetConfig+0x2a2>
 8004f80:	e134      	b.n	80051ec <UART_SetConfig+0x50c>
    {
      /* No Prescaler applicable */
      /* Ensure that Frequency clock is in the range [3 * baudrate, 4096 * baudrate] */
      if ((pclk < (3U * huart->Init.BaudRate)) ||
 8004f82:	69fb      	ldr	r3, [r7, #28]
 8004f84:	685a      	ldr	r2, [r3, #4]
 8004f86:	0013      	movs	r3, r2
 8004f88:	005b      	lsls	r3, r3, #1
 8004f8a:	189b      	adds	r3, r3, r2
 8004f8c:	6afa      	ldr	r2, [r7, #44]	; 0x2c
 8004f8e:	429a      	cmp	r2, r3
 8004f90:	d305      	bcc.n	8004f9e <UART_SetConfig+0x2be>
          (pclk > (4096U * huart->Init.BaudRate)))
 8004f92:	69fb      	ldr	r3, [r7, #28]
 8004f94:	685b      	ldr	r3, [r3, #4]
 8004f96:	031b      	lsls	r3, r3, #12
      if ((pclk < (3U * huart->Init.BaudRate)) ||
 8004f98:	6afa      	ldr	r2, [r7, #44]	; 0x2c
 8004f9a:	429a      	cmp	r2, r3
 8004f9c:	d906      	bls.n	8004fac <UART_SetConfig+0x2cc>
      {
        ret = HAL_ERROR;
 8004f9e:	231a      	movs	r3, #26
 8004fa0:	2218      	movs	r2, #24
 8004fa2:	189b      	adds	r3, r3, r2
 8004fa4:	19db      	adds	r3, r3, r7
 8004fa6:	2201      	movs	r2, #1
 8004fa8:	701a      	strb	r2, [r3, #0]
 8004faa:	e11f      	b.n	80051ec <UART_SetConfig+0x50c>
      }
      else
      {
        usartdiv = (uint32_t)(UART_DIV_LPUART(pclk, huart->Init.BaudRate));
 8004fac:	6afb      	ldr	r3, [r7, #44]	; 0x2c
 8004fae:	613b      	str	r3, [r7, #16]
 8004fb0:	2300      	movs	r3, #0
 8004fb2:	617b      	str	r3, [r7, #20]
 8004fb4:	6939      	ldr	r1, [r7, #16]
 8004fb6:	697a      	ldr	r2, [r7, #20]
 8004fb8:	000b      	movs	r3, r1
 8004fba:	0e1b      	lsrs	r3, r3, #24
 8004fbc:	0010      	movs	r0, r2
 8004fbe:	0205      	lsls	r5, r0, #8
 8004fc0:	431d      	orrs	r5, r3
 8004fc2:	000b      	movs	r3, r1
 8004fc4:	021c      	lsls	r4, r3, #8
 8004fc6:	69fb      	ldr	r3, [r7, #28]
 8004fc8:	685b      	ldr	r3, [r3, #4]
 8004fca:	085b      	lsrs	r3, r3, #1
 8004fcc:	60bb      	str	r3, [r7, #8]
 8004fce:	2300      	movs	r3, #0
 8004fd0:	60fb      	str	r3, [r7, #12]
 8004fd2:	68b8      	ldr	r0, [r7, #8]
 8004fd4:	68f9      	ldr	r1, [r7, #12]
 8004fd6:	1900      	adds	r0, r0, r4
 8004fd8:	4169      	adcs	r1, r5
 8004fda:	69fb      	ldr	r3, [r7, #28]
 8004fdc:	685b      	ldr	r3, [r3, #4]
 8004fde:	603b      	str	r3, [r7, #0]
 8004fe0:	2300      	movs	r3, #0
 8004fe2:	607b      	str	r3, [r7, #4]
 8004fe4:	683a      	ldr	r2, [r7, #0]
 8004fe6:	687b      	ldr	r3, [r7, #4]
 8004fe8:	f7fb fa0e 	bl	8000408 <__aeabi_uldivmod>
 8004fec:	0002      	movs	r2, r0
 8004fee:	000b      	movs	r3, r1
 8004ff0:	0013      	movs	r3, r2
 8004ff2:	62bb      	str	r3, [r7, #40]	; 0x28
        if ((usartdiv >= LPUART_BRR_MIN) && (usartdiv <= LPUART_BRR_MAX))
 8004ff4:	6aba      	ldr	r2, [r7, #40]	; 0x28
 8004ff6:	23c0      	movs	r3, #192	; 0xc0
 8004ff8:	009b      	lsls	r3, r3, #2
 8004ffa:	429a      	cmp	r2, r3
 8004ffc:	d309      	bcc.n	8005012 <UART_SetConfig+0x332>
 8004ffe:	6aba      	ldr	r2, [r7, #40]	; 0x28
 8005000:	2380      	movs	r3, #128	; 0x80
 8005002:	035b      	lsls	r3, r3, #13
 8005004:	429a      	cmp	r2, r3
 8005006:	d204      	bcs.n	8005012 <UART_SetConfig+0x332>
        {
          huart->Instance->BRR = usartdiv;
 8005008:	69fb      	ldr	r3, [r7, #28]
 800500a:	681b      	ldr	r3, [r3, #0]
 800500c:	6aba      	ldr	r2, [r7, #40]	; 0x28
 800500e:	60da      	str	r2, [r3, #12]
 8005010:	e0ec      	b.n	80051ec <UART_SetConfig+0x50c>
        }
        else
        {
          ret = HAL_ERROR;
 8005012:	231a      	movs	r3, #26
 8005014:	2218      	movs	r2, #24
 8005016:	189b      	adds	r3, r3, r2
 8005018:	19db      	adds	r3, r3, r7
 800501a:	2201      	movs	r2, #1
 800501c:	701a      	strb	r2, [r3, #0]
 800501e:	e0e5      	b.n	80051ec <UART_SetConfig+0x50c>
 8005020:	efff69f3 	.word	0xefff69f3
 8005024:	ffffcfff 	.word	0xffffcfff
 8005028:	40004800 	.word	0x40004800
 800502c:	fffff4ff 	.word	0xfffff4ff
 8005030:	40013800 	.word	0x40013800
 8005034:	40021000 	.word	0x40021000
 8005038:	40004400 	.word	0x40004400
 800503c:	40004c00 	.word	0x40004c00
 8005040:	40005000 	.word	0x40005000
 8005044:	003d0900 	.word	0x003d0900
 8005048:	00f42400 	.word	0x00f42400
        }
      } /* if ( (pclk < (3 * huart->Init.BaudRate) ) || (pclk > (4096 * huart->Init.BaudRate) )) */
    } /* if (pclk != 0) */
  }
  /* Check UART Over Sampling to set Baud Rate Register */
  else if (huart->Init.OverSampling == UART_OVERSAMPLING_8)
 800504c:	69fb      	ldr	r3, [r7, #28]
 800504e:	69da      	ldr	r2, [r3, #28]
 8005050:	2380      	movs	r3, #128	; 0x80
 8005052:	021b      	lsls	r3, r3, #8
 8005054:	429a      	cmp	r2, r3
 8005056:	d000      	beq.n	800505a <UART_SetConfig+0x37a>
 8005058:	e071      	b.n	800513e <UART_SetConfig+0x45e>
  {
    switch (clocksource)
 800505a:	231b      	movs	r3, #27
 800505c:	2218      	movs	r2, #24
 800505e:	189b      	adds	r3, r3, r2
 8005060:	19db      	adds	r3, r3, r7
 8005062:	781b      	ldrb	r3, [r3, #0]
 8005064:	2b08      	cmp	r3, #8
 8005066:	d822      	bhi.n	80050ae <UART_SetConfig+0x3ce>
 8005068:	009a      	lsls	r2, r3, #2
 800506a:	4b68      	ldr	r3, [pc, #416]	; (800520c <UART_SetConfig+0x52c>)
 800506c:	18d3      	adds	r3, r2, r3
 800506e:	681b      	ldr	r3, [r3, #0]
 8005070:	469f      	mov	pc, r3
    {
      case UART_CLOCKSOURCE_PCLK1:
        pclk = HAL_RCC_GetPCLK1Freq();
 8005072:	f7ff f8db 	bl	800422c <HAL_RCC_GetPCLK1Freq>
 8005076:	0003      	movs	r3, r0
 8005078:	62fb      	str	r3, [r7, #44]	; 0x2c
        break;
 800507a:	e021      	b.n	80050c0 <UART_SetConfig+0x3e0>
      case UART_CLOCKSOURCE_PCLK2:
        pclk = HAL_RCC_GetPCLK2Freq();
 800507c:	f7ff f8ec 	bl	8004258 <HAL_RCC_GetPCLK2Freq>
 8005080:	0003      	movs	r3, r0
 8005082:	62fb      	str	r3, [r7, #44]	; 0x2c
        break;
 8005084:	e01c      	b.n	80050c0 <UART_SetConfig+0x3e0>
      case UART_CLOCKSOURCE_HSI:
        if (__HAL_RCC_GET_FLAG(RCC_FLAG_HSIDIV) != 0U)
 8005086:	4b62      	ldr	r3, [pc, #392]	; (8005210 <UART_SetConfig+0x530>)
 8005088:	681b      	ldr	r3, [r3, #0]
 800508a:	2210      	movs	r2, #16
 800508c:	4013      	ands	r3, r2
 800508e:	d002      	beq.n	8005096 <UART_SetConfig+0x3b6>
        {
          pclk = (uint32_t)(HSI_VALUE >> 2U);
 8005090:	4b60      	ldr	r3, [pc, #384]	; (8005214 <UART_SetConfig+0x534>)
 8005092:	62fb      	str	r3, [r7, #44]	; 0x2c
        }
        else
        {
          pclk = (uint32_t) HSI_VALUE;
        }
        break;
 8005094:	e014      	b.n	80050c0 <UART_SetConfig+0x3e0>
          pclk = (uint32_t) HSI_VALUE;
 8005096:	4b60      	ldr	r3, [pc, #384]	; (8005218 <UART_SetConfig+0x538>)
 8005098:	62fb      	str	r3, [r7, #44]	; 0x2c
        break;
 800509a:	e011      	b.n	80050c0 <UART_SetConfig+0x3e0>
      case UART_CLOCKSOURCE_SYSCLK:
        pclk = HAL_RCC_GetSysClockFreq();
 800509c:	f7ff f816 	bl	80040cc <HAL_RCC_GetSysClockFreq>
 80050a0:	0003      	movs	r3, r0
 80050a2:	62fb      	str	r3, [r7, #44]	; 0x2c
        break;
 80050a4:	e00c      	b.n	80050c0 <UART_SetConfig+0x3e0>
      case UART_CLOCKSOURCE_LSE:
        pclk = (uint32_t) LSE_VALUE;
 80050a6:	2380      	movs	r3, #128	; 0x80
 80050a8:	021b      	lsls	r3, r3, #8
 80050aa:	62fb      	str	r3, [r7, #44]	; 0x2c
        break;
 80050ac:	e008      	b.n	80050c0 <UART_SetConfig+0x3e0>
      default:
        pclk = 0U;
 80050ae:	2300      	movs	r3, #0
 80050b0:	62fb      	str	r3, [r7, #44]	; 0x2c
        ret = HAL_ERROR;
 80050b2:	231a      	movs	r3, #26
 80050b4:	2218      	movs	r2, #24
 80050b6:	189b      	adds	r3, r3, r2
 80050b8:	19db      	adds	r3, r3, r7
 80050ba:	2201      	movs	r2, #1
 80050bc:	701a      	strb	r2, [r3, #0]
        break;
 80050be:	46c0      	nop			; (mov r8, r8)
    }

    /* USARTDIV must be greater than or equal to 0d16 */
    if (pclk != 0U)
 80050c0:	6afb      	ldr	r3, [r7, #44]	; 0x2c
 80050c2:	2b00      	cmp	r3, #0
 80050c4:	d100      	bne.n	80050c8 <UART_SetConfig+0x3e8>
 80050c6:	e091      	b.n	80051ec <UART_SetConfig+0x50c>
    {
      usartdiv = (uint16_t)(UART_DIV_SAMPLING8(pclk, huart->Init.BaudRate));
 80050c8:	6afb      	ldr	r3, [r7, #44]	; 0x2c
 80050ca:	005a      	lsls	r2, r3, #1
 80050cc:	69fb      	ldr	r3, [r7, #28]
 80050ce:	685b      	ldr	r3, [r3, #4]
 80050d0:	085b      	lsrs	r3, r3, #1
 80050d2:	18d2      	adds	r2, r2, r3
 80050d4:	69fb      	ldr	r3, [r7, #28]
 80050d6:	685b      	ldr	r3, [r3, #4]
 80050d8:	0019      	movs	r1, r3
 80050da:	0010      	movs	r0, r2
 80050dc:	f7fb f81e 	bl	800011c <__udivsi3>
 80050e0:	0003      	movs	r3, r0
 80050e2:	b29b      	uxth	r3, r3
 80050e4:	62bb      	str	r3, [r7, #40]	; 0x28
      if ((usartdiv >= UART_BRR_MIN) && (usartdiv <= UART_BRR_MAX))
 80050e6:	6abb      	ldr	r3, [r7, #40]	; 0x28
 80050e8:	2b0f      	cmp	r3, #15
 80050ea:	d921      	bls.n	8005130 <UART_SetConfig+0x450>
 80050ec:	6aba      	ldr	r2, [r7, #40]	; 0x28
 80050ee:	2380      	movs	r3, #128	; 0x80
 80050f0:	025b      	lsls	r3, r3, #9
 80050f2:	429a      	cmp	r2, r3
 80050f4:	d21c      	bcs.n	8005130 <UART_SetConfig+0x450>
      {
        brrtemp = (uint16_t)(usartdiv & 0xFFF0U);
 80050f6:	6abb      	ldr	r3, [r7, #40]	; 0x28
 80050f8:	b29a      	uxth	r2, r3
 80050fa:	200e      	movs	r0, #14
 80050fc:	2418      	movs	r4, #24
 80050fe:	1903      	adds	r3, r0, r4
 8005100:	19db      	adds	r3, r3, r7
 8005102:	210f      	movs	r1, #15
 8005104:	438a      	bics	r2, r1
 8005106:	801a      	strh	r2, [r3, #0]
        brrtemp |= (uint16_t)((usartdiv & (uint16_t)0x000FU) >> 1U);
 8005108:	6abb      	ldr	r3, [r7, #40]	; 0x28
 800510a:	085b      	lsrs	r3, r3, #1
 800510c:	b29b      	uxth	r3, r3
 800510e:	2207      	movs	r2, #7
 8005110:	4013      	ands	r3, r2
 8005112:	b299      	uxth	r1, r3
 8005114:	1903      	adds	r3, r0, r4
 8005116:	19db      	adds	r3, r3, r7
 8005118:	1902      	adds	r2, r0, r4
 800511a:	19d2      	adds	r2, r2, r7
 800511c:	8812      	ldrh	r2, [r2, #0]
 800511e:	430a      	orrs	r2, r1
 8005120:	801a      	strh	r2, [r3, #0]
        huart->Instance->BRR = brrtemp;
 8005122:	69fb      	ldr	r3, [r7, #28]
 8005124:	681b      	ldr	r3, [r3, #0]
 8005126:	1902      	adds	r2, r0, r4
 8005128:	19d2      	adds	r2, r2, r7
 800512a:	8812      	ldrh	r2, [r2, #0]
 800512c:	60da      	str	r2, [r3, #12]
 800512e:	e05d      	b.n	80051ec <UART_SetConfig+0x50c>
      }
      else
      {
        ret = HAL_ERROR;
 8005130:	231a      	movs	r3, #26
 8005132:	2218      	movs	r2, #24
 8005134:	189b      	adds	r3, r3, r2
 8005136:	19db      	adds	r3, r3, r7
 8005138:	2201      	movs	r2, #1
 800513a:	701a      	strb	r2, [r3, #0]
 800513c:	e056      	b.n	80051ec <UART_SetConfig+0x50c>
      }
    }
  }
  else
  {
    switch (clocksource)
 800513e:	231b      	movs	r3, #27
 8005140:	2218      	movs	r2, #24
 8005142:	189b      	adds	r3, r3, r2
 8005144:	19db      	adds	r3, r3, r7
 8005146:	781b      	ldrb	r3, [r3, #0]
 8005148:	2b08      	cmp	r3, #8
 800514a:	d822      	bhi.n	8005192 <UART_SetConfig+0x4b2>
 800514c:	009a      	lsls	r2, r3, #2
 800514e:	4b33      	ldr	r3, [pc, #204]	; (800521c <UART_SetConfig+0x53c>)
 8005150:	18d3      	adds	r3, r2, r3
 8005152:	681b      	ldr	r3, [r3, #0]
 8005154:	469f      	mov	pc, r3
    {
      case UART_CLOCKSOURCE_PCLK1:
        pclk = HAL_RCC_GetPCLK1Freq();
 8005156:	f7ff f869 	bl	800422c <HAL_RCC_GetPCLK1Freq>
 800515a:	0003      	movs	r3, r0
 800515c:	62fb      	str	r3, [r7, #44]	; 0x2c
        break;
 800515e:	e021      	b.n	80051a4 <UART_SetConfig+0x4c4>
      case UART_CLOCKSOURCE_PCLK2:
        pclk = HAL_RCC_GetPCLK2Freq();
 8005160:	f7ff f87a 	bl	8004258 <HAL_RCC_GetPCLK2Freq>
 8005164:	0003      	movs	r3, r0
 8005166:	62fb      	str	r3, [r7, #44]	; 0x2c
        break;
 8005168:	e01c      	b.n	80051a4 <UART_SetConfig+0x4c4>
      case UART_CLOCKSOURCE_HSI:
        if (__HAL_RCC_GET_FLAG(RCC_FLAG_HSIDIV) != 0U)
 800516a:	4b29      	ldr	r3, [pc, #164]	; (8005210 <UART_SetConfig+0x530>)
 800516c:	681b      	ldr	r3, [r3, #0]
 800516e:	2210      	movs	r2, #16
 8005170:	4013      	ands	r3, r2
 8005172:	d002      	beq.n	800517a <UART_SetConfig+0x49a>
        {
          pclk = (uint32_t)(HSI_VALUE >> 2U);
 8005174:	4b27      	ldr	r3, [pc, #156]	; (8005214 <UART_SetConfig+0x534>)
 8005176:	62fb      	str	r3, [r7, #44]	; 0x2c
        }
        else
        {
          pclk = (uint32_t) HSI_VALUE;
        }
        break;
 8005178:	e014      	b.n	80051a4 <UART_SetConfig+0x4c4>
          pclk = (uint32_t) HSI_VALUE;
 800517a:	4b27      	ldr	r3, [pc, #156]	; (8005218 <UART_SetConfig+0x538>)
 800517c:	62fb      	str	r3, [r7, #44]	; 0x2c
        break;
 800517e:	e011      	b.n	80051a4 <UART_SetConfig+0x4c4>
      case UART_CLOCKSOURCE_SYSCLK:
        pclk = HAL_RCC_GetSysClockFreq();
 8005180:	f7fe ffa4 	bl	80040cc <HAL_RCC_GetSysClockFreq>
 8005184:	0003      	movs	r3, r0
 8005186:	62fb      	str	r3, [r7, #44]	; 0x2c
        break;
 8005188:	e00c      	b.n	80051a4 <UART_SetConfig+0x4c4>
      case UART_CLOCKSOURCE_LSE:
        pclk = (uint32_t) LSE_VALUE;
 800518a:	2380      	movs	r3, #128	; 0x80
 800518c:	021b      	lsls	r3, r3, #8
 800518e:	62fb      	str	r3, [r7, #44]	; 0x2c
        break;
 8005190:	e008      	b.n	80051a4 <UART_SetConfig+0x4c4>
      default:
        pclk = 0U;
 8005192:	2300      	movs	r3, #0
 8005194:	62fb      	str	r3, [r7, #44]	; 0x2c
        ret = HAL_ERROR;
 8005196:	231a      	movs	r3, #26
 8005198:	2218      	movs	r2, #24
 800519a:	189b      	adds	r3, r3, r2
 800519c:	19db      	adds	r3, r3, r7
 800519e:	2201      	movs	r2, #1
 80051a0:	701a      	strb	r2, [r3, #0]
        break;
 80051a2:	46c0      	nop			; (mov r8, r8)
    }

    if (pclk != 0U)
 80051a4:	6afb      	ldr	r3, [r7, #44]	; 0x2c
 80051a6:	2b00      	cmp	r3, #0
 80051a8:	d020      	beq.n	80051ec <UART_SetConfig+0x50c>
    {
      /* USARTDIV must be greater than or equal to 0d16 */
      usartdiv = (uint16_t)(UART_DIV_SAMPLING16(pclk, huart->Init.BaudRate));
 80051aa:	69fb      	ldr	r3, [r7, #28]
 80051ac:	685b      	ldr	r3, [r3, #4]
 80051ae:	085a      	lsrs	r2, r3, #1
 80051b0:	6afb      	ldr	r3, [r7, #44]	; 0x2c
 80051b2:	18d2      	adds	r2, r2, r3
 80051b4:	69fb      	ldr	r3, [r7, #28]
 80051b6:	685b      	ldr	r3, [r3, #4]
 80051b8:	0019      	movs	r1, r3
 80051ba:	0010      	movs	r0, r2
 80051bc:	f7fa ffae 	bl	800011c <__udivsi3>
 80051c0:	0003      	movs	r3, r0
 80051c2:	b29b      	uxth	r3, r3
 80051c4:	62bb      	str	r3, [r7, #40]	; 0x28
      if ((usartdiv >= UART_BRR_MIN) && (usartdiv <= UART_BRR_MAX))
 80051c6:	6abb      	ldr	r3, [r7, #40]	; 0x28
 80051c8:	2b0f      	cmp	r3, #15
 80051ca:	d909      	bls.n	80051e0 <UART_SetConfig+0x500>
 80051cc:	6aba      	ldr	r2, [r7, #40]	; 0x28
 80051ce:	2380      	movs	r3, #128	; 0x80
 80051d0:	025b      	lsls	r3, r3, #9
 80051d2:	429a      	cmp	r2, r3
 80051d4:	d204      	bcs.n	80051e0 <UART_SetConfig+0x500>
      {
        huart->Instance->BRR = usartdiv;
 80051d6:	69fb      	ldr	r3, [r7, #28]
 80051d8:	681b      	ldr	r3, [r3, #0]
 80051da:	6aba      	ldr	r2, [r7, #40]	; 0x28
 80051dc:	60da      	str	r2, [r3, #12]
 80051de:	e005      	b.n	80051ec <UART_SetConfig+0x50c>
      }
      else
      {
        ret = HAL_ERROR;
 80051e0:	231a      	movs	r3, #26
 80051e2:	2218      	movs	r2, #24
 80051e4:	189b      	adds	r3, r3, r2
 80051e6:	19db      	adds	r3, r3, r7
 80051e8:	2201      	movs	r2, #1
 80051ea:	701a      	strb	r2, [r3, #0]
    }
  }


  /* Clear ISR function pointers */
  huart->RxISR = NULL;
 80051ec:	69fb      	ldr	r3, [r7, #28]
 80051ee:	2200      	movs	r2, #0
 80051f0:	665a      	str	r2, [r3, #100]	; 0x64
  huart->TxISR = NULL;
 80051f2:	69fb      	ldr	r3, [r7, #28]
 80051f4:	2200      	movs	r2, #0
 80051f6:	669a      	str	r2, [r3, #104]	; 0x68

  return ret;
 80051f8:	231a      	movs	r3, #26
 80051fa:	2218      	movs	r2, #24
 80051fc:	189b      	adds	r3, r3, r2
 80051fe:	19db      	adds	r3, r3, r7
 8005200:	781b      	ldrb	r3, [r3, #0]
}
 8005202:	0018      	movs	r0, r3
 8005204:	46bd      	mov	sp, r7
 8005206:	b00e      	add	sp, #56	; 0x38
 8005208:	bdb0      	pop	{r4, r5, r7, pc}
 800520a:	46c0      	nop			; (mov r8, r8)
 800520c:	08005fc0 	.word	0x08005fc0
 8005210:	40021000 	.word	0x40021000
 8005214:	003d0900 	.word	0x003d0900
 8005218:	00f42400 	.word	0x00f42400
 800521c:	08005fe4 	.word	0x08005fe4

08005220 <UART_AdvFeatureConfig>:
  * @brief Configure the UART peripheral advanced features.
  * @param huart UART handle.
  * @retval None
  */
void UART_AdvFeatureConfig(UART_HandleTypeDef *huart)
{
 8005220:	b580      	push	{r7, lr}
 8005222:	b082      	sub	sp, #8
 8005224:	af00      	add	r7, sp, #0
 8005226:	6078      	str	r0, [r7, #4]
  /* Check whether the set of advanced features to configure is properly set */
  assert_param(IS_UART_ADVFEATURE_INIT(huart->AdvancedInit.AdvFeatureInit));

  /* if required, configure TX pin active level inversion */
  if (HAL_IS_BIT_SET(huart->AdvancedInit.AdvFeatureInit, UART_ADVFEATURE_TXINVERT_INIT))
 8005228:	687b      	ldr	r3, [r7, #4]
 800522a:	6a5b      	ldr	r3, [r3, #36]	; 0x24
 800522c:	2201      	movs	r2, #1
 800522e:	4013      	ands	r3, r2
 8005230:	d00b      	beq.n	800524a <UART_AdvFeatureConfig+0x2a>
  {
    assert_param(IS_UART_ADVFEATURE_TXINV(huart->AdvancedInit.TxPinLevelInvert));
    MODIFY_REG(huart->Instance->CR2, USART_CR2_TXINV, huart->AdvancedInit.TxPinLevelInvert);
 8005232:	687b      	ldr	r3, [r7, #4]
 8005234:	681b      	ldr	r3, [r3, #0]
 8005236:	685b      	ldr	r3, [r3, #4]
 8005238:	4a4a      	ldr	r2, [pc, #296]	; (8005364 <UART_AdvFeatureConfig+0x144>)
 800523a:	4013      	ands	r3, r2
 800523c:	0019      	movs	r1, r3
 800523e:	687b      	ldr	r3, [r7, #4]
 8005240:	6a9a      	ldr	r2, [r3, #40]	; 0x28
 8005242:	687b      	ldr	r3, [r7, #4]
 8005244:	681b      	ldr	r3, [r3, #0]
 8005246:	430a      	orrs	r2, r1
 8005248:	605a      	str	r2, [r3, #4]
  }

  /* if required, configure RX pin active level inversion */
  if (HAL_IS_BIT_SET(huart->AdvancedInit.AdvFeatureInit, UART_ADVFEATURE_RXINVERT_INIT))
 800524a:	687b      	ldr	r3, [r7, #4]
 800524c:	6a5b      	ldr	r3, [r3, #36]	; 0x24
 800524e:	2202      	movs	r2, #2
 8005250:	4013      	ands	r3, r2
 8005252:	d00b      	beq.n	800526c <UART_AdvFeatureConfig+0x4c>
  {
    assert_param(IS_UART_ADVFEATURE_RXINV(huart->AdvancedInit.RxPinLevelInvert));
    MODIFY_REG(huart->Instance->CR2, USART_CR2_RXINV, huart->AdvancedInit.RxPinLevelInvert);
 8005254:	687b      	ldr	r3, [r7, #4]
 8005256:	681b      	ldr	r3, [r3, #0]
 8005258:	685b      	ldr	r3, [r3, #4]
 800525a:	4a43      	ldr	r2, [pc, #268]	; (8005368 <UART_AdvFeatureConfig+0x148>)
 800525c:	4013      	ands	r3, r2
 800525e:	0019      	movs	r1, r3
 8005260:	687b      	ldr	r3, [r7, #4]
 8005262:	6ada      	ldr	r2, [r3, #44]	; 0x2c
 8005264:	687b      	ldr	r3, [r7, #4]
 8005266:	681b      	ldr	r3, [r3, #0]
 8005268:	430a      	orrs	r2, r1
 800526a:	605a      	str	r2, [r3, #4]
  }

  /* if required, configure data inversion */
  if (HAL_IS_BIT_SET(huart->AdvancedInit.AdvFeatureInit, UART_ADVFEATURE_DATAINVERT_INIT))
 800526c:	687b      	ldr	r3, [r7, #4]
 800526e:	6a5b      	ldr	r3, [r3, #36]	; 0x24
 8005270:	2204      	movs	r2, #4
 8005272:	4013      	ands	r3, r2
 8005274:	d00b      	beq.n	800528e <UART_AdvFeatureConfig+0x6e>
  {
    assert_param(IS_UART_ADVFEATURE_DATAINV(huart->AdvancedInit.DataInvert));
    MODIFY_REG(huart->Instance->CR2, USART_CR2_DATAINV, huart->AdvancedInit.DataInvert);
 8005276:	687b      	ldr	r3, [r7, #4]
 8005278:	681b      	ldr	r3, [r3, #0]
 800527a:	685b      	ldr	r3, [r3, #4]
 800527c:	4a3b      	ldr	r2, [pc, #236]	; (800536c <UART_AdvFeatureConfig+0x14c>)
 800527e:	4013      	ands	r3, r2
 8005280:	0019      	movs	r1, r3
 8005282:	687b      	ldr	r3, [r7, #4]
 8005284:	6b1a      	ldr	r2, [r3, #48]	; 0x30
 8005286:	687b      	ldr	r3, [r7, #4]
 8005288:	681b      	ldr	r3, [r3, #0]
 800528a:	430a      	orrs	r2, r1
 800528c:	605a      	str	r2, [r3, #4]
  }

  /* if required, configure RX/TX pins swap */
  if (HAL_IS_BIT_SET(huart->AdvancedInit.AdvFeatureInit, UART_ADVFEATURE_SWAP_INIT))
 800528e:	687b      	ldr	r3, [r7, #4]
 8005290:	6a5b      	ldr	r3, [r3, #36]	; 0x24
 8005292:	2208      	movs	r2, #8
 8005294:	4013      	ands	r3, r2
 8005296:	d00b      	beq.n	80052b0 <UART_AdvFeatureConfig+0x90>
  {
    assert_param(IS_UART_ADVFEATURE_SWAP(huart->AdvancedInit.Swap));
    MODIFY_REG(huart->Instance->CR2, USART_CR2_SWAP, huart->AdvancedInit.Swap);
 8005298:	687b      	ldr	r3, [r7, #4]
 800529a:	681b      	ldr	r3, [r3, #0]
 800529c:	685b      	ldr	r3, [r3, #4]
 800529e:	4a34      	ldr	r2, [pc, #208]	; (8005370 <UART_AdvFeatureConfig+0x150>)
 80052a0:	4013      	ands	r3, r2
 80052a2:	0019      	movs	r1, r3
 80052a4:	687b      	ldr	r3, [r7, #4]
 80052a6:	6b5a      	ldr	r2, [r3, #52]	; 0x34
 80052a8:	687b      	ldr	r3, [r7, #4]
 80052aa:	681b      	ldr	r3, [r3, #0]
 80052ac:	430a      	orrs	r2, r1
 80052ae:	605a      	str	r2, [r3, #4]
  }

  /* if required, configure RX overrun detection disabling */
  if (HAL_IS_BIT_SET(huart->AdvancedInit.AdvFeatureInit, UART_ADVFEATURE_RXOVERRUNDISABLE_INIT))
 80052b0:	687b      	ldr	r3, [r7, #4]
 80052b2:	6a5b      	ldr	r3, [r3, #36]	; 0x24
 80052b4:	2210      	movs	r2, #16
 80052b6:	4013      	ands	r3, r2
 80052b8:	d00b      	beq.n	80052d2 <UART_AdvFeatureConfig+0xb2>
  {
    assert_param(IS_UART_OVERRUN(huart->AdvancedInit.OverrunDisable));
    MODIFY_REG(huart->Instance->CR3, USART_CR3_OVRDIS, huart->AdvancedInit.OverrunDisable);
 80052ba:	687b      	ldr	r3, [r7, #4]
 80052bc:	681b      	ldr	r3, [r3, #0]
 80052be:	689b      	ldr	r3, [r3, #8]
 80052c0:	4a2c      	ldr	r2, [pc, #176]	; (8005374 <UART_AdvFeatureConfig+0x154>)
 80052c2:	4013      	ands	r3, r2
 80052c4:	0019      	movs	r1, r3
 80052c6:	687b      	ldr	r3, [r7, #4]
 80052c8:	6b9a      	ldr	r2, [r3, #56]	; 0x38
 80052ca:	687b      	ldr	r3, [r7, #4]
 80052cc:	681b      	ldr	r3, [r3, #0]
 80052ce:	430a      	orrs	r2, r1
 80052d0:	609a      	str	r2, [r3, #8]
  }

  /* if required, configure DMA disabling on reception error */
  if (HAL_IS_BIT_SET(huart->AdvancedInit.AdvFeatureInit, UART_ADVFEATURE_DMADISABLEONERROR_INIT))
 80052d2:	687b      	ldr	r3, [r7, #4]
 80052d4:	6a5b      	ldr	r3, [r3, #36]	; 0x24
 80052d6:	2220      	movs	r2, #32
 80052d8:	4013      	ands	r3, r2
 80052da:	d00b      	beq.n	80052f4 <UART_AdvFeatureConfig+0xd4>
  {
    assert_param(IS_UART_ADVFEATURE_DMAONRXERROR(huart->AdvancedInit.DMADisableonRxError));
    MODIFY_REG(huart->Instance->CR3, USART_CR3_DDRE, huart->AdvancedInit.DMADisableonRxError);
 80052dc:	687b      	ldr	r3, [r7, #4]
 80052de:	681b      	ldr	r3, [r3, #0]
 80052e0:	689b      	ldr	r3, [r3, #8]
 80052e2:	4a25      	ldr	r2, [pc, #148]	; (8005378 <UART_AdvFeatureConfig+0x158>)
 80052e4:	4013      	ands	r3, r2
 80052e6:	0019      	movs	r1, r3
 80052e8:	687b      	ldr	r3, [r7, #4]
 80052ea:	6bda      	ldr	r2, [r3, #60]	; 0x3c
 80052ec:	687b      	ldr	r3, [r7, #4]
 80052ee:	681b      	ldr	r3, [r3, #0]
 80052f0:	430a      	orrs	r2, r1
 80052f2:	609a      	str	r2, [r3, #8]
  }

  /* if required, configure auto Baud rate detection scheme */
  if (HAL_IS_BIT_SET(huart->AdvancedInit.AdvFeatureInit, UART_ADVFEATURE_AUTOBAUDRATE_INIT))
 80052f4:	687b      	ldr	r3, [r7, #4]
 80052f6:	6a5b      	ldr	r3, [r3, #36]	; 0x24
 80052f8:	2240      	movs	r2, #64	; 0x40
 80052fa:	4013      	ands	r3, r2
 80052fc:	d01d      	beq.n	800533a <UART_AdvFeatureConfig+0x11a>
  {
    assert_param(IS_USART_AUTOBAUDRATE_DETECTION_INSTANCE(huart->Instance));
    assert_param(IS_UART_ADVFEATURE_AUTOBAUDRATE(huart->AdvancedInit.AutoBaudRateEnable));
    MODIFY_REG(huart->Instance->CR2, USART_CR2_ABREN, huart->AdvancedInit.AutoBaudRateEnable);
 80052fe:	687b      	ldr	r3, [r7, #4]
 8005300:	681b      	ldr	r3, [r3, #0]
 8005302:	685b      	ldr	r3, [r3, #4]
 8005304:	4a1d      	ldr	r2, [pc, #116]	; (800537c <UART_AdvFeatureConfig+0x15c>)
 8005306:	4013      	ands	r3, r2
 8005308:	0019      	movs	r1, r3
 800530a:	687b      	ldr	r3, [r7, #4]
 800530c:	6c1a      	ldr	r2, [r3, #64]	; 0x40
 800530e:	687b      	ldr	r3, [r7, #4]
 8005310:	681b      	ldr	r3, [r3, #0]
 8005312:	430a      	orrs	r2, r1
 8005314:	605a      	str	r2, [r3, #4]
    /* set auto Baudrate detection parameters if detection is enabled */
    if (huart->AdvancedInit.AutoBaudRateEnable == UART_ADVFEATURE_AUTOBAUDRATE_ENABLE)
 8005316:	687b      	ldr	r3, [r7, #4]
 8005318:	6c1a      	ldr	r2, [r3, #64]	; 0x40
 800531a:	2380      	movs	r3, #128	; 0x80
 800531c:	035b      	lsls	r3, r3, #13
 800531e:	429a      	cmp	r2, r3
 8005320:	d10b      	bne.n	800533a <UART_AdvFeatureConfig+0x11a>
    {
      assert_param(IS_UART_ADVFEATURE_AUTOBAUDRATEMODE(huart->AdvancedInit.AutoBaudRateMode));
      MODIFY_REG(huart->Instance->CR2, USART_CR2_ABRMODE, huart->AdvancedInit.AutoBaudRateMode);
 8005322:	687b      	ldr	r3, [r7, #4]
 8005324:	681b      	ldr	r3, [r3, #0]
 8005326:	685b      	ldr	r3, [r3, #4]
 8005328:	4a15      	ldr	r2, [pc, #84]	; (8005380 <UART_AdvFeatureConfig+0x160>)
 800532a:	4013      	ands	r3, r2
 800532c:	0019      	movs	r1, r3
 800532e:	687b      	ldr	r3, [r7, #4]
 8005330:	6c5a      	ldr	r2, [r3, #68]	; 0x44
 8005332:	687b      	ldr	r3, [r7, #4]
 8005334:	681b      	ldr	r3, [r3, #0]
 8005336:	430a      	orrs	r2, r1
 8005338:	605a      	str	r2, [r3, #4]
    }
  }

  /* if required, configure MSB first on communication line */
  if (HAL_IS_BIT_SET(huart->AdvancedInit.AdvFeatureInit, UART_ADVFEATURE_MSBFIRST_INIT))
 800533a:	687b      	ldr	r3, [r7, #4]
 800533c:	6a5b      	ldr	r3, [r3, #36]	; 0x24
 800533e:	2280      	movs	r2, #128	; 0x80
 8005340:	4013      	ands	r3, r2
 8005342:	d00b      	beq.n	800535c <UART_AdvFeatureConfig+0x13c>
  {
    assert_param(IS_UART_ADVFEATURE_MSBFIRST(huart->AdvancedInit.MSBFirst));
    MODIFY_REG(huart->Instance->CR2, USART_CR2_MSBFIRST, huart->AdvancedInit.MSBFirst);
 8005344:	687b      	ldr	r3, [r7, #4]
 8005346:	681b      	ldr	r3, [r3, #0]
 8005348:	685b      	ldr	r3, [r3, #4]
 800534a:	4a0e      	ldr	r2, [pc, #56]	; (8005384 <UART_AdvFeatureConfig+0x164>)
 800534c:	4013      	ands	r3, r2
 800534e:	0019      	movs	r1, r3
 8005350:	687b      	ldr	r3, [r7, #4]
 8005352:	6c9a      	ldr	r2, [r3, #72]	; 0x48
 8005354:	687b      	ldr	r3, [r7, #4]
 8005356:	681b      	ldr	r3, [r3, #0]
 8005358:	430a      	orrs	r2, r1
 800535a:	605a      	str	r2, [r3, #4]
  }
}
 800535c:	46c0      	nop			; (mov r8, r8)
 800535e:	46bd      	mov	sp, r7
 8005360:	b002      	add	sp, #8
 8005362:	bd80      	pop	{r7, pc}
 8005364:	fffdffff 	.word	0xfffdffff
 8005368:	fffeffff 	.word	0xfffeffff
 800536c:	fffbffff 	.word	0xfffbffff
 8005370:	ffff7fff 	.word	0xffff7fff
 8005374:	ffffefff 	.word	0xffffefff
 8005378:	ffffdfff 	.word	0xffffdfff
 800537c:	ffefffff 	.word	0xffefffff
 8005380:	ff9fffff 	.word	0xff9fffff
 8005384:	fff7ffff 	.word	0xfff7ffff

08005388 <UART_CheckIdleState>:
  * @brief Check the UART Idle State.
  * @param huart UART handle.
  * @retval HAL status
  */
HAL_StatusTypeDef UART_CheckIdleState(UART_HandleTypeDef *huart)
{
 8005388:	b580      	push	{r7, lr}
 800538a:	b086      	sub	sp, #24
 800538c:	af02      	add	r7, sp, #8
 800538e:	6078      	str	r0, [r7, #4]
  uint32_t tickstart;

  /* Initialize the UART ErrorCode */
  huart->ErrorCode = HAL_UART_ERROR_NONE;
 8005390:	687b      	ldr	r3, [r7, #4]
 8005392:	2280      	movs	r2, #128	; 0x80
 8005394:	2100      	movs	r1, #0
 8005396:	5099      	str	r1, [r3, r2]

  /* Init tickstart for timeout management */
  tickstart = HAL_GetTick();
 8005398:	f7fd fb66 	bl	8002a68 <HAL_GetTick>
 800539c:	0003      	movs	r3, r0
 800539e:	60fb      	str	r3, [r7, #12]

  /* Check if the Transmitter is enabled */
  if ((huart->Instance->CR1 & USART_CR1_TE) == USART_CR1_TE)
 80053a0:	687b      	ldr	r3, [r7, #4]
 80053a2:	681b      	ldr	r3, [r3, #0]
 80053a4:	681b      	ldr	r3, [r3, #0]
 80053a6:	2208      	movs	r2, #8
 80053a8:	4013      	ands	r3, r2
 80053aa:	2b08      	cmp	r3, #8
 80053ac:	d10c      	bne.n	80053c8 <UART_CheckIdleState+0x40>
  {
    /* Wait until TEACK flag is set */
    if (UART_WaitOnFlagUntilTimeout(huart, USART_ISR_TEACK, RESET, tickstart, HAL_UART_TIMEOUT_VALUE) != HAL_OK)
 80053ae:	68fb      	ldr	r3, [r7, #12]
 80053b0:	2280      	movs	r2, #128	; 0x80
 80053b2:	0391      	lsls	r1, r2, #14
 80053b4:	6878      	ldr	r0, [r7, #4]
 80053b6:	4a17      	ldr	r2, [pc, #92]	; (8005414 <UART_CheckIdleState+0x8c>)
 80053b8:	9200      	str	r2, [sp, #0]
 80053ba:	2200      	movs	r2, #0
 80053bc:	f000 f82c 	bl	8005418 <UART_WaitOnFlagUntilTimeout>
 80053c0:	1e03      	subs	r3, r0, #0
 80053c2:	d001      	beq.n	80053c8 <UART_CheckIdleState+0x40>
    {
      /* Timeout occurred */
      return HAL_TIMEOUT;
 80053c4:	2303      	movs	r3, #3
 80053c6:	e021      	b.n	800540c <UART_CheckIdleState+0x84>
    }
  }

  /* Check if the Receiver is enabled */
  if ((huart->Instance->CR1 & USART_CR1_RE) == USART_CR1_RE)
 80053c8:	687b      	ldr	r3, [r7, #4]
 80053ca:	681b      	ldr	r3, [r3, #0]
 80053cc:	681b      	ldr	r3, [r3, #0]
 80053ce:	2204      	movs	r2, #4
 80053d0:	4013      	ands	r3, r2
 80053d2:	2b04      	cmp	r3, #4
 80053d4:	d10c      	bne.n	80053f0 <UART_CheckIdleState+0x68>
  {
    /* Wait until REACK flag is set */
    if (UART_WaitOnFlagUntilTimeout(huart, USART_ISR_REACK, RESET, tickstart, HAL_UART_TIMEOUT_VALUE) != HAL_OK)
 80053d6:	68fb      	ldr	r3, [r7, #12]
 80053d8:	2280      	movs	r2, #128	; 0x80
 80053da:	03d1      	lsls	r1, r2, #15
 80053dc:	6878      	ldr	r0, [r7, #4]
 80053de:	4a0d      	ldr	r2, [pc, #52]	; (8005414 <UART_CheckIdleState+0x8c>)
 80053e0:	9200      	str	r2, [sp, #0]
 80053e2:	2200      	movs	r2, #0
 80053e4:	f000 f818 	bl	8005418 <UART_WaitOnFlagUntilTimeout>
 80053e8:	1e03      	subs	r3, r0, #0
 80053ea:	d001      	beq.n	80053f0 <UART_CheckIdleState+0x68>
    {
      /* Timeout occurred */
      return HAL_TIMEOUT;
 80053ec:	2303      	movs	r3, #3
 80053ee:	e00d      	b.n	800540c <UART_CheckIdleState+0x84>
    }
  }

  /* Initialize the UART State */
  huart->gState = HAL_UART_STATE_READY;
 80053f0:	687b      	ldr	r3, [r7, #4]
 80053f2:	2220      	movs	r2, #32
 80053f4:	679a      	str	r2, [r3, #120]	; 0x78
  huart->RxState = HAL_UART_STATE_READY;
 80053f6:	687b      	ldr	r3, [r7, #4]
 80053f8:	2220      	movs	r2, #32
 80053fa:	67da      	str	r2, [r3, #124]	; 0x7c
  huart->ReceptionType = HAL_UART_RECEPTION_STANDARD;
 80053fc:	687b      	ldr	r3, [r7, #4]
 80053fe:	2200      	movs	r2, #0
 8005400:	661a      	str	r2, [r3, #96]	; 0x60

  __HAL_UNLOCK(huart);
 8005402:	687b      	ldr	r3, [r7, #4]
 8005404:	2274      	movs	r2, #116	; 0x74
 8005406:	2100      	movs	r1, #0
 8005408:	5499      	strb	r1, [r3, r2]

  return HAL_OK;
 800540a:	2300      	movs	r3, #0
}
 800540c:	0018      	movs	r0, r3
 800540e:	46bd      	mov	sp, r7
 8005410:	b004      	add	sp, #16
 8005412:	bd80      	pop	{r7, pc}
 8005414:	01ffffff 	.word	0x01ffffff

08005418 <UART_WaitOnFlagUntilTimeout>:
  * @param Timeout   Timeout duration
  * @retval HAL status
  */
HAL_StatusTypeDef UART_WaitOnFlagUntilTimeout(UART_HandleTypeDef *huart, uint32_t Flag, FlagStatus Status,
                                              uint32_t Tickstart, uint32_t Timeout)
{
 8005418:	b580      	push	{r7, lr}
 800541a:	b094      	sub	sp, #80	; 0x50
 800541c:	af00      	add	r7, sp, #0
 800541e:	60f8      	str	r0, [r7, #12]
 8005420:	60b9      	str	r1, [r7, #8]
 8005422:	603b      	str	r3, [r7, #0]
 8005424:	1dfb      	adds	r3, r7, #7
 8005426:	701a      	strb	r2, [r3, #0]
  /* Wait until flag is set */
  while ((__HAL_UART_GET_FLAG(huart, Flag) ? SET : RESET) == Status)
 8005428:	e0a3      	b.n	8005572 <UART_WaitOnFlagUntilTimeout+0x15a>
  {
    /* Check for the Timeout */
    if (Timeout != HAL_MAX_DELAY)
 800542a:	6dbb      	ldr	r3, [r7, #88]	; 0x58
 800542c:	3301      	adds	r3, #1
 800542e:	d100      	bne.n	8005432 <UART_WaitOnFlagUntilTimeout+0x1a>
 8005430:	e09f      	b.n	8005572 <UART_WaitOnFlagUntilTimeout+0x15a>
    {
      if (((HAL_GetTick() - Tickstart) > Timeout) || (Timeout == 0U))
 8005432:	f7fd fb19 	bl	8002a68 <HAL_GetTick>
 8005436:	0002      	movs	r2, r0
 8005438:	683b      	ldr	r3, [r7, #0]
 800543a:	1ad3      	subs	r3, r2, r3
 800543c:	6dba      	ldr	r2, [r7, #88]	; 0x58
 800543e:	429a      	cmp	r2, r3
 8005440:	d302      	bcc.n	8005448 <UART_WaitOnFlagUntilTimeout+0x30>
 8005442:	6dbb      	ldr	r3, [r7, #88]	; 0x58
 8005444:	2b00      	cmp	r3, #0
 8005446:	d13d      	bne.n	80054c4 <UART_WaitOnFlagUntilTimeout+0xac>
 */
__STATIC_FORCEINLINE uint32_t __get_PRIMASK(void)
{
  uint32_t result;

  __ASM volatile ("MRS %0, primask" : "=r" (result) :: "memory");
 8005448:	f3ef 8310 	mrs	r3, PRIMASK
 800544c:	62bb      	str	r3, [r7, #40]	; 0x28
  return(result);
 800544e:	6abb      	ldr	r3, [r7, #40]	; 0x28
      {
        /* Disable TXE, RXNE, PE and ERR (Frame error, noise error, overrun error)
           interrupts for the interrupt process */
        ATOMIC_CLEAR_BIT(huart->Instance->CR1, (USART_CR1_RXNEIE | USART_CR1_PEIE | USART_CR1_TXEIE));
 8005450:	647b      	str	r3, [r7, #68]	; 0x44
 8005452:	2301      	movs	r3, #1
 8005454:	62fb      	str	r3, [r7, #44]	; 0x2c
  \details Assigns the given value to the Priority Mask Register.
  \param [in]    priMask  Priority Mask
 */
__STATIC_FORCEINLINE void __set_PRIMASK(uint32_t priMask)
{
  __ASM volatile ("MSR primask, %0" : : "r" (priMask) : "memory");
 8005456:	6afb      	ldr	r3, [r7, #44]	; 0x2c
 8005458:	f383 8810 	msr	PRIMASK, r3
}
 800545c:	46c0      	nop			; (mov r8, r8)
 800545e:	68fb      	ldr	r3, [r7, #12]
 8005460:	681b      	ldr	r3, [r3, #0]
 8005462:	681a      	ldr	r2, [r3, #0]
 8005464:	68fb      	ldr	r3, [r7, #12]
 8005466:	681b      	ldr	r3, [r3, #0]
 8005468:	494c      	ldr	r1, [pc, #304]	; (800559c <UART_WaitOnFlagUntilTimeout+0x184>)
 800546a:	400a      	ands	r2, r1
 800546c:	601a      	str	r2, [r3, #0]
 800546e:	6c7b      	ldr	r3, [r7, #68]	; 0x44
 8005470:	633b      	str	r3, [r7, #48]	; 0x30
  __ASM volatile ("MSR primask, %0" : : "r" (priMask) : "memory");
 8005472:	6b3b      	ldr	r3, [r7, #48]	; 0x30
 8005474:	f383 8810 	msr	PRIMASK, r3
}
 8005478:	46c0      	nop			; (mov r8, r8)
  __ASM volatile ("MRS %0, primask" : "=r" (result) :: "memory");
 800547a:	f3ef 8310 	mrs	r3, PRIMASK
 800547e:	637b      	str	r3, [r7, #52]	; 0x34
  return(result);
 8005480:	6b7b      	ldr	r3, [r7, #52]	; 0x34
        ATOMIC_CLEAR_BIT(huart->Instance->CR3, USART_CR3_EIE);
 8005482:	643b      	str	r3, [r7, #64]	; 0x40
 8005484:	2301      	movs	r3, #1
 8005486:	63bb      	str	r3, [r7, #56]	; 0x38
  __ASM volatile ("MSR primask, %0" : : "r" (priMask) : "memory");
 8005488:	6bbb      	ldr	r3, [r7, #56]	; 0x38
 800548a:	f383 8810 	msr	PRIMASK, r3
}
 800548e:	46c0      	nop			; (mov r8, r8)
 8005490:	68fb      	ldr	r3, [r7, #12]
 8005492:	681b      	ldr	r3, [r3, #0]
 8005494:	689a      	ldr	r2, [r3, #8]
 8005496:	68fb      	ldr	r3, [r7, #12]
 8005498:	681b      	ldr	r3, [r3, #0]
 800549a:	2101      	movs	r1, #1
 800549c:	438a      	bics	r2, r1
 800549e:	609a      	str	r2, [r3, #8]
 80054a0:	6c3b      	ldr	r3, [r7, #64]	; 0x40
 80054a2:	63fb      	str	r3, [r7, #60]	; 0x3c
  __ASM volatile ("MSR primask, %0" : : "r" (priMask) : "memory");
 80054a4:	6bfb      	ldr	r3, [r7, #60]	; 0x3c
 80054a6:	f383 8810 	msr	PRIMASK, r3
}
 80054aa:	46c0      	nop			; (mov r8, r8)

        huart->gState = HAL_UART_STATE_READY;
 80054ac:	68fb      	ldr	r3, [r7, #12]
 80054ae:	2220      	movs	r2, #32
 80054b0:	679a      	str	r2, [r3, #120]	; 0x78
        huart->RxState = HAL_UART_STATE_READY;
 80054b2:	68fb      	ldr	r3, [r7, #12]
 80054b4:	2220      	movs	r2, #32
 80054b6:	67da      	str	r2, [r3, #124]	; 0x7c

        __HAL_UNLOCK(huart);
 80054b8:	68fb      	ldr	r3, [r7, #12]
 80054ba:	2274      	movs	r2, #116	; 0x74
 80054bc:	2100      	movs	r1, #0
 80054be:	5499      	strb	r1, [r3, r2]

        return HAL_TIMEOUT;
 80054c0:	2303      	movs	r3, #3
 80054c2:	e067      	b.n	8005594 <UART_WaitOnFlagUntilTimeout+0x17c>
      }

      if (READ_BIT(huart->Instance->CR1, USART_CR1_RE) != 0U)
 80054c4:	68fb      	ldr	r3, [r7, #12]
 80054c6:	681b      	ldr	r3, [r3, #0]
 80054c8:	681b      	ldr	r3, [r3, #0]
 80054ca:	2204      	movs	r2, #4
 80054cc:	4013      	ands	r3, r2
 80054ce:	d050      	beq.n	8005572 <UART_WaitOnFlagUntilTimeout+0x15a>
      {
        if (__HAL_UART_GET_FLAG(huart, UART_FLAG_RTOF) == SET)
 80054d0:	68fb      	ldr	r3, [r7, #12]
 80054d2:	681b      	ldr	r3, [r3, #0]
 80054d4:	69da      	ldr	r2, [r3, #28]
 80054d6:	2380      	movs	r3, #128	; 0x80
 80054d8:	011b      	lsls	r3, r3, #4
 80054da:	401a      	ands	r2, r3
 80054dc:	2380      	movs	r3, #128	; 0x80
 80054de:	011b      	lsls	r3, r3, #4
 80054e0:	429a      	cmp	r2, r3
 80054e2:	d146      	bne.n	8005572 <UART_WaitOnFlagUntilTimeout+0x15a>
        {
          /* Clear Receiver Timeout flag*/
          __HAL_UART_CLEAR_FLAG(huart, UART_CLEAR_RTOF);
 80054e4:	68fb      	ldr	r3, [r7, #12]
 80054e6:	681b      	ldr	r3, [r3, #0]
 80054e8:	2280      	movs	r2, #128	; 0x80
 80054ea:	0112      	lsls	r2, r2, #4
 80054ec:	621a      	str	r2, [r3, #32]
  __ASM volatile ("MRS %0, primask" : "=r" (result) :: "memory");
 80054ee:	f3ef 8310 	mrs	r3, PRIMASK
 80054f2:	613b      	str	r3, [r7, #16]
  return(result);
 80054f4:	693b      	ldr	r3, [r7, #16]

          /* Disable TXE, RXNE, PE and ERR (Frame error, noise error, overrun error)
             interrupts for the interrupt process */
          ATOMIC_CLEAR_BIT(huart->Instance->CR1, (USART_CR1_RXNEIE | USART_CR1_PEIE | USART_CR1_TXEIE));
 80054f6:	64fb      	str	r3, [r7, #76]	; 0x4c
 80054f8:	2301      	movs	r3, #1
 80054fa:	617b      	str	r3, [r7, #20]
  __ASM volatile ("MSR primask, %0" : : "r" (priMask) : "memory");
 80054fc:	697b      	ldr	r3, [r7, #20]
 80054fe:	f383 8810 	msr	PRIMASK, r3
}
 8005502:	46c0      	nop			; (mov r8, r8)
 8005504:	68fb      	ldr	r3, [r7, #12]
 8005506:	681b      	ldr	r3, [r3, #0]
 8005508:	681a      	ldr	r2, [r3, #0]
 800550a:	68fb      	ldr	r3, [r7, #12]
 800550c:	681b      	ldr	r3, [r3, #0]
 800550e:	4923      	ldr	r1, [pc, #140]	; (800559c <UART_WaitOnFlagUntilTimeout+0x184>)
 8005510:	400a      	ands	r2, r1
 8005512:	601a      	str	r2, [r3, #0]
 8005514:	6cfb      	ldr	r3, [r7, #76]	; 0x4c
 8005516:	61bb      	str	r3, [r7, #24]
  __ASM volatile ("MSR primask, %0" : : "r" (priMask) : "memory");
 8005518:	69bb      	ldr	r3, [r7, #24]
 800551a:	f383 8810 	msr	PRIMASK, r3
}
 800551e:	46c0      	nop			; (mov r8, r8)
  __ASM volatile ("MRS %0, primask" : "=r" (result) :: "memory");
 8005520:	f3ef 8310 	mrs	r3, PRIMASK
 8005524:	61fb      	str	r3, [r7, #28]
  return(result);
 8005526:	69fb      	ldr	r3, [r7, #28]
          ATOMIC_CLEAR_BIT(huart->Instance->CR3, USART_CR3_EIE);
 8005528:	64bb      	str	r3, [r7, #72]	; 0x48
 800552a:	2301      	movs	r3, #1
 800552c:	623b      	str	r3, [r7, #32]
  __ASM volatile ("MSR primask, %0" : : "r" (priMask) : "memory");
 800552e:	6a3b      	ldr	r3, [r7, #32]
 8005530:	f383 8810 	msr	PRIMASK, r3
}
 8005534:	46c0      	nop			; (mov r8, r8)
 8005536:	68fb      	ldr	r3, [r7, #12]
 8005538:	681b      	ldr	r3, [r3, #0]
 800553a:	689a      	ldr	r2, [r3, #8]
 800553c:	68fb      	ldr	r3, [r7, #12]
 800553e:	681b      	ldr	r3, [r3, #0]
 8005540:	2101      	movs	r1, #1
 8005542:	438a      	bics	r2, r1
 8005544:	609a      	str	r2, [r3, #8]
 8005546:	6cbb      	ldr	r3, [r7, #72]	; 0x48
 8005548:	627b      	str	r3, [r7, #36]	; 0x24
  __ASM volatile ("MSR primask, %0" : : "r" (priMask) : "memory");
 800554a:	6a7b      	ldr	r3, [r7, #36]	; 0x24
 800554c:	f383 8810 	msr	PRIMASK, r3
}
 8005550:	46c0      	nop			; (mov r8, r8)

          huart->gState = HAL_UART_STATE_READY;
 8005552:	68fb      	ldr	r3, [r7, #12]
 8005554:	2220      	movs	r2, #32
 8005556:	679a      	str	r2, [r3, #120]	; 0x78
          huart->RxState = HAL_UART_STATE_READY;
 8005558:	68fb      	ldr	r3, [r7, #12]
 800555a:	2220      	movs	r2, #32
 800555c:	67da      	str	r2, [r3, #124]	; 0x7c
          huart->ErrorCode = HAL_UART_ERROR_RTO;
 800555e:	68fb      	ldr	r3, [r7, #12]
 8005560:	2280      	movs	r2, #128	; 0x80
 8005562:	2120      	movs	r1, #32
 8005564:	5099      	str	r1, [r3, r2]

          /* Process Unlocked */
          __HAL_UNLOCK(huart);
 8005566:	68fb      	ldr	r3, [r7, #12]
 8005568:	2274      	movs	r2, #116	; 0x74
 800556a:	2100      	movs	r1, #0
 800556c:	5499      	strb	r1, [r3, r2]

          return HAL_TIMEOUT;
 800556e:	2303      	movs	r3, #3
 8005570:	e010      	b.n	8005594 <UART_WaitOnFlagUntilTimeout+0x17c>
  while ((__HAL_UART_GET_FLAG(huart, Flag) ? SET : RESET) == Status)
 8005572:	68fb      	ldr	r3, [r7, #12]
 8005574:	681b      	ldr	r3, [r3, #0]
 8005576:	69db      	ldr	r3, [r3, #28]
 8005578:	68ba      	ldr	r2, [r7, #8]
 800557a:	4013      	ands	r3, r2
 800557c:	68ba      	ldr	r2, [r7, #8]
 800557e:	1ad3      	subs	r3, r2, r3
 8005580:	425a      	negs	r2, r3
 8005582:	4153      	adcs	r3, r2
 8005584:	b2db      	uxtb	r3, r3
 8005586:	001a      	movs	r2, r3
 8005588:	1dfb      	adds	r3, r7, #7
 800558a:	781b      	ldrb	r3, [r3, #0]
 800558c:	429a      	cmp	r2, r3
 800558e:	d100      	bne.n	8005592 <UART_WaitOnFlagUntilTimeout+0x17a>
 8005590:	e74b      	b.n	800542a <UART_WaitOnFlagUntilTimeout+0x12>
        }
      }
    }
  }
  return HAL_OK;
 8005592:	2300      	movs	r3, #0
}
 8005594:	0018      	movs	r0, r3
 8005596:	46bd      	mov	sp, r7
 8005598:	b014      	add	sp, #80	; 0x50
 800559a:	bd80      	pop	{r7, pc}
 800559c:	fffffe5f 	.word	0xfffffe5f

080055a0 <__errno>:
 80055a0:	4b01      	ldr	r3, [pc, #4]	; (80055a8 <__errno+0x8>)
 80055a2:	6818      	ldr	r0, [r3, #0]
 80055a4:	4770      	bx	lr
 80055a6:	46c0      	nop			; (mov r8, r8)
 80055a8:	2000000c 	.word	0x2000000c

080055ac <__libc_init_array>:
 80055ac:	b570      	push	{r4, r5, r6, lr}
 80055ae:	2600      	movs	r6, #0
 80055b0:	4d0c      	ldr	r5, [pc, #48]	; (80055e4 <__libc_init_array+0x38>)
 80055b2:	4c0d      	ldr	r4, [pc, #52]	; (80055e8 <__libc_init_array+0x3c>)
 80055b4:	1b64      	subs	r4, r4, r5
 80055b6:	10a4      	asrs	r4, r4, #2
 80055b8:	42a6      	cmp	r6, r4
 80055ba:	d109      	bne.n	80055d0 <__libc_init_array+0x24>
 80055bc:	2600      	movs	r6, #0
 80055be:	f000 fc93 	bl	8005ee8 <_init>
 80055c2:	4d0a      	ldr	r5, [pc, #40]	; (80055ec <__libc_init_array+0x40>)
 80055c4:	4c0a      	ldr	r4, [pc, #40]	; (80055f0 <__libc_init_array+0x44>)
 80055c6:	1b64      	subs	r4, r4, r5
 80055c8:	10a4      	asrs	r4, r4, #2
 80055ca:	42a6      	cmp	r6, r4
 80055cc:	d105      	bne.n	80055da <__libc_init_array+0x2e>
 80055ce:	bd70      	pop	{r4, r5, r6, pc}
 80055d0:	00b3      	lsls	r3, r6, #2
 80055d2:	58eb      	ldr	r3, [r5, r3]
 80055d4:	4798      	blx	r3
 80055d6:	3601      	adds	r6, #1
 80055d8:	e7ee      	b.n	80055b8 <__libc_init_array+0xc>
 80055da:	00b3      	lsls	r3, r6, #2
 80055dc:	58eb      	ldr	r3, [r5, r3]
 80055de:	4798      	blx	r3
 80055e0:	3601      	adds	r6, #1
 80055e2:	e7f2      	b.n	80055ca <__libc_init_array+0x1e>
 80055e4:	08006044 	.word	0x08006044
 80055e8:	08006044 	.word	0x08006044
 80055ec:	08006044 	.word	0x08006044
 80055f0:	08006048 	.word	0x08006048

080055f4 <malloc>:
 80055f4:	b510      	push	{r4, lr}
 80055f6:	4b03      	ldr	r3, [pc, #12]	; (8005604 <malloc+0x10>)
 80055f8:	0001      	movs	r1, r0
 80055fa:	6818      	ldr	r0, [r3, #0]
 80055fc:	f000 f878 	bl	80056f0 <_malloc_r>
 8005600:	bd10      	pop	{r4, pc}
 8005602:	46c0      	nop			; (mov r8, r8)
 8005604:	2000000c 	.word	0x2000000c

08005608 <memset>:
 8005608:	0003      	movs	r3, r0
 800560a:	1882      	adds	r2, r0, r2
 800560c:	4293      	cmp	r3, r2
 800560e:	d100      	bne.n	8005612 <memset+0xa>
 8005610:	4770      	bx	lr
 8005612:	7019      	strb	r1, [r3, #0]
 8005614:	3301      	adds	r3, #1
 8005616:	e7f9      	b.n	800560c <memset+0x4>

08005618 <_free_r>:
 8005618:	b570      	push	{r4, r5, r6, lr}
 800561a:	0005      	movs	r5, r0
 800561c:	2900      	cmp	r1, #0
 800561e:	d010      	beq.n	8005642 <_free_r+0x2a>
 8005620:	1f0c      	subs	r4, r1, #4
 8005622:	6823      	ldr	r3, [r4, #0]
 8005624:	2b00      	cmp	r3, #0
 8005626:	da00      	bge.n	800562a <_free_r+0x12>
 8005628:	18e4      	adds	r4, r4, r3
 800562a:	0028      	movs	r0, r5
 800562c:	f000 f908 	bl	8005840 <__malloc_lock>
 8005630:	4a1d      	ldr	r2, [pc, #116]	; (80056a8 <_free_r+0x90>)
 8005632:	6813      	ldr	r3, [r2, #0]
 8005634:	2b00      	cmp	r3, #0
 8005636:	d105      	bne.n	8005644 <_free_r+0x2c>
 8005638:	6063      	str	r3, [r4, #4]
 800563a:	6014      	str	r4, [r2, #0]
 800563c:	0028      	movs	r0, r5
 800563e:	f000 f907 	bl	8005850 <__malloc_unlock>
 8005642:	bd70      	pop	{r4, r5, r6, pc}
 8005644:	42a3      	cmp	r3, r4
 8005646:	d908      	bls.n	800565a <_free_r+0x42>
 8005648:	6821      	ldr	r1, [r4, #0]
 800564a:	1860      	adds	r0, r4, r1
 800564c:	4283      	cmp	r3, r0
 800564e:	d1f3      	bne.n	8005638 <_free_r+0x20>
 8005650:	6818      	ldr	r0, [r3, #0]
 8005652:	685b      	ldr	r3, [r3, #4]
 8005654:	1841      	adds	r1, r0, r1
 8005656:	6021      	str	r1, [r4, #0]
 8005658:	e7ee      	b.n	8005638 <_free_r+0x20>
 800565a:	001a      	movs	r2, r3
 800565c:	685b      	ldr	r3, [r3, #4]
 800565e:	2b00      	cmp	r3, #0
 8005660:	d001      	beq.n	8005666 <_free_r+0x4e>
 8005662:	42a3      	cmp	r3, r4
 8005664:	d9f9      	bls.n	800565a <_free_r+0x42>
 8005666:	6811      	ldr	r1, [r2, #0]
 8005668:	1850      	adds	r0, r2, r1
 800566a:	42a0      	cmp	r0, r4
 800566c:	d10b      	bne.n	8005686 <_free_r+0x6e>
 800566e:	6820      	ldr	r0, [r4, #0]
 8005670:	1809      	adds	r1, r1, r0
 8005672:	1850      	adds	r0, r2, r1
 8005674:	6011      	str	r1, [r2, #0]
 8005676:	4283      	cmp	r3, r0
 8005678:	d1e0      	bne.n	800563c <_free_r+0x24>
 800567a:	6818      	ldr	r0, [r3, #0]
 800567c:	685b      	ldr	r3, [r3, #4]
 800567e:	1841      	adds	r1, r0, r1
 8005680:	6011      	str	r1, [r2, #0]
 8005682:	6053      	str	r3, [r2, #4]
 8005684:	e7da      	b.n	800563c <_free_r+0x24>
 8005686:	42a0      	cmp	r0, r4
 8005688:	d902      	bls.n	8005690 <_free_r+0x78>
 800568a:	230c      	movs	r3, #12
 800568c:	602b      	str	r3, [r5, #0]
 800568e:	e7d5      	b.n	800563c <_free_r+0x24>
 8005690:	6821      	ldr	r1, [r4, #0]
 8005692:	1860      	adds	r0, r4, r1
 8005694:	4283      	cmp	r3, r0
 8005696:	d103      	bne.n	80056a0 <_free_r+0x88>
 8005698:	6818      	ldr	r0, [r3, #0]
 800569a:	685b      	ldr	r3, [r3, #4]
 800569c:	1841      	adds	r1, r0, r1
 800569e:	6021      	str	r1, [r4, #0]
 80056a0:	6063      	str	r3, [r4, #4]
 80056a2:	6054      	str	r4, [r2, #4]
 80056a4:	e7ca      	b.n	800563c <_free_r+0x24>
 80056a6:	46c0      	nop			; (mov r8, r8)
 80056a8:	200001cc 	.word	0x200001cc

080056ac <sbrk_aligned>:
 80056ac:	b570      	push	{r4, r5, r6, lr}
 80056ae:	4e0f      	ldr	r6, [pc, #60]	; (80056ec <sbrk_aligned+0x40>)
 80056b0:	000d      	movs	r5, r1
 80056b2:	6831      	ldr	r1, [r6, #0]
 80056b4:	0004      	movs	r4, r0
 80056b6:	2900      	cmp	r1, #0
 80056b8:	d102      	bne.n	80056c0 <sbrk_aligned+0x14>
 80056ba:	f000 f88f 	bl	80057dc <_sbrk_r>
 80056be:	6030      	str	r0, [r6, #0]
 80056c0:	0029      	movs	r1, r5
 80056c2:	0020      	movs	r0, r4
 80056c4:	f000 f88a 	bl	80057dc <_sbrk_r>
 80056c8:	1c43      	adds	r3, r0, #1
 80056ca:	d00a      	beq.n	80056e2 <sbrk_aligned+0x36>
 80056cc:	2303      	movs	r3, #3
 80056ce:	1cc5      	adds	r5, r0, #3
 80056d0:	439d      	bics	r5, r3
 80056d2:	42a8      	cmp	r0, r5
 80056d4:	d007      	beq.n	80056e6 <sbrk_aligned+0x3a>
 80056d6:	1a29      	subs	r1, r5, r0
 80056d8:	0020      	movs	r0, r4
 80056da:	f000 f87f 	bl	80057dc <_sbrk_r>
 80056de:	1c43      	adds	r3, r0, #1
 80056e0:	d101      	bne.n	80056e6 <sbrk_aligned+0x3a>
 80056e2:	2501      	movs	r5, #1
 80056e4:	426d      	negs	r5, r5
 80056e6:	0028      	movs	r0, r5
 80056e8:	bd70      	pop	{r4, r5, r6, pc}
 80056ea:	46c0      	nop			; (mov r8, r8)
 80056ec:	200001d0 	.word	0x200001d0

080056f0 <_malloc_r>:
 80056f0:	b5f7      	push	{r0, r1, r2, r4, r5, r6, r7, lr}
 80056f2:	2203      	movs	r2, #3
 80056f4:	1ccb      	adds	r3, r1, #3
 80056f6:	4393      	bics	r3, r2
 80056f8:	3308      	adds	r3, #8
 80056fa:	0006      	movs	r6, r0
 80056fc:	001f      	movs	r7, r3
 80056fe:	2b0c      	cmp	r3, #12
 8005700:	d232      	bcs.n	8005768 <_malloc_r+0x78>
 8005702:	270c      	movs	r7, #12
 8005704:	42b9      	cmp	r1, r7
 8005706:	d831      	bhi.n	800576c <_malloc_r+0x7c>
 8005708:	0030      	movs	r0, r6
 800570a:	f000 f899 	bl	8005840 <__malloc_lock>
 800570e:	4d32      	ldr	r5, [pc, #200]	; (80057d8 <_malloc_r+0xe8>)
 8005710:	682b      	ldr	r3, [r5, #0]
 8005712:	001c      	movs	r4, r3
 8005714:	2c00      	cmp	r4, #0
 8005716:	d12e      	bne.n	8005776 <_malloc_r+0x86>
 8005718:	0039      	movs	r1, r7
 800571a:	0030      	movs	r0, r6
 800571c:	f7ff ffc6 	bl	80056ac <sbrk_aligned>
 8005720:	0004      	movs	r4, r0
 8005722:	1c43      	adds	r3, r0, #1
 8005724:	d11e      	bne.n	8005764 <_malloc_r+0x74>
 8005726:	682c      	ldr	r4, [r5, #0]
 8005728:	0025      	movs	r5, r4
 800572a:	2d00      	cmp	r5, #0
 800572c:	d14a      	bne.n	80057c4 <_malloc_r+0xd4>
 800572e:	6823      	ldr	r3, [r4, #0]
 8005730:	0029      	movs	r1, r5
 8005732:	18e3      	adds	r3, r4, r3
 8005734:	0030      	movs	r0, r6
 8005736:	9301      	str	r3, [sp, #4]
 8005738:	f000 f850 	bl	80057dc <_sbrk_r>
 800573c:	9b01      	ldr	r3, [sp, #4]
 800573e:	4283      	cmp	r3, r0
 8005740:	d143      	bne.n	80057ca <_malloc_r+0xda>
 8005742:	6823      	ldr	r3, [r4, #0]
 8005744:	3703      	adds	r7, #3
 8005746:	1aff      	subs	r7, r7, r3
 8005748:	2303      	movs	r3, #3
 800574a:	439f      	bics	r7, r3
 800574c:	3708      	adds	r7, #8
 800574e:	2f0c      	cmp	r7, #12
 8005750:	d200      	bcs.n	8005754 <_malloc_r+0x64>
 8005752:	270c      	movs	r7, #12
 8005754:	0039      	movs	r1, r7
 8005756:	0030      	movs	r0, r6
 8005758:	f7ff ffa8 	bl	80056ac <sbrk_aligned>
 800575c:	1c43      	adds	r3, r0, #1
 800575e:	d034      	beq.n	80057ca <_malloc_r+0xda>
 8005760:	6823      	ldr	r3, [r4, #0]
 8005762:	19df      	adds	r7, r3, r7
 8005764:	6027      	str	r7, [r4, #0]
 8005766:	e013      	b.n	8005790 <_malloc_r+0xa0>
 8005768:	2b00      	cmp	r3, #0
 800576a:	dacb      	bge.n	8005704 <_malloc_r+0x14>
 800576c:	230c      	movs	r3, #12
 800576e:	2500      	movs	r5, #0
 8005770:	6033      	str	r3, [r6, #0]
 8005772:	0028      	movs	r0, r5
 8005774:	bdfe      	pop	{r1, r2, r3, r4, r5, r6, r7, pc}
 8005776:	6822      	ldr	r2, [r4, #0]
 8005778:	1bd1      	subs	r1, r2, r7
 800577a:	d420      	bmi.n	80057be <_malloc_r+0xce>
 800577c:	290b      	cmp	r1, #11
 800577e:	d917      	bls.n	80057b0 <_malloc_r+0xc0>
 8005780:	19e2      	adds	r2, r4, r7
 8005782:	6027      	str	r7, [r4, #0]
 8005784:	42a3      	cmp	r3, r4
 8005786:	d111      	bne.n	80057ac <_malloc_r+0xbc>
 8005788:	602a      	str	r2, [r5, #0]
 800578a:	6863      	ldr	r3, [r4, #4]
 800578c:	6011      	str	r1, [r2, #0]
 800578e:	6053      	str	r3, [r2, #4]
 8005790:	0030      	movs	r0, r6
 8005792:	0025      	movs	r5, r4
 8005794:	f000 f85c 	bl	8005850 <__malloc_unlock>
 8005798:	2207      	movs	r2, #7
 800579a:	350b      	adds	r5, #11
 800579c:	1d23      	adds	r3, r4, #4
 800579e:	4395      	bics	r5, r2
 80057a0:	1aea      	subs	r2, r5, r3
 80057a2:	429d      	cmp	r5, r3
 80057a4:	d0e5      	beq.n	8005772 <_malloc_r+0x82>
 80057a6:	1b5b      	subs	r3, r3, r5
 80057a8:	50a3      	str	r3, [r4, r2]
 80057aa:	e7e2      	b.n	8005772 <_malloc_r+0x82>
 80057ac:	605a      	str	r2, [r3, #4]
 80057ae:	e7ec      	b.n	800578a <_malloc_r+0x9a>
 80057b0:	6862      	ldr	r2, [r4, #4]
 80057b2:	42a3      	cmp	r3, r4
 80057b4:	d101      	bne.n	80057ba <_malloc_r+0xca>
 80057b6:	602a      	str	r2, [r5, #0]
 80057b8:	e7ea      	b.n	8005790 <_malloc_r+0xa0>
 80057ba:	605a      	str	r2, [r3, #4]
 80057bc:	e7e8      	b.n	8005790 <_malloc_r+0xa0>
 80057be:	0023      	movs	r3, r4
 80057c0:	6864      	ldr	r4, [r4, #4]
 80057c2:	e7a7      	b.n	8005714 <_malloc_r+0x24>
 80057c4:	002c      	movs	r4, r5
 80057c6:	686d      	ldr	r5, [r5, #4]
 80057c8:	e7af      	b.n	800572a <_malloc_r+0x3a>
 80057ca:	230c      	movs	r3, #12
 80057cc:	0030      	movs	r0, r6
 80057ce:	6033      	str	r3, [r6, #0]
 80057d0:	f000 f83e 	bl	8005850 <__malloc_unlock>
 80057d4:	e7cd      	b.n	8005772 <_malloc_r+0x82>
 80057d6:	46c0      	nop			; (mov r8, r8)
 80057d8:	200001cc 	.word	0x200001cc

080057dc <_sbrk_r>:
 80057dc:	2300      	movs	r3, #0
 80057de:	b570      	push	{r4, r5, r6, lr}
 80057e0:	4d06      	ldr	r5, [pc, #24]	; (80057fc <_sbrk_r+0x20>)
 80057e2:	0004      	movs	r4, r0
 80057e4:	0008      	movs	r0, r1
 80057e6:	602b      	str	r3, [r5, #0]
 80057e8:	f7fd f872 	bl	80028d0 <_sbrk>
 80057ec:	1c43      	adds	r3, r0, #1
 80057ee:	d103      	bne.n	80057f8 <_sbrk_r+0x1c>
 80057f0:	682b      	ldr	r3, [r5, #0]
 80057f2:	2b00      	cmp	r3, #0
 80057f4:	d000      	beq.n	80057f8 <_sbrk_r+0x1c>
 80057f6:	6023      	str	r3, [r4, #0]
 80057f8:	bd70      	pop	{r4, r5, r6, pc}
 80057fa:	46c0      	nop			; (mov r8, r8)
 80057fc:	200001d4 	.word	0x200001d4

08005800 <siprintf>:
 8005800:	b40e      	push	{r1, r2, r3}
 8005802:	b500      	push	{lr}
 8005804:	490b      	ldr	r1, [pc, #44]	; (8005834 <siprintf+0x34>)
 8005806:	b09c      	sub	sp, #112	; 0x70
 8005808:	ab1d      	add	r3, sp, #116	; 0x74
 800580a:	9002      	str	r0, [sp, #8]
 800580c:	9006      	str	r0, [sp, #24]
 800580e:	9107      	str	r1, [sp, #28]
 8005810:	9104      	str	r1, [sp, #16]
 8005812:	4809      	ldr	r0, [pc, #36]	; (8005838 <siprintf+0x38>)
 8005814:	4909      	ldr	r1, [pc, #36]	; (800583c <siprintf+0x3c>)
 8005816:	cb04      	ldmia	r3!, {r2}
 8005818:	9105      	str	r1, [sp, #20]
 800581a:	6800      	ldr	r0, [r0, #0]
 800581c:	a902      	add	r1, sp, #8
 800581e:	9301      	str	r3, [sp, #4]
 8005820:	f000 f880 	bl	8005924 <_svfiprintf_r>
 8005824:	2300      	movs	r3, #0
 8005826:	9a02      	ldr	r2, [sp, #8]
 8005828:	7013      	strb	r3, [r2, #0]
 800582a:	b01c      	add	sp, #112	; 0x70
 800582c:	bc08      	pop	{r3}
 800582e:	b003      	add	sp, #12
 8005830:	4718      	bx	r3
 8005832:	46c0      	nop			; (mov r8, r8)
 8005834:	7fffffff 	.word	0x7fffffff
 8005838:	2000000c 	.word	0x2000000c
 800583c:	ffff0208 	.word	0xffff0208

08005840 <__malloc_lock>:
 8005840:	b510      	push	{r4, lr}
 8005842:	4802      	ldr	r0, [pc, #8]	; (800584c <__malloc_lock+0xc>)
 8005844:	f000 faf0 	bl	8005e28 <__retarget_lock_acquire_recursive>
 8005848:	bd10      	pop	{r4, pc}
 800584a:	46c0      	nop			; (mov r8, r8)
 800584c:	200001d8 	.word	0x200001d8

08005850 <__malloc_unlock>:
 8005850:	b510      	push	{r4, lr}
 8005852:	4802      	ldr	r0, [pc, #8]	; (800585c <__malloc_unlock+0xc>)
 8005854:	f000 fae9 	bl	8005e2a <__retarget_lock_release_recursive>
 8005858:	bd10      	pop	{r4, pc}
 800585a:	46c0      	nop			; (mov r8, r8)
 800585c:	200001d8 	.word	0x200001d8

08005860 <__ssputs_r>:
 8005860:	b5f0      	push	{r4, r5, r6, r7, lr}
 8005862:	688e      	ldr	r6, [r1, #8]
 8005864:	b085      	sub	sp, #20
 8005866:	0007      	movs	r7, r0
 8005868:	000c      	movs	r4, r1
 800586a:	9203      	str	r2, [sp, #12]
 800586c:	9301      	str	r3, [sp, #4]
 800586e:	429e      	cmp	r6, r3
 8005870:	d83c      	bhi.n	80058ec <__ssputs_r+0x8c>
 8005872:	2390      	movs	r3, #144	; 0x90
 8005874:	898a      	ldrh	r2, [r1, #12]
 8005876:	00db      	lsls	r3, r3, #3
 8005878:	421a      	tst	r2, r3
 800587a:	d034      	beq.n	80058e6 <__ssputs_r+0x86>
 800587c:	6909      	ldr	r1, [r1, #16]
 800587e:	6823      	ldr	r3, [r4, #0]
 8005880:	6960      	ldr	r0, [r4, #20]
 8005882:	1a5b      	subs	r3, r3, r1
 8005884:	9302      	str	r3, [sp, #8]
 8005886:	2303      	movs	r3, #3
 8005888:	4343      	muls	r3, r0
 800588a:	0fdd      	lsrs	r5, r3, #31
 800588c:	18ed      	adds	r5, r5, r3
 800588e:	9b01      	ldr	r3, [sp, #4]
 8005890:	9802      	ldr	r0, [sp, #8]
 8005892:	3301      	adds	r3, #1
 8005894:	181b      	adds	r3, r3, r0
 8005896:	106d      	asrs	r5, r5, #1
 8005898:	42ab      	cmp	r3, r5
 800589a:	d900      	bls.n	800589e <__ssputs_r+0x3e>
 800589c:	001d      	movs	r5, r3
 800589e:	0553      	lsls	r3, r2, #21
 80058a0:	d532      	bpl.n	8005908 <__ssputs_r+0xa8>
 80058a2:	0029      	movs	r1, r5
 80058a4:	0038      	movs	r0, r7
 80058a6:	f7ff ff23 	bl	80056f0 <_malloc_r>
 80058aa:	1e06      	subs	r6, r0, #0
 80058ac:	d109      	bne.n	80058c2 <__ssputs_r+0x62>
 80058ae:	230c      	movs	r3, #12
 80058b0:	603b      	str	r3, [r7, #0]
 80058b2:	2340      	movs	r3, #64	; 0x40
 80058b4:	2001      	movs	r0, #1
 80058b6:	89a2      	ldrh	r2, [r4, #12]
 80058b8:	4240      	negs	r0, r0
 80058ba:	4313      	orrs	r3, r2
 80058bc:	81a3      	strh	r3, [r4, #12]
 80058be:	b005      	add	sp, #20
 80058c0:	bdf0      	pop	{r4, r5, r6, r7, pc}
 80058c2:	9a02      	ldr	r2, [sp, #8]
 80058c4:	6921      	ldr	r1, [r4, #16]
 80058c6:	f000 fabc 	bl	8005e42 <memcpy>
 80058ca:	89a3      	ldrh	r3, [r4, #12]
 80058cc:	4a14      	ldr	r2, [pc, #80]	; (8005920 <__ssputs_r+0xc0>)
 80058ce:	401a      	ands	r2, r3
 80058d0:	2380      	movs	r3, #128	; 0x80
 80058d2:	4313      	orrs	r3, r2
 80058d4:	81a3      	strh	r3, [r4, #12]
 80058d6:	9b02      	ldr	r3, [sp, #8]
 80058d8:	6126      	str	r6, [r4, #16]
 80058da:	18f6      	adds	r6, r6, r3
 80058dc:	6026      	str	r6, [r4, #0]
 80058de:	6165      	str	r5, [r4, #20]
 80058e0:	9e01      	ldr	r6, [sp, #4]
 80058e2:	1aed      	subs	r5, r5, r3
 80058e4:	60a5      	str	r5, [r4, #8]
 80058e6:	9b01      	ldr	r3, [sp, #4]
 80058e8:	429e      	cmp	r6, r3
 80058ea:	d900      	bls.n	80058ee <__ssputs_r+0x8e>
 80058ec:	9e01      	ldr	r6, [sp, #4]
 80058ee:	0032      	movs	r2, r6
 80058f0:	9903      	ldr	r1, [sp, #12]
 80058f2:	6820      	ldr	r0, [r4, #0]
 80058f4:	f000 faae 	bl	8005e54 <memmove>
 80058f8:	68a3      	ldr	r3, [r4, #8]
 80058fa:	2000      	movs	r0, #0
 80058fc:	1b9b      	subs	r3, r3, r6
 80058fe:	60a3      	str	r3, [r4, #8]
 8005900:	6823      	ldr	r3, [r4, #0]
 8005902:	199e      	adds	r6, r3, r6
 8005904:	6026      	str	r6, [r4, #0]
 8005906:	e7da      	b.n	80058be <__ssputs_r+0x5e>
 8005908:	002a      	movs	r2, r5
 800590a:	0038      	movs	r0, r7
 800590c:	f000 fab5 	bl	8005e7a <_realloc_r>
 8005910:	1e06      	subs	r6, r0, #0
 8005912:	d1e0      	bne.n	80058d6 <__ssputs_r+0x76>
 8005914:	0038      	movs	r0, r7
 8005916:	6921      	ldr	r1, [r4, #16]
 8005918:	f7ff fe7e 	bl	8005618 <_free_r>
 800591c:	e7c7      	b.n	80058ae <__ssputs_r+0x4e>
 800591e:	46c0      	nop			; (mov r8, r8)
 8005920:	fffffb7f 	.word	0xfffffb7f

08005924 <_svfiprintf_r>:
 8005924:	b5f0      	push	{r4, r5, r6, r7, lr}
 8005926:	b0a1      	sub	sp, #132	; 0x84
 8005928:	9003      	str	r0, [sp, #12]
 800592a:	001d      	movs	r5, r3
 800592c:	898b      	ldrh	r3, [r1, #12]
 800592e:	000f      	movs	r7, r1
 8005930:	0016      	movs	r6, r2
 8005932:	061b      	lsls	r3, r3, #24
 8005934:	d511      	bpl.n	800595a <_svfiprintf_r+0x36>
 8005936:	690b      	ldr	r3, [r1, #16]
 8005938:	2b00      	cmp	r3, #0
 800593a:	d10e      	bne.n	800595a <_svfiprintf_r+0x36>
 800593c:	2140      	movs	r1, #64	; 0x40
 800593e:	f7ff fed7 	bl	80056f0 <_malloc_r>
 8005942:	6038      	str	r0, [r7, #0]
 8005944:	6138      	str	r0, [r7, #16]
 8005946:	2800      	cmp	r0, #0
 8005948:	d105      	bne.n	8005956 <_svfiprintf_r+0x32>
 800594a:	230c      	movs	r3, #12
 800594c:	9a03      	ldr	r2, [sp, #12]
 800594e:	3801      	subs	r0, #1
 8005950:	6013      	str	r3, [r2, #0]
 8005952:	b021      	add	sp, #132	; 0x84
 8005954:	bdf0      	pop	{r4, r5, r6, r7, pc}
 8005956:	2340      	movs	r3, #64	; 0x40
 8005958:	617b      	str	r3, [r7, #20]
 800595a:	2300      	movs	r3, #0
 800595c:	ac08      	add	r4, sp, #32
 800595e:	6163      	str	r3, [r4, #20]
 8005960:	3320      	adds	r3, #32
 8005962:	7663      	strb	r3, [r4, #25]
 8005964:	3310      	adds	r3, #16
 8005966:	76a3      	strb	r3, [r4, #26]
 8005968:	9507      	str	r5, [sp, #28]
 800596a:	0035      	movs	r5, r6
 800596c:	782b      	ldrb	r3, [r5, #0]
 800596e:	2b00      	cmp	r3, #0
 8005970:	d001      	beq.n	8005976 <_svfiprintf_r+0x52>
 8005972:	2b25      	cmp	r3, #37	; 0x25
 8005974:	d147      	bne.n	8005a06 <_svfiprintf_r+0xe2>
 8005976:	1bab      	subs	r3, r5, r6
 8005978:	9305      	str	r3, [sp, #20]
 800597a:	42b5      	cmp	r5, r6
 800597c:	d00c      	beq.n	8005998 <_svfiprintf_r+0x74>
 800597e:	0032      	movs	r2, r6
 8005980:	0039      	movs	r1, r7
 8005982:	9803      	ldr	r0, [sp, #12]
 8005984:	f7ff ff6c 	bl	8005860 <__ssputs_r>
 8005988:	1c43      	adds	r3, r0, #1
 800598a:	d100      	bne.n	800598e <_svfiprintf_r+0x6a>
 800598c:	e0ae      	b.n	8005aec <_svfiprintf_r+0x1c8>
 800598e:	6962      	ldr	r2, [r4, #20]
 8005990:	9b05      	ldr	r3, [sp, #20]
 8005992:	4694      	mov	ip, r2
 8005994:	4463      	add	r3, ip
 8005996:	6163      	str	r3, [r4, #20]
 8005998:	782b      	ldrb	r3, [r5, #0]
 800599a:	2b00      	cmp	r3, #0
 800599c:	d100      	bne.n	80059a0 <_svfiprintf_r+0x7c>
 800599e:	e0a5      	b.n	8005aec <_svfiprintf_r+0x1c8>
 80059a0:	2201      	movs	r2, #1
 80059a2:	2300      	movs	r3, #0
 80059a4:	4252      	negs	r2, r2
 80059a6:	6062      	str	r2, [r4, #4]
 80059a8:	a904      	add	r1, sp, #16
 80059aa:	3254      	adds	r2, #84	; 0x54
 80059ac:	1852      	adds	r2, r2, r1
 80059ae:	1c6e      	adds	r6, r5, #1
 80059b0:	6023      	str	r3, [r4, #0]
 80059b2:	60e3      	str	r3, [r4, #12]
 80059b4:	60a3      	str	r3, [r4, #8]
 80059b6:	7013      	strb	r3, [r2, #0]
 80059b8:	65a3      	str	r3, [r4, #88]	; 0x58
 80059ba:	2205      	movs	r2, #5
 80059bc:	7831      	ldrb	r1, [r6, #0]
 80059be:	4854      	ldr	r0, [pc, #336]	; (8005b10 <_svfiprintf_r+0x1ec>)
 80059c0:	f000 fa34 	bl	8005e2c <memchr>
 80059c4:	1c75      	adds	r5, r6, #1
 80059c6:	2800      	cmp	r0, #0
 80059c8:	d11f      	bne.n	8005a0a <_svfiprintf_r+0xe6>
 80059ca:	6822      	ldr	r2, [r4, #0]
 80059cc:	06d3      	lsls	r3, r2, #27
 80059ce:	d504      	bpl.n	80059da <_svfiprintf_r+0xb6>
 80059d0:	2353      	movs	r3, #83	; 0x53
 80059d2:	a904      	add	r1, sp, #16
 80059d4:	185b      	adds	r3, r3, r1
 80059d6:	2120      	movs	r1, #32
 80059d8:	7019      	strb	r1, [r3, #0]
 80059da:	0713      	lsls	r3, r2, #28
 80059dc:	d504      	bpl.n	80059e8 <_svfiprintf_r+0xc4>
 80059de:	2353      	movs	r3, #83	; 0x53
 80059e0:	a904      	add	r1, sp, #16
 80059e2:	185b      	adds	r3, r3, r1
 80059e4:	212b      	movs	r1, #43	; 0x2b
 80059e6:	7019      	strb	r1, [r3, #0]
 80059e8:	7833      	ldrb	r3, [r6, #0]
 80059ea:	2b2a      	cmp	r3, #42	; 0x2a
 80059ec:	d016      	beq.n	8005a1c <_svfiprintf_r+0xf8>
 80059ee:	0035      	movs	r5, r6
 80059f0:	2100      	movs	r1, #0
 80059f2:	200a      	movs	r0, #10
 80059f4:	68e3      	ldr	r3, [r4, #12]
 80059f6:	782a      	ldrb	r2, [r5, #0]
 80059f8:	1c6e      	adds	r6, r5, #1
 80059fa:	3a30      	subs	r2, #48	; 0x30
 80059fc:	2a09      	cmp	r2, #9
 80059fe:	d94e      	bls.n	8005a9e <_svfiprintf_r+0x17a>
 8005a00:	2900      	cmp	r1, #0
 8005a02:	d111      	bne.n	8005a28 <_svfiprintf_r+0x104>
 8005a04:	e017      	b.n	8005a36 <_svfiprintf_r+0x112>
 8005a06:	3501      	adds	r5, #1
 8005a08:	e7b0      	b.n	800596c <_svfiprintf_r+0x48>
 8005a0a:	4b41      	ldr	r3, [pc, #260]	; (8005b10 <_svfiprintf_r+0x1ec>)
 8005a0c:	6822      	ldr	r2, [r4, #0]
 8005a0e:	1ac0      	subs	r0, r0, r3
 8005a10:	2301      	movs	r3, #1
 8005a12:	4083      	lsls	r3, r0
 8005a14:	4313      	orrs	r3, r2
 8005a16:	002e      	movs	r6, r5
 8005a18:	6023      	str	r3, [r4, #0]
 8005a1a:	e7ce      	b.n	80059ba <_svfiprintf_r+0x96>
 8005a1c:	9b07      	ldr	r3, [sp, #28]
 8005a1e:	1d19      	adds	r1, r3, #4
 8005a20:	681b      	ldr	r3, [r3, #0]
 8005a22:	9107      	str	r1, [sp, #28]
 8005a24:	2b00      	cmp	r3, #0
 8005a26:	db01      	blt.n	8005a2c <_svfiprintf_r+0x108>
 8005a28:	930b      	str	r3, [sp, #44]	; 0x2c
 8005a2a:	e004      	b.n	8005a36 <_svfiprintf_r+0x112>
 8005a2c:	425b      	negs	r3, r3
 8005a2e:	60e3      	str	r3, [r4, #12]
 8005a30:	2302      	movs	r3, #2
 8005a32:	4313      	orrs	r3, r2
 8005a34:	6023      	str	r3, [r4, #0]
 8005a36:	782b      	ldrb	r3, [r5, #0]
 8005a38:	2b2e      	cmp	r3, #46	; 0x2e
 8005a3a:	d10a      	bne.n	8005a52 <_svfiprintf_r+0x12e>
 8005a3c:	786b      	ldrb	r3, [r5, #1]
 8005a3e:	2b2a      	cmp	r3, #42	; 0x2a
 8005a40:	d135      	bne.n	8005aae <_svfiprintf_r+0x18a>
 8005a42:	9b07      	ldr	r3, [sp, #28]
 8005a44:	3502      	adds	r5, #2
 8005a46:	1d1a      	adds	r2, r3, #4
 8005a48:	681b      	ldr	r3, [r3, #0]
 8005a4a:	9207      	str	r2, [sp, #28]
 8005a4c:	2b00      	cmp	r3, #0
 8005a4e:	db2b      	blt.n	8005aa8 <_svfiprintf_r+0x184>
 8005a50:	9309      	str	r3, [sp, #36]	; 0x24
 8005a52:	4e30      	ldr	r6, [pc, #192]	; (8005b14 <_svfiprintf_r+0x1f0>)
 8005a54:	2203      	movs	r2, #3
 8005a56:	0030      	movs	r0, r6
 8005a58:	7829      	ldrb	r1, [r5, #0]
 8005a5a:	f000 f9e7 	bl	8005e2c <memchr>
 8005a5e:	2800      	cmp	r0, #0
 8005a60:	d006      	beq.n	8005a70 <_svfiprintf_r+0x14c>
 8005a62:	2340      	movs	r3, #64	; 0x40
 8005a64:	1b80      	subs	r0, r0, r6
 8005a66:	4083      	lsls	r3, r0
 8005a68:	6822      	ldr	r2, [r4, #0]
 8005a6a:	3501      	adds	r5, #1
 8005a6c:	4313      	orrs	r3, r2
 8005a6e:	6023      	str	r3, [r4, #0]
 8005a70:	7829      	ldrb	r1, [r5, #0]
 8005a72:	2206      	movs	r2, #6
 8005a74:	4828      	ldr	r0, [pc, #160]	; (8005b18 <_svfiprintf_r+0x1f4>)
 8005a76:	1c6e      	adds	r6, r5, #1
 8005a78:	7621      	strb	r1, [r4, #24]
 8005a7a:	f000 f9d7 	bl	8005e2c <memchr>
 8005a7e:	2800      	cmp	r0, #0
 8005a80:	d03c      	beq.n	8005afc <_svfiprintf_r+0x1d8>
 8005a82:	4b26      	ldr	r3, [pc, #152]	; (8005b1c <_svfiprintf_r+0x1f8>)
 8005a84:	2b00      	cmp	r3, #0
 8005a86:	d125      	bne.n	8005ad4 <_svfiprintf_r+0x1b0>
 8005a88:	2207      	movs	r2, #7
 8005a8a:	9b07      	ldr	r3, [sp, #28]
 8005a8c:	3307      	adds	r3, #7
 8005a8e:	4393      	bics	r3, r2
 8005a90:	3308      	adds	r3, #8
 8005a92:	9307      	str	r3, [sp, #28]
 8005a94:	6963      	ldr	r3, [r4, #20]
 8005a96:	9a04      	ldr	r2, [sp, #16]
 8005a98:	189b      	adds	r3, r3, r2
 8005a9a:	6163      	str	r3, [r4, #20]
 8005a9c:	e765      	b.n	800596a <_svfiprintf_r+0x46>
 8005a9e:	4343      	muls	r3, r0
 8005aa0:	0035      	movs	r5, r6
 8005aa2:	2101      	movs	r1, #1
 8005aa4:	189b      	adds	r3, r3, r2
 8005aa6:	e7a6      	b.n	80059f6 <_svfiprintf_r+0xd2>
 8005aa8:	2301      	movs	r3, #1
 8005aaa:	425b      	negs	r3, r3
 8005aac:	e7d0      	b.n	8005a50 <_svfiprintf_r+0x12c>
 8005aae:	2300      	movs	r3, #0
 8005ab0:	200a      	movs	r0, #10
 8005ab2:	001a      	movs	r2, r3
 8005ab4:	3501      	adds	r5, #1
 8005ab6:	6063      	str	r3, [r4, #4]
 8005ab8:	7829      	ldrb	r1, [r5, #0]
 8005aba:	1c6e      	adds	r6, r5, #1
 8005abc:	3930      	subs	r1, #48	; 0x30
 8005abe:	2909      	cmp	r1, #9
 8005ac0:	d903      	bls.n	8005aca <_svfiprintf_r+0x1a6>
 8005ac2:	2b00      	cmp	r3, #0
 8005ac4:	d0c5      	beq.n	8005a52 <_svfiprintf_r+0x12e>
 8005ac6:	9209      	str	r2, [sp, #36]	; 0x24
 8005ac8:	e7c3      	b.n	8005a52 <_svfiprintf_r+0x12e>
 8005aca:	4342      	muls	r2, r0
 8005acc:	0035      	movs	r5, r6
 8005ace:	2301      	movs	r3, #1
 8005ad0:	1852      	adds	r2, r2, r1
 8005ad2:	e7f1      	b.n	8005ab8 <_svfiprintf_r+0x194>
 8005ad4:	ab07      	add	r3, sp, #28
 8005ad6:	9300      	str	r3, [sp, #0]
 8005ad8:	003a      	movs	r2, r7
 8005ada:	0021      	movs	r1, r4
 8005adc:	4b10      	ldr	r3, [pc, #64]	; (8005b20 <_svfiprintf_r+0x1fc>)
 8005ade:	9803      	ldr	r0, [sp, #12]
 8005ae0:	e000      	b.n	8005ae4 <_svfiprintf_r+0x1c0>
 8005ae2:	bf00      	nop
 8005ae4:	9004      	str	r0, [sp, #16]
 8005ae6:	9b04      	ldr	r3, [sp, #16]
 8005ae8:	3301      	adds	r3, #1
 8005aea:	d1d3      	bne.n	8005a94 <_svfiprintf_r+0x170>
 8005aec:	89bb      	ldrh	r3, [r7, #12]
 8005aee:	980d      	ldr	r0, [sp, #52]	; 0x34
 8005af0:	065b      	lsls	r3, r3, #25
 8005af2:	d400      	bmi.n	8005af6 <_svfiprintf_r+0x1d2>
 8005af4:	e72d      	b.n	8005952 <_svfiprintf_r+0x2e>
 8005af6:	2001      	movs	r0, #1
 8005af8:	4240      	negs	r0, r0
 8005afa:	e72a      	b.n	8005952 <_svfiprintf_r+0x2e>
 8005afc:	ab07      	add	r3, sp, #28
 8005afe:	9300      	str	r3, [sp, #0]
 8005b00:	003a      	movs	r2, r7
 8005b02:	0021      	movs	r1, r4
 8005b04:	4b06      	ldr	r3, [pc, #24]	; (8005b20 <_svfiprintf_r+0x1fc>)
 8005b06:	9803      	ldr	r0, [sp, #12]
 8005b08:	f000 f87c 	bl	8005c04 <_printf_i>
 8005b0c:	e7ea      	b.n	8005ae4 <_svfiprintf_r+0x1c0>
 8005b0e:	46c0      	nop			; (mov r8, r8)
 8005b10:	08006008 	.word	0x08006008
 8005b14:	0800600e 	.word	0x0800600e
 8005b18:	08006012 	.word	0x08006012
 8005b1c:	00000000 	.word	0x00000000
 8005b20:	08005861 	.word	0x08005861

08005b24 <_printf_common>:
 8005b24:	b5f7      	push	{r0, r1, r2, r4, r5, r6, r7, lr}
 8005b26:	0015      	movs	r5, r2
 8005b28:	9301      	str	r3, [sp, #4]
 8005b2a:	688a      	ldr	r2, [r1, #8]
 8005b2c:	690b      	ldr	r3, [r1, #16]
 8005b2e:	000c      	movs	r4, r1
 8005b30:	9000      	str	r0, [sp, #0]
 8005b32:	4293      	cmp	r3, r2
 8005b34:	da00      	bge.n	8005b38 <_printf_common+0x14>
 8005b36:	0013      	movs	r3, r2
 8005b38:	0022      	movs	r2, r4
 8005b3a:	602b      	str	r3, [r5, #0]
 8005b3c:	3243      	adds	r2, #67	; 0x43
 8005b3e:	7812      	ldrb	r2, [r2, #0]
 8005b40:	2a00      	cmp	r2, #0
 8005b42:	d001      	beq.n	8005b48 <_printf_common+0x24>
 8005b44:	3301      	adds	r3, #1
 8005b46:	602b      	str	r3, [r5, #0]
 8005b48:	6823      	ldr	r3, [r4, #0]
 8005b4a:	069b      	lsls	r3, r3, #26
 8005b4c:	d502      	bpl.n	8005b54 <_printf_common+0x30>
 8005b4e:	682b      	ldr	r3, [r5, #0]
 8005b50:	3302      	adds	r3, #2
 8005b52:	602b      	str	r3, [r5, #0]
 8005b54:	6822      	ldr	r2, [r4, #0]
 8005b56:	2306      	movs	r3, #6
 8005b58:	0017      	movs	r7, r2
 8005b5a:	401f      	ands	r7, r3
 8005b5c:	421a      	tst	r2, r3
 8005b5e:	d027      	beq.n	8005bb0 <_printf_common+0x8c>
 8005b60:	0023      	movs	r3, r4
 8005b62:	3343      	adds	r3, #67	; 0x43
 8005b64:	781b      	ldrb	r3, [r3, #0]
 8005b66:	1e5a      	subs	r2, r3, #1
 8005b68:	4193      	sbcs	r3, r2
 8005b6a:	6822      	ldr	r2, [r4, #0]
 8005b6c:	0692      	lsls	r2, r2, #26
 8005b6e:	d430      	bmi.n	8005bd2 <_printf_common+0xae>
 8005b70:	0022      	movs	r2, r4
 8005b72:	9901      	ldr	r1, [sp, #4]
 8005b74:	9800      	ldr	r0, [sp, #0]
 8005b76:	9e08      	ldr	r6, [sp, #32]
 8005b78:	3243      	adds	r2, #67	; 0x43
 8005b7a:	47b0      	blx	r6
 8005b7c:	1c43      	adds	r3, r0, #1
 8005b7e:	d025      	beq.n	8005bcc <_printf_common+0xa8>
 8005b80:	2306      	movs	r3, #6
 8005b82:	6820      	ldr	r0, [r4, #0]
 8005b84:	682a      	ldr	r2, [r5, #0]
 8005b86:	68e1      	ldr	r1, [r4, #12]
 8005b88:	2500      	movs	r5, #0
 8005b8a:	4003      	ands	r3, r0
 8005b8c:	2b04      	cmp	r3, #4
 8005b8e:	d103      	bne.n	8005b98 <_printf_common+0x74>
 8005b90:	1a8d      	subs	r5, r1, r2
 8005b92:	43eb      	mvns	r3, r5
 8005b94:	17db      	asrs	r3, r3, #31
 8005b96:	401d      	ands	r5, r3
 8005b98:	68a3      	ldr	r3, [r4, #8]
 8005b9a:	6922      	ldr	r2, [r4, #16]
 8005b9c:	4293      	cmp	r3, r2
 8005b9e:	dd01      	ble.n	8005ba4 <_printf_common+0x80>
 8005ba0:	1a9b      	subs	r3, r3, r2
 8005ba2:	18ed      	adds	r5, r5, r3
 8005ba4:	2700      	movs	r7, #0
 8005ba6:	42bd      	cmp	r5, r7
 8005ba8:	d120      	bne.n	8005bec <_printf_common+0xc8>
 8005baa:	2000      	movs	r0, #0
 8005bac:	e010      	b.n	8005bd0 <_printf_common+0xac>
 8005bae:	3701      	adds	r7, #1
 8005bb0:	68e3      	ldr	r3, [r4, #12]
 8005bb2:	682a      	ldr	r2, [r5, #0]
 8005bb4:	1a9b      	subs	r3, r3, r2
 8005bb6:	42bb      	cmp	r3, r7
 8005bb8:	ddd2      	ble.n	8005b60 <_printf_common+0x3c>
 8005bba:	0022      	movs	r2, r4
 8005bbc:	2301      	movs	r3, #1
 8005bbe:	9901      	ldr	r1, [sp, #4]
 8005bc0:	9800      	ldr	r0, [sp, #0]
 8005bc2:	9e08      	ldr	r6, [sp, #32]
 8005bc4:	3219      	adds	r2, #25
 8005bc6:	47b0      	blx	r6
 8005bc8:	1c43      	adds	r3, r0, #1
 8005bca:	d1f0      	bne.n	8005bae <_printf_common+0x8a>
 8005bcc:	2001      	movs	r0, #1
 8005bce:	4240      	negs	r0, r0
 8005bd0:	bdfe      	pop	{r1, r2, r3, r4, r5, r6, r7, pc}
 8005bd2:	2030      	movs	r0, #48	; 0x30
 8005bd4:	18e1      	adds	r1, r4, r3
 8005bd6:	3143      	adds	r1, #67	; 0x43
 8005bd8:	7008      	strb	r0, [r1, #0]
 8005bda:	0021      	movs	r1, r4
 8005bdc:	1c5a      	adds	r2, r3, #1
 8005bde:	3145      	adds	r1, #69	; 0x45
 8005be0:	7809      	ldrb	r1, [r1, #0]
 8005be2:	18a2      	adds	r2, r4, r2
 8005be4:	3243      	adds	r2, #67	; 0x43
 8005be6:	3302      	adds	r3, #2
 8005be8:	7011      	strb	r1, [r2, #0]
 8005bea:	e7c1      	b.n	8005b70 <_printf_common+0x4c>
 8005bec:	0022      	movs	r2, r4
 8005bee:	2301      	movs	r3, #1
 8005bf0:	9901      	ldr	r1, [sp, #4]
 8005bf2:	9800      	ldr	r0, [sp, #0]
 8005bf4:	9e08      	ldr	r6, [sp, #32]
 8005bf6:	321a      	adds	r2, #26
 8005bf8:	47b0      	blx	r6
 8005bfa:	1c43      	adds	r3, r0, #1
 8005bfc:	d0e6      	beq.n	8005bcc <_printf_common+0xa8>
 8005bfe:	3701      	adds	r7, #1
 8005c00:	e7d1      	b.n	8005ba6 <_printf_common+0x82>
	...

08005c04 <_printf_i>:
 8005c04:	b5f0      	push	{r4, r5, r6, r7, lr}
 8005c06:	b08b      	sub	sp, #44	; 0x2c
 8005c08:	9206      	str	r2, [sp, #24]
 8005c0a:	000a      	movs	r2, r1
 8005c0c:	3243      	adds	r2, #67	; 0x43
 8005c0e:	9307      	str	r3, [sp, #28]
 8005c10:	9005      	str	r0, [sp, #20]
 8005c12:	9204      	str	r2, [sp, #16]
 8005c14:	7e0a      	ldrb	r2, [r1, #24]
 8005c16:	000c      	movs	r4, r1
 8005c18:	9b10      	ldr	r3, [sp, #64]	; 0x40
 8005c1a:	2a78      	cmp	r2, #120	; 0x78
 8005c1c:	d807      	bhi.n	8005c2e <_printf_i+0x2a>
 8005c1e:	2a62      	cmp	r2, #98	; 0x62
 8005c20:	d809      	bhi.n	8005c36 <_printf_i+0x32>
 8005c22:	2a00      	cmp	r2, #0
 8005c24:	d100      	bne.n	8005c28 <_printf_i+0x24>
 8005c26:	e0c1      	b.n	8005dac <_printf_i+0x1a8>
 8005c28:	2a58      	cmp	r2, #88	; 0x58
 8005c2a:	d100      	bne.n	8005c2e <_printf_i+0x2a>
 8005c2c:	e08c      	b.n	8005d48 <_printf_i+0x144>
 8005c2e:	0026      	movs	r6, r4
 8005c30:	3642      	adds	r6, #66	; 0x42
 8005c32:	7032      	strb	r2, [r6, #0]
 8005c34:	e022      	b.n	8005c7c <_printf_i+0x78>
 8005c36:	0010      	movs	r0, r2
 8005c38:	3863      	subs	r0, #99	; 0x63
 8005c3a:	2815      	cmp	r0, #21
 8005c3c:	d8f7      	bhi.n	8005c2e <_printf_i+0x2a>
 8005c3e:	f7fa fa63 	bl	8000108 <__gnu_thumb1_case_shi>
 8005c42:	0016      	.short	0x0016
 8005c44:	fff6001f 	.word	0xfff6001f
 8005c48:	fff6fff6 	.word	0xfff6fff6
 8005c4c:	001ffff6 	.word	0x001ffff6
 8005c50:	fff6fff6 	.word	0xfff6fff6
 8005c54:	fff6fff6 	.word	0xfff6fff6
 8005c58:	003600a8 	.word	0x003600a8
 8005c5c:	fff6009a 	.word	0xfff6009a
 8005c60:	00b9fff6 	.word	0x00b9fff6
 8005c64:	0036fff6 	.word	0x0036fff6
 8005c68:	fff6fff6 	.word	0xfff6fff6
 8005c6c:	009e      	.short	0x009e
 8005c6e:	0026      	movs	r6, r4
 8005c70:	681a      	ldr	r2, [r3, #0]
 8005c72:	3642      	adds	r6, #66	; 0x42
 8005c74:	1d11      	adds	r1, r2, #4
 8005c76:	6019      	str	r1, [r3, #0]
 8005c78:	6813      	ldr	r3, [r2, #0]
 8005c7a:	7033      	strb	r3, [r6, #0]
 8005c7c:	2301      	movs	r3, #1
 8005c7e:	e0a7      	b.n	8005dd0 <_printf_i+0x1cc>
 8005c80:	6808      	ldr	r0, [r1, #0]
 8005c82:	6819      	ldr	r1, [r3, #0]
 8005c84:	1d0a      	adds	r2, r1, #4
 8005c86:	0605      	lsls	r5, r0, #24
 8005c88:	d50b      	bpl.n	8005ca2 <_printf_i+0x9e>
 8005c8a:	680d      	ldr	r5, [r1, #0]
 8005c8c:	601a      	str	r2, [r3, #0]
 8005c8e:	2d00      	cmp	r5, #0
 8005c90:	da03      	bge.n	8005c9a <_printf_i+0x96>
 8005c92:	232d      	movs	r3, #45	; 0x2d
 8005c94:	9a04      	ldr	r2, [sp, #16]
 8005c96:	426d      	negs	r5, r5
 8005c98:	7013      	strb	r3, [r2, #0]
 8005c9a:	4b61      	ldr	r3, [pc, #388]	; (8005e20 <_printf_i+0x21c>)
 8005c9c:	270a      	movs	r7, #10
 8005c9e:	9303      	str	r3, [sp, #12]
 8005ca0:	e01b      	b.n	8005cda <_printf_i+0xd6>
 8005ca2:	680d      	ldr	r5, [r1, #0]
 8005ca4:	601a      	str	r2, [r3, #0]
 8005ca6:	0641      	lsls	r1, r0, #25
 8005ca8:	d5f1      	bpl.n	8005c8e <_printf_i+0x8a>
 8005caa:	b22d      	sxth	r5, r5
 8005cac:	e7ef      	b.n	8005c8e <_printf_i+0x8a>
 8005cae:	680d      	ldr	r5, [r1, #0]
 8005cb0:	6819      	ldr	r1, [r3, #0]
 8005cb2:	1d08      	adds	r0, r1, #4
 8005cb4:	6018      	str	r0, [r3, #0]
 8005cb6:	062e      	lsls	r6, r5, #24
 8005cb8:	d501      	bpl.n	8005cbe <_printf_i+0xba>
 8005cba:	680d      	ldr	r5, [r1, #0]
 8005cbc:	e003      	b.n	8005cc6 <_printf_i+0xc2>
 8005cbe:	066d      	lsls	r5, r5, #25
 8005cc0:	d5fb      	bpl.n	8005cba <_printf_i+0xb6>
 8005cc2:	680d      	ldr	r5, [r1, #0]
 8005cc4:	b2ad      	uxth	r5, r5
 8005cc6:	4b56      	ldr	r3, [pc, #344]	; (8005e20 <_printf_i+0x21c>)
 8005cc8:	2708      	movs	r7, #8
 8005cca:	9303      	str	r3, [sp, #12]
 8005ccc:	2a6f      	cmp	r2, #111	; 0x6f
 8005cce:	d000      	beq.n	8005cd2 <_printf_i+0xce>
 8005cd0:	3702      	adds	r7, #2
 8005cd2:	0023      	movs	r3, r4
 8005cd4:	2200      	movs	r2, #0
 8005cd6:	3343      	adds	r3, #67	; 0x43
 8005cd8:	701a      	strb	r2, [r3, #0]
 8005cda:	6863      	ldr	r3, [r4, #4]
 8005cdc:	60a3      	str	r3, [r4, #8]
 8005cde:	2b00      	cmp	r3, #0
 8005ce0:	db03      	blt.n	8005cea <_printf_i+0xe6>
 8005ce2:	2204      	movs	r2, #4
 8005ce4:	6821      	ldr	r1, [r4, #0]
 8005ce6:	4391      	bics	r1, r2
 8005ce8:	6021      	str	r1, [r4, #0]
 8005cea:	2d00      	cmp	r5, #0
 8005cec:	d102      	bne.n	8005cf4 <_printf_i+0xf0>
 8005cee:	9e04      	ldr	r6, [sp, #16]
 8005cf0:	2b00      	cmp	r3, #0
 8005cf2:	d00c      	beq.n	8005d0e <_printf_i+0x10a>
 8005cf4:	9e04      	ldr	r6, [sp, #16]
 8005cf6:	0028      	movs	r0, r5
 8005cf8:	0039      	movs	r1, r7
 8005cfa:	f7fa fa95 	bl	8000228 <__aeabi_uidivmod>
 8005cfe:	9b03      	ldr	r3, [sp, #12]
 8005d00:	3e01      	subs	r6, #1
 8005d02:	5c5b      	ldrb	r3, [r3, r1]
 8005d04:	7033      	strb	r3, [r6, #0]
 8005d06:	002b      	movs	r3, r5
 8005d08:	0005      	movs	r5, r0
 8005d0a:	429f      	cmp	r7, r3
 8005d0c:	d9f3      	bls.n	8005cf6 <_printf_i+0xf2>
 8005d0e:	2f08      	cmp	r7, #8
 8005d10:	d109      	bne.n	8005d26 <_printf_i+0x122>
 8005d12:	6823      	ldr	r3, [r4, #0]
 8005d14:	07db      	lsls	r3, r3, #31
 8005d16:	d506      	bpl.n	8005d26 <_printf_i+0x122>
 8005d18:	6863      	ldr	r3, [r4, #4]
 8005d1a:	6922      	ldr	r2, [r4, #16]
 8005d1c:	4293      	cmp	r3, r2
 8005d1e:	dc02      	bgt.n	8005d26 <_printf_i+0x122>
 8005d20:	2330      	movs	r3, #48	; 0x30
 8005d22:	3e01      	subs	r6, #1
 8005d24:	7033      	strb	r3, [r6, #0]
 8005d26:	9b04      	ldr	r3, [sp, #16]
 8005d28:	1b9b      	subs	r3, r3, r6
 8005d2a:	6123      	str	r3, [r4, #16]
 8005d2c:	9b07      	ldr	r3, [sp, #28]
 8005d2e:	0021      	movs	r1, r4
 8005d30:	9300      	str	r3, [sp, #0]
 8005d32:	9805      	ldr	r0, [sp, #20]
 8005d34:	9b06      	ldr	r3, [sp, #24]
 8005d36:	aa09      	add	r2, sp, #36	; 0x24
 8005d38:	f7ff fef4 	bl	8005b24 <_printf_common>
 8005d3c:	1c43      	adds	r3, r0, #1
 8005d3e:	d14c      	bne.n	8005dda <_printf_i+0x1d6>
 8005d40:	2001      	movs	r0, #1
 8005d42:	4240      	negs	r0, r0
 8005d44:	b00b      	add	sp, #44	; 0x2c
 8005d46:	bdf0      	pop	{r4, r5, r6, r7, pc}
 8005d48:	3145      	adds	r1, #69	; 0x45
 8005d4a:	700a      	strb	r2, [r1, #0]
 8005d4c:	4a34      	ldr	r2, [pc, #208]	; (8005e20 <_printf_i+0x21c>)
 8005d4e:	9203      	str	r2, [sp, #12]
 8005d50:	681a      	ldr	r2, [r3, #0]
 8005d52:	6821      	ldr	r1, [r4, #0]
 8005d54:	ca20      	ldmia	r2!, {r5}
 8005d56:	601a      	str	r2, [r3, #0]
 8005d58:	0608      	lsls	r0, r1, #24
 8005d5a:	d516      	bpl.n	8005d8a <_printf_i+0x186>
 8005d5c:	07cb      	lsls	r3, r1, #31
 8005d5e:	d502      	bpl.n	8005d66 <_printf_i+0x162>
 8005d60:	2320      	movs	r3, #32
 8005d62:	4319      	orrs	r1, r3
 8005d64:	6021      	str	r1, [r4, #0]
 8005d66:	2710      	movs	r7, #16
 8005d68:	2d00      	cmp	r5, #0
 8005d6a:	d1b2      	bne.n	8005cd2 <_printf_i+0xce>
 8005d6c:	2320      	movs	r3, #32
 8005d6e:	6822      	ldr	r2, [r4, #0]
 8005d70:	439a      	bics	r2, r3
 8005d72:	6022      	str	r2, [r4, #0]
 8005d74:	e7ad      	b.n	8005cd2 <_printf_i+0xce>
 8005d76:	2220      	movs	r2, #32
 8005d78:	6809      	ldr	r1, [r1, #0]
 8005d7a:	430a      	orrs	r2, r1
 8005d7c:	6022      	str	r2, [r4, #0]
 8005d7e:	0022      	movs	r2, r4
 8005d80:	2178      	movs	r1, #120	; 0x78
 8005d82:	3245      	adds	r2, #69	; 0x45
 8005d84:	7011      	strb	r1, [r2, #0]
 8005d86:	4a27      	ldr	r2, [pc, #156]	; (8005e24 <_printf_i+0x220>)
 8005d88:	e7e1      	b.n	8005d4e <_printf_i+0x14a>
 8005d8a:	0648      	lsls	r0, r1, #25
 8005d8c:	d5e6      	bpl.n	8005d5c <_printf_i+0x158>
 8005d8e:	b2ad      	uxth	r5, r5
 8005d90:	e7e4      	b.n	8005d5c <_printf_i+0x158>
 8005d92:	681a      	ldr	r2, [r3, #0]
 8005d94:	680d      	ldr	r5, [r1, #0]
 8005d96:	1d10      	adds	r0, r2, #4
 8005d98:	6949      	ldr	r1, [r1, #20]
 8005d9a:	6018      	str	r0, [r3, #0]
 8005d9c:	6813      	ldr	r3, [r2, #0]
 8005d9e:	062e      	lsls	r6, r5, #24
 8005da0:	d501      	bpl.n	8005da6 <_printf_i+0x1a2>
 8005da2:	6019      	str	r1, [r3, #0]
 8005da4:	e002      	b.n	8005dac <_printf_i+0x1a8>
 8005da6:	066d      	lsls	r5, r5, #25
 8005da8:	d5fb      	bpl.n	8005da2 <_printf_i+0x19e>
 8005daa:	8019      	strh	r1, [r3, #0]
 8005dac:	2300      	movs	r3, #0
 8005dae:	9e04      	ldr	r6, [sp, #16]
 8005db0:	6123      	str	r3, [r4, #16]
 8005db2:	e7bb      	b.n	8005d2c <_printf_i+0x128>
 8005db4:	681a      	ldr	r2, [r3, #0]
 8005db6:	1d11      	adds	r1, r2, #4
 8005db8:	6019      	str	r1, [r3, #0]
 8005dba:	6816      	ldr	r6, [r2, #0]
 8005dbc:	2100      	movs	r1, #0
 8005dbe:	0030      	movs	r0, r6
 8005dc0:	6862      	ldr	r2, [r4, #4]
 8005dc2:	f000 f833 	bl	8005e2c <memchr>
 8005dc6:	2800      	cmp	r0, #0
 8005dc8:	d001      	beq.n	8005dce <_printf_i+0x1ca>
 8005dca:	1b80      	subs	r0, r0, r6
 8005dcc:	6060      	str	r0, [r4, #4]
 8005dce:	6863      	ldr	r3, [r4, #4]
 8005dd0:	6123      	str	r3, [r4, #16]
 8005dd2:	2300      	movs	r3, #0
 8005dd4:	9a04      	ldr	r2, [sp, #16]
 8005dd6:	7013      	strb	r3, [r2, #0]
 8005dd8:	e7a8      	b.n	8005d2c <_printf_i+0x128>
 8005dda:	6923      	ldr	r3, [r4, #16]
 8005ddc:	0032      	movs	r2, r6
 8005dde:	9906      	ldr	r1, [sp, #24]
 8005de0:	9805      	ldr	r0, [sp, #20]
 8005de2:	9d07      	ldr	r5, [sp, #28]
 8005de4:	47a8      	blx	r5
 8005de6:	1c43      	adds	r3, r0, #1
 8005de8:	d0aa      	beq.n	8005d40 <_printf_i+0x13c>
 8005dea:	6823      	ldr	r3, [r4, #0]
 8005dec:	079b      	lsls	r3, r3, #30
 8005dee:	d415      	bmi.n	8005e1c <_printf_i+0x218>
 8005df0:	9b09      	ldr	r3, [sp, #36]	; 0x24
 8005df2:	68e0      	ldr	r0, [r4, #12]
 8005df4:	4298      	cmp	r0, r3
 8005df6:	daa5      	bge.n	8005d44 <_printf_i+0x140>
 8005df8:	0018      	movs	r0, r3
 8005dfa:	e7a3      	b.n	8005d44 <_printf_i+0x140>
 8005dfc:	0022      	movs	r2, r4
 8005dfe:	2301      	movs	r3, #1
 8005e00:	9906      	ldr	r1, [sp, #24]
 8005e02:	9805      	ldr	r0, [sp, #20]
 8005e04:	9e07      	ldr	r6, [sp, #28]
 8005e06:	3219      	adds	r2, #25
 8005e08:	47b0      	blx	r6
 8005e0a:	1c43      	adds	r3, r0, #1
 8005e0c:	d098      	beq.n	8005d40 <_printf_i+0x13c>
 8005e0e:	3501      	adds	r5, #1
 8005e10:	68e3      	ldr	r3, [r4, #12]
 8005e12:	9a09      	ldr	r2, [sp, #36]	; 0x24
 8005e14:	1a9b      	subs	r3, r3, r2
 8005e16:	42ab      	cmp	r3, r5
 8005e18:	dcf0      	bgt.n	8005dfc <_printf_i+0x1f8>
 8005e1a:	e7e9      	b.n	8005df0 <_printf_i+0x1ec>
 8005e1c:	2500      	movs	r5, #0
 8005e1e:	e7f7      	b.n	8005e10 <_printf_i+0x20c>
 8005e20:	08006019 	.word	0x08006019
 8005e24:	0800602a 	.word	0x0800602a

08005e28 <__retarget_lock_acquire_recursive>:
 8005e28:	4770      	bx	lr

08005e2a <__retarget_lock_release_recursive>:
 8005e2a:	4770      	bx	lr

08005e2c <memchr>:
 8005e2c:	b2c9      	uxtb	r1, r1
 8005e2e:	1882      	adds	r2, r0, r2
 8005e30:	4290      	cmp	r0, r2
 8005e32:	d101      	bne.n	8005e38 <memchr+0xc>
 8005e34:	2000      	movs	r0, #0
 8005e36:	4770      	bx	lr
 8005e38:	7803      	ldrb	r3, [r0, #0]
 8005e3a:	428b      	cmp	r3, r1
 8005e3c:	d0fb      	beq.n	8005e36 <memchr+0xa>
 8005e3e:	3001      	adds	r0, #1
 8005e40:	e7f6      	b.n	8005e30 <memchr+0x4>

08005e42 <memcpy>:
 8005e42:	2300      	movs	r3, #0
 8005e44:	b510      	push	{r4, lr}
 8005e46:	429a      	cmp	r2, r3
 8005e48:	d100      	bne.n	8005e4c <memcpy+0xa>
 8005e4a:	bd10      	pop	{r4, pc}
 8005e4c:	5ccc      	ldrb	r4, [r1, r3]
 8005e4e:	54c4      	strb	r4, [r0, r3]
 8005e50:	3301      	adds	r3, #1
 8005e52:	e7f8      	b.n	8005e46 <memcpy+0x4>

08005e54 <memmove>:
 8005e54:	b510      	push	{r4, lr}
 8005e56:	4288      	cmp	r0, r1
 8005e58:	d902      	bls.n	8005e60 <memmove+0xc>
 8005e5a:	188b      	adds	r3, r1, r2
 8005e5c:	4298      	cmp	r0, r3
 8005e5e:	d303      	bcc.n	8005e68 <memmove+0x14>
 8005e60:	2300      	movs	r3, #0
 8005e62:	e007      	b.n	8005e74 <memmove+0x20>
 8005e64:	5c8b      	ldrb	r3, [r1, r2]
 8005e66:	5483      	strb	r3, [r0, r2]
 8005e68:	3a01      	subs	r2, #1
 8005e6a:	d2fb      	bcs.n	8005e64 <memmove+0x10>
 8005e6c:	bd10      	pop	{r4, pc}
 8005e6e:	5ccc      	ldrb	r4, [r1, r3]
 8005e70:	54c4      	strb	r4, [r0, r3]
 8005e72:	3301      	adds	r3, #1
 8005e74:	429a      	cmp	r2, r3
 8005e76:	d1fa      	bne.n	8005e6e <memmove+0x1a>
 8005e78:	e7f8      	b.n	8005e6c <memmove+0x18>

08005e7a <_realloc_r>:
 8005e7a:	b5f7      	push	{r0, r1, r2, r4, r5, r6, r7, lr}
 8005e7c:	0007      	movs	r7, r0
 8005e7e:	000e      	movs	r6, r1
 8005e80:	0014      	movs	r4, r2
 8005e82:	2900      	cmp	r1, #0
 8005e84:	d105      	bne.n	8005e92 <_realloc_r+0x18>
 8005e86:	0011      	movs	r1, r2
 8005e88:	f7ff fc32 	bl	80056f0 <_malloc_r>
 8005e8c:	0005      	movs	r5, r0
 8005e8e:	0028      	movs	r0, r5
 8005e90:	bdfe      	pop	{r1, r2, r3, r4, r5, r6, r7, pc}
 8005e92:	2a00      	cmp	r2, #0
 8005e94:	d103      	bne.n	8005e9e <_realloc_r+0x24>
 8005e96:	f7ff fbbf 	bl	8005618 <_free_r>
 8005e9a:	0025      	movs	r5, r4
 8005e9c:	e7f7      	b.n	8005e8e <_realloc_r+0x14>
 8005e9e:	f000 f81b 	bl	8005ed8 <_malloc_usable_size_r>
 8005ea2:	9001      	str	r0, [sp, #4]
 8005ea4:	4284      	cmp	r4, r0
 8005ea6:	d803      	bhi.n	8005eb0 <_realloc_r+0x36>
 8005ea8:	0035      	movs	r5, r6
 8005eaa:	0843      	lsrs	r3, r0, #1
 8005eac:	42a3      	cmp	r3, r4
 8005eae:	d3ee      	bcc.n	8005e8e <_realloc_r+0x14>
 8005eb0:	0021      	movs	r1, r4
 8005eb2:	0038      	movs	r0, r7
 8005eb4:	f7ff fc1c 	bl	80056f0 <_malloc_r>
 8005eb8:	1e05      	subs	r5, r0, #0
 8005eba:	d0e8      	beq.n	8005e8e <_realloc_r+0x14>
 8005ebc:	9b01      	ldr	r3, [sp, #4]
 8005ebe:	0022      	movs	r2, r4
 8005ec0:	429c      	cmp	r4, r3
 8005ec2:	d900      	bls.n	8005ec6 <_realloc_r+0x4c>
 8005ec4:	001a      	movs	r2, r3
 8005ec6:	0031      	movs	r1, r6
 8005ec8:	0028      	movs	r0, r5
 8005eca:	f7ff ffba 	bl	8005e42 <memcpy>
 8005ece:	0031      	movs	r1, r6
 8005ed0:	0038      	movs	r0, r7
 8005ed2:	f7ff fba1 	bl	8005618 <_free_r>
 8005ed6:	e7da      	b.n	8005e8e <_realloc_r+0x14>

08005ed8 <_malloc_usable_size_r>:
 8005ed8:	1f0b      	subs	r3, r1, #4
 8005eda:	681b      	ldr	r3, [r3, #0]
 8005edc:	1f18      	subs	r0, r3, #4
 8005ede:	2b00      	cmp	r3, #0
 8005ee0:	da01      	bge.n	8005ee6 <_malloc_usable_size_r+0xe>
 8005ee2:	580b      	ldr	r3, [r1, r0]
 8005ee4:	18c0      	adds	r0, r0, r3
 8005ee6:	4770      	bx	lr

08005ee8 <_init>:
 8005ee8:	b5f8      	push	{r3, r4, r5, r6, r7, lr}
 8005eea:	46c0      	nop			; (mov r8, r8)
 8005eec:	bcf8      	pop	{r3, r4, r5, r6, r7}
 8005eee:	bc08      	pop	{r3}
 8005ef0:	469e      	mov	lr, r3
 8005ef2:	4770      	bx	lr

08005ef4 <_fini>:
 8005ef4:	b5f8      	push	{r3, r4, r5, r6, r7, lr}
 8005ef6:	46c0      	nop			; (mov r8, r8)
 8005ef8:	bcf8      	pop	{r3, r4, r5, r6, r7}
 8005efa:	bc08      	pop	{r3}
 8005efc:	469e      	mov	lr, r3
 8005efe:	4770      	bx	lr
